_WKURLRequestSetDefaultTimeoutInterval
__ZN6WebKit13WebURLRequest25setDefaultTimeoutIntervalEd
__ZN6WebKit10WebContext11allContextsEv
__ZN6WebKitL8contextsEv
_WKStringCreateWithCFString
__ZN6WebKit9WebStringC2ERKN3WTF6StringE
_WKContextCreateWithInjectedBundlePath
__ZN6WebKit10WebContext6createERKN3WTF6StringE
__ZN7RunLoop21initializeMainRunLoopEv
__ZN7RunLoop7currentEv
__ZN7RunLoopC1Ev
__ZN7RunLoopC2Ev
__ZN6WebKit10WebContextC2ENS_12ProcessModelERKN3WTF6StringE
__ZN6WebKit12WebPageGroup6createERKN3WTF6StringEbb
__ZN6WebKit12WebPageGroupC2ERKN3WTF6StringEbb
__ZN3WTF10makeStringIPKcNS_6StringEEES3_T_T0_
__ZN3WTF13tryMakeStringIPKcNS_6StringEEENS_10PassRefPtrINS_10StringImplEEET_T0_
__ZN3WTF6StringaSERKS0_
__ZN6WebKitL15webPageGroupMapEv
__ZN3WTF7HashMapIyPN6WebKit12WebPageGroupENS_7IntHashIyEENS_10HashTraitsIyEENS6_IS3_EEE3setERKyRKS3_
__ZN6WebKit15PluginInfoStoreC1Ev
__ZN6WebKit19VisitedLinkProviderC1EPNS_10WebContextE
__ZN6WebKit19VisitedLinkProviderC2EPNS_10WebContextE
__ZN6WebKit16VisitedLinkTableC1Ev
__ZN7RunLoop4mainEv
__ZN7RunLoop9TimerBaseC2EPS_
__ZN6WebKit31WebApplicationCacheManagerProxy6createEPNS_10WebContextE
__ZN6WebKit21WebCookieManagerProxy6createEPNS_10WebContextE
__ZN6WebKit23WebDatabaseManagerProxy6createEPNS_10WebContextE
__ZN6WebKit26WebGeolocationManagerProxy6createEPNS_10WebContextE
__ZN6WebKit15WebIconDatabase6createEPNS_10WebContextE
__ZN6WebKit30WebKeyValueStorageManagerProxy6createEPNS_10WebContextE
__ZN6WebKit25WebMediaCacheManagerProxy6createEPNS_10WebContextE
__ZN6WebKit24WebPluginSiteDataManager6createEPNS_10WebContextE
__ZN6WebKit28WebResourceCacheManagerProxy6createEPNS_10WebContextE
__ZN3WTF6VectorIPN6WebKit10WebContextELm0EE14expandCapacityEmPKS3_
__ZN3WTF6VectorIPN6WebKit10WebContextELm0EE15reserveCapacityEm
__ZN3WTF16VectorBufferBaseIPN6WebKit10WebContextEE14allocateBufferEm
_WKRetain
_WKRelease
__ZN3WTF10RefCountedIN6WebKit9APIObjectEE5derefEv
_WKContextSetIconDatabasePath
__ZN6WebKit10WebContext19setIconDatabasePathERKN3WTF6StringE
__ZN6WebKit15WebIconDatabase15setDatabasePathERKN3WTF6StringE
__ZN6WebKit9WebStringD0Ev
_WKContextGetIconDatabase
_WKIconDatabaseSetIconDatabaseClient
__ZN6WebKit15WebIconDatabase28initializeIconDatabaseClientEPK20WKIconDatabaseClient
_WKPageGroupCreateWithIdentifier
_WKMutableDictionaryCreate
__ZN6WebKit17MutableDictionaryC1Ev
__ZN6WebKit19ImmutableDictionaryC2Ev
_WKDictionarySetItem
__ZN6WebKit17MutableDictionary3setERKN3WTF6StringEPNS_9APIObjectE
__ZN3WTF7HashMapINS_6StringENS_6RefPtrIN6WebKit9APIObjectEEENS_10StringHashENS_10HashTraitsIS1_EENS7_IS5_EEE3setERKS1_RKS5_
__ZN3WTF9HashTableINS_6StringESt4pairIS1_NS_6RefPtrIN6WebKit9APIObjectEEEENS_18PairFirstExtractorIS7_EENS_10StringHashENS_14PairHashTraitsINS_10HashTraitsIS1_EENSC_IS6_EEEESD_E15deallocateTableEPS7_i
__ZN3WTF9HashTableINS_6StringESt4pairIS1_NS_6RefPtrIN6WebKit9APIObjectEEEENS_18PairFirstExtractorIS7_EENS_10StringHashENS_14PairHashTraitsINS_10HashTraitsIS1_EENSC_IS6_EEEESD_E16lookupForWritingIS1_NS_22IdentityHashTranslatorIS1_S7_SA_EEEES2_IPS7_bERKT_
__ZN3WTF9HashTableINS_6StringESt4pairIS1_NS_6RefPtrIN6WebKit9APIObjectEEEENS_18PairFirstExtractorIS7_EENS_10StringHashENS_14PairHashTraitsINS_10HashTraitsIS1_EENSC_IS6_EEEESD_E3addIS1_S6_NS_17HashMapTranslatorIS7_SF_SA_EEEES2_INS_17HashTableIteratorIS1_S7_S9_SA_SF_SD_EEbERKT_RKT0_
__ZN3WTF9HashTableINS_6StringESt4pairIS1_NS_6RefPtrIN6WebKit9APIObjectEEEENS_18PairFirstExtractorIS7_EENS_10StringHashENS_14PairHashTraitsINS_10HashTraitsIS1_EENSC_IS6_EEEESD_E4findIS1_NS_22IdentityHashTranslatorIS1_S7_SA_EEEENS_17HashTableIteratorIS1_S7_S9_SA_SF_SD_EERKT_
__ZN3WTF9HashTableINS_6StringESt4pairIS1_NS_6RefPtrIN6WebKit9APIObjectEEEENS_18PairFirstExtractorIS7_EENS_10StringHashENS_14PairHashTraitsINS_10HashTraitsIS1_EENSC_IS6_EEEESD_E6expandEv
__ZN3WTF9HashTableINS_6StringESt4pairIS1_NS_6RefPtrIN6WebKit9APIObjectEEEENS_18PairFirstExtractorIS7_EENS_10StringHashENS_14PairHashTraitsINS_10HashTraitsIS1_EENSC_IS6_EEEESD_E6lookupERKS1_
__ZN3WTF9HashTableINS_6StringESt4pairIS1_NS_6RefPtrIN6WebKit9APIObjectEEEENS_18PairFirstExtractorIS7_EENS_10StringHashENS_14PairHashTraitsINS_10HashTraitsIS1_EENSC_IS6_EEEESD_E6rehashEi
__ZN3WTF9HashTableINS_6StringESt4pairIS1_NS_6RefPtrIN6WebKit9APIObjectEEEENS_18PairFirstExtractorIS7_EENS_10StringHashENS_14PairHashTraitsINS_10HashTraitsIS1_EENSC_IS6_EEEESD_E6removeEPS7_
__ZNK3WTF10StringImpl4hashEv
__ZN3WTF17HashMapTranslatorISt4pairINS_6StringENS_6RefPtrIN6WebKit9APIObjectEEEENS_14PairHashTraitsINS_10HashTraitsIS2_EENS9_IS6_EEEENS_10StringHashEE9translateERS7_RKS2_RKS6_
_WKContextSetInitializationUserDataForInjectedBundle
_WKPageGroupGetPreferences
__ZNK6WebKit12WebPageGroup11preferencesEv
__ZN6WebKit14WebPreferencesC1ERKN3WTF6StringE
__ZN6WebKit14WebPreferencesC2ERKN3WTF6StringE
__ZN6WebKit19WebPreferencesStoreC1Ev
__ZN6WebKit14WebPreferences23platformInitializeStoreEv
__ZN6WebKit17WebPreferencesKey20javaScriptEnabledKeyEv
__ZN6WebKitL28setBoolValueIfInUserDefaultsERKN3WTF6StringES3_RNS_19WebPreferencesStoreE
__ZN6WebKitL7makeKeyERKN3WTF6StringES3_
__ZN3WTF10makeStringINS_6StringEPKcS1_EES1_T_T0_T1_
__ZN3WTF13tryMakeStringINS_6StringEPKcS1_EENS_10PassRefPtrINS_10StringImplEEET_T0_T1_
__ZN6WebKit25nsStringFromWebCoreStringERKN3WTF6StringE
__ZN6WebKit5toAPIEPN3WTF10StringImplE
__ZN6WebKit9WebString6createERKN3WTF6StringE
_WKStringCopyCFString
__ZN6WebKit17WebPreferencesKey27loadsImagesAutomaticallyKeyEv
__ZN6WebKit17WebPreferencesKey47loadsSiteIconsIgnoringImageLoadingPreferenceKeyEv
__ZN6WebKit17WebPreferencesKey17pluginsEnabledKeyEv
__ZN6WebKit19WebPreferencesStore18setBoolValueForKeyERKN3WTF6StringEb
__ZN6WebKitL11valueForKeyIN3WTF7HashMapINS1_6StringEbNS1_10StringHashENS1_10HashTraitsIS3_EENS5_IbEEEEEENT_10MappedTypeERKS9_RKNS9_7KeyTypeE
__ZNK3WTF9HashTableINS_6StringESt4pairIS1_bENS_18PairFirstExtractorIS3_EENS_10StringHashENS_14PairHashTraitsINS_10HashTraitsIS1_EENS8_IbEEEES9_E4findIS1_NS_22IdentityHashTranslatorIS1_S3_S6_EEEENS_22HashTableConstIteratorIS1_S3_S5_S6_SB_S9_EERKT_
__ZN6WebKit18defaultValueForKeyIbEET_RKN3WTF6StringE
__ZN3WTF7HashMapINS_6StringEbNS_10StringHashENS_10HashTraitsIS1_EENS3_IbEEE3setERKS1_RKb
__ZN3WTF9HashTableINS_6StringESt4pairIS1_bENS_18PairFirstExtractorIS3_EENS_10StringHashENS_14PairHashTraitsINS_10HashTraitsIS1_EENS8_IbEEEES9_E15deallocateTableEPS3_i
__ZN3WTF9HashTableINS_6StringESt4pairIS1_bENS_18PairFirstExtractorIS3_EENS_10StringHashENS_14PairHashTraitsINS_10HashTraitsIS1_EENS8_IbEEEES9_E16lookupForWritingIS1_NS_22IdentityHashTranslatorIS1_S3_S6_EEEES2_IPS3_bERKT_
__ZN3WTF9HashTableINS_6StringESt4pairIS1_bENS_18PairFirstExtractorIS3_EENS_10StringHashENS_14PairHashTraitsINS_10HashTraitsIS1_EENS8_IbEEEES9_E3addIS1_S3_NS_22IdentityHashTranslatorIS1_S3_S6_EEEES2_INS_17HashTableIteratorIS1_S3_S5_S6_SB_S9_EEbERKT_RKT0_
__ZN3WTF9HashTableINS_6StringESt4pairIS1_bENS_18PairFirstExtractorIS3_EENS_10StringHashENS_14PairHashTraitsINS_10HashTraitsIS1_EENS8_IbEEEES9_E3addIS1_bNS_17HashMapTranslatorIS3_SB_S6_EEEES2_INS_17HashTableIteratorIS1_S3_S5_S6_SB_S9_EEbERKT_RKT0_
__ZN3WTF9HashTableINS_6StringESt4pairIS1_bENS_18PairFirstExtractorIS3_EENS_10StringHashENS_14PairHashTraitsINS_10HashTraitsIS1_EENS8_IbEEEES9_E4findIS1_NS_22IdentityHashTranslatorIS1_S3_S6_EEEENS_17HashTableIteratorIS1_S3_S5_S6_SB_S9_EERKT_
__ZN3WTF9HashTableINS_6StringESt4pairIS1_bENS_18PairFirstExtractorIS3_EENS_10StringHashENS_14PairHashTraitsINS_10HashTraitsIS1_EENS8_IbEEEES9_E6expandEv
__ZN3WTF9HashTableINS_6StringESt4pairIS1_bENS_18PairFirstExtractorIS3_EENS_10StringHashENS_14PairHashTraitsINS_10HashTraitsIS1_EENS8_IbEEEES9_E6lookupERKS1_
__ZN3WTF9HashTableINS_6StringESt4pairIS1_bENS_18PairFirstExtractorIS3_EENS_10StringHashENS_14PairHashTraitsINS_10HashTraitsIS1_EENS8_IbEEEES9_E6rehashEi
__ZN3WTF9HashTableINS_6StringESt4pairIS1_bENS_18PairFirstExtractorIS3_EENS_10StringHashENS_14PairHashTraitsINS_10HashTraitsIS1_EENS8_IbEEEES9_EC2ERKSC_
__ZN3WTF9HashTableINS_6StringESt4pairIS1_bENS_18PairFirstExtractorIS3_EENS_10StringHashENS_14PairHashTraitsINS_10HashTraitsIS1_EENS8_IbEEEES9_EaSERKSC_
__ZN6WebKit17WebPreferencesKey14javaEnabledKeyEv
__ZN6WebKit17WebPreferencesKey36offlineWebApplicationCacheEnabledKeyEv
__ZN6WebKit17WebPreferencesKey22localStorageEnabledKeyEv
__ZN6WebKit17WebPreferencesKey19databasesEnabledKeyEv
__ZN6WebKit17WebPreferencesKey20xssAuditorEnabledKeyEv
__ZN6WebKit17WebPreferencesKey25frameFlatteningEnabledKeyEv
__ZN6WebKit17WebPreferencesKey25developerExtrasEnabledKeyEv
__ZN6WebKit17WebPreferencesKey25privateBrowsingEnabledKeyEv
__ZN6WebKit17WebPreferencesKey24textAreasAreResizableKeyEv
__ZN6WebKit17WebPreferencesKey40javaScriptCanOpenWindowsAutomaticallyKeyEv
__ZN6WebKit17WebPreferencesKey27hyperlinkAuditingEnabledKeyEv
__ZN6WebKit17WebPreferencesKey26needsSiteSpecificQuirksKeyEv
__ZN3WTF10StringHash5equalEPKNS_10StringImplES3_
__ZN6WebKit17WebPreferencesKey32acceleratedCompositingEnabledKeyEv
__ZN6WebKit17WebPreferencesKey28acceleratedDrawingEnabledKeyEv
__ZN6WebKit17WebPreferencesKey31canvasUsesAcceleratedDrawingKeyEv
__ZN6WebKit17WebPreferencesKey28compositingBordersVisibleKeyEv
__ZN6WebKit17WebPreferencesKey36compositingRepaintCountersVisibleKeyEv
__ZN6WebKit17WebPreferencesKey15webGLEnabledKeyEv
__ZN6WebKit17WebPreferencesKey28forceFTPDirectoryListingsKeyEv
__ZN6WebKit17WebPreferencesKey14tabsToLinksKeyEv
__ZN6WebKit17WebPreferencesKey24dnsPrefetchingEnabledKeyEv
__ZN6WebKit17WebPreferencesKey29webArchiveDebugModeEnabledKeyEv
__ZN6WebKit17WebPreferencesKey34localFileContentSniffingEnabledKeyEv
__ZN6WebKit17WebPreferencesKey16usesPageCacheKeyEv
__ZN6WebKit17WebPreferencesKey29authorAndUserStylesEnabledKeyEv
__ZN6WebKit17WebPreferencesKey30paginateDuringLayoutEnabledKeyEv
__ZN6WebKit17WebPreferencesKey18domPasteAllowedKeyEv
__ZN6WebKit17WebPreferencesKey31javaScriptCanAccessClipboardKeyEv
__ZNSt4pairIN3WTF6StringEbED1Ev
__ZN6WebKit17WebPreferencesKey25shouldPrintBackgroundsKeyEv
__ZN6WebKit17WebPreferencesKey20fullScreenEnabledKeyEv
__ZN6WebKit17WebPreferencesKey21webSecurityEnabledKeyEv
__ZN6WebKit17WebPreferencesKey35allowUniversalAccessFromFileURLsKeyEv
__ZN6WebKit17WebPreferencesKey30allowFileAccessFromFileURLsKeyEv
__ZN6WebKit17WebPreferencesKey24isAVFoundationEnabledKeyEv
__ZN6WebKit17WebPreferencesKey17pdfScaleFactorKeyEv
__ZN6WebKit17WebPreferencesKey21fontSmoothingLevelKeyEv
__ZN6WebKitL30setUInt32ValueIfInUserDefaultsERKN3WTF6StringES3_RNS_19WebPreferencesStoreE
__ZN6WebKit17WebPreferencesKey18minimumFontSizeKeyEv
__ZN6WebKit19WebPreferencesStore20setUInt32ValueForKeyERKN3WTF6StringEj
__ZN6WebKitL11valueForKeyIN3WTF7HashMapINS1_6StringEjNS1_10StringHashENS1_10HashTraitsIS3_EENS5_IjEEEEEENT_10MappedTypeERKS9_RKNS9_7KeyTypeE
__ZNK3WTF9HashTableINS_6StringESt4pairIS1_jENS_18PairFirstExtractorIS3_EENS_10StringHashENS_14PairHashTraitsINS_10HashTraitsIS1_EENS8_IjEEEES9_E4findIS1_NS_22IdentityHashTranslatorIS1_S3_S6_EEEENS_22HashTableConstIteratorIS1_S3_S5_S6_SB_S9_EERKT_
__ZN6WebKit18defaultValueForKeyIjEET_RKN3WTF6StringE
__ZN3WTF7HashMapINS_6StringEjNS_10StringHashENS_10HashTraitsIS1_EENS3_IjEEE3setERKS1_RKj
__ZN3WTF9HashTableINS_6StringESt4pairIS1_jENS_18PairFirstExtractorIS3_EENS_10StringHashENS_14PairHashTraitsINS_10HashTraitsIS1_EENS8_IjEEEES9_E15deallocateTableEPS3_i
__ZN3WTF9HashTableINS_6StringESt4pairIS1_jENS_18PairFirstExtractorIS3_EENS_10StringHashENS_14PairHashTraitsINS_10HashTraitsIS1_EENS8_IjEEEES9_E16lookupForWritingIS1_NS_22IdentityHashTranslatorIS1_S3_S6_EEEES2_IPS3_bERKT_
__ZN3WTF9HashTableINS_6StringESt4pairIS1_jENS_18PairFirstExtractorIS3_EENS_10StringHashENS_14PairHashTraitsINS_10HashTraitsIS1_EENS8_IjEEEES9_E3addIS1_S3_NS_22IdentityHashTranslatorIS1_S3_S6_EEEES2_INS_17HashTableIteratorIS1_S3_S5_S6_SB_S9_EEbERKT_RKT0_
__ZN3WTF9HashTableINS_6StringESt4pairIS1_jENS_18PairFirstExtractorIS3_EENS_10StringHashENS_14PairHashTraitsINS_10HashTraitsIS1_EENS8_IjEEEES9_E3addIS1_jNS_17HashMapTranslatorIS3_SB_S6_EEEES2_INS_17HashTableIteratorIS1_S3_S5_S6_SB_S9_EEbERKT_RKT0_
__ZN3WTF9HashTableINS_6StringESt4pairIS1_jENS_18PairFirstExtractorIS3_EENS_10StringHashENS_14PairHashTraitsINS_10HashTraitsIS1_EENS8_IjEEEES9_E4findIS1_NS_22IdentityHashTranslatorIS1_S3_S6_EEEENS_17HashTableIteratorIS1_S3_S5_S6_SB_S9_EERKT_
__ZN3WTF9HashTableINS_6StringESt4pairIS1_jENS_18PairFirstExtractorIS3_EENS_10StringHashENS_14PairHashTraitsINS_10HashTraitsIS1_EENS8_IjEEEES9_E6expandEv
__ZN3WTF9HashTableINS_6StringESt4pairIS1_jENS_18PairFirstExtractorIS3_EENS_10StringHashENS_14PairHashTraitsINS_10HashTraitsIS1_EENS8_IjEEEES9_E6lookupERKS1_
__ZN3WTF9HashTableINS_6StringESt4pairIS1_jENS_18PairFirstExtractorIS3_EENS_10StringHashENS_14PairHashTraitsINS_10HashTraitsIS1_EENS8_IjEEEES9_E6rehashEi
__ZN3WTF9HashTableINS_6StringESt4pairIS1_jENS_18PairFirstExtractorIS3_EENS_10StringHashENS_14PairHashTraitsINS_10HashTraitsIS1_EENS8_IjEEEES9_EC2ERKSC_
__ZN3WTF9HashTableINS_6StringESt4pairIS1_jENS_18PairFirstExtractorIS3_EENS_10StringHashENS_14PairHashTraitsINS_10HashTraitsIS1_EENS8_IjEEEES9_EaSERKSC_
__ZN6WebKit17WebPreferencesKey25minimumLogicalFontSizeKeyEv
__ZN6WebKit17WebPreferencesKey18defaultFontSizeKeyEv
__ZN6WebKit17WebPreferencesKey23defaultFixedFontSizeKeyEv
__ZN6WebKit17WebPreferencesKey17pdfDisplayModeKeyEv
__ZN6WebKit17WebPreferencesKey23editableLinkBehaviorKeyEv
__ZN6WebKit17WebPreferencesKey21standardFontFamilyKeyEv
__ZN6WebKitL30setStringValueIfInUserDefaultsERKN3WTF6StringES3_RNS_19WebPreferencesStoreE
__ZN6WebKit19WebPreferencesStore20setStringValueForKeyERKN3WTF6StringES4_
__ZN6WebKitL11valueForKeyIN3WTF7HashMapINS1_6StringES3_NS1_10StringHashENS1_10HashTraitsIS3_EES6_EEEENT_10MappedTypeERKS8_RKNS8_7KeyTypeE
__ZNK3WTF9HashTableINS_6StringESt4pairIS1_S1_ENS_18PairFirstExtractorIS3_EENS_10StringHashENS_14PairHashTraitsINS_10HashTraitsIS1_EES9_EES9_E4findIS1_NS_22IdentityHashTranslatorIS1_S3_S6_EEEENS_22HashTableConstIteratorIS1_S3_S5_S6_SA_S9_EERKT_
__ZN6WebKit18defaultValueForKeyIN3WTF6StringEEET_RKS2_
__ZN3WTF7HashMapINS_6StringES1_NS_10StringHashENS_10HashTraitsIS1_EES4_E3setERKS1_S7_
__ZN6WebKit17WebPreferencesKey20cursiveFontFamilyKeyEv
__ZN6WebKit17WebPreferencesKey20fantasyFontFamilyKeyEv
__ZN6WebKit17WebPreferencesKey18fixedFontFamilyKeyEv
__ZN6WebKit17WebPreferencesKey22sansSerifFontFamilyKeyEv
__ZN6WebKit17WebPreferencesKey18serifFontFamilyKeyEv
__ZN6WebKit17WebPreferencesKey26defaultTextEncodingNameKeyEv
__ZN6WebKit17WebPreferencesKey27ftpDirectoryTemplatePathKeyEv
__ZNK3WTF7HashMapINS_6StringES1_NS_10StringHashENS_10HashTraitsIS1_EES4_E3getERKS1_
__ZN6WebKit14WebPreferences12addPageGroupEPNS_12WebPageGroupE
__ZN3WTF9HashTableIPN6WebKit12WebPageGroupES3_NS_17IdentityExtractorIS3_EENS_7PtrHashIS3_EENS_10HashTraitsIS3_EES9_E3addIS3_S3_NS_22IdentityHashTranslatorIS3_S3_S7_EEEESt4pairINS_17HashTableIteratorIS3_S3_S5_S7_S9_S9_EEbERKT_RKT0_
__ZN3WTF9HashTableIPN6WebKit12WebPageGroupES3_NS_17IdentityExtractorIS3_EENS_7PtrHashIS3_EENS_10HashTraitsIS3_EES9_E6expandEv
__ZN3WTF9HashTableIPN6WebKit12WebPageGroupES3_NS_17IdentityExtractorIS3_EENS_7PtrHashIS3_EENS_10HashTraitsIS3_EES9_E6rehashEi
_WKPreferencesSetPrivateBrowsingEnabled
__ZN6WebKit14WebPreferences25setPrivateBrowsingEnabledERKb
__WKContextRegisterURLSchemeAsEmptyDocument
__ZN6WebKit10WebContext32registerURLSchemeAsEmptyDocumentERKN3WTF6StringE
__ZN3WTF9HashTableINS_6StringES1_NS_17IdentityExtractorIS1_EENS_10StringHashENS_10HashTraitsIS1_EES6_E3addIS1_S1_NS_22IdentityHashTranslatorIS1_S1_S4_EEEESt4pairINS_17HashTableIteratorIS1_S1_S3_S4_S6_S6_EEbERKT_RKT0_
__ZN3WTF9HashTableINS_6StringES1_NS_17IdentityExtractorIS1_EENS_10StringHashENS_10HashTraitsIS1_EES6_E6expandEv
__ZN3WTF9HashTableINS_6StringES1_NS_17IdentityExtractorIS1_EENS_10StringHashENS_10HashTraitsIS1_EES6_E6rehashEi
__ZN3WTF9HashTableINS_6StringES1_NS_17IdentityExtractorIS1_EENS_10StringHashENS_10HashTraitsIS1_EES6_E15deallocateTableEPS1_i
_WKContextSetDownloadClient
__ZN6WebKit10WebContext24initializeDownloadClientEPK23WKContextDownloadClient
_WKContextSetHistoryClient
__ZN6WebKit10WebContext23initializeHistoryClientEPK22WKContextHistoryClient
__ZN6WebKit9APIClientI22WKContextHistoryClientE10initializeEPKS1_
_WKContextSetInjectedBundleClient
__ZN6WebKit10WebContext30initializeInjectedBundleClientEPK29WKContextInjectedBundleClient
_WKContextGetGeolocationManager
_WKGeolocationManagerSetProvider
__ZN6WebKit26WebGeolocationManagerProxy18initializeProviderEPK21WKGeolocationProvider
_WKContextSetCacheModel
__ZN6WebKit10WebContext13setCacheModelENS_10CacheModelE
_WKBooleanCreate
_WKPreferencesSetJavaScriptEnabled
__ZN6WebKit14WebPreferences20setJavaScriptEnabledERKb
_WKPreferencesSetLocalStorageEnabled
__ZN6WebKit14WebPreferences22setLocalStorageEnabledERKb
_WKPreferencesSetDatabasesEnabled
__ZN6WebKit14WebPreferences19setDatabasesEnabledERKb
_WKPreferencesSetPluginsEnabled
__ZN6WebKit14WebPreferences17setPluginsEnabledERKb
_WKPreferencesSetAcceleratedCompositingEnabled
__ZN6WebKit14WebPreferences32setAcceleratedCompositingEnabledERKb
_WKPreferencesSetLoadsImagesAutomatically
__ZN6WebKit14WebPreferences27setLoadsImagesAutomaticallyERKb
_WKPreferencesSetLoadsSiteIconsIgnoringImageLoadingPreference
__ZN6WebKit14WebPreferences47setLoadsSiteIconsIgnoringImageLoadingPreferenceERKb
_WKURLCreateWithUTF8CString
__ZN6WebKit6WebURL6createERKN3WTF6StringE
_WKIconDatabaseRetainIconForURL
__ZN6WebKit15WebIconDatabase20retainIconForPageURLERKN3WTF6StringE
__ZN6WebKit6WebURLD0Ev
__ZN3WTF6OwnPtrIN7WebCore4KURLEED1Ev
_WKIconDatabaseTryGetCGImageForURL
__ZN6WebKit15WebIconDatabase15imageForPageURLERKN3WTF6StringE
_WKContextRegisterURLSchemeAsSecure
__ZN6WebKit10WebContext25registerURLSchemeAsSecureERKN3WTF6StringE
_WKContextSetDomainRelaxationForbiddenForURLScheme
__ZN6WebKit10WebContext40setDomainRelaxationForbiddenForURLSchemeERKN3WTF6StringE
_WKPreferencesSetDeveloperExtrasEnabled
__ZN6WebKit14WebPreferences25setDeveloperExtrasEnabledERKb
-[WKView initWithFrame:contextRef:pageGroupRef:]
__ZN6WebKit15PasteboardTypes10forEditingEv
__ZN6WebKit15PasteboardTypes12forSelectionEv
__Z26InitWebCoreSystemInterfacev
___InitWebCoreSystemInterface_block_invoke_1
-[WKViewData .cxx_construct]
__ZN6WebKit14PageClientImpl6createEP6WKView
__ZN6WebKit14PageClientImplC2EP6WKView
__ZN3WTF9RetainPtrI22WKEditorUndoTargetObjCEC2ENS_10AdoptNSTagEPS1_
__ZN6WebKit15CorrectionPanelC1Ev
__ZN6WebKit15CorrectionPanelC2Ev
__ZN6WebKit10WebContext13createWebPageEPNS_10PageClientEPNS_12WebPageGroupE
__ZN6WebKit10WebContext16ensureWebProcessEv
__ZN6WebKit15WebProcessProxy6createEN3WTF10PassRefPtrINS_10WebContextEEE
__ZN6WebKit15WebProcessProxyC2EN3WTF10PassRefPtrINS_10WebContextEEE
__ZN6WebKit19ResponsivenessTimerC1EPNS0_6ClientE
__ZN6WebKit15WebProcessProxy7connectEv
__ZN6WebKit15ProcessLauncherC1EPNS0_6ClientERKNS0_13LaunchOptionsE
__ZN6WebKit15ProcessLauncherC2EPNS0_6ClientERKNS0_13LaunchOptionsE
__ZN9WorkQueueC1EPKc
__ZN9WorkQueueC2EPKc
__ZN9WorkQueue18platformInitializeEPKc
__ZN9WorkQueue12scheduleWorkEN3WTF10PassOwnPtrI8WorkItemEE
__ZN6WebKit28WebProcessCreationParametersC1Ev
__ZN9WorkQueue15executeWorkItemEPv
__ZN6WebKit28WebProcessCreationParametersC2Ev
__ZN6WebKit16SandboxExtension6HandleC1Ev
__ZN6WebKit16SandboxExtension12createHandleERKN3WTF6StringENS0_4TypeERNS0_6HandleE
__ZN23MemberFunctionWorkItem0IN6WebKit15ProcessLauncherEE7executeEv
__ZN6WebKit15ProcessLauncher13launchProcessEv
__ZN6WebKitL21resolveSymlinksInPathERKN3WTF7CStringE
__ZN3WTF10RefCountedINS_13CStringBufferEE5derefEv
_WKSandboxExtensionCreate
_WKCopyCFLocalizationPreferredName
__ZN6WebKit10WebContext25applicationCacheDirectoryEv
__ZNK6WebKit10WebContext17databaseDirectoryEv
__ZNK6WebKit10WebContext32platformDefaultDatabaseDirectoryEv
__ZNK6WebKit10WebContext21localStorageDirectoryEv
__ZNK6WebKit10WebContext36platformDefaultLocalStorageDirectoryEv
__ZN3WTF12copyToVectorINS_6StringENS_10StringHashENS_10HashTraitsIS1_EENS_6VectorIS1_Lm0EEEEEvRKNS_7HashSetIT_T0_T1_EERT2_
__ZN3WTF6VectorINS_6StringELm0EE15reserveCapacityEm
__ZN3WTF16VectorBufferBaseINS_6StringEE14allocateBufferEm
__ZN3WTF22HashTableConstIteratorINS_6StringES1_NS_17IdentityExtractorIS1_EENS_10StringHashENS_10HashTraitsIS1_EES6_E16skipEmptyBucketsEv
__ZNK6WebKit10WebContext16iconDatabasePathEv
__ZN6WebKit11TextChecker5stateEv
__ZN6WebKit11TextChecker32isContinuousSpellCheckingAllowedEv
__ZN6WebKit13WebURLRequest22defaultTimeoutIntervalEv
__ZN6WebKit10WebContext28platformInitializeWebProcessERNS_28WebProcessCreationParametersE
__ZN6WebKit10WebContext25pdfAndPostScriptMIMETypesEv
__ZN3WTF9HashTableINS_6StringES1_NS_17IdentityExtractorIS1_EENS_15CaseFoldingHashENS_10HashTraitsIS1_EES6_E3addIS1_S1_NS_22IdentityHashTranslatorIS1_S1_S4_EEEESt4pairINS_17HashTableIteratorIS1_S1_S3_S4_S6_S6_EEbERKT_RKT0_
__ZN3WTF9HashTableINS_6StringES1_NS_17IdentityExtractorIS1_EENS_15CaseFoldingHashENS_10HashTraitsIS1_EES6_E6expandEv
__ZN3WTF9HashTableINS_6StringES1_NS_17IdentityExtractorIS1_EENS_15CaseFoldingHashENS_10HashTraitsIS1_EES6_E6rehashEi
__ZN6WebKit15ProcessLauncher19processTypeAsStringENS0_11ProcessTypeE
__ZN3WTF9HashTableINS_6StringES1_NS_17IdentityExtractorIS1_EENS_15CaseFoldingHashENS_10HashTraitsIS1_EES6_E15deallocateTableEPS1_i
__ZN3WTF12StringHasher11computeHashItXadL_ZNS_15CaseFoldingHash8foldCaseItEEtT_EEEEjPKS4_j
__ZN3WTF22HashTableConstIteratorINS_6StringES1_NS_17IdentityExtractorIS1_EENS_15CaseFoldingHashENS_10HashTraitsIS1_EES6_E16skipEmptyBucketsEv
__ZN3WTF9HashTableINS_6StringES1_NS_17IdentityExtractorIS1_EENS_15CaseFoldingHashENS_10HashTraitsIS1_EES6_E13isEmptyBucketERKS1_
__ZN3WTF6VectorINS_6StringELm0EE11appendRangeINS_29HashTableConstIteratorAdapterINS_9HashTableIS1_S1_NS_17IdentityExtractorIS1_EENS_15CaseFoldingHashENS_10HashTraitsIS1_EESA_EES1_EEEEvT_SD_
__ZN3WTF6VectorINS_6StringELm0EE14expandCapacityEmPKS1_
_WKCopyFoundationCacheDirectory
_cfURLCache
_WKInitializeRenderServer
__ZN6WebKit20EnvironmentVariablesC1Ev
__ZN6WebKit20EnvironmentVariables11appendValueEPKcS2_c
__ZNK6WebKit20EnvironmentVariables3getEPKc
__ZNK6WebKit20EnvironmentVariables22valueIfVariableHasNameEPKcS2_
__ZN6WebKit20EnvironmentVariables3setEPKcS2_
__ZN6WebKit20EnvironmentVariables24copyEnvironmentVariablesEv
__ZN3WTF6VectorIPcLm0EE14expandCapacityEmPKS1_
__ZN3WTF6VectorIPcLm0EE15reserveCapacityEm
__ZN3WTF16VectorBufferBaseIPcE14allocateBufferEm
__ZN6WebKit20EnvironmentVariables23createStringForVariableEPKcS2_
__ZN6WebKit15WebProcessProxy4sendIN8Messages10WebProcess20InitializeWebProcessEEEbRKT_yj
__ZN7CoreIPC15ArgumentEncoder6createEy
__ZN7CoreIPC15ArgumentEncoder4growEjm
__ZN3WTF10PassOwnPtrIN7CoreIPC15ArgumentEncoderEED1Ev
__ZNK6WebKit28WebProcessCreationParameters6encodeEPN7CoreIPC15ArgumentEncoderE
__ZN7CoreIPC13ArgumentCoderIN3WTF6StringEE6encodeEPNS_15ArgumentEncoderERKS2_
__ZN7CoreIPC15ArgumentEncoder12encodeUInt32Ej
__ZN7CoreIPC15ArgumentEncoder11encodeBytesEPKhm
__ZNK6WebKit16SandboxExtension6Handle6encodeEPN7CoreIPC15ArgumentEncoderE
_WKSandboxExtensionGetSerializedFormat
_WKSandboxExtensionDestroy
__ZN7CoreIPC19VectorArgumentCoderILb0EN3WTF6StringEE6encodeEPNS_15ArgumentEncoderERKNS1_6VectorIS2_Lm0EEE
__ZN7CoreIPC15ArgumentEncoder12encodeUInt64Ey
__ZN7CoreIPC15ArgumentEncoder10encodeBoolEb
__ZN7CoreIPC15ArgumentEncoder12encodeDoubleEd
__ZN7CoreIPC15ArgumentEncoder11encodeInt32Ei
__ZN7CoreIPC10AttachmentC1Ejj
__ZNK7CoreIPC10Attachment6encodeEPNS_15ArgumentEncoderE
__ZN7CoreIPC15ArgumentEncoder13addAttachmentERKNS_10AttachmentE
__ZN3WTF6VectorIN7CoreIPC10AttachmentELm0EE14expandCapacityEmPKS2_
__ZN3WTF6VectorIN7CoreIPC10AttachmentELm0EE15reserveCapacityEm
__ZN3WTF16VectorBufferBaseIN7CoreIPC10AttachmentEE14allocateBufferEm
__ZNK6WebKit28WebContextUserMessageEncoder6encodeEPN7CoreIPC15ArgumentEncoderE
__ZNK6WebKit18UserMessageEncoderINS_28WebContextUserMessageEncoderEE10baseEncodeEPN7CoreIPC15ArgumentEncoderERNS_9APIObject4TypeE
__ZNK6WebKit19ImmutableDictionary4typeEv
__ZN3WTF22HashTableConstIteratorINS_6StringESt4pairIS1_NS_6RefPtrIN6WebKit9APIObjectEEEENS_18PairFirstExtractorIS7_EENS_10StringHashENS_14PairHashTraitsINS_10HashTraitsIS1_EENSC_IS6_EEEESD_E16skipEmptyBucketsEv
__ZN7CoreIPC13ArgumentCoderIN6WebKit28WebContextUserMessageEncoderEE6encodeEPNS_15ArgumentEncoderERKS2_
__ZNK6WebKit12WebPageGroup4typeEv
__ZNK6WebKit16WebPageGroupData6encodeEPN7CoreIPC15ArgumentEncoderE
__ZNK7CoreIPC10Arguments3IRKN3WTF6StringERKyRKbE6encodeEPNS_15ArgumentEncoderE
__ZNK6WebKit9WebNumberIbLNS_9APIObject4TypeE20EE4typeEv
__ZN6WebKit15WebProcessProxy11sendMessageEN7CoreIPC9MessageIDEN3WTF10PassOwnPtrINS1_15ArgumentEncoderEEEj
__ZN3WTF6VectorISt4pairIN7CoreIPC10Connection7MessageINS2_15ArgumentEncoderEEEjELm0EE14expandCapacityEmPKS7_
__ZN3WTF6VectorISt4pairIN7CoreIPC10Connection7MessageINS2_15ArgumentEncoderEEEjELm0EE15reserveCapacityEm
__ZN3WTF16VectorBufferBaseISt4pairIN7CoreIPC10Connection7MessageINS2_15ArgumentEncoderEEEjEE14allocateBufferEm
__ZN3WTF11VectorMoverILb0ESt4pairIN7CoreIPC10Connection7MessageINS2_15ArgumentEncoderEEEjEE4moveEPKS7_SA_PS7_
__ZN3WTF6OwnPtrIN7CoreIPC15ArgumentEncoderEED1Ev
__ZN3WTF6VectorISt4pairINS_6StringENS_6RefPtrIN6WebKit9APIObjectEEEELm0EE14shrinkCapacityEm
__ZN6WebKit28WebProcessCreationParametersD2Ev
__ZN3WTF6VectorINS_6StringELm0EED2Ev
__ZN3WTF16VectorDestructorILb1ENS_6StringEE8destructEPS1_S3_
__ZN6WebKit16SandboxExtension6HandleD1Ev
__ZN6WebKit16SandboxExtension6HandleD2Ev
__ZN6WebKit15WebProcessProxy13createWebPageEPNS_10PageClientEPNS_10WebContextEPNS_12WebPageGroupE
__ZN6WebKit12WebPageProxy6createEPNS_10PageClientEN3WTF10PassRefPtrINS_15WebProcessProxyEEEPNS_12WebPageGroupEy
__ZN6WebKit12WebPageProxyC2EPNS_10PageClientEN3WTF10PassRefPtrINS_15WebProcessProxyEEEPNS_12WebPageGroupEy
__ZN6WebKit12WebPageProxy17standardUserAgentERKN3WTF6StringE
__ZN3WTF10makeStringIPKcNS_6StringES2_S3_S2_EES3_T_T0_T1_T2_T3_
__ZN8WorkItem6createIN6WebKit15ProcessLauncherEijEEN3WTF10PassOwnPtrIS_EEPT_MS6_FvT0_T1_ES8_S9_
__ZN3WTF13tryMakeStringIPKcNS_6StringES2_S3_S2_EENS_10PassRefPtrINS_10StringImplEEET_T0_T1_T2_T3_
__ZN6WebKit40GeolocationPermissionRequestManagerProxyC1EPNS_12WebPageProxyE
__ZN23MemberFunctionWorkItem2IN6WebKit15ProcessLauncherEijEC2EPS1_MS1_FvijEij
__ZN6WebKit14PageClientImpl14isViewInWindowEv
__ZN7RunLoop12scheduleWorkEN3WTF10PassOwnPtrI8WorkItemEE
__ZN3WTF6VectorINS_6OwnPtrI8WorkItemEELm0EE15reserveCapacityEm
__ZN3WTF16VectorBufferBaseINS_6OwnPtrI8WorkItemEEE14allocateBufferEm
__ZN6WebKit14PageClientImpl13isViewVisibleEv
__ZN6WebKit18WebBackForwardListC1EPNS_12WebPageProxyE
__ZN7RunLoop6wakeUpEv
__ZN6WebKit11TextChecker26isSmartInsertDeleteEnabledEv
__ZN6WebKit20EnvironmentVariablesD1Ev
__ZN6WebKit20EnvironmentVariablesD2Ev
__ZN23MemberFunctionWorkItem0IN6WebKit15ProcessLauncherEED0Ev
__ZN6WebKit10WebContext10statisticsEv
__ZN6WebKit12WebPageGroup7addPageEPNS_12WebPageProxyE
__ZN3WTF20ThreadSafeRefCountedIN6WebKit15ProcessLauncherEE5derefEv
__ZN3WTF9HashTableIPN6WebKit12WebPageProxyES3_NS_17IdentityExtractorIS3_EENS_7PtrHashIS3_EENS_10HashTraitsIS3_EES9_E3addIS3_S3_NS_22IdentityHashTranslatorIS3_S3_S7_EEEESt4pairINS_17HashTableIteratorIS3_S3_S5_S7_S9_S9_EEbERKT_RKT0_
__ZN3WTF9HashTableIPN6WebKit12WebPageProxyES3_NS_17IdentityExtractorIS3_EENS_7PtrHashIS3_EENS_10HashTraitsIS3_EES9_E6expandEv
__ZN3WTF9HashTableIPN6WebKit12WebPageProxyES3_NS_17IdentityExtractorIS3_EENS_7PtrHashIS3_EENS_10HashTraitsIS3_EES9_E6rehashEi
__ZN3WTF7HashMapIyPN6WebKit12WebPageProxyENS_7IntHashIyEENS_10HashTraitsIyEENS6_IS3_EEE3setERKyRKS3_
__ZN6WebKit12WebPageProxy17initializeWebPageEv
__ZN3WTF6VectorINS_6RefPtrIN6WebKit22WebBackForwardListItemEEELm0EEC2ERKS5_
__ZN6WebKit14PageClientImpl22createDrawingAreaProxyEv
-[WKView(Internal) _createDrawingAreaProxy]
__ZN6WebKit20DrawingAreaProxyImpl6createEPNS_12WebPageProxyE
__ZN6WebKit20DrawingAreaProxyImplC2EPNS_12WebPageProxyE
__ZN6WebKit16DrawingAreaProxyC2ENS_15DrawingAreaTypeEPNS_12WebPageProxyE
__ZNK6WebKit12WebPageProxy8viewSizeEv
__ZN6WebKit14PageClientImpl8viewSizeEv
__ZN6WebKit16LayerTreeContextC1Ev
__ZNK6WebKit12WebPageProxy18creationParametersEv
__ZN6WebKit12SessionStateC1Ev
__ZN6WebKit14PageClientImpl18isViewWindowActiveEv
__ZN6WebKit14PageClientImpl13isViewFocusedEv
-[WKView(Internal) _isFocused]
__ZN6WebKit19WebPreferencesStoreaSERKS0_
__ZN3WTF22HashTableConstIteratorINS_6StringESt4pairIS1_S1_ENS_18PairFirstExtractorIS3_EENS_10StringHashENS_14PairHashTraitsINS_10HashTraitsIS1_EES9_EES9_E16skipEmptyBucketsEv
__ZN3WTF22HashTableConstIteratorINS_6StringESt4pairIS1_bENS_18PairFirstExtractorIS3_EENS_10StringHashENS_14PairHashTraitsINS_10HashTraitsIS1_EENS8_IbEEEES9_E16skipEmptyBucketsEv
__ZN3WTF22HashTableConstIteratorINS_6StringESt4pairIS1_jENS_18PairFirstExtractorIS3_EENS_10StringHashENS_14PairHashTraitsINS_10HashTraitsIS1_EENS8_IjEEEES9_E16skipEmptyBucketsEv
__ZN3WTF22HashTableConstIteratorINS_6StringESt4pairIS1_dENS_18PairFirstExtractorIS3_EENS_10StringHashENS_14PairHashTraitsINS_10HashTraitsIS1_EENS8_IdEEEES9_E16skipEmptyBucketsEv
__ZN3WTF9HashTableINS_6StringESt4pairIS1_dENS_18PairFirstExtractorIS3_EENS_10StringHashENS_14PairHashTraitsINS_10HashTraitsIS1_EENS8_IdEEEES9_E13allocateTableEi
__ZN3WTF9HashTableINS_6StringESt4pairIS1_dENS_18PairFirstExtractorIS3_EENS_10StringHashENS_14PairHashTraitsINS_10HashTraitsIS1_EENS8_IdEEEES9_E15deallocateTableEPS3_i
__ZN3WTF9HashTableINS_6StringESt4pairIS1_dENS_18PairFirstExtractorIS3_EENS_10StringHashENS_14PairHashTraitsINS_10HashTraitsIS1_EENS8_IdEEEES9_E16lookupForWritingIS1_NS_22IdentityHashTranslatorIS1_S3_S6_EEEES2_IPS3_bERKT_
__ZN3WTF9HashTableINS_6StringESt4pairIS1_dENS_18PairFirstExtractorIS3_EENS_10StringHashENS_14PairHashTraitsINS_10HashTraitsIS1_EENS8_IdEEEES9_E3addIS1_S3_NS_22IdentityHashTranslatorIS1_S3_S6_EEEES2_INS_17HashTableIteratorIS1_S3_S5_S6_SB_S9_EEbERKT_RKT0_
__ZN3WTF9HashTableINS_6StringESt4pairIS1_dENS_18PairFirstExtractorIS3_EENS_10StringHashENS_14PairHashTraitsINS_10HashTraitsIS1_EENS8_IdEEEES9_E3addIS1_dNS_17HashMapTranslatorIS3_SB_S6_EEEES2_INS_17HashTableIteratorIS1_S3_S5_S6_SB_S9_EEbERKT_RKT0_
__ZN3WTF9HashTableINS_6StringESt4pairIS1_dENS_18PairFirstExtractorIS3_EENS_10StringHashENS_14PairHashTraitsINS_10HashTraitsIS1_EENS8_IdEEEES9_E4findIS1_NS_22IdentityHashTranslatorIS1_S3_S6_EEEENS_17HashTableIteratorIS1_S3_S5_S6_SB_S9_EERKT_
__ZN3WTF9HashTableINS_6StringESt4pairIS1_dENS_18PairFirstExtractorIS3_EENS_10StringHashENS_14PairHashTraitsINS_10HashTraitsIS1_EENS8_IdEEEES9_E6expandEv
__ZN3WTF9HashTableINS_6StringESt4pairIS1_dENS_18PairFirstExtractorIS3_EENS_10StringHashENS_14PairHashTraitsINS_10HashTraitsIS1_EENS8_IdEEEES9_E6lookupERKS1_
__ZN3WTF9HashTableINS_6StringESt4pairIS1_dENS_18PairFirstExtractorIS3_EENS_10StringHashENS_14PairHashTraitsINS_10HashTraitsIS1_EENS8_IdEEEES9_E6rehashEi
__ZN3WTF9HashTableINS_6StringESt4pairIS1_dENS_18PairFirstExtractorIS3_EENS_10StringHashENS_14PairHashTraitsINS_10HashTraitsIS1_EENS8_IdEEEES9_EC2ERKSC_
__ZN3WTF9HashTableINS_6StringESt4pairIS1_dENS_18PairFirstExtractorIS3_EENS_10StringHashENS_14PairHashTraitsINS_10HashTraitsIS1_EENS8_IdEEEES9_EaSERKSC_
__ZN6WebKit12SessionStateC1ERKN3WTF6VectorINS1_6RefPtrINS_22WebBackForwardListItemEEELm0EEEj
__ZN3WTF6VectorINS_6RefPtrIN6WebKit22WebBackForwardListItemEEELm0EEaSERKS5_
__ZNSt6__copyILb0ESt26random_access_iterator_tagE4copyIPKN3WTF6RefPtrIN6WebKit22WebBackForwardListItemEEEPS7_EET0_T_SC_SB_
__ZN3WTF6VectorINS_6RefPtrIN6WebKit22WebBackForwardListItemEEELm0EED2Ev
__ZN6WebKit22WebBackForwardListItem16highedUsedItemIDEv
__ZNK6WebKit11WebUIClient30canRunBeforeUnloadConfirmPanelEv
__ZNK6WebKit11WebUIClient11canRunModalEv
__ZNK6WebKit14PageClientImpl20userSpaceScaleFactorEv
__ZN6WebKit15WebProcessProxy4sendIN8Messages10WebProcess13CreateWebPageEEEbRKT_yj
__ZNK6WebKit25WebPageCreationParameters6encodeEPN7CoreIPC15ArgumentEncoderE
__ZNK6WebKit19WebPreferencesStore6encodeEPN7CoreIPC15ArgumentEncoderE
__ZNK7CoreIPC10Arguments3IRKN3WTF7HashMapINS1_6StringES3_NS1_10StringHashENS1_10HashTraitsIS3_EES6_EERKNS2_IS3_bS4_S6_NS5_IbEEEERKNS2_IS3_jS4_S6_NS5_IjEEEEE6encodeEPNS_15ArgumentEncoderE
__ZN7CoreIPC13ArgumentCoderIN3WTF7HashMapINS1_6StringES3_NS1_10StringHashENS1_10HashTraitsIS3_EES6_EEE6encodeEPNS_15ArgumentEncoderERKS7_
__ZN7CoreIPC13ArgumentCoderIN3WTF7HashMapINS1_6StringEbNS1_10StringHashENS1_10HashTraitsIS3_EENS5_IbEEEEE6encodeEPNS_15ArgumentEncoderERKS8_
__ZN7CoreIPC13ArgumentCoderIN3WTF7HashMapINS1_6StringEjNS1_10StringHashENS1_10HashTraitsIS3_EENS5_IjEEEEE6encodeEPNS_15ArgumentEncoderERKS8_
__ZN7CoreIPC13ArgumentCoderIN3WTF7HashMapINS1_6StringEdNS1_10StringHashENS1_10HashTraitsIS3_EENS5_IdEEEEE6encodeEPNS_15ArgumentEncoderERKS8_
__ZNK6WebKit12SessionState6encodeEPN7CoreIPC15ArgumentEncoderE
__ZN7CoreIPC19VectorArgumentCoderILb0EN3WTF6RefPtrIN6WebKit22WebBackForwardListItemEEEE6encodeEPNS_15ArgumentEncoderERKNS1_6VectorIS5_Lm0EEE
__ZN7CoreIPC15ArgumentEncoder11encodeFloatEf
__ZN6WebKit25WebPageCreationParametersD2Ev
__ZN6WebKit16WebPageGroupDataD1Ev
__ZN6WebKit19WebPreferencesStoreD2Ev
__ZNSt4pairIN3WTF6StringEjED1Ev
__ZNSt4pairIN3WTF6StringES1_ED2Ev
__ZN6WebKit12WebPageProxy17fullScreenManagerEv
__ZN6WebKit25WebFullScreenManagerProxy6createEPNS_12WebPageProxyE
__ZN6WebKit25WebFullScreenManagerProxy10setWebViewEP6WKView
-[WKView _registerDraggedTypes]
__ZN6WebKit15PasteboardTypes6forURLEv
-[WKView pageRef]
_WKPageSetPageContextMenuClient
__ZN6WebKit12WebPageProxy27initializeContextMenuClientEPK23WKPageContextMenuClient
_WKPageSetPageFindClient
__ZN6WebKit12WebPageProxy20initializeFindClientEPK16WKPageFindClient
__ZN6WebKit9APIClientI16WKPageFindClientE10initializeEPKS1_
_WKPageSetPageFormClient
__ZN6WebKit12WebPageProxy20initializeFormClientEPK16WKPageFormClient
_WKPageSetPageLoaderClient
__ZN6WebKit12WebPageProxy22initializeLoaderClientEPK18WKPageLoaderClient
_WKPageSetPagePolicyClient
__ZN6WebKit12WebPageProxy22initializePolicyClientEPK18WKPagePolicyClient
__ZN6WebKit9APIClientI18WKPagePolicyClientE10initializeEPKS1_
_WKPageSetPageResourceLoadClient
__ZN6WebKit12WebPageProxy28initializeResourceLoadClientEPK24WKPageResourceLoadClient
_WKPageSetPageUIClient
__ZN6WebKit12WebPageProxy18initializeUIClientEPK14WKPageUIClient
__ZN6WebKit15WebProcessProxy4sendIN8Messages7WebPage33SetCanRunBeforeUnloadConfirmPanelEEEbRKT_yj
__ZN6WebKit15WebProcessProxy4sendIN8Messages7WebPage14SetCanRunModalEEEbRKT_yj
_WKPageSetApplicationNameForUserAgent
__ZN6WebKit12WebPageProxy30setApplicationNameForUserAgentERKN3WTF6StringE
__ZN3WTF10makeStringIPKcNS_6StringES2_S3_S2_S3_EES3_T_T0_T1_T2_T3_T4_
__ZN3WTF13tryMakeStringIPKcNS_6StringES2_S3_S2_S3_EENS_10PassRefPtrINS_10StringImplEEET_T0_T1_T2_T3_T4_
__ZN6WebKit12WebPageProxy12setUserAgentERKN3WTF6StringE
__ZN6WebKit15WebProcessProxy4sendIN8Messages7WebPage12SetUserAgentEEEbRKT_yj
_WKPageSetMemoryCacheClientCallsEnabled
__ZN6WebKit12WebPageProxy32setMemoryCacheClientCallsEnabledEb
__ZN6WebKit15WebProcessProxy4sendIN8Messages7WebPage29SetMemoryCacheMessagesEnabledEEEbRKT_yj
_WKPreferencesGetPrivateBrowsingEnabled
__ZNK6WebKit14WebPreferences22privateBrowsingEnabledEv
__ZNK6WebKit19WebPreferencesStore18getBoolValueForKeyERKN3WTF6StringE
_WKGetGlyphsForCharacters
_WKGetGlyphTransformedAdvances
_WKPageGetScaleFactor
-[WKView setFrameSize:]
-[WKView renewGState]
__ZN3WTF6OwnPtrIN6WebKit19FindIndicatorWindowEEaSESt9nullptr_t
-[WKView(Private) frameSizeUpdatesDisabled]
-[WKView(Internal) _setDrawingAreaSize:]
__ZN6WebKit16DrawingAreaProxy7setSizeERKN7WebCore7IntSizeES4_
__ZN6WebKit20DrawingAreaProxyImpl13sizeDidChangeEv
__ZN6WebKit20DrawingAreaProxyImpl27sendUpdateBackingStoreStateENS0_23RespondImmediatelyOrNotE
__ZN6WebKit12WebPageProxy7isValidEv
__ZNK6WebKit12WebPageProxy7processEv
__ZN6WebKit15WebProcessProxy4sendIN8Messages11DrawingArea23UpdateBackingStoreStateEEEbRKT_yj
__ZNK7CoreIPC10Arguments3IybRKN7WebCore7IntSizeEE6encodeEPNS_15ArgumentEncoderE
__ZN6WebKit19ResponsivenessTimer5startEv
__ZNK7RunLoop9TimerBase8isActiveEv
__ZN7RunLoop9TimerBase5startEdb
__ZNK6WebKit16LayerTreeContext7isEmptyEv
-[WKView isFlipped]
-[WKView displayIfNeeded]
-[WKView viewWillMoveToWindow:]
-[WKView removeWindowObservers]
-[WKView addWindowObserversForWindow:]
-[WKView viewDidMoveToWindow]
__ZN6WebKit12WebPageProxy18viewStateDidChangeEj
__ZN6WebKit15WebProcessProxy4sendIN8Messages7WebPage9SetActiveEEEbRKT_yj
__ZN6WebKit12WebPageProxy34updateBackingStoreDiscardableStateEv
__ZN6WebKit20DrawingAreaProxyImpl28setBackingStoreIsDiscardableEb
__ZN6WebKit15WebProcessProxy4sendIN8Messages7WebPage13SetIsInWindowEEEbRKT_yj
-[WKView _updateWindowVisibility]
__ZN6WebKit12WebPageProxy21updateWindowIsVisibleEb
__ZN6WebKit15WebProcessProxy4sendIN8Messages7WebPage18SetWindowIsVisibleEEEbRKT_yj
-[WKView _updateWindowAndViewFrames]
-[WKView accessibilityAttributeValue:]
__ZN6WebKit12WebPageProxy26windowAndViewFramesChangedERKN7WebCore7IntRectES4_RKNS1_8IntPointE
__ZN6WebKit15WebProcessProxy4sendIN8Messages7WebPage26WindowAndViewFramesChangedEEEbRKT_yj
__ZNK7CoreIPC10Arguments3IRKN7WebCore7IntRectES4_RKNS1_8IntPointEE6encodeEPNS_15ArgumentEncoderE
_WKAXRemoteTokenForElement
__ZN6WebKit12WebPageProxy36registerUIProcessAccessibilityTokensERKN7CoreIPC13DataReferenceES4_
__ZN6WebKit15WebProcessProxy4sendIN8Messages7WebPage36RegisterUIProcessAccessibilityTokensEEEbRKT_yj
__ZNK7CoreIPC13DataReference6encodeEPNS_15ArgumentEncoderE
_WKPageCopyPendingAPIRequestURL
_WKPageGetMainFrame
_WKPageGetBackForwardList
_WKBackForwardListGetCurrentItem
__ZN6WebKit18WebBackForwardList11currentItemEv
_WKPageCopyTitle
__ZNK6WebKit12WebPageProxy9pageTitleEv
_WKContextPostMessageToInjectedBundle
__ZN6WebKit10WebContext27postMessageToInjectedBundleERKN3WTF6StringEPNS_9APIObjectE
__ZNK6WebKit15WebProcessProxy11isLaunchingEv
__ZN6WebKit15WebProcessProxy14deprecatedSendIN21InjectedBundleMessage4KindEN7CoreIPC10Arguments2IRKN3WTF6StringERKNS_28WebContextUserMessageEncoderEEEEEbT_yRKT0_
__ZNK6WebKit12WebPageProxy4typeEv
__ZN6WebKit17MutableDictionaryD0Ev
__ZN6WebKit19ImmutableDictionaryD2Ev
__ZNSt4pairIN3WTF6StringENS0_6RefPtrIN6WebKit9APIObjectEEEED2Ev
__ZN6WebKit9WebNumberIbLNS_9APIObject4TypeE20EED0Ev
_WKMutableArrayCreate
__ZN6WebKit12MutableArrayC1Ev
__ZN6WebKit14ImmutableArrayC2Ev
_WKArrayAppendItem
__ZN6WebKit12MutableArray6appendEPNS_9APIObjectE
__ZN3WTF6VectorINS_6RefPtrIN6WebKit9APIObjectEEELm0EE15reserveCapacityEm
__ZN3WTF16VectorBufferBaseINS_6RefPtrIN6WebKit9APIObjectEEEE14allocateBufferEm
__ZNK6WebKit14ImmutableArray4typeEv
__ZNK6WebKit9WebString4typeEv
-[WKView _windowFrameDidChange:]
-[WKView _updateGrowBoxForWindowFrameChange]
-[WKView _ownsWindowGrowBox]
__ZN6WebKit12WebPageProxy20setWindowResizerSizeERKN7WebCore7IntSizeE
__ZN6WebKit15WebProcessProxy4sendIN8Messages7WebPage20SetWindowResizerSizeEEEbRKT_yj
_WKPageCanGoBack
__ZNK6WebKit12WebPageProxy9canGoBackEv
__ZN6WebKit18WebBackForwardList8backItemEv
_WKPageCanGoForward
__ZNK6WebKit12WebPageProxy12canGoForwardEv
__ZN6WebKit18WebBackForwardList11forwardItemEv
-[WKView inputContext]
_WKHideWordDefinitionWindow
_WKBackForwardListGetBackListCount
__ZN6WebKit18WebBackForwardList13backListCountEv
_WKBackForwardListCopyBackListWithLimit
__ZN6WebKit18WebBackForwardList33backListAsImmutableArrayWithLimitEj
__ZN6WebKit14ImmutableArrayC1Ev
_WKArrayGetSize
_WKBackForwardListGetForwardListCount
__ZN6WebKit18WebBackForwardList16forwardListCountEv
_WKBackForwardListCopyForwardListWithLimit
__ZN6WebKit18WebBackForwardList36forwardListAsImmutableArrayWithLimitEj
__ZN6WebKit14ImmutableArrayD0Ev
__ZN3WTF6VectorINS_6RefPtrIN6WebKit9APIObjectEEELm0EED2Ev
_WKPageClose
__ZN6WebKit12WebPageProxy5closeEv
__ZN6WebKit18WebBackForwardList10pageClosedEv
__ZN6WebKit14PageClientImpl10pageClosedEv
-[WKView(Internal) _pageClosed]
-[WKView _updateRemoteAccessibilityRegistration:]
_WKAXRemoteProcessIdentifier
__ZN6WebKit15WebProcessProxy24disconnectFramesFromPageEPNS_12WebPageProxyE
__ZN3WTF18copyValuesToVectorIyNS_6RefPtrIN6WebKit13WebFrameProxyEEENS_7IntHashIyEENS_10HashTraitsIyEENS7_IS4_EENS_6VectorIS4_Lm0EEEEEvRKNS_7HashMapIT_T0_T1_T2_T3_EERT4_
__ZN3WTF16VectorDestructorILb1ENS_6RefPtrIN6WebKit13WebFrameProxyEEEE8destructEPS4_S6_
__ZN3WTF6VectorINS_6RefPtrIN6WebKit13WebFrameProxyEEELm0EED2Ev
__ZN6WebKit25WebFullScreenManagerProxy10invalidateEv
-[WKView(Internal) closeFullScreenWindowController]
__ZN3WTF10RefCountedIN6WebKit25WebFullScreenManagerProxyEE5derefEv
__ZN6WebKit25WebFullScreenManagerProxyD0Ev
__ZN6WebKit40GeolocationPermissionRequestManagerProxy18invalidateRequestsEv
__ZN3WTF9HashTableIySt4pairIyNS_6RefPtrIN6WebKit33GeolocationPermissionRequestProxyEEEENS_18PairFirstExtractorIS6_EENS_7IntHashIyEENS_14PairHashTraitsINS_10HashTraitsIyEENSC_IS5_EEEESD_E15deallocateTableEPS6_i
__ZN3WTF9HashTableIySt4pairIyNS_6RefPtrIN6WebKit33GeolocationPermissionRequestProxyEEEENS_18PairFirstExtractorIS6_EENS_7IntHashIyEENS_14PairHashTraitsINS_10HashTraitsIyEENSC_IS5_EEEESD_E16lookupForWritingERKy
__ZN3WTF9HashTableIySt4pairIyNS_6RefPtrIN6WebKit33GeolocationPermissionRequestProxyEEEENS_18PairFirstExtractorIS6_EENS_7IntHashIyEENS_14PairHashTraitsINS_10HashTraitsIyEENSC_IS5_EEEESD_E3addIyS5_NS_17HashMapTranslatorIS6_SF_SA_EEEES1_INS_17HashTableIteratorIyS6_S8_SA_SF_SD_EEbERKT_RKT0_
__ZN3WTF9HashTableIySt4pairIyNS_6RefPtrIN6WebKit33GeolocationPermissionRequestProxyEEEENS_18PairFirstExtractorIS6_EENS_7IntHashIyEENS_14PairHashTraitsINS_10HashTraitsIyEENSC_IS5_EEEESD_E4findIyNS_22IdentityHashTranslatorIyS6_SA_EEEENS_17HashTableIteratorIyS6_S8_SA_SF_SD_EERKT_
__ZN3WTF9HashTableIySt4pairIyNS_6RefPtrIN6WebKit33GeolocationPermissionRequestProxyEEEENS_18PairFirstExtractorIS6_EENS_7IntHashIyEENS_14PairHashTraitsINS_10HashTraitsIyEENSC_IS5_EEEESD_E6expandEv
__ZN3WTF9HashTableIySt4pairIyNS_6RefPtrIN6WebKit33GeolocationPermissionRequestProxyEEEENS_18PairFirstExtractorIS6_EENS_7IntHashIyEENS_14PairHashTraitsINS_10HashTraitsIyEENSC_IS5_EEEESD_E6rehashEi
__ZN3WTF9HashTableIySt4pairIyNS_6RefPtrIN6WebKit33GeolocationPermissionRequestProxyEEEENS_18PairFirstExtractorIS6_EENS_7IntHashIyEENS_14PairHashTraitsINS_10HashTraitsIyEENSC_IS5_EEEESD_E6removeEPS6_
__ZN6WebKit21invalidateCallbackMapIN3WTF6RefPtrINS_12VoidCallbackEEEEEvRNS1_7HashMapIyT_NS1_7IntHashIyEENS1_10HashTraitsIyEENS9_IS6_EEEE
__ZN3WTF18copyValuesToVectorIyNS_6RefPtrIN6WebKit12VoidCallbackEEENS_7IntHashIyEENS_10HashTraitsIyEENS7_IS4_EENS_6VectorIS4_Lm0EEEEEvRKNS_7HashMapIT_T0_T1_T2_T3_EERT4_
__ZN3WTF16VectorDestructorILb1ENS_6RefPtrIN6WebKit12VoidCallbackEEEE8destructEPS4_S6_
__ZN3WTF6VectorINS_6RefPtrIN6WebKit12VoidCallbackEEELm0EED2Ev
__ZN6WebKit21invalidateCallbackMapIN3WTF6RefPtrINS_15GenericCallbackIPK12OpaqueWKDataPNS_7WebDataEEEEEEEvRNS1_7HashMapIyT_NS1_7IntHashIyEENS1_10HashTraitsIyEENSF_ISC_EEEE
__ZN3WTF18copyValuesToVectorIyNS_6RefPtrIN6WebKit15GenericCallbackIPK12OpaqueWKDataPNS2_7WebDataEEEEENS_7IntHashIyEENS_10HashTraitsIyEENSD_ISA_EENS_6VectorISA_Lm0EEEEEvRKNS_7HashMapIT_T0_T1_T2_T3_EERT4_
__ZN3WTF16VectorDestructorILb1ENS_6RefPtrIN6WebKit15GenericCallbackIPK12OpaqueWKDataPNS2_7WebDataEEEEEE8destructEPSA_SC_
__ZN3WTF6VectorINS_6RefPtrIN6WebKit15GenericCallbackIPK12OpaqueWKDataPNS2_7WebDataEEEEELm0EED2Ev
__ZN6WebKit21invalidateCallbackMapIN3WTF6RefPtrINS_15GenericCallbackIPK14OpaqueWKStringPNS1_10StringImplEEEEEEEvRNS1_7HashMapIyT_NS1_7IntHashIyEENS1_10HashTraitsIyEENSF_ISC_EEEE
__ZN3WTF18copyValuesToVectorIyNS_6RefPtrIN6WebKit15GenericCallbackIPK14OpaqueWKStringPNS_10StringImplEEEEENS_7IntHashIyEENS_10HashTraitsIyEENSD_ISA_EENS_6VectorISA_Lm0EEEEEvRKNS_7HashMapIT_T0_T1_T2_T3_EERT4_
__ZN3WTF16VectorDestructorILb1ENS_6RefPtrIN6WebKit15GenericCallbackIPK14OpaqueWKStringPNS_10StringImplEEEEEE8destructEPSA_SC_
__ZN3WTF6VectorINS_6RefPtrIN6WebKit15GenericCallbackIPK14OpaqueWKStringPNS_10StringImplEEEEELm0EED2Ev
__ZN6WebKit21invalidateCallbackMapIN3WTF6RefPtrINS_15GenericCallbackIPK29OpaqueWKSerializedScriptValuePNS_24WebSerializedScriptValueEEEEEEEvRNS1_7HashMapIyT_NS1_7IntHashIyEENS1_10HashTraitsIyEENSF_ISC_EEEE
__ZN3WTF18copyValuesToVectorIyNS_6RefPtrIN6WebKit15GenericCallbackIPK29OpaqueWKSerializedScriptValuePNS2_24WebSerializedScriptValueEEEEENS_7IntHashIyEENS_10HashTraitsIyEENSD_ISA_EENS_6VectorISA_Lm0EEEEEvRKNS_7HashMapIT_T0_T1_T2_T3_EERT4_
__ZN3WTF16VectorDestructorILb1ENS_6RefPtrIN6WebKit15GenericCallbackIPK29OpaqueWKSerializedScriptValuePNS2_24WebSerializedScriptValueEEEEEE8destructEPSA_SC_
__ZN3WTF6VectorINS_6RefPtrIN6WebKit15GenericCallbackIPK29OpaqueWKSerializedScriptValuePNS2_24WebSerializedScriptValueEEEEELm0EE15reserveCapacityEm
__ZN3WTF6VectorINS_6RefPtrIN6WebKit15GenericCallbackIPK29OpaqueWKSerializedScriptValuePNS2_24WebSerializedScriptValueEEEEELm0EED2Ev
__ZN6WebKit21invalidateCallbackMapIN3WTF6RefPtrINS_21ComputedPagesCallbackEEEEEvRNS1_7HashMapIyT_NS1_7IntHashIyEENS1_10HashTraitsIyEENS9_IS6_EEEE
__ZN3WTF18copyValuesToVectorIyNS_6RefPtrIN6WebKit21ComputedPagesCallbackEEENS_7IntHashIyEENS_10HashTraitsIyEENS7_IS4_EENS_6VectorIS4_Lm0EEEEEvRKNS_7HashMapIT_T0_T1_T2_T3_EERT4_
__ZN3WTF16VectorDestructorILb1ENS_6RefPtrIN6WebKit21ComputedPagesCallbackEEEE8destructEPS4_S6_
__ZN3WTF6VectorINS_6RefPtrIN6WebKit21ComputedPagesCallbackEEELm0EED2Ev
__ZN6WebKit20DrawingAreaProxyImplD0Ev
__ZN7RunLoop9TimerBaseD2Ev
__ZN7RunLoop9TimerBase4stopEv
__ZN3WTF6OwnPtrIN6WebKit12BackingStoreEED1Ev
__ZN6WebKit16LayerTreeContextD1Ev
__ZN6WebKit16DrawingAreaProxyD2Ev
__ZN6WebKit15WebProcessProxy4sendIN8Messages7WebPage5CloseEEEbRKT_yj
__ZN6WebKit15WebProcessProxy13removeWebPageEy
_WKDataCreate
__ZN6WebKit7WebData6createEPKhm
_WKPageRestoreFromSessionState
__ZN6WebKit12WebPageProxy27restoreFromSessionStateDataEPNS_7WebDataE
__ZN6WebKitL17SessionHistoryKeyEv
__ZN6WebKitL17ProvisionalURLKeyEv
__ZN6WebKit18WebBackForwardList37restoreFromCFDictionaryRepresentationEPK14__CFDictionary
__ZN6WebKitL29SessionHistoryCurrentIndexKeyEv
__ZN6WebKitL24SessionHistoryEntriesKeyEv
__ZN3WTF6VectorINS_6RefPtrIN6WebKit22WebBackForwardListItemEEELm0EE15reserveCapacityEm
_WKBackForwardListGetItemAtIndex
__ZN6WebKit18WebBackForwardList11itemAtIndexEi
_WKIconDatabaseEnableDatabaseCleanup
__ZN6WebKit15WebIconDatabase21enableDatabaseCleanupEv
__ZN6WebKit7WebDataD0Ev
__ZN6WebKit7WebData13fastFreeBytesEPhPKv
__ZN3WTF16VectorBufferBaseINS_6RefPtrIN6WebKit22WebBackForwardListItemEEEE14allocateBufferEm
__ZN6WebKitL25SessionHistoryEntryURLKeyEv
__ZN6WebKitL27SessionHistoryEntryTitleKeyEv
__ZN6WebKitL33SessionHistoryEntryOriginalURLKeyEv
__ZN6WebKitL26SessionHistoryEntryDataKeyEv
__ZN6WebKit22WebBackForwardListItemC1ERKN3WTF6StringES4_S4_PKhmy
__ZN6WebKit22WebBackForwardListItemC2ERKN3WTF6StringES4_S4_PKhmy
__ZN3WTF6VectorIhLm0EE14shrinkCapacityEm
__ZN3WTF6VectorIhLm0EE15reserveCapacityEm
__ZN3WTF6VectorIhLm0EE6appendIhEEvPKT_m
__ZN3WTF6VectorINS_6RefPtrIN6WebKit22WebBackForwardListItemEEELm0EE14shrinkCapacityEm
__ZN3WTF16VectorDestructorILb1ENS_6RefPtrIN6WebKit22WebBackForwardListItemEEEE8destructEPS4_S6_
__ZN6WebKit15WebProcessProxy33registerNewWebBackForwardListItemEPNS_22WebBackForwardListItemE
__ZN3WTF7HashMapIyNS_6RefPtrIN6WebKit22WebBackForwardListItemEEENS_7IntHashIyEENS_10HashTraitsIyEENS7_IS4_EEE3setERKyRKS4_
__ZN3WTF17HashMapTranslatorISt4pairIyNS_6RefPtrIN6WebKit22WebBackForwardListItemEEEENS_14PairHashTraitsINS_10HashTraitsIyEENS8_IS5_EEEENS_7IntHashIyEEE9translateERS6_RKyRKS5_
__ZN6WebKit12WebPageProxy32initializeSandboxExtensionHandleERKN7WebCore4KURLERNS_16SandboxExtension6HandleE
__ZN6WebKit17WebInspectorProxy15isInspectorPageEPNS_12WebPageProxyE
__ZN6WebKit17WebInspectorProxy18inspectorPageGroupEv
__ZN7WebCore4KURLD1Ev
__ZN6WebKit15WebProcessProxy4sendIN8Messages7WebPage38RestoreSessionAndNavigateToCurrentItemEEEbRKT_yj
__ZNK6WebKit22WebBackForwardListItem6encodeERN7CoreIPC15ArgumentEncoderE
_WKBackForwardListItemCopyURL
_WKURLCopyCFURL
_WKBackForwardListItemCopyOriginalURL
-[WKView isOpaque]
-[WKView mouseDownCanMoveWindow]
-[WKView drawRect:]
__ZN6WebKit12WebPageProxy11endPrintingEv
__ZN6WebKit6RegionC1Ev
__ZN6WebKit20DrawingAreaProxyImpl5paintEP9CGContextRKN7WebCore7IntRectERNS_6RegionE
__ZN6WebKit6RegionC1ERKN7WebCore7IntRectE
__ZN6WebKit6Region5ShapeC2ERKN7WebCore7IntRectE
__ZN6WebKit6Region5Shape10appendSpanEi
__ZN3WTF6VectorIN6WebKit6Region4SpanELm0EE14expandCapacityEmPKS3_
__ZN3WTF6VectorIN6WebKit6Region4SpanELm0EE15reserveCapacityEm
__ZN3WTF16VectorBufferBaseIN6WebKit6Region4SpanEE14allocateBufferEm
__ZN3WTF11VectorMoverILb0EN6WebKit6Region4SpanEE4moveEPKS3_S6_PS3_
__ZN6WebKit6Region5Shape13appendSegmentEi
__ZN3WTF6VectorIiLm0EE14expandCapacityEmPKi
__ZN3WTF6VectorIiLm0EE15reserveCapacityEm
__ZN3WTF16VectorBufferBaseIiE14allocateBufferEm
__ZN3WTF6VectorIiLm0EEaSERKS1_
__ZN3WTF6VectorIiLm0EE14shrinkCapacityEm
__ZN3WTF6VectorIN6WebKit6Region4SpanELm0EEaSERKS4_
__ZN3WTF6VectorIN6WebKit6Region4SpanELm0EE14shrinkCapacityEm
__ZNSt6__copyILb0ESt26random_access_iterator_tagE4copyIPKN6WebKit6Region4SpanEPS5_EET0_T_SA_S9_
__ZN3WTF12VectorCopierILb0EN6WebKit6Region4SpanEE17uninitializedCopyEPKS3_S6_PS3_
__ZN6WebKit6Region5ShapeD2Ev
__ZN3WTF12VectorBufferIN6WebKit6Region4SpanELm0EED2Ev
__ZN3WTF12VectorBufferIiLm0EED2Ev
__ZNK6WebKit6Region5rectsEv
__ZN3WTF6VectorIN7WebCore7IntRectELm0EE14expandCapacityEmPKS2_
__ZN3WTF6VectorIN7WebCore7IntRectELm0EE15reserveCapacityEm
__ZN3WTF16VectorBufferBaseIN7WebCore7IntRectEE14allocateBufferEm
__ZN3WTF11VectorMoverILb0EN7WebCore7IntRectEE4moveEPKS2_S5_PS2_
__ZL18drawPageBackgroundP9CGContextPN6WebKit12WebPageProxyERKN7WebCore7IntRectE
__ZN3WTF12VectorBufferIN7WebCore7IntRectELm0EED2Ev
__ZN6WebKit12WebPageProxy7didDrawEv
__ZN6WebKit11WebUIClient7didDrawEPNS_12WebPageProxyE
-[WKView _windowDidOrderOnScreen:]
__ZN6WebKit20DrawingAreaProxyImpl19visibilityDidChangeEv
__ZN6WebKit15WebProcessProxy4sendIN8Messages11DrawingArea14ResumePaintingEEEbRKT_yj
__ZN6WebKit20DrawingAreaProxyImpl16setPageIsVisibleEb
_WKPreferencesSetDOMPasteAllowed
__ZN6WebKit14WebPreferences18setDOMPasteAllowedERKb
__ZN7RunLoop11performWorkEPv
__ZN7RunLoop11performWorkEv
__ZN23MemberFunctionWorkItem2IN6WebKit15ProcessLauncherEijE7executeEv
__ZN6WebKit15ProcessLauncher25didFinishLaunchingProcessEij
__ZThn24_N6WebKit15WebProcessProxy18didFinishLaunchingEPNS_15ProcessLauncherEj
__ZN6WebKit15WebProcessProxy18didFinishLaunchingEj
__ZN7CoreIPC10Connection22createServerConnectionEjPNS0_6ClientEP7RunLoop
__ZN7CoreIPC10ConnectionC2EjbPNS0_6ClientEP7RunLoop
__ZN7CoreIPC10Connection16SyncMessageState11getOrCreateEP7RunLoop
__ZN7CoreIPC10Connection16SyncMessageState24syncMessageStateMapMutexEv
__ZN7CoreIPC10Connection16SyncMessageState19syncMessageStateMapEv
__ZN7CoreIPC15BinarySemaphoreC1Ev
__ZN7CoreIPC10Connection18platformInitializeEj
__ZN7CoreIPC10Connection40setShouldCloseConnectionOnMachExceptionsEv
__ZN7CoreIPC10Connection4openEv
__Z22setMachPortQueueLengthjj
__ZN9WorkQueue28registerMachPortEventHandlerEjNS_17MachPortEventTypeEN3WTF10PassOwnPtrI8WorkItemEE
__ZN3WTF7HashMapIjPN9WorkQueue11EventSourceENS_7IntHashIjEENS_10HashTraitsIjEENS6_IS3_EEE3setERKjRKS3_
__ZN7CoreIPC10Connection14deprecatedSendINS_14CoreIPCMessage4KindENS_8MachPortEEEbT_yRKT0_
__ZN7CoreIPC10Connection11sendMessageENS_9MessageIDEN3WTF10PassOwnPtrINS_15ArgumentEncoderEEEj
__ZN3WTF5DequeIN7CoreIPC10Connection7MessageINS1_15ArgumentEncoderEEELm0EE14expandCapacityEv
__ZN3WTF16VectorBufferBaseIN7CoreIPC10Connection7MessageINS1_15ArgumentEncoderEEEE14allocateBufferEm
__ZN3WTF11VectorMoverILb0EN7CoreIPC10Connection7MessageINS1_15ArgumentEncoderEEEE4moveEPKS5_S8_PS5_
__ZN23MemberFunctionWorkItem0IN7CoreIPC10ConnectionEE7executeEv
__ZN7CoreIPC10Connection20sendOutgoingMessagesEv
__ZN3WTF6VectorISt4pairIN7CoreIPC10Connection7MessageINS2_15ArgumentEncoderEEEjELm0EE14shrinkCapacityEm
__ZN23MemberFunctionWorkItem0IN7CoreIPC10ConnectionEED0Ev
__ZN6WebKit10WebContext25processDidFinishLaunchingEPNS_15WebProcessProxyE
__ZN3WTF20ThreadSafeRefCountedIN7CoreIPC10ConnectionEE5derefEv
__ZN6WebKit19VisitedLinkProvider25processDidFinishLaunchingEv
__ZN6WebKit10WebContext20populateVisitedLinksEv
__ZN6WebKit16WebHistoryClient20populateVisitedLinksEPNS_10WebContextE
__ZN9WorkQueue11EventSource12eventHandlerEPv
__ZN7CoreIPC10Connection25receiveSourceEventHandlerEv
__ZN7CoreIPCL16readFromMachPortEjRN3WTF6VectorIcLm4164EEE
__ZN3WTF5DequeIN7CoreIPC10AttachmentELm0EE14expandCapacityEv
_WKContextAddVisitedLink
__ZN7CoreIPC15ArgumentDecoderC1EPKhmRN3WTF5DequeINS_10AttachmentELm0EEE
__ZN6WebKit10WebContext14addVisitedLinkERKN3WTF6StringE
__ZN7CoreIPC15ArgumentDecoderC2EPKhmRN3WTF5DequeINS_10AttachmentELm0EEE
__ZN7CoreIPC15ArgumentDecoder10initializeEPKhm
__ZN6WebKit19VisitedLinkProvider14addVisitedLinkEy
__ZN3WTF10PassOwnPtrIN7CoreIPC15ArgumentDecoderEED1Ev
__ZN3WTF9HashTableIyyNS_17IdentityExtractorIyEEN7WebCore12LinkHashHashENS_10HashTraitsIyEES6_E3addIyyNS_22IdentityHashTranslatorIyyS4_EEEESt4pairINS_17HashTableIteratorIyyS2_S4_S6_S6_EEbERKT_RKT0_
__ZN7CoreIPC8MachPort6decodeEPNS_15ArgumentDecoderERS0_
__ZN3WTF9HashTableIyyNS_17IdentityExtractorIyEEN7WebCore12LinkHashHashENS_10HashTraitsIyEES6_E6expandEv
__ZN7CoreIPC10AttachmentC1Ev
__ZN7CoreIPC10Attachment6decodeEPNS_15ArgumentDecoderERS0_
__ZN3WTF9HashTableIyyNS_17IdentityExtractorIyEEN7WebCore12LinkHashHashENS_10HashTraitsIyEES6_E6rehashEi
__ZN7CoreIPC15ArgumentDecoder16removeAttachmentERNS_10AttachmentE
__ZN7CoreIPC10Connection24initializeDeadNameSourceEv
__ZN23MemberFunctionWorkItem2IN6WebKit15ProcessLauncherEijED0Ev
__ZNK7CoreIPC10Connection31platformCanSendOutgoingMessagesEv
__ZN7CoreIPC10Connection19sendOutgoingMessageENS_9MessageIDEN3WTF10PassOwnPtrINS_15ArgumentEncoderEEE
__ZN3WTF6VectorINS_6OwnPtrI8WorkItemEELm0EED2Ev
__ZN7CoreIPC15ArgumentEncoder18releaseAttachmentsEv
__ZN3WTF16VectorDestructorILb1ENS_6OwnPtrI8WorkItemEEE8destructEPS3_S5_
__ZN7CoreIPC15ArgumentEncoderD1Ev
__ZN7CoreIPC15ArgumentEncoderD2Ev
__ZN7CoreIPC10AttachmentC1EPvjjb
__ZN3WTF6OwnPtrIN7CoreIPC15ArgumentDecoderEED1Ev
__ZN7CoreIPC15ArgumentDecoderD1Ev
__ZN3WTF12VectorBufferIcLm4164EE16deallocateBufferEPc
__ZN7CoreIPC15ArgumentDecoderC1EPKhm
__ZN7CoreIPC10Connection22processIncomingMessageENS_9MessageIDEN3WTF10PassOwnPtrINS_15ArgumentDecoderEEE
__ZN7CoreIPC10Connection16SyncMessageState22processIncomingMessageEPS0_RNS0_7MessageINS_15ArgumentDecoderEEE
__ZN3WTF9HashTableISt4pairIjyES1_IS2_PN7CoreIPC15ArgumentDecoderEENS_18PairFirstExtractorIS6_EENS_8PairHashIjyEENS_14PairHashTraitsINS_10HashTraitsIS2_EENSC_IS5_EEEESD_E16lookupForWritingERKS2_
__ZN3WTF9HashTableISt4pairIjyES1_IS2_PN7CoreIPC15ArgumentDecoderEENS_18PairFirstExtractorIS6_EENS_8PairHashIjyEENS_14PairHashTraitsINS_10HashTraitsIS2_EENSC_IS5_EEEESD_E3addIS2_S5_NS_17HashMapTranslatorIS6_SF_SA_EEEES1_INS_17HashTableIteratorIS2_S6_S8_SA_SF_SD_EEbERKT_RKT0_
__ZN3WTF9HashTableISt4pairIjyES1_IS2_PN7CoreIPC15ArgumentDecoderEENS_18PairFirstExtractorIS6_EENS_8PairHashIjyEENS_14PairHashTraitsINS_10HashTraitsIS2_EENSC_IS5_EEEESD_E4findIS2_NS_22IdentityHashTranslatorIS2_S6_SA_EEEENS_17HashTableIteratorIS2_S6_S8_SA_SF_SD_EERKT_
__ZN3WTF9HashTableISt4pairIjyES1_IS2_PN7CoreIPC15ArgumentDecoderEENS_18PairFirstExtractorIS6_EENS_8PairHashIjyEENS_14PairHashTraitsINS_10HashTraitsIS2_EENSC_IS5_EEEESD_E6expandEv
__ZN3WTF9HashTableISt4pairIjyES1_IS2_PN7CoreIPC15ArgumentDecoderEENS_18PairFirstExtractorIS6_EENS_8PairHashIjyEENS_14PairHashTraitsINS_10HashTraitsIS2_EENSC_IS5_EEEESD_E6rehashEi
__ZN3WTF9HashTableISt4pairIjyES1_IS2_PN7CoreIPC15ArgumentDecoderEENS_18PairFirstExtractorIS6_EENS_8PairHashIjyEENS_14PairHashTraitsINS_10HashTraitsIS2_EENSC_IS5_EEEESD_E6removeEPS6_
__ZN7CoreIPC10Connection22enqueueIncomingMessageERNS0_7MessageINS_15ArgumentDecoderEEE
__ZN3WTF6VectorIN7CoreIPC10Connection7MessageINS1_15ArgumentDecoderEEELm0EE14expandCapacityEmPKS5_
__ZN3WTF6VectorIN7CoreIPC10Connection7MessageINS1_15ArgumentDecoderEEELm0EE15reserveCapacityEm
__ZN3WTF16VectorBufferBaseIN7CoreIPC10Connection7MessageINS1_15ArgumentDecoderEEEE14allocateBufferEm
__ZN3WTF11VectorMoverILb0EN7CoreIPC10Connection7MessageINS1_15ArgumentDecoderEEEE4moveEPKS5_S8_PS5_
__ZN3WTF6VectorIN7CoreIPC10Connection16SyncMessageState28ConnectionAndIncomingMessageELm0EE14expandCapacityEmPKS4_
__ZN3WTF6VectorIN7CoreIPC10Connection16SyncMessageState28ConnectionAndIncomingMessageELm0EE15reserveCapacityEm
__ZN3WTF16VectorBufferBaseIN7CoreIPC10Connection16SyncMessageState28ConnectionAndIncomingMessageEE14allocateBufferEm
__ZN3WTF11VectorMoverILb0EN7CoreIPC10Connection16SyncMessageState28ConnectionAndIncomingMessageEE4moveEPKS4_S7_PS4_
__ZN7CoreIPC10Connection16SyncMessageState28ConnectionAndIncomingMessageC2ERKS2_
__ZN7CoreIPC15BinarySemaphore6signalEv
__ZN3WTF14derefIfNotNullIN7CoreIPC10ConnectionEEEvPT_
__ZN7RunLoop9TimerBase10timerFiredEP16__CFRunLoopTimerPv
__ZN7RunLoop5TimerIN6WebKit19VisitedLinkProviderEE5firedEv
__ZN6WebKit19VisitedLinkProvider29pendingVisitedLinksTimerFiredEv
__ZN3WTF6VectorIyLm0EE15reserveCapacityEm
__ZN3WTF16VectorBufferBaseIyE14allocateBufferEm
__ZN6WebKit12SharedMemory14systemPageSizeEv
__ZN6WebKit12SharedMemory6createEm
__ZN6WebKit16VisitedLinkTable15setSharedMemoryEN3WTF10PassRefPtrINS_12SharedMemoryEEE
__ZN3WTF10RefCountedIN6WebKit12SharedMemoryEE5derefEv
__ZN6WebKit16VisitedLinkTable11addLinkHashEy
__ZN3WTF6VectorIyLm0EE14expandCapacityEmPKy
__ZN6WebKit12SharedMemory6HandleC1Ev
__ZN6WebKit12SharedMemory12createHandleERNS0_6HandleENS0_10ProtectionE
__ZN6WebKit15WebProcessProxy4sendIN8Messages10WebProcess19SetVisitedLinkTableEEEbRKT_yj
__ZNK6WebKit12SharedMemory6Handle6encodeEPN7CoreIPC15ArgumentEncoderE
__ZN6WebKit12SharedMemory6HandleD1Ev
__ZN6WebKit15WebProcessProxy4sendIN8Messages10WebProcess26AllVisitedLinkStateChangedEEEbRKT_yj
__ZN7CoreIPC10Connection16dispatchMessagesEv
__ZN7CoreIPC10Connection15dispatchMessageERNS0_7MessageINS_15ArgumentDecoderEEE
__ZN6WebKit15WebProcessProxy17didReceiveMessageEPN7CoreIPC10ConnectionENS1_9MessageIDEPNS1_15ArgumentDecoderE
__ZN3WTF9HashTableIySt4pairIyPN6WebKit12WebPageProxyEENS_18PairFirstExtractorIS5_EENS_7IntHashIyEENS_14PairHashTraitsINS_10HashTraitsIyEENSB_IS4_EEEESC_E16lookupForWritingERKy
__ZN3WTF9HashTableIySt4pairIyPN6WebKit12WebPageProxyEENS_18PairFirstExtractorIS5_EENS_7IntHashIyEENS_14PairHashTraitsINS_10HashTraitsIyEENSB_IS4_EEEESC_E3addIyS4_NS_17HashMapTranslatorIS5_SE_S9_EEEES1_INS_17HashTableIteratorIyS5_S7_S9_SE_SC_EEbERKT_RKT0_
__ZN3WTF9HashTableIySt4pairIyPN6WebKit12WebPageProxyEENS_18PairFirstExtractorIS5_EENS_7IntHashIyEENS_14PairHashTraitsINS_10HashTraitsIyEENSB_IS4_EEEESC_E4findIyNS_22IdentityHashTranslatorIyS5_S9_EEEENS_17HashTableIteratorIyS5_S7_S9_SE_SC_EERKT_
__ZN3WTF9HashTableIySt4pairIyPN6WebKit12WebPageProxyEENS_18PairFirstExtractorIS5_EENS_7IntHashIyEENS_14PairHashTraitsINS_10HashTraitsIyEENSB_IS4_EEEESC_E6expandEv
__ZN3WTF9HashTableIySt4pairIyPN6WebKit12WebPageProxyEENS_18PairFirstExtractorIS5_EENS_7IntHashIyEENS_14PairHashTraitsINS_10HashTraitsIyEENSB_IS4_EEEESC_E6lookupERKy
__ZN3WTF9HashTableIySt4pairIyPN6WebKit12WebPageProxyEENS_18PairFirstExtractorIS5_EENS_7IntHashIyEENS_14PairHashTraitsINS_10HashTraitsIyEENSB_IS4_EEEESC_E6rehashEi
__ZN3WTF9HashTableIySt4pairIyPN6WebKit12WebPageProxyEENS_18PairFirstExtractorIS5_EENS_7IntHashIyEENS_14PairHashTraitsINS_10HashTraitsIyEENSB_IS4_EEEESC_E6removeEPS5_
__ZN6WebKit12WebPageProxy17didReceiveMessageEPN7CoreIPC10ConnectionENS1_9MessageIDEPNS1_15ArgumentDecoderE
__ZN6WebKit12WebPageProxy29didReceiveWebPageProxyMessageEPN7CoreIPC10ConnectionENS1_9MessageIDEPNS1_15ArgumentDecoderE
__ZN7CoreIPC13handleMessageIN8Messages12WebPageProxy36RegisterWebProcessAccessibilityTokenEN6WebKit12WebPageProxyEMS5_FvRKNS_13DataReferenceEEEEvPNS_15ArgumentDecoderEPT0_T1_
__ZN7CoreIPC13DataReference6decodeEPNS_15ArgumentDecoderERS0_
__ZN7CoreIPC15ArgumentDecoder11decodeBytesERNS_13DataReferenceE
__ZN7CoreIPC18callMemberFunctionIN6WebKit12WebPageProxyEMS2_FvRKNS_13DataReferenceEES3_EEvRKNS_10Arguments1IT1_EEPT_T0_
__ZN6WebKit12WebPageProxy36registerWebProcessAccessibilityTokenERKN7CoreIPC13DataReferenceE
__ZN6WebKit14PageClientImpl36accessibilityWebProcessTokenReceivedERKN7CoreIPC13DataReferenceE
-[WKView(Internal) _setAccessibilityWebProcessToken:]
_WKAXRemoteElementForToken
_WKAXRegisterRemoteProcess
__ZN7CoreIPC13handleMessageIN8Messages12WebPageProxy18DidCreateMainFrameEN6WebKit12WebPageProxyEMS5_FvyEEEvPNS_15ArgumentDecoderEPT0_T1_
__ZN7CoreIPC15ArgumentDecoder12decodeUInt64ERy
__ZN7CoreIPC18callMemberFunctionIN6WebKit12WebPageProxyEMS2_FvyEyEEvRKNS_10Arguments1IT1_EEPT_T0_
__ZN6WebKit12WebPageProxy18didCreateMainFrameEy
__ZNK6WebKit15WebProcessProxy14canCreateFrameEy
__ZNK3WTF9HashTableIySt4pairIyNS_6RefPtrIN6WebKit13WebFrameProxyEEEENS_18PairFirstExtractorIS6_EENS_7IntHashIyEENS_14PairHashTraitsINS_10HashTraitsIyEENSC_IS5_EEEESD_E8containsIyNS_22IdentityHashTranslatorIyS6_SA_EEEEbRKT_
__ZN6WebKit13WebFrameProxyC1EPNS_12WebPageProxyEy
__ZN6WebKit13WebFrameProxyC2EPNS_12WebPageProxyEy
__ZN6WebKit15WebProcessProxy12frameCreatedEyPNS_13WebFrameProxyE
__ZN3WTF7HashMapIyNS_6RefPtrIN6WebKit13WebFrameProxyEEENS_7IntHashIyEENS_10HashTraitsIyEENS7_IS4_EEE3setERKyRKS4_
__ZN3WTF17HashMapTranslatorISt4pairIyNS_6RefPtrIN6WebKit13WebFrameProxyEEEENS_14PairHashTraitsINS_10HashTraitsIyEENS8_IS5_EEEENS_7IntHashIyEEE9translateERS6_RKyRKS5_
__ZN7CoreIPC13handleMessageIN8Messages12WebPageProxy28NumWheelEventHandlersChangedEN6WebKit12WebPageProxyEMS5_FvjEEEvPNS_15ArgumentDecoderEPT0_T1_
__ZN7CoreIPC15ArgumentDecoder12decodeUInt32ERj
__ZN7CoreIPC18callMemberFunctionIN6WebKit12WebPageProxyEMS2_FvjEjEEvRKNS_10Arguments1IT1_EEPT_T0_
__ZN6WebKit12WebPageProxy28numWheelEventHandlersChangedEj
__ZN7CoreIPC21handleMessageVariadicIN8Messages12WebPageProxy22DidFirstLayoutForFrameEN6WebKit12WebPageProxyEMS5_FvyPNS_15ArgumentDecoderEEEEvS7_PT0_T1_
__ZN7CoreIPC18callMemberFunctionIN6WebKit12WebPageProxyEMS2_FvyPNS_15ArgumentDecoderEEyEEvRKNS_10Arguments1IT1_EES4_PT_T0_
__ZN6WebKit12WebPageProxy22didFirstLayoutForFrameEyPN7CoreIPC15ArgumentDecoderE
__ZN6WebKit28WebContextUserMessageDecoder6decodeEPN7CoreIPC15ArgumentDecoderERS0_
__ZN6WebKit18UserMessageDecoderINS_28WebContextUserMessageDecoderEE10baseDecodeEPN7CoreIPC15ArgumentDecoderERS1_RNS_9APIObject4TypeE
__ZNK6WebKit15WebProcessProxy8webFrameEy
__ZNK3WTF7HashMapIyNS_6RefPtrIN6WebKit13WebFrameProxyEEENS_7IntHashIyEENS_10HashTraitsIyEENS7_IS4_EEE3getERKy
__ZN3WTF9HashTableIySt4pairIyNS_6RefPtrIN6WebKit13WebFrameProxyEEEENS_18PairFirstExtractorIS6_EENS_7IntHashIyEENS_14PairHashTraitsINS_10HashTraitsIyEENSC_IS5_EEEESD_E15deallocateTableEPS6_i
__ZN3WTF9HashTableIySt4pairIyNS_6RefPtrIN6WebKit13WebFrameProxyEEEENS_18PairFirstExtractorIS6_EENS_7IntHashIyEENS_14PairHashTraitsINS_10HashTraitsIyEENSC_IS5_EEEESD_E16lookupForWritingERKy
__ZN3WTF9HashTableIySt4pairIyNS_6RefPtrIN6WebKit13WebFrameProxyEEEENS_18PairFirstExtractorIS6_EENS_7IntHashIyEENS_14PairHashTraitsINS_10HashTraitsIyEENSC_IS5_EEEESD_E3addIyS5_NS_17HashMapTranslatorIS6_SF_SA_EEEES1_INS_17HashTableIteratorIyS6_S8_SA_SF_SD_EEbERKT_RKT0_
__ZN3WTF9HashTableIySt4pairIyNS_6RefPtrIN6WebKit13WebFrameProxyEEEENS_18PairFirstExtractorIS6_EENS_7IntHashIyEENS_14PairHashTraitsINS_10HashTraitsIyEENSC_IS5_EEEESD_E4findIyNS_22IdentityHashTranslatorIyS6_SA_EEEENS_17HashTableIteratorIyS6_S8_SA_SF_SD_EERKT_
__ZN3WTF9HashTableIySt4pairIyNS_6RefPtrIN6WebKit13WebFrameProxyEEEENS_18PairFirstExtractorIS6_EENS_7IntHashIyEENS_14PairHashTraitsINS_10HashTraitsIyEENSC_IS5_EEEESD_E6expandEv
__ZN3WTF9HashTableIySt4pairIyNS_6RefPtrIN6WebKit13WebFrameProxyEEEENS_18PairFirstExtractorIS6_EENS_7IntHashIyEENS_14PairHashTraitsINS_10HashTraitsIyEENSC_IS5_EEEESD_E6lookupERKy
__ZN3WTF9HashTableIySt4pairIyNS_6RefPtrIN6WebKit13WebFrameProxyEEEENS_18PairFirstExtractorIS6_EENS_7IntHashIyEENS_14PairHashTraitsINS_10HashTraitsIyEENSC_IS5_EEEESD_E6rehashEi
__ZN3WTF9HashTableIySt4pairIyNS_6RefPtrIN6WebKit13WebFrameProxyEEEENS_18PairFirstExtractorIS6_EENS_7IntHashIyEENS_14PairHashTraitsINS_10HashTraitsIyEENSC_IS5_EEEESD_E6removeEPS6_
__ZN6WebKit15WebLoaderClient22didFirstLayoutForFrameEPNS_12WebPageProxyEPNS_13WebFrameProxyEPNS_9APIObjectE
_WKFrameIsMainFrame
__ZNK6WebKit13WebFrameProxy11isMainFrameEv
__ZN7CoreIPC13handleMessageIN8Messages12WebPageProxy17SetRenderTreeSizeEN6WebKit12WebPageProxyEMS5_FvyEEEvPNS_15ArgumentDecoderEPT0_T1_
__ZN6WebKit12WebPageProxy17setRenderTreeSizeEy
__ZN6WebKit16DrawingAreaProxy33didReceiveDrawingAreaProxyMessageEPN7CoreIPC10ConnectionENS1_9MessageIDEPNS1_15ArgumentDecoderE
__ZN7CoreIPC13handleMessageIN8Messages16DrawingAreaProxy26DidUpdateBackingStoreStateEN6WebKit16DrawingAreaProxyEMS5_FvyRKNS4_10UpdateInfoERKNS4_16LayerTreeContextEEEEvPNS_15ArgumentDecoderEPT0_T1_
__ZN6WebKit15ShareableBitmap6HandleC1Ev
__ZN7CoreIPC10Arguments3IyN6WebKit10UpdateInfoENS1_16LayerTreeContextEE6decodeEPNS_15ArgumentDecoderERS4_
__ZN7CoreIPC10Arguments2IyN6WebKit10UpdateInfoEE6decodeEPNS_15ArgumentDecoderERS3_
__ZN6WebKit10UpdateInfo6decodeEPN7CoreIPC15ArgumentDecoderERS0_
__ZN7CoreIPC15ArgumentDecoder11decodeBytesEPhm
__ZN7CoreIPC19VectorArgumentCoderILb0EN7WebCore7IntRectEE6decodeEPNS_15ArgumentDecoderERN3WTF6VectorIS2_Lm0EEE
__ZN3WTF6VectorIN7WebCore7IntRectELm0EE14shrinkCapacityEm
__ZN6WebKit15ShareableBitmap6Handle6decodeEPN7CoreIPC15ArgumentDecoderERS1_
__ZN6WebKit12SharedMemory6Handle6decodeEPN7CoreIPC15ArgumentDecoderERS1_
__ZN6WebKit16LayerTreeContext6decodeEPN7CoreIPC15ArgumentDecoderERS0_
__ZN7CoreIPC18callMemberFunctionIN6WebKit16DrawingAreaProxyEMS2_FvyRKNS1_10UpdateInfoERKNS1_16LayerTreeContextEEyS3_S6_EEvRKNS_10Arguments3IT1_T2_T3_EEPT_T0_
__ZN6WebKit20DrawingAreaProxyImpl26didUpdateBackingStoreStateEyRKNS_10UpdateInfoERKNS_16LayerTreeContextE
__ZN6WebKit19ResponsivenessTimer4stopEv
__ZN6WebKiteqERKNS_16LayerTreeContextES2_
__ZN6WebKit20DrawingAreaProxyImpl17incorporateUpdateERKNS_10UpdateInfoE
__ZN6WebKit10UpdateInfoD2Ev
__ZN6WebKit15WebProcessProxy32didReceiveWebProcessProxyMessageEPN7CoreIPC10ConnectionENS1_9MessageIDEPNS1_15ArgumentDecoderE
__ZN7CoreIPC13handleMessageIN8Messages15WebProcessProxy15DidDestroyFrameEN6WebKit15WebProcessProxyEMS5_FvyEEEvPNS_15ArgumentDecoderEPT0_T1_
__ZN7CoreIPC18callMemberFunctionIN6WebKit15WebProcessProxyEMS2_FvyEyEEvRKNS_10Arguments1IT1_EEPT_T0_
__ZN6WebKit15WebProcessProxy15didDestroyFrameEy
__ZN6WebKit10WebContext17didReceiveMessageEPN7CoreIPC10ConnectionENS1_9MessageIDEPNS1_15ArgumentDecoderE
__ZN6WebKit26WebGeolocationManagerProxy17didReceiveMessageEPN7CoreIPC10ConnectionENS1_9MessageIDEPNS1_15ArgumentDecoderE
__ZN6WebKit26WebGeolocationManagerProxy43didReceiveWebGeolocationManagerProxyMessageEPN7CoreIPC10ConnectionENS1_9MessageIDEPNS1_15ArgumentDecoderE
__ZN6WebKit26WebGeolocationManagerProxy12stopUpdatingEv
__ZN6WebKit15WebIconDatabase17didReceiveMessageEPN7CoreIPC10ConnectionENS1_9MessageIDEPNS1_15ArgumentDecoderE
__ZN6WebKit15WebIconDatabase32didReceiveWebIconDatabaseMessageEPN7CoreIPC10ConnectionENS1_9MessageIDEPNS1_15ArgumentDecoderE
__ZN7CoreIPC13handleMessageIN8Messages15WebIconDatabase20RetainIconForPageURLEN6WebKit15WebIconDatabaseEMS5_FvRKN3WTF6StringEEEEvPNS_15ArgumentDecoderEPT0_T1_
__ZN7CoreIPC13ArgumentCoderIN3WTF6StringEE6decodeEPNS_15ArgumentDecoderERS2_
__ZNK7CoreIPC15ArgumentDecoder28bufferIsLargeEnoughToContainEjm
__ZN7CoreIPC18callMemberFunctionIN6WebKit15WebIconDatabaseEMS2_FvRKN3WTF6StringEES4_EEvRKNS_10Arguments1IT1_EEPT_T0_
__ZN7CoreIPC10Arguments1IN3WTF6StringEED1Ev
__ZN23MemberFunctionWorkItem0IN7CoreIPC10Connection16SyncMessageStateEE7executeEv
__ZN7CoreIPC10Connection16SyncMessageState54dispatchMessageAndResetDidScheduleDispatchMessagesWorkEv
__ZN7CoreIPC10Connection16SyncMessageState16dispatchMessagesEv
__ZN7CoreIPC10Connection19dispatchSyncMessageENS_9MessageIDEPNS_15ArgumentDecoderE
__ZN6WebKit15WebProcessProxy21didReceiveSyncMessageEPN7CoreIPC10ConnectionENS1_9MessageIDEPNS1_15ArgumentDecoderEPNS1_15ArgumentEncoderE
__ZN6WebKit12WebPageProxy21didReceiveSyncMessageEPN7CoreIPC10ConnectionENS1_9MessageIDEPNS1_15ArgumentDecoderEPNS1_15ArgumentEncoderE
__ZN6WebKit12WebPageProxy33didReceiveSyncWebPageProxyMessageEPN7CoreIPC10ConnectionENS1_9MessageIDEPNS1_15ArgumentDecoderEPNS1_15ArgumentEncoderE
__ZN7CoreIPC13handleMessageIN8Messages12WebPageProxy29ShouldGoToBackForwardListItemEN6WebKit12WebPageProxyEMS5_FvyRbEEEvPNS_15ArgumentDecoderEPNS_15ArgumentEncoderEPT0_T1_
__ZN7CoreIPC18callMemberFunctionIN6WebKit12WebPageProxyEMS2_FvyRbEybEEvRKNS_10Arguments1IT1_EERNS6_IT2_EEPT_T0_
__ZN6WebKit12WebPageProxy29shouldGoToBackForwardListItemEyRb
__ZNK6WebKit15WebProcessProxy18webBackForwardItemEy
__ZNK3WTF7HashMapIyNS_6RefPtrIN6WebKit22WebBackForwardListItemEEENS_7IntHashIyEENS_10HashTraitsIyEENS7_IS4_EEE3getERKy
__ZN3WTF9HashTableIySt4pairIyNS_6RefPtrIN6WebKit22WebBackForwardListItemEEEENS_18PairFirstExtractorIS6_EENS_7IntHashIyEENS_14PairHashTraitsINS_10HashTraitsIyEENSC_IS5_EEEESD_E15deallocateTableEPS6_i
__ZN3WTF9HashTableIySt4pairIyNS_6RefPtrIN6WebKit22WebBackForwardListItemEEEENS_18PairFirstExtractorIS6_EENS_7IntHashIyEENS_14PairHashTraitsINS_10HashTraitsIyEENSC_IS5_EEEESD_E16lookupForWritingERKy
__ZN3WTF9HashTableIySt4pairIyNS_6RefPtrIN6WebKit22WebBackForwardListItemEEEENS_18PairFirstExtractorIS6_EENS_7IntHashIyEENS_14PairHashTraitsINS_10HashTraitsIyEENSC_IS5_EEEESD_E3addIyS5_NS_17HashMapTranslatorIS6_SF_SA_EEEES1_INS_17HashTableIteratorIyS6_S8_SA_SF_SD_EEbERKT_RKT0_
__ZN3WTF9HashTableIySt4pairIyNS_6RefPtrIN6WebKit22WebBackForwardListItemEEEENS_18PairFirstExtractorIS6_EENS_7IntHashIyEENS_14PairHashTraitsINS_10HashTraitsIyEENSC_IS5_EEEESD_E4findIyNS_22IdentityHashTranslatorIyS6_SA_EEEENS_17HashTableIteratorIyS6_S8_SA_SF_SD_EERKT_
__ZN3WTF9HashTableIySt4pairIyNS_6RefPtrIN6WebKit22WebBackForwardListItemEEEENS_18PairFirstExtractorIS6_EENS_7IntHashIyEENS_14PairHashTraitsINS_10HashTraitsIyEENSC_IS5_EEEESD_E6expandEv
__ZN3WTF9HashTableIySt4pairIyNS_6RefPtrIN6WebKit22WebBackForwardListItemEEEENS_18PairFirstExtractorIS6_EENS_7IntHashIyEENS_14PairHashTraitsINS_10HashTraitsIyEENSC_IS5_EEEESD_E6lookupERKy
__ZN3WTF9HashTableIySt4pairIyNS_6RefPtrIN6WebKit22WebBackForwardListItemEEEENS_18PairFirstExtractorIS6_EENS_7IntHashIyEENS_14PairHashTraitsINS_10HashTraitsIyEENSC_IS5_EEEESD_E6rehashEi
__ZN6WebKit15WebLoaderClient29shouldGoToBackForwardListItemEPNS_12WebPageProxyEPNS_22WebBackForwardListItemE
__ZN3WTF6VectorIN7CoreIPC10Connection16SyncMessageState28ConnectionAndIncomingMessageELm0EED2Ev
__ZN3WTF16VectorDestructorILb1EN7CoreIPC10Connection16SyncMessageState28ConnectionAndIncomingMessageEE8destructEPS4_S6_
__ZN3WTF6RefPtrIN7CoreIPC10ConnectionEED1Ev
__ZN23MemberFunctionWorkItem0IN7CoreIPC10Connection16SyncMessageStateEED0Ev
__ZN3WTF20ThreadSafeRefCountedIN7CoreIPC10Connection16SyncMessageStateEE5derefEv
__ZN7CoreIPC13handleMessageIN8Messages12WebPageProxy22BackForwardItemAtIndexEN6WebKit12WebPageProxyEMS5_FviRyEEEvPNS_15ArgumentDecoderEPNS_15ArgumentEncoderEPT0_T1_
__ZN7CoreIPC15ArgumentDecoder11decodeInt32ERi
__ZN7CoreIPC18callMemberFunctionIN6WebKit12WebPageProxyEMS2_FviRyEiyEEvRKNS_10Arguments1IT1_EERNS6_IT2_EEPT_T0_
__ZN6WebKit12WebPageProxy22backForwardItemAtIndexEiRy
__ZN7CoreIPC13handleMessageIN8Messages12WebPageProxy19BackForwardGoToItemEN6WebKit12WebPageProxyEMS5_FvyEEEvPNS_15ArgumentDecoderEPT0_T1_
__ZN6WebKit12WebPageProxy19backForwardGoToItemEy
__ZN6WebKit18WebBackForwardList8goToItemEPNS_22WebBackForwardListItemE
__ZN6WebKit12WebPageProxy24didChangeBackForwardListEPNS_22WebBackForwardListItemEPN3WTF6VectorINS3_6RefPtrINS_9APIObjectEEELm0EEE
__ZN6WebKit15WebLoaderClient24didChangeBackForwardListEPNS_12WebPageProxyEPNS_22WebBackForwardListItemEPN3WTF6VectorINS5_6RefPtrINS_9APIObjectEEELm0EEE
__ZN6WebKit12WebPageProxy16didStartProgressEv
__ZN6WebKit15WebLoaderClient16didStartProgressEPNS_12WebPageProxyE
_WKPageGetEstimatedProgress
__ZNK6WebKit12WebPageProxy17estimatedProgressEv
__ZN7CoreIPC21handleMessageVariadicIN8Messages12WebPageProxy31DidStartProvisionalLoadForFrameEN6WebKit12WebPageProxyEMS5_FvyRKN3WTF6StringES9_PNS_15ArgumentDecoderEEEEvSB_PT0_T1_
__ZN7CoreIPC10Arguments3IyN3WTF6StringES2_E6decodeEPNS_15ArgumentDecoderERS3_
__ZN7CoreIPC10Arguments2IyN3WTF6StringEE6decodeEPNS_15ArgumentDecoderERS3_
__ZN7CoreIPC18callMemberFunctionIN6WebKit12WebPageProxyEMS2_FvyRKN3WTF6StringES6_PNS_15ArgumentDecoderEEyS4_S4_EEvRKNS_10Arguments3IT1_T2_T3_EES8_PT_T0_
__ZN6WebKit12WebPageProxy31didStartProvisionalLoadForFrameEyRKN3WTF6StringES4_PN7CoreIPC15ArgumentDecoderE
__ZN6WebKit12WebPageProxy25clearPendingAPIRequestURLEv
__ZN7CoreIPC13ArgumentCoderIN6WebKit28WebContextUserMessageDecoderEE6decodeEPNS_15ArgumentDecoderERS2_
__ZN7CoreIPC15ArgumentDecoder10decodeBoolERb
__ZN6WebKit19ImmutableDictionaryC1ERN3WTF7HashMapINS1_6StringENS1_6RefPtrINS_9APIObjectEEENS1_10StringHashENS1_10HashTraitsIS3_EENS8_IS6_EEEE
__ZN6WebKit13WebFrameProxy17setUnreachableURLERKN3WTF6StringE
__ZN6WebKit13WebFrameProxy23didStartProvisionalLoadERKN3WTF6StringE
__ZN6WebKit15WebLoaderClient31didStartProvisionalLoadForFrameEPNS_12WebPageProxyEPNS_13WebFrameProxyEPNS_9APIObjectE
_WKFrameCopyURL
_WKFrameGetFrameLoadState
_WKFrameCopyProvisionalURL
_WKGetTypeID
_WKDictionaryGetTypeID
_WKDictionaryGetItemForKey
__ZN6WebKit19ImmutableDictionary3getERKN3WTF6StringE
__ZNK3WTF7HashMapINS_6StringENS_6RefPtrIN6WebKit9APIObjectEEENS_10StringHashENS_10HashTraitsIS1_EENS7_IS5_EEE3getERKS1_
_WKBooleanGetTypeID
_WKBooleanGetValue
_WKPageGetRenderTreeSize
__ZN6WebKit19ImmutableDictionaryD0Ev
__ZN7CoreIPC10Arguments3IyN3WTF6StringES2_ED2Ev
__ZN7CoreIPC10Arguments2IyN3WTF6StringEED2Ev
__ZN7CoreIPC13handleMessageIN8Messages12WebPageProxy26DidInitiateLoadForResourceEN6WebKit12WebPageProxyEMS5_FvyyRKN7WebCore15ResourceRequestEbEEEvPNS_15ArgumentDecoderEPT0_T1_
__ZN7WebCore15ResourceRequestC2Ev
__ZN7WebCore19ResourceRequestBaseC2ERKNS_4KURLENS_26ResourceRequestCachePolicyE
__ZN7WebCore4KURLC2ERKS0_
__ZN7CoreIPC10Arguments4IyyN7WebCore15ResourceRequestEbE6decodeEPNS_15ArgumentDecoderERS3_
__ZN7CoreIPC10Arguments3IyyN7WebCore15ResourceRequestEE6decodeEPNS_15ArgumentDecoderERS3_
__ZN7CoreIPC10Arguments2IyyE6decodeEPNS_15ArgumentDecoderERS1_
__ZN7CoreIPC21decodeResourceRequestEPNS_15ArgumentDecoderERN7WebCore15ResourceRequestE
__ZN7CoreIPC6decodeEPNS_15ArgumentDecoderERN3WTF9RetainPtrIPK14__CFDictionaryEE
__ZN7CoreIPC6decodeEPNS_15ArgumentDecoderERN3WTF9RetainPtrIPK10__CFStringEE
__ZN7CoreIPC6decodeEPNS_15ArgumentDecoderERN3WTF9RetainPtrIPKvEE
__ZN7CoreIPC6decodeEPNS_15ArgumentDecoderERN3WTF9RetainPtrIPK10__CFNumberEE
__ZN7CoreIPC6decodeEPNS_15ArgumentDecoderERN3WTF9RetainPtrIPK9__CFArrayEE
__ZN7CoreIPC6decodeEPNS_15ArgumentDecoderERN3WTF9RetainPtrIPK11__CFBooleanEE
__ZN7CoreIPC6decodeEPNS_15ArgumentDecoderERN3WTF9RetainPtrIPK7__CFURLEE
__ZN7CoreIPC16tokenNullTypeRefEv
_WKNSURLRequestFromSerializableRepresentation
_createArchiveList
_dictionaryValueOfType
__ZN7WebCore15ResourceRequestC2EP12NSURLRequest
__ZN7WebCore19ResourceRequestBaseC2Ev
__ZN7WebCore4KURLC2Ev
__ZN3WTF9RetainPtrI12NSURLRequestEC2EPS1_
__ZN7WebCore15ResourceRequestaSERKS0_
__ZN7WebCore19ResourceRequestBaseaSERKS0_
__ZN7WebCore4KURLaSERKS0_
__ZN3WTF22HashTableConstIteratorINS_12AtomicStringESt4pairIS1_NS_6StringEENS_18PairFirstExtractorIS4_EENS_15CaseFoldingHashENS_14PairHashTraitsINS_10HashTraitsIS1_EENS9_IS3_EEEESA_E16skipEmptyBucketsEv
__ZN3WTF6VectorINS_6StringELm0EEaSERKS2_
__ZNSt6__copyILb0ESt26random_access_iterator_tagE4copyIPKN3WTF6StringEPS4_EET0_T_S9_S8_
__ZN3WTF12VectorCopierILb0ENS_6StringEE17uninitializedCopyEPKS1_S4_PS1_
__ZN7WebCore15ResourceRequestD2Ev
__ZN7WebCore19ResourceRequestBaseD2Ev
__ZN7CoreIPC18callMemberFunctionIN6WebKit12WebPageProxyEMS2_FvyyRKN7WebCore15ResourceRequestEbEyyS4_bEEvRKNS_10Arguments4IT1_T2_T3_T4_EEPT_T0_
__ZN6WebKit12WebPageProxy26didInitiateLoadForResourceEyyRKN7WebCore15ResourceRequestEb
__ZN6WebKit21WebResourceLoadClient26didInitiateLoadForResourceEPNS_12WebPageProxyEPNS_13WebFrameProxyEyRKN7WebCore15ResourceRequestEb
__ZN6WebKit13WebURLRequestC1ERKN7WebCore15ResourceRequestE
__ZN7WebCore15ResourceRequestC2ERKS0_
__ZN7WebCore19ResourceRequestBaseC2ERKS0_
__ZN3WTF6VectorINS_6StringELm0EEC2ERKS2_
_WKFrameCopyUnreachableURL
_WKURLRequestCopyNSURLRequest
__ZNK6WebKit13WebURLRequest15platformRequestEv
__ZN6WebKit13WebURLRequestD0Ev
__ZN7CoreIPC13handleMessageIN8Messages12WebPageProxy25DidSendRequestForResourceEN6WebKit12WebPageProxyEMS5_FvyyRKN7WebCore15ResourceRequestERKNS6_16ResourceResponseEEEEvPNS_15ArgumentDecoderEPT0_T1_
__ZN7CoreIPC10Arguments4IyyN7WebCore15ResourceRequestENS1_16ResourceResponseEE6decodeEPNS_15ArgumentDecoderERS4_
__ZN7CoreIPC22decodeResourceResponseEPNS_15ArgumentDecoderERN7WebCore16ResourceResponseE
__ZN7WebCore16ResourceResponseC2Ev
__ZN7WebCore16ResourceResponseaSERKS0_
__ZN7WebCore20ResourceResponseBaseaSERKS0_
__ZN7WebCore16ResourceResponseD2Ev
__ZN7WebCore20ResourceResponseBaseD2Ev
__ZN7CoreIPC18callMemberFunctionIN6WebKit12WebPageProxyEMS2_FvyyRKN7WebCore15ResourceRequestERKNS3_16ResourceResponseEEyyS4_S7_EEvRKNS_10Arguments4IT1_T2_T3_T4_EEPT_T0_
__ZN6WebKit12WebPageProxy25didSendRequestForResourceEyyRKN7WebCore15ResourceRequestERKNS1_16ResourceResponseE
__ZN6WebKit21WebResourceLoadClient25didSendRequestForResourceEPNS_12WebPageProxyEPNS_13WebFrameProxyEyRKN7WebCore15ResourceRequestERKNS5_16ResourceResponseE
__ZN6WebKit12WebPageProxy23stopResponsivenessTimerEv
__ZN6WebKit12BackingStore6createERKN7WebCore7IntSizeEPNS_12WebPageProxyE
__ZN3WTF10PassOwnPtrIN6WebKit12BackingStoreEED1Ev
__ZN6WebKit12BackingStore17incorporateUpdateERKNS_10UpdateInfoE
__ZN6WebKit15ShareableBitmap6createERKNS0_6HandleE
__ZN6WebKit12SharedMemory6createERKNS0_6HandleENS0_10ProtectionE
__ZN6WebKit12BackingStore17incorporateUpdateEPNS_15ShareableBitmapERKNS_10UpdateInfoE
__ZN6WebKit12BackingStore19backingStoreContextEv
__ZN6WebKit12WebPageProxy31containingWindowGraphicsContextEv
__ZN6WebKit14PageClientImpl31containingWindowGraphicsContextEv
__ZN6WebKit12BackingStore6scrollERKN7WebCore7IntRectERKNS1_7IntSizeE
__ZN6WebKit15ShareableBitmap5paintERN7WebCore15GraphicsContextERKNS1_8IntPointERKNS1_7IntRectE
__ZN6WebKit15ShareableBitmap15makeCGImageCopyEv
__ZN6WebKit15ShareableBitmap21createGraphicsContextEv
__ZNK6WebKit15ShareableBitmap4dataEv
__ZN3WTF10PassOwnPtrIN7WebCore15GraphicsContextEED1Ev
__ZN3WTF6OwnPtrIN7WebCore15GraphicsContextEED1Ev
__ZN6WebKit15ShareableBitmap24releaseBitmapContextDataEPvS1_
__ZN3WTF10RefCountedIN6WebKit15ShareableBitmapEE5derefEv
__ZN6WebKit10paintImageEP9CGContextP7CGImage7CGPoint6CGRect
__ZN6WebKit15ShareableBitmapD1Ev
__ZN6WebKit15ShareableBitmapD2Ev
__ZN6WebKit12SharedMemoryD1Ev
__ZN6WebKit12SharedMemoryD2Ev
__ZN6WebKit12WebPageProxy19setViewNeedsDisplayERKN7WebCore7IntRectE
__ZN6WebKit14PageClientImpl19setViewNeedsDisplayERKN7WebCore7IntRectE
__ZN7CoreIPC21handleMessageVariadicIN8Messages12WebPageProxy30DidFailProvisionalLoadForFrameEN6WebKit12WebPageProxyEMS5_FvyRKN7WebCore13ResourceErrorEPNS_15ArgumentDecoderEEEEvSB_PT0_T1_
__ZN7CoreIPC10Arguments2IyN7WebCore13ResourceErrorEE6decodeEPNS_15ArgumentDecoderERS3_
__ZN7CoreIPC19decodeResourceErrorEPNS_15ArgumentDecoderERN7WebCore13ResourceErrorE
__ZN7CoreIPC15ArgumentDecoder11decodeInt64ERx
__ZN7CoreIPC13ArgumentCoderIN3WTF7HashMapINS1_6StringES3_NS1_10StringHashENS1_10HashTraitsIS3_EES6_EEE6decodeEPNS_15ArgumentDecoderERS7_
__ZN6WebKit23PlatformCertificateInfoC1Ev
__ZN6WebKit23PlatformCertificateInfo6decodeEPN7CoreIPC15ArgumentDecoderERS0_
__ZN7CoreIPCL8nsStringERKN3WTF6StringE
__ZN7WebCore13ResourceErroraSERKS0_
__ZN7WebCore17ResourceErrorBaseaSERKS0_
__ZN7WebCore13ResourceErrorD2Ev
__ZN7WebCore17ResourceErrorBaseD2Ev
__ZN7CoreIPC18callMemberFunctionIN6WebKit12WebPageProxyEMS2_FvyRKN7WebCore13ResourceErrorEPNS_15ArgumentDecoderEEyS4_EEvRKNS_10Arguments2IT1_T2_EES8_PT_T0_
__ZN6WebKit12WebPageProxy30didFailProvisionalLoadForFrameEyRKN7WebCore13ResourceErrorEPN7CoreIPC15ArgumentDecoderE
__ZN6WebKit13WebFrameProxy22didFailProvisionalLoadEv
__ZN6WebKit15WebLoaderClient39didFailProvisionalLoadWithErrorForFrameEPNS_12WebPageProxyEPNS_13WebFrameProxyERKN7WebCore13ResourceErrorEPNS_9APIObjectE
__ZN7WebCore13ResourceErrorC2ERKS0_
__ZN7WebCore17ResourceErrorBaseC2ERKS0_
_WKErrorCopyFailingURL
_WKErrorCopyLocalizedDescription
_WKErrorGetErrorCode
_WKErrorCopyDomain
_WKErrorCopyWKErrorDomain
__ZN6WebKit8WebError17webKitErrorDomainEv
_WKURLCreateWithCFURL
_WKPageLoadAlternateHTMLString
__ZN6WebKit12WebPageProxy23loadAlternateHTMLStringERKN3WTF6StringES4_S4_
__ZN6WebKit15WebProcessProxy4sendIN8Messages7WebPage23LoadAlternateHTMLStringEEEbRKT_yj
__ZNK7CoreIPC10Arguments3IRKN3WTF6StringES4_S4_E6encodeEPNS_15ArgumentEncoderE
__ZN6WebKit8WebErrorD0Ev
__ZN7CoreIPC13handleMessageIN8Messages12WebPageProxy17DidChangeProgressEN6WebKit12WebPageProxyEMS5_FvdEEEvPNS_15ArgumentDecoderEPT0_T1_
__ZN7CoreIPC15ArgumentDecoder12decodeDoubleERd
__ZN7CoreIPC18callMemberFunctionIN6WebKit12WebPageProxyEMS2_FvdEdEEvRKNS_10Arguments1IT1_EEPT_T0_
__ZN6WebKit12WebPageProxy17didChangeProgressEd
__ZN6WebKit15WebLoaderClient17didChangeProgressEPNS_12WebPageProxyE
__ZN6WebKit12WebPageProxy17didFinishProgressEv
__ZN6WebKit15WebLoaderClient17didFinishProgressEPNS_12WebPageProxyE
__ZN7CoreIPC13handleMessageIN8Messages12WebPageProxy22DidFailLoadForResourceEN6WebKit12WebPageProxyEMS5_FvyyRKN7WebCore13ResourceErrorEEEEvPNS_15ArgumentDecoderEPT0_T1_
__ZN7CoreIPC10Arguments3IyyN7WebCore13ResourceErrorEE6decodeEPNS_15ArgumentDecoderERS3_
__ZN7CoreIPC18callMemberFunctionIN6WebKit12WebPageProxyEMS2_FvyyRKN7WebCore13ResourceErrorEEyyS4_EEvRKNS_10Arguments3IT1_T2_T3_EEPT_T0_
__ZN6WebKit12WebPageProxy22didFailLoadForResourceEyyRKN7WebCore13ResourceErrorE
__ZN6WebKit21WebResourceLoadClient22didFailLoadForResourceEPNS_12WebPageProxyEPNS_13WebFrameProxyEyRKN7WebCore13ResourceErrorE
__ZN7CoreIPC13handleMessageIN8Messages12WebPageProxy29DidReceiveResponseForResourceEN6WebKit12WebPageProxyEMS5_FvyyRKN7WebCore16ResourceResponseEEEEvPNS_15ArgumentDecoderEPT0_T1_
__ZN7CoreIPC10Arguments3IyyN7WebCore16ResourceResponseEE6decodeEPNS_15ArgumentDecoderERS3_
_WKNSURLResponseFromSerializableRepresentation
__ZN7WebCore16ResourceResponseC2EP13NSURLResponse
__ZN3WTF9RetainPtrI13NSURLResponseEC2EPS1_
__ZN7CoreIPC18callMemberFunctionIN6WebKit12WebPageProxyEMS2_FvyyRKN7WebCore16ResourceResponseEEyyS4_EEvRKNS_10Arguments3IT1_T2_T3_EEPT_T0_
__ZN6WebKit12WebPageProxy29didReceiveResponseForResourceEyyRKN7WebCore16ResourceResponseE
__ZN6WebKit21WebResourceLoadClient29didReceiveResponseForResourceEPNS_12WebPageProxyEPNS_13WebFrameProxyEyRKN7WebCore16ResourceResponseE
__ZN6WebKit14WebURLResponseC1ERKN7WebCore16ResourceResponseE
__ZN7WebCore16ResourceResponseC2ERKS0_
__ZN7WebCore20ResourceResponseBaseC2ERKS0_
_WKURLResponseCopyNSURLResponse
__ZNK6WebKit14WebURLResponse16platformResponseEv
__ZN6WebKit14WebURLResponseD0Ev
__ZN6WebKit12WebPageProxy20clearAllEditCommandsEv
__ZN6WebKit14PageClientImpl20clearAllEditCommandsEv
__ZN6WebKit12BackingStore5paintEP9CGContextRKN7WebCore7IntRectE
__ZN6WebKit6Region8subtractERKS0_
__ZN6WebKit6Region5Shape14shapeOperationINS1_17SubtractOperationEEES1_RKS1_S5_
__ZN6WebKit6Region5Shape17SubtractOperation18trySimpleOperationERKS1_S4_RS1_
__ZNK6WebKit6Region5Shape6boundsEv
__ZN6WebKit20DrawingAreaProxyImpl23discardBackingStoreSoonEv
__ZThn16_N6WebKit15WebIconDatabase18didFinishURLImportEv
__ZN6WebKit15WebIconDatabase18didFinishURLImportEv
__ZThn16_N6WebKit15WebIconDatabase27didImportIconDataForPageURLERKN3WTF6StringE
__ZN6WebKit15WebIconDatabase23didChangeIconForPageURLERKN3WTF6StringE
__ZN6WebKit21WebIconDatabaseClient23didChangeIconForPageURLEPNS_15WebIconDatabaseEPNS_6WebURLE
__ZN7CoreIPC13handleMessageIN8Messages15WebIconDatabase21ReleaseIconForPageURLEN6WebKit15WebIconDatabaseEMS5_FvRKN3WTF6StringEEEEvPNS_15ArgumentDecoderEPT0_T1_
__ZN6WebKit15WebIconDatabase21releaseIconForPageURLERKN3WTF6StringE
__ZN7CoreIPC13handleMessageIN8Messages15WebProcessProxy18AddBackForwardItemEN6WebKit15WebProcessProxyEMS5_FvyRKN3WTF6StringES9_S9_RKNS_13DataReferenceEEEEvPNS_15ArgumentDecoderEPT0_T1_
__ZN7CoreIPC10Arguments5IyN3WTF6StringES2_S2_NS_13DataReferenceEE6decodeEPNS_15ArgumentDecoderERS4_
__ZN7CoreIPC10Arguments4IyN3WTF6StringES2_S2_E6decodeEPNS_15ArgumentDecoderERS3_
__ZN7CoreIPC18callMemberFunctionIN6WebKit15WebProcessProxyEMS2_FvyRKN3WTF6StringES6_S6_RKNS_13DataReferenceEEyS4_S4_S4_S7_EEvRKNS_10Arguments5IT1_T2_T3_T4_T5_EEPT_T0_
__ZN6WebKit15WebProcessProxy18addBackForwardItemEyRKN3WTF6StringES4_S4_RKN7CoreIPC13DataReferenceE
__ZN7CoreIPC10Arguments4IyN3WTF6StringES2_S2_ED2Ev
__ZN7CoreIPC13handleMessageIN8Messages12WebPageProxy18BackForwardAddItemEN6WebKit12WebPageProxyEMS5_FvyEEEvPNS_15ArgumentDecoderEPT0_T1_
__ZN6WebKit12WebPageProxy18backForwardAddItemEy
__ZN6WebKit18WebBackForwardList7addItemEPNS_22WebBackForwardListItemE
__ZN6WebKit10WebContext27didReceiveWebContextMessageEPN7CoreIPC10ConnectionENS1_9MessageIDEPNS1_15ArgumentDecoderE
__ZN7CoreIPC13handleMessageIN8Messages10WebContext29DidNavigateWithNavigationDataEN6WebKit10WebContextEMS5_FvyRKNS4_22WebNavigationDataStoreEyEEEvPNS_15ArgumentDecoderEPT0_T1_
__ZN7CoreIPC10Arguments3IyN6WebKit22WebNavigationDataStoreEyE6decodeEPNS_15ArgumentDecoderERS3_
__ZN7CoreIPC10Arguments2IyN6WebKit22WebNavigationDataStoreEE6decodeEPNS_15ArgumentDecoderERS3_
__ZN6WebKit22WebNavigationDataStore6decodeEPN7CoreIPC15ArgumentDecoderERS0_
__ZN7CoreIPC18callMemberFunctionIN6WebKit10WebContextEMS2_FvyRKNS1_22WebNavigationDataStoreEyEyS3_yEEvRKNS_10Arguments3IT1_T2_T3_EEPT_T0_
__ZN6WebKit10WebContext29didNavigateWithNavigationDataEyRKNS_22WebNavigationDataStoreEy
__ZNK6WebKit15WebProcessProxy7webPageEy
__ZN6WebKit16WebHistoryClient29didNavigateWithNavigationDataEPNS_10WebContextEPNS_12WebPageProxyERKNS_22WebNavigationDataStoreEPNS_13WebFrameProxyE
__ZN6WebKit17WebNavigationDataC1ERKNS_22WebNavigationDataStoreE
__ZN6WebKit22WebNavigationDataStoreC2ERKS0_
_WKNavigationDataCopyURL
_WKNavigationDataCopyTitle
__ZN6WebKit17WebNavigationDataD0Ev
__ZN6WebKit22WebNavigationDataStoreD2Ev
__ZN7CoreIPC13handleMessageIN8Messages12WebPageProxy13SetStatusTextEN6WebKit12WebPageProxyEMS5_FvRKN3WTF6StringEEEEvPNS_15ArgumentDecoderEPT0_T1_
__ZN7CoreIPC18callMemberFunctionIN6WebKit12WebPageProxyEMS2_FvRKN3WTF6StringEES4_EEvRKNS_10Arguments1IT1_EEPT_T0_
__ZN6WebKit12WebPageProxy13setStatusTextERKN3WTF6StringE
__ZN6WebKit11WebUIClient13setStatusTextEPNS_12WebPageProxyERKN3WTF6StringE
__ZN7CoreIPC21handleMessageVariadicIN8Messages12WebPageProxy21DidCommitLoadForFrameEN6WebKit12WebPageProxyEMS5_FvyRKN3WTF6StringEbRKNS4_23PlatformCertificateInfoEPNS_15ArgumentDecoderEEEEvSE_PT0_T1_
__ZN7CoreIPC10Arguments4IyN3WTF6StringEbN6WebKit23PlatformCertificateInfoEE6decodeEPNS_15ArgumentDecoderERS5_
__ZN7CoreIPC10Arguments3IyN3WTF6StringEbE6decodeEPNS_15ArgumentDecoderERS3_
__ZN7CoreIPC18callMemberFunctionIN6WebKit12WebPageProxyEMS2_FvyRKN3WTF6StringEbRKNS1_23PlatformCertificateInfoEPNS_15ArgumentDecoderEEyS4_bS7_EEvRKNS_10Arguments4IT1_T2_T3_T4_EESB_PT_T0_
__ZN6WebKit12WebPageProxy21didCommitLoadForFrameEyRKN3WTF6StringEbRKNS_23PlatformCertificateInfoEPN7CoreIPC15ArgumentDecoderE
__ZN6WebKit14PageClientImpl19resetTextInputStateEv
-[WKView(Internal) _resetTextInputState]
-[WKView _notifyInputContextAboutDiscardedComposition]
__ZN6WebKit14PageClientImpl22dismissCorrectionPanelEN7WebCore34ReasonForDismissingCorrectionPanelE
__ZN6WebKit15CorrectionPanel7dismissEN7WebCore34ReasonForDismissingCorrectionPanelE
__ZN6WebKit15CorrectionPanel15dismissInternalEN7WebCore34ReasonForDismissingCorrectionPanelEb
__ZN6WebKit14PageClientImpl28dismissDictionaryLookupPanelEv
__ZN6WebKit12WebPageProxy27clearLoadDependentCallbacksEv
__ZN6WebKit13WebFrameProxy13didCommitLoadERKN3WTF6StringERKNS_23PlatformCertificateInfoE
__ZN6WebKit18WebCertificateInfo6createERKNS_23PlatformCertificateInfoE
__ZN6WebKit14PageClientImpl25didCommitLoadForMainFrameEb
__ZN3WTF6OwnPtrIN6WebKit17PDFViewControllerEEaSESt9nullptr_t
__ZN6WebKit15WebLoaderClient21didCommitLoadForFrameEPNS_12WebPageProxyEPNS_13WebFrameProxyEPNS_9APIObjectE
_WKFrameGetPage
-[WKView becomeFirstResponder]
-[WKView(Internal) _updateSecureInputState]
__ZN6WebKit15WebProcessProxy4sendIN8Messages7WebPage10SetFocusedEEEbRKT_yj
__ZN7CoreIPC10Arguments4IyN3WTF6StringEbN6WebKit23PlatformCertificateInfoEED2Ev
__ZN6WebKit22WebBackForwardListItem18setBackForwardDataEPKhm
__ZN7CoreIPC13handleMessageIN8Messages10WebContext21DidUpdateHistoryTitleEN6WebKit10WebContextEMS5_FvyRKN3WTF6StringES9_yEEEvPNS_15ArgumentDecoderEPT0_T1_
__ZN7CoreIPC10Arguments4IyN3WTF6StringES2_yE6decodeEPNS_15ArgumentDecoderERS3_
__ZN7CoreIPC18callMemberFunctionIN6WebKit10WebContextEMS2_FvyRKN3WTF6StringES6_yEyS4_S4_yEEvRKNS_10Arguments4IT1_T2_T3_T4_EEPT_T0_
__ZN6WebKit10WebContext21didUpdateHistoryTitleEyRKN3WTF6StringES4_y
__ZN6WebKit16WebHistoryClient21didUpdateHistoryTitleEPNS_10WebContextEPNS_12WebPageProxyERKN3WTF6StringES8_PNS_13WebFrameProxyE
__ZN7CoreIPC21handleMessageVariadicIN8Messages12WebPageProxy23DidReceiveTitleForFrameEN6WebKit12WebPageProxyEMS5_FvyRKN3WTF6StringEPNS_15ArgumentDecoderEEEEvSB_PT0_T1_
__ZN7CoreIPC18callMemberFunctionIN6WebKit12WebPageProxyEMS2_FvyRKN3WTF6StringEPNS_15ArgumentDecoderEEyS4_EEvRKNS_10Arguments2IT1_T2_EES8_PT_T0_
__ZN6WebKit12WebPageProxy23didReceiveTitleForFrameEyRKN3WTF6StringEPN7CoreIPC15ArgumentDecoderE
__ZN6WebKit13WebFrameProxy14didChangeTitleERKN3WTF6StringE
__ZN6WebKit15WebLoaderClient23didReceiveTitleForFrameEPNS_12WebPageProxyERKN3WTF6StringEPNS_13WebFrameProxyEPNS_9APIObjectE
__ZN7CoreIPC10Arguments2IyN3WTF6StringEED1Ev
__ZN7CoreIPC13handleMessageIN8Messages12WebPageProxy34DidReceiveContentLengthForResourceEN6WebKit12WebPageProxyEMS5_FvyyyEEEvPNS_15ArgumentDecoderEPT0_T1_
__ZN7CoreIPC10Arguments3IyyyE6decodeEPNS_15ArgumentDecoderERS1_
__ZN7CoreIPC18callMemberFunctionIN6WebKit12WebPageProxyEMS2_FvyyyEyyyEEvRKNS_10Arguments3IT1_T2_T3_EEPT_T0_
__ZN6WebKit12WebPageProxy34didReceiveContentLengthForResourceEyyy
__ZN6WebKit21WebResourceLoadClient34didReceiveContentLengthForResourceEPNS_12WebPageProxyEPNS_13WebFrameProxyEyy
__ZN7CoreIPC21handleMessageVariadicIN8Messages12WebPageProxy29DidFinishDocumentLoadForFrameEN6WebKit12WebPageProxyEMS5_FvyPNS_15ArgumentDecoderEEEEvS7_PT0_T1_
__ZN6WebKit12WebPageProxy29didFinishDocumentLoadForFrameEyPN7CoreIPC15ArgumentDecoderE
__ZN6WebKit15WebLoaderClient29didFinishDocumentLoadForFrameEPNS_12WebPageProxyEPNS_13WebFrameProxyEPNS_9APIObjectE
__ZN7CoreIPC13handleMessageIN8Messages12WebPageProxy24DidFinishLoadForResourceEN6WebKit12WebPageProxyEMS5_FvyyEEEvPNS_15ArgumentDecoderEPT0_T1_
__ZN7CoreIPC18callMemberFunctionIN6WebKit12WebPageProxyEMS2_FvyyEyyEEvRKNS_10Arguments2IT1_T2_EEPT_T0_
__ZN6WebKit12WebPageProxy24didFinishLoadForResourceEyy
__ZN6WebKit21WebResourceLoadClient24didFinishLoadForResourceEPNS_12WebPageProxyEPNS_13WebFrameProxyEy
__ZN7CoreIPC21handleMessageVariadicIN8Messages12WebPageProxy38DidFirstVisuallyNonEmptyLayoutForFrameEN6WebKit12WebPageProxyEMS5_FvyPNS_15ArgumentDecoderEEEEvS7_PT0_T1_
__ZN6WebKit12WebPageProxy38didFirstVisuallyNonEmptyLayoutForFrameEyPN7CoreIPC15ArgumentDecoderE
__ZN6WebKit15WebLoaderClient38didFirstVisuallyNonEmptyLayoutForFrameEPNS_12WebPageProxyEPNS_13WebFrameProxyEPNS_9APIObjectE
__ZN7CoreIPC21handleMessageVariadicIN8Messages12WebPageProxy21DidFinishLoadForFrameEN6WebKit12WebPageProxyEMS5_FvyPNS_15ArgumentDecoderEEEEvS7_PT0_T1_
__ZN6WebKit12WebPageProxy21didFinishLoadForFrameEyPN7CoreIPC15ArgumentDecoderE
__ZN6WebKit13WebFrameProxy13didFinishLoadEv
__ZN6WebKit15WebLoaderClient21didFinishLoadForFrameEPNS_12WebPageProxyEPNS_13WebFrameProxyEPNS_9APIObjectE
__ZN7CoreIPC13handleMessageIN8Messages12WebPageProxy19FocusedFrameChangedEN6WebKit12WebPageProxyEMS5_FvyEEEvPNS_15ArgumentDecoderEPT0_T1_
__ZN6WebKit12WebPageProxy19focusedFrameChangedEy
__ZN7CoreIPC13handleMessageIN8Messages16DrawingAreaProxy6UpdateEN6WebKit16DrawingAreaProxyEMS5_FvyRKNS4_10UpdateInfoEEEEvPNS_15ArgumentDecoderEPT0_T1_
__ZN7CoreIPC18callMemberFunctionIN6WebKit16DrawingAreaProxyEMS2_FvyRKNS1_10UpdateInfoEEyS3_EEvRKNS_10Arguments2IT1_T2_EEPT_T0_
__ZN6WebKit20DrawingAreaProxyImpl6updateEyRKNS_10UpdateInfoE
__ZN6WebKit15WebProcessProxy4sendIN8Messages11DrawingArea9DidUpdateEEEbRKT_yj
__ZN7CoreIPC10Arguments2IRN3WTF6StringERN6WebKit28WebContextUserMessageDecoderEE6decodeEPNS_15ArgumentDecoderERS7_
__ZN6WebKit30WebContextInjectedBundleClient35didReceiveMessageFromInjectedBundleEPNS_10WebContextERKN3WTF6StringEPNS_9APIObjectE
_WKPageGetTypeID
__ZN6WebKit14ImmutableArrayC1ERN3WTF6VectorINS1_6RefPtrINS_9APIObjectEEELm0EEE
_WKArrayGetTypeID
__ZNK6WebKit6WebURL4typeEv
__ZNK6WebKit13WebFrameProxy4typeEv
__ZN7RunLoop5TimerIN6WebKit20DrawingAreaProxyImplEE5firedEv
__ZN6WebKit20DrawingAreaProxyImpl19discardBackingStoreEv
__ZN3WTF6OwnPtrIN6WebKit12BackingStoreEEaSESt9nullptr_t
__ZN6WebKit12BackingStoreD1Ev
__ZN6WebKit12BackingStoreD2Ev
-[WKView hitTest:]
-[WKView shouldDelayWindowOrderingForEvent:]
-[WKView acceptsFirstResponder]
-[WKView _windowDidBecomeKey:]
-[WKView acceptsFirstMouse:]
-[WKView _setMouseDownEvent:]
__ZN6WebKit15WebEventFactory19createWebMouseEventEP7NSEventP6NSView
__ZN6WebKitL13pointForEventEP7NSEventP6NSView
__ZN6WebKitL19globalPointForEventEP7NSEvent
__ZN6WebKit13WebMouseEventC1ENS_8WebEvent4TypeENS0_6ButtonERKN7WebCore8IntPointES7_fffiNS1_9ModifiersEd
__ZN6WebKit8WebEventC2ENS0_4TypeENS0_9ModifiersEd
__ZN6WebKit12WebPageProxy17acceptsFirstMouseEiRKNS_13WebMouseEventE
__ZN7CoreIPC10Connection8sendSyncIN8Messages7WebPage17AcceptsFirstMouseEEEbRKT_RKNS5_5ReplyEyd
__ZN7CoreIPC10Connection32createSyncMessageArgumentEncoderEyRy
__ZNK6WebKit13WebMouseEvent6encodeEPN7CoreIPC15ArgumentEncoderE
__ZNK6WebKit8WebEvent6encodeEPN7CoreIPC15ArgumentEncoderE
__ZNK7CoreIPC10Arguments3IRKjS2_RKdE6encodeEPNS_15ArgumentEncoderE
__ZNK7CoreIPC10Arguments7IRKjRKN7WebCore8IntPointES6_RKfS8_S8_RKiE6encodeEPNS_15ArgumentEncoderE
__ZNK7CoreIPC10Arguments5IRKjRKN7WebCore8IntPointES6_RKfS8_E6encodeEPNS_15ArgumentEncoderE
__ZNK7CoreIPC10Arguments3IRKjRKN7WebCore8IntPointES6_E6encodeEPNS_15ArgumentEncoderE
__ZN7CoreIPC10Connection15sendSyncMessageENS_9MessageIDEyN3WTF10PassOwnPtrINS_15ArgumentEncoderEEEd
__ZN3WTF6VectorIN7CoreIPC10Connection16PendingSyncReplyELm0EE14expandCapacityEmPKS3_
__ZN3WTF6VectorIN7CoreIPC10Connection16PendingSyncReplyELm0EE15reserveCapacityEm
__ZN3WTF16VectorBufferBaseIN7CoreIPC10Connection16PendingSyncReplyEE14allocateBufferEm
__ZN3WTF11VectorMoverILb0EN7CoreIPC10Connection16PendingSyncReplyEE4moveEPKS3_S6_PS3_
__ZN7CoreIPC10Connection16waitForSyncReplyEyd
__ZN7CoreIPC15BinarySemaphore4waitEd
__ZN7CoreIPC10Connection24processIncomingSyncReplyEN3WTF10PassOwnPtrINS_15ArgumentDecoderEEE
__ZN6WebKit20DrawingAreaProxyImpl44waitForAndDispatchDidUpdateBackingStoreStateEv
__ZN7CoreIPC10Connection29waitForAndDispatchImmediatelyIN8Messages16DrawingAreaProxy26DidUpdateBackingStoreStateEEEbyd
__ZN7CoreIPC10Connection14waitForMessageENS_9MessageIDEyd
__ZN3WTF7HashMapISt4pairIjyEPN7CoreIPC15ArgumentDecoderENS_8PairHashIjyEENS_10HashTraitsIS2_EENS8_IS5_EEE3setERKS2_RKS5_
__ZN3WTF8PairHashIjyE4hashERKSt4pairIjyE
-[WKView mouseMoved:]
-[WKView mouseMovedInternal:]
__ZN6WebKit19NativeWebMouseEventC1EP7NSEventP6NSView
__ZN3WTF9RetainPtrI7NSEventEC2EPS1_
__ZN6WebKit12WebPageProxy16handleMouseEventERKNS_19NativeWebMouseEventE
__ZN6WebKit15WebProcessProxy4sendIN8Messages7WebPage10MouseEventEEEbRKT_yj
__ZN7CoreIPC13handleMessageIN8Messages12WebPageProxy9SetCursorEN6WebKit12WebPageProxyEMS5_FvRKN7WebCore6CursorEEEEvPNS_15ArgumentDecoderEPT0_T1_
__ZN7CoreIPC13ArgumentCoderIN7WebCore6CursorEE6decodeEPNS_15ArgumentDecoderERS2_
__ZN7CoreIPC18callMemberFunctionIN6WebKit12WebPageProxyEMS2_FvRKN7WebCore6CursorEES4_EEvRKNS_10Arguments1IT1_EEPT_T0_
__ZN6WebKit12WebPageProxy9setCursorERKN7WebCore6CursorE
__ZN6WebKit14PageClientImpl9setCursorERKN7WebCore6CursorE
-[WKView(Internal) _setCursor:]
__ZN7CoreIPC21handleMessageVariadicIN8Messages12WebPageProxy23MouseDidMoveOverElementEN6WebKit12WebPageProxyEMS5_FvjPNS_15ArgumentDecoderEEEEvS7_PT0_T1_
__ZN7CoreIPC18callMemberFunctionIN6WebKit12WebPageProxyEMS2_FvjPNS_15ArgumentDecoderEEjEEvRKNS_10Arguments1IT1_EES4_PT_T0_
__ZN6WebKit12WebPageProxy23mouseDidMoveOverElementEjPN7CoreIPC15ArgumentDecoderE
__ZN6WebKit11WebUIClient23mouseDidMoveOverElementEPNS_12WebPageProxyENS_8WebEvent9ModifiersEPNS_9APIObjectE
__ZN7CoreIPC13handleMessageIN8Messages12WebPageProxy15DidReceiveEventEN6WebKit12WebPageProxyEMS5_FvjbEEEvPNS_15ArgumentDecoderEPT0_T1_
__ZN7CoreIPC10Arguments2IjbE6decodeEPNS_15ArgumentDecoderERS1_
__ZN7CoreIPC18callMemberFunctionIN6WebKit12WebPageProxyEMS2_FvjbEjbEEvRKNS_10Arguments2IT1_T2_EEPT_T0_
__ZN6WebKit12WebPageProxy15didReceiveEventEjb
-[WKView mouseExited:]
_WKPageCopySessionState
__ZNK6WebKit12WebPageProxy16sessionStateDataEPFbPK12OpaqueWKPagePK14OpaqueWKStringPKvPvES9_
__ZNK6WebKit18WebBackForwardList32createCFDictionaryRepresentationEPFbPK12OpaqueWKPagePK14OpaqueWKStringPKvPvES9_
_WKPageGetSessionHistoryURLValueType
_WKStringIsEqual
_WKDataGetSize
_WKDataGetBytes
_WKSetCGFontRenderingMode
_WKURLRequestCreateWithWKURL
__ZN6WebKit13WebURLRequest6createERKN7WebCore4KURLE
_WKPageLoadURLRequest
__ZN6WebKit12WebPageProxy14loadURLRequestEPNS_13WebURLRequestE
__ZN6WebKit15WebProcessProxy4sendIN8Messages7WebPage14LoadURLRequestEEEbRKT_yj
__ZN7CoreIPC21encodeResourceRequestEPNS_15ArgumentEncoderERKN7WebCore15ResourceRequestE
_WKNSURLRequestCreateSerializableRepresentation
_createSerializableRepresentation
__ZN7CoreIPC6encodeEPNS_15ArgumentEncoderEPK14__CFDictionary
__ZN7CoreIPCL17typeFromCFTypeRefEPKv
__ZN7CoreIPC6encodeEPNS_15ArgumentEncoderEPK10__CFString
__ZN3WTF12VectorBufferIhLm128EE16deallocateBufferEPh
__ZN7CoreIPC6encodeEPNS_15ArgumentEncoderEPKv
__ZN7CoreIPC6encodeEPNS_15ArgumentEncoderEPK10__CFNumber
__ZN7CoreIPC6encodeEPNS_15ArgumentEncoderEPK9__CFArray
__ZN7CoreIPC6encodeEPNS_15ArgumentEncoderEPK7__CFURL
__ZN3WTF12VectorBufferIPKvLm32EE16deallocateBufferEPS2_
_WKUInt64Create
__ZNK6WebKit9WebNumberIyLNS_9APIObject4TypeE22EE4typeEv
__ZN6WebKit9WebNumberIyLNS_9APIObject4TypeE22EED0Ev
__ZN7CoreIPC21handleMessageVariadicIN8Messages12WebPageProxy50DidReceiveServerRedirectForProvisionalLoadForFrameEN6WebKit12WebPageProxyEMS5_FvyRKN3WTF6StringEPNS_15ArgumentDecoderEEEEvSB_PT0_T1_
__ZN6WebKit12WebPageProxy50didReceiveServerRedirectForProvisionalLoadForFrameEyRKN3WTF6StringEPN7CoreIPC15ArgumentDecoderE
__ZN6WebKit13WebFrameProxy42didReceiveServerRedirectForProvisionalLoadERKN3WTF6StringE
__ZN6WebKit15WebLoaderClient50didReceiveServerRedirectForProvisionalLoadForFrameEPNS_12WebPageProxyEPNS_13WebFrameProxyEPNS_9APIObjectE
__ZN7CoreIPC13handleMessageIN8Messages10WebContext24DidPerformServerRedirectEN6WebKit10WebContextEMS5_FvyRKN3WTF6StringES9_yEEEvPNS_15ArgumentDecoderEPT0_T1_
__ZN6WebKit10WebContext24didPerformServerRedirectEyRKN3WTF6StringES4_y
__ZN6WebKit16WebHistoryClient24didPerformServerRedirectEPNS_10WebContextEPNS_12WebPageProxyERKN3WTF6StringES8_PNS_13WebFrameProxyE
__ZN7CoreIPC13handleMessageIN8Messages10WebContext18AddVisitedLinkHashEN6WebKit10WebContextEMS5_FvyEEEvPNS_15ArgumentDecoderEPT0_T1_
__ZN7CoreIPC18callMemberFunctionIN6WebKit10WebContextEMS2_FvyEyEEvRKNS_10Arguments1IT1_EEPT_T0_
__ZN6WebKit10WebContext18addVisitedLinkHashEy
-[WKView validAttributesForMarkedText]
__ZN7CoreIPC13handleMessageIN8Messages12WebPageProxy21DidChangeViewportDataEN6WebKit12WebPageProxyEMS5_FvRKN7WebCore17ViewportArgumentsEEEEvPNS_15ArgumentDecoderEPT0_T1_
__ZN7CoreIPC18callMemberFunctionIN6WebKit12WebPageProxyEMS2_FvRKN7WebCore17ViewportArgumentsEES4_EEvRKNS_10Arguments1IT1_EEPT_T0_
__ZN6WebKit12WebPageProxy21didChangeViewportDataERKN7WebCore17ViewportArgumentsE
__ZN6WebKit14PageClientImpl20setViewportArgumentsERKN7WebCore17ViewportArgumentsE
__ZN6WebKit15WebProcessProxy4sendIN8Messages10WebProcess23VisitedLinkStateChangedEEEbRKT_yj
__ZN7CoreIPC19VectorArgumentCoderILb1EyE6encodeEPNS_15ArgumentEncoderERKN3WTF6VectorIyLm0EEE
__ZN6WebKit10WebContext21didReceiveSyncMessageEPN7CoreIPC10ConnectionENS1_9MessageIDEPNS1_15ArgumentDecoderEPNS1_15ArgumentEncoderE
__ZN6WebKit10WebContext31didReceiveSyncWebContextMessageEPN7CoreIPC10ConnectionENS1_9MessageIDEPNS1_15ArgumentDecoderEPNS1_15ArgumentEncoderE
__ZN7CoreIPC13handleMessageIN8Messages10WebContext10GetPluginsEN6WebKit10WebContextEMS5_FvbRN3WTF6VectorIN7WebCore10PluginInfoELm0EEEEEEvPNS_15ArgumentDecoderEPNS_15ArgumentEncoderEPT0_T1_
__ZN7CoreIPC18callMemberFunctionIN6WebKit10WebContextEMS2_FvbRN3WTF6VectorIN7WebCore10PluginInfoELm0EEEEbS7_EEvRKNS_10Arguments1IT1_EERNSB_IT2_EEPT_T0_
__ZN6WebKit10WebContext10getPluginsEbRN3WTF6VectorIN7WebCore10PluginInfoELm0EEE
__ZN6WebKit15PluginInfoStore7pluginsEv
__ZN6WebKit15PluginInfoStore22loadPluginsIfNecessaryEv
__ZN6WebKit15PluginInfoStore18pluginsDirectoriesEv
__ZN6WebKit15PluginInfoStore22pluginPathsInDirectoryERKN3WTF6StringE
__ZN6WebKitL18safeCreateCFStringERKN3WTF6StringE
__ZN6WebKitL13addFromVectorIN3WTF11ListHashSetINS1_6StringELm32ENS1_10StringHashEEENS1_6VectorIS3_Lm0EEEEEvRT_RKT0_
__ZN3WTF11ListHashSetINS_6StringELm32ENS_10StringHashEE3addERKS1_
__ZN3WTF21ListHashSetTranslatorINS_6StringELm32ENS_10StringHashEE9translateERPNS_15ListHashSetNodeIS1_Lm32EEERKS1_PNS_24ListHashSetNodeAllocatorIS1_Lm32EEE
__ZN3WTF24ListHashSetNodeAllocatorINS_6StringELm32EE8allocateEv
__ZN6WebKit15PluginInfoStore21individualPluginPathsEv
__ZN6WebKit15PluginInfoStore10loadPluginERN3WTF6VectorINS0_6PluginELm0EEERKNS1_6StringE
__ZN6WebKit15PluginInfoStore13getPluginInfoERKN3WTF6StringERNS0_6PluginE
__ZN6WebKit20NetscapePluginModule13getPluginInfoERKN3WTF6StringERNS_15PluginInfoStore6PluginE
__ZN3WTF9HashTableIjjNS_17IdentityExtractorIjEENS_7IntHashIjEENS_10HashTraitsIjEES6_E3addIjjNS_22IdentityHashTranslatorIjjS4_EEEESt4pairINS_17HashTableIteratorIjjS2_S4_S6_S6_EEbERKT_RKT0_
__ZN3WTF9HashTableIjjNS_17IdentityExtractorIjEENS_7IntHashIjEENS_10HashTraitsIjEES6_E6expandEv
__ZN3WTF9HashTableIjjNS_17IdentityExtractorIjEENS_7IntHashIjEENS_10HashTraitsIjEES6_E6rehashEi
__ZNK3WTF9HashTableIjjNS_17IdentityExtractorIjEENS_7IntHashIjEENS_10HashTraitsIjEES6_E8containsIjNS_22IdentityHashTranslatorIjjS4_EEEEbRKT_
__ZN3WTF12VectorBufferIPK10__CFStringLm0EEC2Em
__ZN3WTF16VectorBufferBaseIPK10__CFStringE14allocateBufferEm
__ZN3WTF12VectorBufferIPK14__CFDictionaryLm0EEC2Em
__ZN3WTF16VectorBufferBaseIPK14__CFDictionaryE14allocateBufferEm
__ZN3WTF6VectorIN7WebCore13MimeClassInfoELm0EE14expandCapacityEmPKS2_
__ZN3WTF6VectorIN7WebCore13MimeClassInfoELm0EE15reserveCapacityEm
__ZN3WTF16VectorBufferBaseIN7WebCore13MimeClassInfoEE14allocateBufferEm
__ZN3WTF11VectorMoverILb0EN7WebCore13MimeClassInfoEE4moveEPKS2_S5_PS2_
__ZN7WebCore13MimeClassInfoC2ERKS0_
__ZN7WebCore13MimeClassInfoD2Ev
__ZN3WTF12VectorBufferIPK14__CFDictionaryLm0EED2Ev
__ZN3WTF12VectorBufferIPK10__CFStringLm0EED2Ev
__ZN6WebKit15PluginInfoStore15shouldUsePluginERN3WTF6VectorINS0_6PluginELm0EEERKS3_
__ZN3WTF6VectorIN6WebKit15PluginInfoStore6PluginELm0EE14expandCapacityEmPKS3_
__ZN3WTF6VectorIN6WebKit15PluginInfoStore6PluginELm0EE15reserveCapacityEm
__ZN3WTF16VectorBufferBaseIN6WebKit15PluginInfoStore6PluginEE14allocateBufferEm
__ZN3WTF11VectorMoverILb0EN6WebKit15PluginInfoStore6PluginEE4moveEPKS3_S6_PS3_
__ZN6WebKit15PluginInfoStore6PluginC2ERKS1_
__ZN7WebCore10PluginInfoC2ERKS0_
__ZN3WTF6VectorIN7WebCore13MimeClassInfoELm0EEC2ERKS3_
__ZN3WTF12VectorCopierILb0EN7WebCore13MimeClassInfoEE17uninitializedCopyEPKS2_S5_PS2_
__ZN6WebKit15PluginInfoStore6PluginD2Ev
__ZN7WebCore10PluginInfoD2Ev
__ZN3WTF6VectorIN7WebCore13MimeClassInfoELm0EED2Ev
__ZN3WTF6VectorIN7WebCore13MimeClassInfoELm0EE6shrinkEm
__ZN6WebKitL27contentsOfPropertyListAtURLEPK7__CFURL
__ZN3WTF6VectorIN6WebKit15PluginInfoStore6PluginELm0EED2Ev
__ZN3WTF11ListHashSetINS_6StringELm32ENS_10StringHashEE14deleteAllNodesEv
__ZN3WTF15ListHashSetNodeINS_6StringELm32EE7destroyEPNS_24ListHashSetNodeAllocatorIS1_Lm32EEE
__ZN3WTF15ListHashSetNodeINS_6StringELm32EED1Ev
__ZN3WTF6VectorIN6WebKit15PluginInfoStore6PluginELm0EEC2ERKS4_
__ZN3WTF12VectorCopierILb0EN6WebKit15PluginInfoStore6PluginEE17uninitializedCopyEPKS3_S6_PS3_
__ZN3WTF6VectorIN7WebCore10PluginInfoELm0EE14expandCapacityEmPKS2_
__ZN3WTF6VectorIN7WebCore10PluginInfoELm0EE15reserveCapacityEm
__ZN3WTF16VectorBufferBaseIN7WebCore10PluginInfoEE14allocateBufferEm
__ZN3WTF11VectorMoverILb0EN7WebCore10PluginInfoEE4moveEPKS2_S5_PS2_
__ZN3WTF6VectorIN6WebKit15PluginInfoStore6PluginELm0EE6shrinkEm
__ZN7CoreIPC19VectorArgumentCoderILb0EN7WebCore10PluginInfoEE6encodeEPNS_15ArgumentEncoderERKN3WTF6VectorIS2_Lm0EEE
__ZN7CoreIPC13ArgumentCoderIN7WebCore10PluginInfoEE6encodeEPNS_15ArgumentEncoderERKS2_
__ZN7CoreIPC19VectorArgumentCoderILb0EN7WebCore13MimeClassInfoEE6encodeEPNS_15ArgumentEncoderERKN3WTF6VectorIS2_Lm0EEE
__ZN3WTF6VectorIN7WebCore10PluginInfoELm0EED2Ev
__ZN3WTF6VectorIN7WebCore10PluginInfoELm0EE6shrinkEm
__ZN7CoreIPC13handleMessageIN8Messages12WebPageProxy17DidCreateSubframeEN6WebKit12WebPageProxyEMS5_FvyyEEEvPNS_15ArgumentDecoderEPT0_T1_
__ZN6WebKit12WebPageProxy17didCreateSubframeEyy
__ZNK6WebKit13WebFrameProxy14isDescendantOfEPKS0_
__ZN6WebKit13WebFrameProxy11appendChildEPS0_
_WKFrameGetParentFrame
__ZN7CoreIPC13handleMessageIN8Messages12WebPageProxy31DidChangeScrollbarsForMainFrameEN6WebKit12WebPageProxyEMS5_FvbbEEEvPNS_15ArgumentDecoderEPT0_T1_
__ZN7CoreIPC10Arguments2IbbE6decodeEPNS_15ArgumentDecoderERS1_
__ZN7CoreIPC18callMemberFunctionIN6WebKit12WebPageProxyEMS2_FvbbEbbEEvRKNS_10Arguments2IT1_T2_EEPT_T0_
__ZN6WebKit12WebPageProxy31didChangeScrollbarsForMainFrameEbb
__ZNK6WebKit14PageClientImpl31didChangeScrollbarsForMainFrameEv
-[WKView(Internal) _didChangeScrollbarsForMainFrame]
_WKArrayGetItemAtIndex
__ZN3WTF16VectorDestructorILb1ENS_6RefPtrIN6WebKit9APIObjectEEEE8destructEPS4_S6_
_WKDoubleGetValue
__ZN6WebKit9WebNumberIdLNS_9APIObject4TypeE21EED0Ev
__ZN7CoreIPC13handleMessageIN8Messages15WebIconDatabase25GetLoadDecisionForIconURLEN6WebKit15WebIconDatabaseEMS5_FvRKN3WTF6StringEyEEEvPNS_15ArgumentDecoderEPT0_T1_
__ZN7CoreIPC10Arguments2IN3WTF6StringEyE6decodeEPNS_15ArgumentDecoderERS3_
__ZN7CoreIPC18callMemberFunctionIN6WebKit15WebIconDatabaseEMS2_FvRKN3WTF6StringEyES4_yEEvRKNS_10Arguments2IT1_T2_EEPT_T0_
__ZN6WebKit15WebIconDatabase25getLoadDecisionForIconURLERKN3WTF6StringEy
__ZN6WebKit15WebProcessProxy4sendIN8Messages20WebIconDatabaseProxy24ReceivedIconLoadDecisionEEEbRKT_yj
__ZN7CoreIPC10Arguments1IN3WTF6StringEED2Ev
__ZN7CoreIPC13handleMessageIN8Messages15WebIconDatabase20SetIconURLForPageURLEN6WebKit15WebIconDatabaseEMS5_FvRKN3WTF6StringES9_EEEvPNS_15ArgumentDecoderEPT0_T1_
__ZN7CoreIPC10Arguments2IN3WTF6StringES2_E6decodeEPNS_15ArgumentDecoderERS3_
__ZN7CoreIPC18callMemberFunctionIN6WebKit15WebIconDatabaseEMS2_FvRKN3WTF6StringES6_ES4_S4_EEvRKNS_10Arguments2IT1_T2_EEPT_T0_
__ZN6WebKit15WebIconDatabase20setIconURLForPageURLERKN3WTF6StringES4_
__ZN7CoreIPC10Arguments2IN3WTF6StringES2_ED2Ev
__ZThn16_N6WebKit15WebIconDatabase23didChangeIconForPageURLERKN3WTF6StringE
-[WKView mouseEntered:]
__ZN3WTF10PassOwnPtrIN6WebKit19NativeWebMouseEventEED1Ev
__ZN3WTF6OwnPtrIN6WebKit19NativeWebMouseEventEEaSESt9nullptr_t
__ZN7CoreIPC13handleMessageIN8Messages15WebIconDatabase21SetIconDataForIconURLEN6WebKit15WebIconDatabaseEMS5_FvRKNS_13DataReferenceERKN3WTF6StringEEEEvPNS_15ArgumentDecoderEPT0_T1_
__ZN7CoreIPC10Arguments2INS_13DataReferenceEN3WTF6StringEE6decodeEPNS_15ArgumentDecoderERS4_
__ZN7CoreIPC18callMemberFunctionIN6WebKit15WebIconDatabaseEMS2_FvRKNS_13DataReferenceERKN3WTF6StringEES3_S7_EEvRKNS_10Arguments2IT1_T2_EEPT_T0_
__ZN6WebKit15WebIconDatabase21setIconDataForIconURLERKN7CoreIPC13DataReferenceERKN3WTF6StringE
__ZN3WTF10RefCountedIN7WebCore12SharedBufferEE5derefEv
__ZN7CoreIPC10Arguments2INS_13DataReferenceEN3WTF6StringEED1Ev
__ZN6WebKit8WebImage6createEN3WTF10PassRefPtrINS_15ShareableBitmapEEE
_WKURLGetTypeID
__ZNK6WebKit8WebImage4typeEv
_WKImageGetTypeID
_WKImageCreateCGImage
__ZN6WebKit8WebImageD0Ev
_WKPageGetContentsAsString
__ZN6WebKit12WebPageProxy19getContentsAsStringEN3WTF10PassRefPtrINS_15GenericCallbackIPK14OpaqueWKStringPNS1_10StringImplEEEEE
__ZN3WTF9HashTableIyyNS_17IdentityExtractorIyEENS_7IntHashIyEENS_10HashTraitsIyEES6_E3addIyyNS_22IdentityHashTranslatorIyyS4_EEEESt4pairINS_17HashTableIteratorIyyS2_S4_S6_S6_EEbERKT_RKT0_
__ZN3WTF9HashTableIyyNS_17IdentityExtractorIyEENS_7IntHashIyEENS_10HashTraitsIyEES6_E6expandEv
__ZN3WTF9HashTableIyyNS_17IdentityExtractorIyEENS_7IntHashIyEENS_10HashTraitsIyEES6_E6rehashEi
__ZN3WTF17HashMapTranslatorISt4pairIyNS_6RefPtrIN6WebKit15GenericCallbackIPK14OpaqueWKStringPNS_10StringImplEEEEEENS_14PairHashTraitsINS_10HashTraitsIyEENSE_ISB_EEEENS_7IntHashIyEEE9translateERSC_RKyRKSB_
__ZN3WTF10RefCountedIN6WebKit12CallbackBaseEE5derefEv
__ZN6WebKit15WebProcessProxy4sendIN8Messages7WebPage19GetContentsAsStringEEEbRKT_yj
__ZN7CoreIPC13handleMessageIN8Messages12WebPageProxy14StringCallbackEN6WebKit12WebPageProxyEMS5_FvRKN3WTF6StringEyEEEvPNS_15ArgumentDecoderEPT0_T1_
__ZN7CoreIPC18callMemberFunctionIN6WebKit12WebPageProxyEMS2_FvRKN3WTF6StringEyES4_yEEvRKNS_10Arguments2IT1_T2_EEPT_T0_
__ZN6WebKit12WebPageProxy14stringCallbackERKN3WTF6StringEy
__ZN3WTF7HashMapIyNS_6RefPtrIN6WebKit15GenericCallbackIPK14OpaqueWKStringPNS_10StringImplEEEEENS_7IntHashIyEENS_10HashTraitsIyEENSD_ISA_EEE3setERKyRKSA_
__ZN3WTF7HashMapIyNS_6RefPtrIN6WebKit15GenericCallbackIPK14OpaqueWKStringPNS_10StringImplEEEEENS_7IntHashIyEENS_10HashTraitsIyEENSD_ISA_EEE4takeERKy
__ZN3WTF9HashTableIySt4pairIyNS_6RefPtrIN6WebKit15GenericCallbackIPK14OpaqueWKStringPNS_10StringImplEEEEEENS_18PairFirstExtractorISC_EENS_7IntHashIyEENS_14PairHashTraitsINS_10HashTraitsIyEENSI_ISB_EEEESJ_E15deallocateTableEPSC_i
__ZN3WTF9HashTableIySt4pairIyNS_6RefPtrIN6WebKit15GenericCallbackIPK14OpaqueWKStringPNS_10StringImplEEEEEENS_18PairFirstExtractorISC_EENS_7IntHashIyEENS_14PairHashTraitsINS_10HashTraitsIyEENSI_ISB_EEEESJ_E16lookupForWritingERKy
__ZN3WTF9HashTableIySt4pairIyNS_6RefPtrIN6WebKit15GenericCallbackIPK14OpaqueWKStringPNS_10StringImplEEEEEENS_18PairFirstExtractorISC_EENS_7IntHashIyEENS_14PairHashTraitsINS_10HashTraitsIyEENSI_ISB_EEEESJ_E3addIySB_NS_17HashMapTranslatorISC_SL_SG_EEEES1_INS_17HashTableIteratorIySC_SE_SG_SL_SJ_EEbERKT_RKT0_
__ZN3WTF9HashTableIySt4pairIyNS_6RefPtrIN6WebKit15GenericCallbackIPK14OpaqueWKStringPNS_10StringImplEEEEEENS_18PairFirstExtractorISC_EENS_7IntHashIyEENS_14PairHashTraitsINS_10HashTraitsIyEENSI_ISB_EEEESJ_E4findIyNS_22IdentityHashTranslatorIySC_SG_EEEENS_17HashTableIteratorIySC_SE_SG_SL_SJ_EERKT_
__ZN3WTF9HashTableIySt4pairIyNS_6RefPtrIN6WebKit15GenericCallbackIPK14OpaqueWKStringPNS_10StringImplEEEEEENS_18PairFirstExtractorISC_EENS_7IntHashIyEENS_14PairHashTraitsINS_10HashTraitsIyEENSI_ISB_EEEESJ_E6expandEv
__ZN3WTF9HashTableIySt4pairIyNS_6RefPtrIN6WebKit15GenericCallbackIPK14OpaqueWKStringPNS_10StringImplEEEEEENS_18PairFirstExtractorISC_EENS_7IntHashIyEENS_14PairHashTraitsINS_10HashTraitsIyEENSI_ISB_EEEESJ_E6rehashEi
__ZN3WTF9HashTableIySt4pairIyNS_6RefPtrIN6WebKit15GenericCallbackIPK14OpaqueWKStringPNS_10StringImplEEEEEENS_18PairFirstExtractorISC_EENS_7IntHashIyEENS_14PairHashTraitsINS_10HashTraitsIyEENSI_ISB_EEEESJ_E6removeEPSC_
__ZNK3WTF9HashTableIyyNS_17IdentityExtractorIyEENS_7IntHashIyEENS_10HashTraitsIyEES6_E4findIyNS_22IdentityHashTranslatorIyyS4_EEEENS_22HashTableConstIteratorIyyS2_S4_S6_S6_EERKT_
__ZN3WTF9HashTableIyyNS_17IdentityExtractorIyEENS_7IntHashIyEENS_10HashTraitsIyEES6_E6removeEPy
__ZN6WebKit15GenericCallbackIPK14OpaqueWKStringPN3WTF10StringImplEE30performCallbackWithReturnValueES6_
__ZN6WebKit15GenericCallbackIPK14OpaqueWKStringPN3WTF10StringImplEED0Ev
-[WKView resignFirstResponder]
__ZN6WebKit12WebPageProxy14clearSelectionEv
__ZN6WebKit15WebProcessProxy4sendIN8Messages7WebPage14ClearSelectionEEEbRKT_yj
-[WKView performKeyEquivalent:]
-[WKView _handleStyleKeyEquivalent:]
__ZN7CoreIPC21handleMessageVariadicIN8Messages12WebPageProxy23DecidePolicyForResponseEN6WebKit12WebPageProxyEMS5_FvyRKN7WebCore16ResourceResponseERKNS6_15ResourceRequestEyPNS_15ArgumentDecoderERbRySG_EEEvSE_PNS_15ArgumentEncoderEPT0_T1_
__ZN7CoreIPC10Arguments4IyN7WebCore16ResourceResponseENS1_15ResourceRequestEyE6decodeEPNS_15ArgumentDecoderERS4_
__ZN7CoreIPC10Arguments3IyN7WebCore16ResourceResponseENS1_15ResourceRequestEE6decodeEPNS_15ArgumentDecoderERS4_
__ZN7CoreIPC10Arguments2IyN7WebCore16ResourceResponseEE6decodeEPNS_15ArgumentDecoderERS3_
__ZN7CoreIPC18callMemberFunctionIN6WebKit12WebPageProxyEMS2_FvyRKN7WebCore16ResourceResponseERKNS3_15ResourceRequestEyPNS_15ArgumentDecoderERbRySD_EyS4_S7_ybyyEEvRKNS_10Arguments4IT1_T2_T3_T4_EESB_RNS_10Arguments3IT5_T6_T7_EEPT_T0_
__ZN6WebKit12WebPageProxy23decidePolicyForResponseEyRKN7WebCore16ResourceResponseERKNS1_15ResourceRequestEyPN7CoreIPC15ArgumentDecoderERbRySC_
__ZN6WebKit13WebFrameProxy24setUpPolicyListenerProxyEy
__ZN6WebKit27WebFramePolicyListenerProxyC1EPNS_13WebFrameProxyEy
__ZN6WebKit21WebFrameListenerProxyC2EPNS_13WebFrameProxyEy
__ZN6WebKit15WebPolicyClient23decidePolicyForResponseEPNS_12WebPageProxyEPNS_13WebFrameProxyERKN7WebCore16ResourceResponseERKNS5_15ResourceRequestEPNS_27WebFramePolicyListenerProxyEPNS_9APIObjectE
_WKURLRequestCopyURL
_WKFrameCanShowMIMEType
__ZNK6WebKit13WebFrameProxy15canShowMIMETypeERKN3WTF6StringE
__ZNK6WebKit12WebPageProxy15canShowMIMETypeERKN3WTF6StringE
_WKFramePolicyListenerUse
__ZN6WebKit27WebFramePolicyListenerProxy3useEv
__ZN6WebKit21WebFrameListenerProxy22receivedPolicyDecisionEN7WebCore12PolicyActionE
__ZN6WebKit13WebFrameProxy22receivedPolicyDecisionEN7WebCore12PolicyActionEy
__ZN6WebKit12WebPageProxy22receivedPolicyDecisionEN7WebCore12PolicyActionEPNS_13WebFrameProxyEy
__ZNK7CoreIPC10Arguments3IbyyE6encodeEPNS_15ArgumentEncoderE
__ZN7CoreIPC21handleMessageVariadicIN8Messages12WebPageProxy27DidRemoveFrameFromHierarchyEN6WebKit12WebPageProxyEMS5_FvyPNS_15ArgumentDecoderEEEEvS7_PT0_T1_
__ZN6WebKit12WebPageProxy27didRemoveFrameFromHierarchyEyPN7CoreIPC15ArgumentDecoderE
__ZN6WebKit13WebFrameProxy22didRemoveFromHierarchyEv
__ZN6WebKit13WebFrameProxy11removeChildEPS0_
__ZN6WebKit15WebLoaderClient27didRemoveFrameFromHierarchyEPNS_12WebPageProxyEPNS_13WebFrameProxyEPNS_9APIObjectE
__ZN6WebKit18WebCertificateInfoD0Ev
__ZN6WebKit13WebFrameProxyD0Ev
__ZN6WebKit21WebFrameListenerProxy10invalidateEv
__ZN6WebKit27WebFramePolicyListenerProxyD0Ev
__ZN6WebKit21WebFrameListenerProxyD2Ev
_WKPageCountStringMatches
__ZN6WebKit12WebPageProxy18countStringMatchesERKN3WTF6StringENS_11FindOptionsEj
__ZN6WebKit15WebProcessProxy4sendIN8Messages7WebPage18CountStringMatchesEEEbRKT_yj
__ZNK7CoreIPC10Arguments3IRKN3WTF6StringEjRKjE6encodeEPNS_15ArgumentEncoderE
_WKFrameIsDisplayingStandaloneImageDocument
__ZNK6WebKit13WebFrameProxy35isDisplayingStandaloneImageDocumentEv
__ZN7CoreIPC13handleMessageIN8Messages12WebPageProxy21DidCountStringMatchesEN6WebKit12WebPageProxyEMS5_FvRKN3WTF6StringEjEEEvPNS_15ArgumentDecoderEPT0_T1_
__ZN7CoreIPC10Arguments2IN3WTF6StringEjE6decodeEPNS_15ArgumentDecoderERS3_
__ZN7CoreIPC18callMemberFunctionIN6WebKit12WebPageProxyEMS2_FvRKN3WTF6StringEjES4_jEEvRKNS_10Arguments2IT1_T2_EEPT_T0_
__ZN6WebKit12WebPageProxy21didCountStringMatchesERKN3WTF6StringEj
__ZN6WebKit13WebFindClient21didCountStringMatchesEPNS_12WebPageProxyERKN3WTF6StringEj
-[WKView beginGestureWithEvent:]
__ZN6WebKit15WebEventFactory21createWebGestureEventEP7NSEventP6NSView
__ZN6WebKit15WebGestureEventC1ENS_8WebEvent4TypeERKN7WebCore8IntPointES6_NS1_9ModifiersEd
__ZN6WebKit12WebPageProxy18handleGestureEventERKNS_15WebGestureEventE
__ZN6WebKit15WebProcessProxy4sendIN8Messages7WebPage12GestureEventEEEbRKT_yj
__ZNK6WebKit15WebGestureEvent6encodeEPN7CoreIPC15ArgumentEncoderE
_WKPageWillHandleHorizontalScrollEvents
__ZNK6WebKit12WebPageProxy32willHandleHorizontalScrollEventsEv
_WKPageIsPinnedToLeftSide
_WKPageIsPinnedToRightSide
_WKPageHasHorizontalScrollbar
-[WKView scrollWheel:]
__ZN6WebKit19NativeWebWheelEventC1EP7NSEventP6NSView
__ZN6WebKit15WebEventFactory19createWebWheelEventEP7NSEventP6NSView
_WKGetWheelEventDeltas
__ZN6WebKit13WebWheelEventC1ENS_8WebEvent4TypeERKN7WebCore8IntPointES6_RKNS3_9FloatSizeES9_NS0_11GranularityENS0_5PhaseESB_bNS1_9ModifiersEd
__ZN6WebKit12WebPageProxy16handleWheelEventERKNS_19NativeWebWheelEventE
__ZN3WTF6VectorIN6WebKit19NativeWebWheelEventELm0EE14expandCapacityEmPKS2_
__ZN3WTF6VectorIN6WebKit19NativeWebWheelEventELm0EE15reserveCapacityEm
__ZN3WTF16VectorBufferBaseIN6WebKit19NativeWebWheelEventEE14allocateBufferEm
__ZN3WTF11VectorMoverILb0EN6WebKit19NativeWebWheelEventEE4moveEPKS2_S5_PS2_
__ZN6WebKit15WebProcessProxy4sendIN8Messages7WebPage10WheelEventEEEbRKT_yj
__ZNK6WebKit13WebWheelEvent6encodeEPN7CoreIPC15ArgumentEncoderE
__ZN3WTF6VectorIN6WebKit19NativeWebWheelEventELm0EE14shrinkCapacityEm
__ZN3WTF16VectorDestructorILb1EN6WebKit19NativeWebWheelEventEE8destructEPS2_S4_
__ZN7CoreIPC13handleMessageIN8Messages12WebPageProxy34NotifyScrollerThumbIsVisibleInRectEN6WebKit12WebPageProxyEMS5_FvRKN7WebCore7IntRectEEEEvPNS_15ArgumentDecoderEPT0_T1_
__ZN7CoreIPC18callMemberFunctionIN6WebKit12WebPageProxyEMS2_FvRKN7WebCore7IntRectEES4_EEvRKNS_10Arguments1IT1_EEPT_T0_
__ZN6WebKit12WebPageProxy34notifyScrollerThumbIsVisibleInRectERKN7WebCore7IntRectE
__ZN6WebKit12WebPageProxy13pageDidScrollEv
__ZN6WebKit11WebUIClient13pageDidScrollEPNS_12WebPageProxyE
__ZN7CoreIPC13handleMessageIN8Messages12WebPageProxy40DidChangeScrollOffsetPinningForMainFrameEN6WebKit12WebPageProxyEMS5_FvbbEEEvPNS_15ArgumentDecoderEPT0_T1_
__ZN6WebKit12WebPageProxy40didChangeScrollOffsetPinningForMainFrameEbb
__ZN3WTF5DequeIN6WebKit19NativeWebWheelEventELm0EE14expandCapacityEv
__ZN6WebKit12WebPageProxy10scrollViewERKN7WebCore7IntRectERKNS1_7IntSizeE
__ZN6WebKit14PageClientImpl10scrollViewERKN7WebCore7IntRectERKNS1_7IntSizeE
-[WKView(Internal) _cacheWindowBottomCornerRect]
__ZN6WebKit12WebPageProxy11displayViewEv
__ZN6WebKit14PageClientImpl11displayViewEv
___-[WKView beginGestureWithEvent:]_block_invoke_1
-[WKView shortCircuitedEndGestureWithEvent:]
__ZN7CoreIPC13handleMessageIN8Messages12WebPageProxy33DidCompleteRubberBandForMainFrameEN6WebKit12WebPageProxyEMS5_FvRKN7WebCore7IntSizeEEEEvPNS_15ArgumentDecoderEPT0_T1_
__ZN7CoreIPC18callMemberFunctionIN6WebKit12WebPageProxyEMS2_FvRKN7WebCore7IntSizeEES4_EEvRKNS_10Arguments1IT1_EEPT_T0_
__ZN6WebKit12WebPageProxy33didCompleteRubberBandForMainFrameERKN7WebCore7IntSizeE
__ZN6WebKit11WebUIClient33didCompleteRubberBandForMainFrameEPNS_12WebPageProxyERKN7WebCore7IntSizeE
__ZNK6WebKit11WebUIClient32implementsDidNotHandleWheelEventEv
__ZN6WebKit11WebUIClient22didNotHandleWheelEventEPNS_12WebPageProxyERKNS_19NativeWebWheelEventE
__ZN7CoreIPC13handleMessageIN8Messages12WebPageProxy10SetToolTipEN6WebKit12WebPageProxyEMS5_FvRKN3WTF6StringEEEEvPNS_15ArgumentDecoderEPT0_T1_
__ZN6WebKit12WebPageProxy10setToolTipERKN3WTF6StringE
__ZN6WebKit14PageClientImpl14toolTipChangedERKN3WTF6StringES4_
-[WKView(Internal) _toolTipChangedFrom:to:]
-[WKView(Internal) _sendToolTipMouseExited]
-[WKView(Internal) addTrackingRect:owner:userData:assumeInside:]
-[WKView(Internal) _sendToolTipMouseEntered]
-[WKView mouseDown:]
-[WKView mouseDownInternal:]
__ZN6WebKit12WebPageProxy18makeFirstResponderEv
__ZN6WebKit14PageClientImpl18makeFirstResponderEv
-[WKView mouseUp:]
-[WKView mouseUpInternal:]
-[WKView(Internal) removeTrackingRect:]
_WKPreferencesGetJavaScriptCanOpenWindowsAutomatically
__ZNK6WebKit14WebPreferences37javaScriptCanOpenWindowsAutomaticallyEv
__ZN7CoreIPC13handleMessageIN8Messages12WebPageProxy44CanAuthenticateAgainstProtectionSpaceInFrameEN6WebKit12WebPageProxyEMS5_FvyRKN7WebCore15ProtectionSpaceERbEEEvPNS_15ArgumentDecoderEPNS_15ArgumentEncoderEPT0_T1_
__ZN7CoreIPC10Arguments2IyN7WebCore15ProtectionSpaceEE6decodeEPNS_15ArgumentDecoderERS3_
__ZN7CoreIPC13ArgumentCoderIN7WebCore15ProtectionSpaceEE6decodeEPNS_15ArgumentDecoderERS2_
__ZN7CoreIPC10Arguments5IRN3WTF6StringERiRjS3_S5_E6decodeEPNS_15ArgumentDecoderERS6_
__ZN7CoreIPC10Arguments4IRN3WTF6StringERiRjS3_E6decodeEPNS_15ArgumentDecoderERS6_
__ZN7CoreIPC10Arguments3IRN3WTF6StringERiRjE6decodeEPNS_15ArgumentDecoderERS6_
__ZN7CoreIPC10Arguments2IRN3WTF6StringERiE6decodeEPNS_15ArgumentDecoderERS5_
__ZN7WebCore15ProtectionSpaceD2Ev
__ZN7CoreIPC18callMemberFunctionIN6WebKit12WebPageProxyEMS2_FvyRKN7WebCore15ProtectionSpaceERbEyS4_bEEvRKNS_10Arguments2IT1_T2_EERNS_10Arguments1IT3_EEPT_T0_
__ZN6WebKit12WebPageProxy44canAuthenticateAgainstProtectionSpaceInFrameEyRKN7WebCore15ProtectionSpaceERb
__ZN6WebKit18WebProtectionSpaceC1ERKN7WebCore15ProtectionSpaceE
__ZN7WebCore15ProtectionSpaceC2ERKS0_
__ZN6WebKit15WebLoaderClient44canAuthenticateAgainstProtectionSpaceInFrameEPNS_12WebPageProxyEPNS_13WebFrameProxyEPNS_18WebProtectionSpaceE
_WKProtectionSpaceGetAuthenticationScheme
__ZNK6WebKit18WebProtectionSpace20authenticationSchemeEv
__ZN6WebKit18WebProtectionSpaceD0Ev
__ZN7CoreIPC13handleMessageIN8Messages12WebPageProxy24ViewScaleFactorDidChangeEN6WebKit12WebPageProxyEMS5_FvdEEEvPNS_15ArgumentDecoderEPT0_T1_
__ZN6WebKit12WebPageProxy24viewScaleFactorDidChangeEd
-[WKView _windowDidResignKey:]
-[WKView _windowDidOrderOffScreen:]
__ZN6WebKit15WebProcessProxy4sendIN8Messages11DrawingArea15SuspendPaintingEEEbRKT_yj
__ZN6WebKit12WebPageProxy22backForwardRemovedItemEy
__ZN6WebKit15WebProcessProxy4sendIN8Messages7WebPage24DidRemoveBackForwardItemEEEbRKT_yj
__ZN3WTF6VectorINS_6RefPtrIN6WebKit13WebFrameProxyEEELm0EE15reserveCapacityEm
__ZN3WTF16VectorBufferBaseINS_6RefPtrIN6WebKit13WebFrameProxyEEEE14allocateBufferEm
__ZN6WebKit13WebFrameProxy10disconnectEv
_WKIconDatabaseReleaseIconForURL
_WKIconDatabaseRemoveAllIcons
__ZN6WebKit15WebIconDatabase14removeAllIconsEv
_WKContextGetCookieManager
_WKCookieManagerSetClient
__ZN6WebKit21WebCookieManagerProxy16initializeClientEPK21WKCookieManagerClient
_WKContextGetApplicationCacheManager
_WKApplicationCacheManagerDeleteAllEntries
__ZN6WebKit31WebApplicationCacheManagerProxy16deleteAllEntriesEv
__ZN6WebKit10WebContext26relaunchProcessIfNecessaryEv
__ZN6WebKit15WebProcessProxy4sendIN8Messages26WebApplicationCacheManager16DeleteAllEntriesEEEbRKT_yj
_WKCookieManagerDeleteAllCookies
__ZN6WebKit21WebCookieManagerProxy16deleteAllCookiesEv
__ZN6WebKit15WebProcessProxy4sendIN8Messages16WebCookieManager16DeleteAllCookiesEEEbRKT_yj
_WKContextGetDatabaseManager
_WKDatabaseManagerDeleteAllDatabases
__ZN6WebKit23WebDatabaseManagerProxy18deleteAllDatabasesEv
__ZN6WebKit15WebProcessProxy4sendIN8Messages18WebDatabaseManager18DeleteAllDatabasesEEEbRKT_yj
_WKContextGetKeyValueStorageManager
_WKKeyValueStorageManagerDeleteAllEntries
__ZN6WebKit30WebKeyValueStorageManagerProxy16deleteAllEntriesEv
__ZN6WebKit15WebProcessProxy4sendIN8Messages25WebKeyValueStorageManager16DeleteAllEntriesEEEbRKT_yj
_WKContextGetMediaCacheManager
_WKMediaCacheManagerClearCacheForAllHostnames
__ZN6WebKit25WebMediaCacheManagerProxy25clearCacheForAllHostnamesEv
__ZN6WebKit15WebProcessProxy4sendIN8Messages20WebMediaCacheManager25ClearCacheForAllHostnamesEEEbRKT_yj
_WKContextGetPluginSiteDataManager
_WKPluginSiteDataManagerClearAllSiteData
__ZN6WebKit24WebPluginSiteDataManager13clearSiteDataEPNS_14ImmutableArrayEyyN3WTF10PassRefPtrINS_12VoidCallbackEEE
__ZN3WTF7HashMapIyNS_6RefPtrIN6WebKit12VoidCallbackEEENS_7IntHashIyEENS_10HashTraitsIyEENS7_IS4_EEE3setERKyRKS4_
__ZN3WTF17HashMapTranslatorISt4pairIyNS_6RefPtrIN6WebKit12VoidCallbackEEEENS_14PairHashTraitsINS_10HashTraitsIyEENS8_IS5_EEEENS_7IntHashIyEEE9translateERS6_RKyRKS5_
__ZN3WTF7HashMapIyPN6WebKit24WebPluginSiteDataManager18ClearSiteDataStateENS_7IntHashIyEENS_10HashTraitsIyEENS7_IS4_EEE3setERKyRKS4_
__ZN6WebKit24WebPluginSiteDataManager18ClearSiteDataState26clearSiteDataForNextPluginEv
__ZN6WebKit20PluginProcessManager6sharedEv
__ZN6WebKit20PluginProcessManager13clearSiteDataERKNS_15PluginInfoStore6PluginEPNS_24WebPluginSiteDataManagerERKN3WTF6VectorINS7_6StringELm0EEEyyy
__ZN6WebKit20PluginProcessManager24getOrCreatePluginProcessERKNS_15PluginInfoStore6PluginE
__ZN6WebKit20PluginProcessManager21pluginProcessWithPathERKN3WTF6StringE
__ZN6WebKit18PluginProcessProxy6createEPNS_20PluginProcessManagerERKNS_15PluginInfoStore6PluginE
__ZN6WebKit18PluginProcessProxyC2EPNS_20PluginProcessManagerERKNS_15PluginInfoStore6PluginE
__ZN6WebKit18PluginProcessProxy25pluginNeedsExecutableHeapERKNS_15PluginInfoStore6PluginE
__ZN3WTF6VectorIPN6WebKit18PluginProcessProxyELm0EE14expandCapacityEmPKS3_
__ZN3WTF6VectorIPN6WebKit18PluginProcessProxyELm0EE15reserveCapacityEm
__ZN3WTF16VectorBufferBaseIPN6WebKit18PluginProcessProxyEE14allocateBufferEm
__ZN6WebKit18PluginProcessProxy13clearSiteDataEPNS_24WebPluginSiteDataManagerERKN3WTF6VectorINS3_6StringELm0EEEyyy
__ZN3WTF7HashMapIyNS_6RefPtrIN6WebKit24WebPluginSiteDataManagerEEENS_7IntHashIyEENS_10HashTraitsIyEENS7_IS4_EEE3setERKyRKS4_
__ZN3WTF17HashMapTranslatorISt4pairIyNS_6RefPtrIN6WebKit24WebPluginSiteDataManagerEEEENS_14PairHashTraitsINS_10HashTraitsIyEENS8_IS5_EEEENS_7IntHashIyEEE9translateERS6_RKyRKS5_
__ZN3WTF6VectorIN6WebKit18PluginProcessProxy20ClearSiteDataRequestELm0EE14expandCapacityEmPKS3_
__ZN3WTF6VectorIN6WebKit18PluginProcessProxy20ClearSiteDataRequestELm0EE15reserveCapacityEm
__ZN3WTF16VectorBufferBaseIN6WebKit18PluginProcessProxy20ClearSiteDataRequestEE14allocateBufferEm
__ZN3WTF11VectorMoverILb0EN6WebKit18PluginProcessProxy20ClearSiteDataRequestEE4moveEPKS3_S6_PS3_
_WKContextGetResourceCacheManager
_WKResourceCacheManagerClearCacheForAllOrigins
__ZN6WebKit28WebResourceCacheManagerProxy23clearCacheForAllOriginsENS_21ResourceCachesToClearE
__ZN6WebKit15WebProcessProxy4sendIN8Messages23WebResourceCacheManager23ClearCacheForAllOriginsEEEbRKT_yj
__ZThn8_N6WebKit18PluginProcessProxy18didFinishLaunchingEPNS_15ProcessLauncherEj
__ZN6WebKit18PluginProcessProxy18didFinishLaunchingEPNS_15ProcessLauncherEj
__ZN6WebKit31PluginProcessCreationParametersC1Ev
__ZN6WebKit18PluginProcessProxy31platformInitializePluginProcessERNS_31PluginProcessCreationParametersE
__ZN7CoreIPC10Connection4sendIN8Messages13PluginProcess23InitializePluginProcessEEEbRKT_yj
__ZNK6WebKit31PluginProcessCreationParameters6encodeEPN7CoreIPC15ArgumentEncoderE
__ZN3WTF6VectorIyLm0EE14shrinkCapacityEm
__ZN7CoreIPC10Connection4sendIN8Messages13PluginProcess13ClearSiteDataEEEbRKT_yj
__ZNK7CoreIPC10Arguments3IRKN3WTF6VectorINS1_6StringELm0EEEyyE6encodeEPNS_15ArgumentEncoderE
__ZN3WTF6VectorIN6WebKit18PluginProcessProxy20ClearSiteDataRequestELm0EE14shrinkCapacityEm
__ZN3WTF6VectorIN6WebKit18PluginProcessProxy20ClearSiteDataRequestELm0EE6shrinkEm
__ZN6WebKit31PluginProcessCreationParametersD2Ev
-[WKView(Internal) view:stringForToolTip:point:userData:]
-[WKView dealloc]
-[WKViewData .cxx_destruct]
__ZN3WTF6OwnPtrIN6WebKit19FindIndicatorWindowEED1Ev
__ZN3WTF6OwnPtrIN6WebKit17PDFViewControllerEED1Ev
__ZN3WTF9HashTableINS_6StringESt4pairIS1_NS_6VectorINS_9RetainPtrIP11objc_objectEELm0EEEENS_18PairFirstExtractorIS9_EENS_10StringHashENS_14PairHashTraitsINS_10HashTraitsIS1_EENSE_IS8_EEEESF_E13allocateTableEi
__ZN3WTF9HashTableINS_6StringESt4pairIS1_NS_6VectorINS_9RetainPtrIP11objc_objectEELm0EEEENS_18PairFirstExtractorIS9_EENS_10StringHashENS_14PairHashTraitsINS_10HashTraitsIS1_EENSE_IS8_EEEESF_E13isEmptyBucketERKS9_
__ZN3WTF9HashTableINS_6StringESt4pairIS1_NS_6VectorINS_9RetainPtrIP11objc_objectEELm0EEEENS_18PairFirstExtractorIS9_EENS_10StringHashENS_14PairHashTraitsINS_10HashTraitsIS1_EENSE_IS8_EEEESF_E15deallocateTableEPS9_i
__ZN3WTF9HashTableINS_6StringESt4pairIS1_NS_6VectorINS_9RetainPtrIP11objc_objectEELm0EEEENS_18PairFirstExtractorIS9_EENS_10StringHashENS_14PairHashTraitsINS_10HashTraitsIS1_EENSE_IS8_EEEESF_E16initializeBucketERS9_
__ZN3WTF9HashTableINS_6StringESt4pairIS1_NS_6VectorINS_9RetainPtrIP11objc_objectEELm0EEEENS_18PairFirstExtractorIS9_EENS_10StringHashENS_14PairHashTraitsINS_10HashTraitsIS1_EENSE_IS8_EEEESF_E16lookupForWritingIS1_NS_22IdentityHashTranslatorIS1_S9_SC_EEEES2_IPS9_bERKT_
__ZN3WTF9HashTableINS_6StringESt4pairIS1_NS_6VectorINS_9RetainPtrIP11objc_objectEELm0EEEENS_18PairFirstExtractorIS9_EENS_10StringHashENS_14PairHashTraitsINS_10HashTraitsIS1_EENSE_IS8_EEEESF_E3addIS1_S8_NS_17HashMapTranslatorIS9_SH_SC_EEEES2_INS_17HashTableIteratorIS1_S9_SB_SC_SH_SF_EEbERKT_RKT0_
__ZN3WTF9HashTableINS_6StringESt4pairIS1_NS_6VectorINS_9RetainPtrIP11objc_objectEELm0EEEENS_18PairFirstExtractorIS9_EENS_10StringHashENS_14PairHashTraitsINS_10HashTraitsIS1_EENSE_IS8_EEEESF_E4findIS1_NS_22IdentityHashTranslatorIS1_S9_SC_EEEENS_17HashTableIteratorIS1_S9_SB_SC_SH_SF_EERKT_
__ZN3WTF9HashTableINS_6StringESt4pairIS1_NS_6VectorINS_9RetainPtrIP11objc_objectEELm0EEEENS_18PairFirstExtractorIS9_EENS_10StringHashENS_14PairHashTraitsINS_10HashTraitsIS1_EENSE_IS8_EEEESF_E6expandEv
__ZN3WTF9HashTableINS_6StringESt4pairIS1_NS_6VectorINS_9RetainPtrIP11objc_objectEELm0EEEENS_18PairFirstExtractorIS9_EENS_10StringHashENS_14PairHashTraitsINS_10HashTraitsIS1_EENSE_IS8_EEEESF_E6rehashEi
__ZN3WTF9HashTableINS_6StringESt4pairIS1_NS_6VectorINS_9RetainPtrIP11objc_objectEELm0EEEENS_18PairFirstExtractorIS9_EENS_10StringHashENS_14PairHashTraitsINS_10HashTraitsIS1_EENSE_IS8_EEEESF_E6removeEPS9_
__ZN6WebKit12WebPageProxyD0Ev
__ZN6WebKit12WebPageGroup10removePageEPNS_12WebPageProxyE
__ZNK3WTF9HashTableIPN6WebKit12WebPageProxyES3_NS_17IdentityExtractorIS3_EENS_7PtrHashIS3_EENS_10HashTraitsIS3_EES9_E4findIS3_NS_22IdentityHashTranslatorIS3_S3_S7_EEEENS_22HashTableConstIteratorIS3_S3_S5_S7_S9_S9_EERKT_
__ZN3WTF9HashTableIPN6WebKit12WebPageProxyES3_NS_17IdentityExtractorIS3_EENS_7PtrHashIS3_EENS_10HashTraitsIS3_EES9_E6removeEPS3_
__ZN3WTF6OwnPtrIN6WebKit19NativeWebMouseEventEED1Ev
__ZN3WTF6VectorIN6WebKit19NativeWebWheelEventELm0EED2Ev
__ZN6WebKit18WebBackForwardListD0Ev
__ZN6WebKit16ContextMenuStateD2Ev
__ZN3WTF10RefCountedIN6WebKit15WebProcessProxyEE5derefEv
__ZN6WebKit14PageClientImplD0Ev
__ZN6WebKit15CorrectionPanelD1Ev
__ZN6WebKit15CorrectionPanelD2Ev
__ZThn16_N6WebKit15WebIconDatabase17didRemoveAllIconsEv
__ZN6WebKit21WebIconDatabaseClient17didRemoveAllIconsEPNS_15WebIconDatabaseE
-[WKView(Internal) _removeTrackingRects:count:]
_WKCookieManagerGetHTTPCookieAcceptPolicy
__ZN6WebKit21WebCookieManagerProxy25getHTTPCookieAcceptPolicyEN3WTF10PassRefPtrINS_15GenericCallbackIjjEEEE
__ZN3WTF7HashMapIyNS_6RefPtrIN6WebKit15GenericCallbackIjjEEEENS_7IntHashIyEENS_10HashTraitsIyEENS8_IS5_EEE3setERKyRKS5_
__ZN3WTF17HashMapTranslatorISt4pairIyNS_6RefPtrIN6WebKit15GenericCallbackIjjEEEEENS_14PairHashTraitsINS_10HashTraitsIyEENS9_IS6_EEEENS_7IntHashIyEEE9translateERS7_RKyRKS6_
__ZN6WebKit15WebProcessProxy4sendIN8Messages16WebCookieManager25GetHTTPCookieAcceptPolicyEEEbRKT_yj
_WKPreferencesSetDefaultFontSize
__ZN6WebKit14WebPreferences18setDefaultFontSizeERKj
_WKPreferencesSetDefaultFixedFontSize
__ZN6WebKit14WebPreferences23setDefaultFixedFontSizeERKj
_WKPreferencesSetMinimumFontSize
__ZN6WebKit14WebPreferences18setMinimumFontSizeERKj
_WKPreferencesSetAcceleratedDrawingEnabled
__ZN6WebKit14WebPreferences28setAcceleratedDrawingEnabledERKb
_WKPreferencesSetCompositingBordersVisible
__ZN6WebKit14WebPreferences28setCompositingBordersVisibleERKb
_WKPreferencesSetCompositingRepaintCountersVisible
__ZN6WebKit14WebPreferences36setCompositingRepaintCountersVisibleERKb
_WKPreferencesSetJavaScriptCanOpenWindowsAutomatically
__ZN6WebKit14WebPreferences40setJavaScriptCanOpenWindowsAutomaticallyERKb
_WKPreferencesSetJavaEnabled
__ZN6WebKit14WebPreferences14setJavaEnabledERKb
_WKPreferencesSetOfflineWebApplicationCacheEnabled
__ZN6WebKit14WebPreferences36setOfflineWebApplicationCacheEnabledERKb
_WKPreferencesSetDefaultTextEncodingName
__ZN6WebKit14WebPreferences26setDefaultTextEncodingNameERKN3WTF6StringE
__ZN6WebKit14WebPreferences31platformUpdateStringValueForKeyERKN3WTF6StringES4_
__ZN6WebKit14WebPreferences6updateEv
__ZN6WebKit12WebPageGroup20preferencesDidChangeEv
_WKPreferencesSetStandardFontFamily
__ZN6WebKit14WebPreferences21setStandardFontFamilyERKN3WTF6StringE
_WKPreferencesSetFixedFontFamily
__ZN6WebKit14WebPreferences18setFixedFontFamilyERKN3WTF6StringE
_WKPreferencesSetSerifFontFamily
__ZN6WebKit14WebPreferences18setSerifFontFamilyERKN3WTF6StringE
_WKPreferencesSetSansSerifFontFamily
__ZN6WebKit14WebPreferences22setSansSerifFontFamilyERKN3WTF6StringE
_WKPreferencesSetCursiveFontFamily
__ZN6WebKit14WebPreferences20setCursiveFontFamilyERKN3WTF6StringE
_WKPreferencesSetFantasyFontFamily
__ZN6WebKit14WebPreferences20setFantasyFontFamilyERKN3WTF6StringE
_WKPreferencesSetAuthorAndUserStylesEnabled
__ZN6WebKit14WebPreferences29setAuthorAndUserStylesEnabledERKb
_WKPreferencesSetPageCacheEnabled
__ZN6WebKit14WebPreferences16setUsesPageCacheERKb
_WKPreferencesSetDNSPrefetchingEnabled
__ZN6WebKit14WebPreferences24setDNSPrefetchingEnabledERKb
_WKPreferencesSetWebSecurityEnabled
__ZN6WebKit14WebPreferences21setWebSecurityEnabledERKb
_WKPreferencesSetUniversalAccessFromFileURLsAllowed
__ZN6WebKit14WebPreferences35setAllowUniversalAccessFromFileURLsERKb
__ZN6WebKit14WebPreferences29platformUpdateBoolValueForKeyERKN3WTF6StringEb
_WKPreferencesSetFileAccessFromFileURLsAllowed
__ZN6WebKit14WebPreferences30setAllowFileAccessFromFileURLsERKb
_WKPreferencesSetShouldPrintBackgrounds
__ZN6WebKit14WebPreferences25setShouldPrintBackgroundsERKb
_WKPreferencesSetAVFoundationEnabled
__ZN6WebKit14WebPreferences22setAVFoundationEnabledERKb
_WKPreferencesSetFullScreenEnabled
__ZN6WebKit14WebPreferences20setFullScreenEnabledERKb
_WKPreferencesSetNeedsSiteSpecificQuirks
__ZN6WebKit14WebPreferences26setNeedsSiteSpecificQuirksERKb
_WKPreferencesSetWebArchiveDebugModeEnabled
__ZN6WebKit14WebPreferences29setWebArchiveDebugModeEnabledERKb
_WKPreferencesSetLocalFileContentSniffingEnabled
__ZN6WebKit14WebPreferences34setLocalFileContentSniffingEnabledERKb
_WKPreferencesSetPaginateDuringLayoutEnabled
__ZN6WebKit14WebPreferences30setPaginateDuringLayoutEnabledERKb
__ZThn16_N6WebKit15WebIconDatabase13performImportEv
_WKPreferencesGetLoadsImagesAutomatically
__ZNK6WebKit14WebPreferences24loadsImagesAutomaticallyEv
_WKPreferencesCopyStandardFontFamily
__ZNK6WebKit14WebPreferences18standardFontFamilyEv
__ZNK6WebKit19WebPreferencesStore20getStringValueForKeyERKN3WTF6StringE
_WKPreferencesGetDefaultFontSize
__ZNK6WebKit14WebPreferences15defaultFontSizeEv
__ZNK6WebKit19WebPreferencesStore20getUInt32ValueForKeyERKN3WTF6StringE
_WKPreferencesCopyFixedFontFamily
__ZNK6WebKit14WebPreferences15fixedFontFamilyEv
_WKPreferencesGetDefaultFixedFontSize
__ZNK6WebKit14WebPreferences20defaultFixedFontSizeEv
_WKPreferencesCopyDefaultTextEncodingName
__ZNK6WebKit14WebPreferences23defaultTextEncodingNameEv
__ZN6WebKit21WebCookieManagerProxy17didReceiveMessageEPN7CoreIPC10ConnectionENS1_9MessageIDEPNS1_15ArgumentDecoderE
__ZN6WebKit21WebCookieManagerProxy38didReceiveWebCookieManagerProxyMessageEPN7CoreIPC10ConnectionENS1_9MessageIDEPNS1_15ArgumentDecoderE
__ZN7CoreIPC13handleMessageIN8Messages21WebCookieManagerProxy28DidGetHTTPCookieAcceptPolicyEN6WebKit21WebCookieManagerProxyEMS5_FvjyEEEvPNS_15ArgumentDecoderEPT0_T1_
__ZN7CoreIPC10Arguments2IjyE6decodeEPNS_15ArgumentDecoderERS1_
__ZN7CoreIPC18callMemberFunctionIN6WebKit21WebCookieManagerProxyEMS2_FvjyEjyEEvRKNS_10Arguments2IT1_T2_EEPT_T0_
__ZN6WebKit21WebCookieManagerProxy28didGetHTTPCookieAcceptPolicyEjy
__ZN3WTF7HashMapIyNS_6RefPtrIN6WebKit15GenericCallbackIjjEEEENS_7IntHashIyEENS_10HashTraitsIyEENS8_IS5_EEE4takeERKy
__ZN3WTF9HashTableIySt4pairIyNS_6RefPtrIN6WebKit15GenericCallbackIjjEEEEENS_18PairFirstExtractorIS7_EENS_7IntHashIyEENS_14PairHashTraitsINS_10HashTraitsIyEENSD_IS6_EEEESE_E15deallocateTableEPS7_i
__ZN3WTF9HashTableIySt4pairIyNS_6RefPtrIN6WebKit15GenericCallbackIjjEEEEENS_18PairFirstExtractorIS7_EENS_7IntHashIyEENS_14PairHashTraitsINS_10HashTraitsIyEENSD_IS6_EEEESE_E16lookupForWritingERKy
__ZN3WTF9HashTableIySt4pairIyNS_6RefPtrIN6WebKit15GenericCallbackIjjEEEEENS_18PairFirstExtractorIS7_EENS_7IntHashIyEENS_14PairHashTraitsINS_10HashTraitsIyEENSD_IS6_EEEESE_E3addIyS6_NS_17HashMapTranslatorIS7_SG_SB_EEEES1_INS_17HashTableIteratorIyS7_S9_SB_SG_SE_EEbERKT_RKT0_
__ZN3WTF9HashTableIySt4pairIyNS_6RefPtrIN6WebKit15GenericCallbackIjjEEEEENS_18PairFirstExtractorIS7_EENS_7IntHashIyEENS_14PairHashTraitsINS_10HashTraitsIyEENSD_IS6_EEEESE_E4findIyNS_22IdentityHashTranslatorIyS7_SB_EEEENS_17HashTableIteratorIyS7_S9_SB_SG_SE_EERKT_
__ZN3WTF9HashTableIySt4pairIyNS_6RefPtrIN6WebKit15GenericCallbackIjjEEEEENS_18PairFirstExtractorIS7_EENS_7IntHashIyEENS_14PairHashTraitsINS_10HashTraitsIyEENSD_IS6_EEEESE_E6expandEv
__ZN3WTF9HashTableIySt4pairIyNS_6RefPtrIN6WebKit15GenericCallbackIjjEEEEENS_18PairFirstExtractorIS7_EENS_7IntHashIyEENS_14PairHashTraitsINS_10HashTraitsIyEENSD_IS6_EEEESE_E6rehashEi
__ZN3WTF9HashTableIySt4pairIyNS_6RefPtrIN6WebKit15GenericCallbackIjjEEEEENS_18PairFirstExtractorIS7_EENS_7IntHashIyEENS_14PairHashTraitsINS_10HashTraitsIyEENSD_IS6_EEEESE_E6removeEPS7_
__ZN6WebKit15GenericCallbackIjjED0Ev
_WKURLRequestCreateWithNSURLRequest
__ZN3WTF9RetainPtrI12NSURLRequestEC2ENS_10AdoptNSTagEPS1_
__ZN6WebKit13WebURLRequest6createEP12NSURLRequest
__ZN6WebKit13WebURLRequestC1EP12NSURLRequest
__ZN6WebKit13WebURLRequestC2EP12NSURLRequest
__ZN6WebKit18PluginProcessProxy17didReceiveMessageEPN7CoreIPC10ConnectionENS1_9MessageIDEPNS1_15ArgumentDecoderE
__ZN6WebKit18PluginProcessProxy35didReceivePluginProcessProxyMessageEPN7CoreIPC10ConnectionENS1_9MessageIDEPNS1_15ArgumentDecoderE
__ZN7CoreIPC13handleMessageIN8Messages18PluginProcessProxy16DidClearSiteDataEN6WebKit18PluginProcessProxyEMS5_FvyEEEvPNS_15ArgumentDecoderEPT0_T1_
__ZN7CoreIPC18callMemberFunctionIN6WebKit18PluginProcessProxyEMS2_FvyEyEEvRKNS_10Arguments1IT1_EEPT_T0_
__ZN6WebKit18PluginProcessProxy16didClearSiteDataEy
__ZN3WTF7HashMapIyNS_6RefPtrIN6WebKit24WebPluginSiteDataManagerEEENS_7IntHashIyEENS_10HashTraitsIyEENS7_IS4_EEE4takeERKy
__ZN3WTF9HashTableIySt4pairIyNS_6RefPtrIN6WebKit24WebPluginSiteDataManagerEEEENS_18PairFirstExtractorIS6_EENS_7IntHashIyEENS_14PairHashTraitsINS_10HashTraitsIyEENSC_IS5_EEEESD_E15deallocateTableEPS6_i
__ZN3WTF9HashTableIySt4pairIyNS_6RefPtrIN6WebKit24WebPluginSiteDataManagerEEEENS_18PairFirstExtractorIS6_EENS_7IntHashIyEENS_14PairHashTraitsINS_10HashTraitsIyEENSC_IS5_EEEESD_E16lookupForWritingERKy
__ZN3WTF9HashTableIySt4pairIyNS_6RefPtrIN6WebKit24WebPluginSiteDataManagerEEEENS_18PairFirstExtractorIS6_EENS_7IntHashIyEENS_14PairHashTraitsINS_10HashTraitsIyEENSC_IS5_EEEESD_E3addIyS5_NS_17HashMapTranslatorIS6_SF_SA_EEEES1_INS_17HashTableIteratorIyS6_S8_SA_SF_SD_EEbERKT_RKT0_
__ZN3WTF9HashTableIySt4pairIyNS_6RefPtrIN6WebKit24WebPluginSiteDataManagerEEEENS_18PairFirstExtractorIS6_EENS_7IntHashIyEENS_14PairHashTraitsINS_10HashTraitsIyEENSC_IS5_EEEESD_E4findIyNS_22IdentityHashTranslatorIyS6_SA_EEEENS_17HashTableIteratorIyS6_S8_SA_SF_SD_EERKT_
__ZN3WTF9HashTableIySt4pairIyNS_6RefPtrIN6WebKit24WebPluginSiteDataManagerEEEENS_18PairFirstExtractorIS6_EENS_7IntHashIyEENS_14PairHashTraitsINS_10HashTraitsIyEENSC_IS5_EEEESD_E6expandEv
__ZN3WTF9HashTableIySt4pairIyNS_6RefPtrIN6WebKit24WebPluginSiteDataManagerEEEENS_18PairFirstExtractorIS6_EENS_7IntHashIyEENS_14PairHashTraitsINS_10HashTraitsIyEENSC_IS5_EEEESD_E6rehashEi
__ZN3WTF9HashTableIySt4pairIyNS_6RefPtrIN6WebKit24WebPluginSiteDataManagerEEEENS_18PairFirstExtractorIS6_EENS_7IntHashIyEENS_14PairHashTraitsINS_10HashTraitsIyEENSC_IS5_EEEESD_E6removeEPS6_
__ZN6WebKit24WebPluginSiteDataManager31didClearSiteDataForSinglePluginEy
__ZN3WTF9HashTableIySt4pairIyPN6WebKit24WebPluginSiteDataManager18ClearSiteDataStateEENS_18PairFirstExtractorIS6_EENS_7IntHashIyEENS_14PairHashTraitsINS_10HashTraitsIyEENSC_IS5_EEEESD_E16lookupForWritingERKy
__ZN3WTF9HashTableIySt4pairIyPN6WebKit24WebPluginSiteDataManager18ClearSiteDataStateEENS_18PairFirstExtractorIS6_EENS_7IntHashIyEENS_14PairHashTraitsINS_10HashTraitsIyEENSC_IS5_EEEESD_E3addIyS5_NS_17HashMapTranslatorIS6_SF_SA_EEEES1_INS_17HashTableIteratorIyS6_S8_SA_SF_SD_EEbERKT_RKT0_
__ZN3WTF9HashTableIySt4pairIyPN6WebKit24WebPluginSiteDataManager18ClearSiteDataStateEENS_18PairFirstExtractorIS6_EENS_7IntHashIyEENS_14PairHashTraitsINS_10HashTraitsIyEENSC_IS5_EEEESD_E4findIyNS_22IdentityHashTranslatorIyS6_SA_EEEENS_17HashTableIteratorIyS6_S8_SA_SF_SD_EERKT_
__ZN3WTF9HashTableIySt4pairIyPN6WebKit24WebPluginSiteDataManager18ClearSiteDataStateEENS_18PairFirstExtractorIS6_EENS_7IntHashIyEENS_14PairHashTraitsINS_10HashTraitsIyEENSC_IS5_EEEESD_E6expandEv
__ZN3WTF9HashTableIySt4pairIyPN6WebKit24WebPluginSiteDataManager18ClearSiteDataStateEENS_18PairFirstExtractorIS6_EENS_7IntHashIyEENS_14PairHashTraitsINS_10HashTraitsIyEENSC_IS5_EEEESD_E6lookupERKy
__ZN3WTF9HashTableIySt4pairIyPN6WebKit24WebPluginSiteDataManager18ClearSiteDataStateEENS_18PairFirstExtractorIS6_EENS_7IntHashIyEENS_14PairHashTraitsINS_10HashTraitsIyEENSC_IS5_EEEESD_E6rehashEi
__ZN3WTF9HashTableIySt4pairIyPN6WebKit24WebPluginSiteDataManager18ClearSiteDataStateEENS_18PairFirstExtractorIS6_EENS_7IntHashIyEENS_14PairHashTraitsINS_10HashTraitsIyEENSC_IS5_EEEESD_E6removeEPS6_
__ZN6WebKit12MutableArrayD0Ev
__ZN6WebKit14ImmutableArrayD2Ev
__ZN7RunLoop5TimerIN6WebKit19ResponsivenessTimerEE5firedEv
__ZN6WebKit19ResponsivenessTimer10timerFiredEv
__ZThn16_N6WebKit15WebProcessProxy21didBecomeUnresponsiveEPNS_19ResponsivenessTimerE
__ZN6WebKit15WebProcessProxy21didBecomeUnresponsiveEPNS_19ResponsivenessTimerE
__ZN3WTF18copyValuesToVectorIyPN6WebKit12WebPageProxyENS_7IntHashIyEENS_10HashTraitsIyEENS6_IS3_EENS_6VectorINS_6RefPtrIS2_EELm0EEEEEvRKNS_7HashMapIT_T0_T1_T2_T3_EERT4_
__ZN3WTF6VectorINS_6RefPtrIN6WebKit12WebPageProxyEEELm0EE15reserveCapacityEm
__ZN3WTF16VectorBufferBaseINS_6RefPtrIN6WebKit12WebPageProxyEEEE14allocateBufferEm
__ZN6WebKit12WebPageProxy28processDidBecomeUnresponsiveEv
__ZN6WebKit15WebLoaderClient28processDidBecomeUnresponsiveEPNS_12WebPageProxyE
_WKPageGetProcessIdentifier
__ZNK6WebKit12WebPageProxy17processIdentifierEv
__ZN3WTF6VectorINS_6RefPtrIN6WebKit12WebPageProxyEEELm0EED2Ev
__ZN3WTF16VectorDestructorILb1ENS_6RefPtrIN6WebKit12WebPageProxyEEEE8destructEPS4_S6_
__ZThn16_N6WebKit15WebProcessProxy19didBecomeResponsiveEPNS_19ResponsivenessTimerE
__ZN6WebKit15WebProcessProxy19didBecomeResponsiveEPNS_19ResponsivenessTimerE
__ZN6WebKit12WebPageProxy26processDidBecomeResponsiveEv
__ZN6WebKit15WebLoaderClient26processDidBecomeResponsiveEPNS_12WebPageProxyE
__ZN3WTF6VectorIhLm0EE14expandCapacityEmPKh
__ZN7CoreIPC13handleMessageIN8Messages16DrawingAreaProxy31EnterAcceleratedCompositingModeEN6WebKit16DrawingAreaProxyEMS5_FvyRKNS4_16LayerTreeContextEEEEvPNS_15ArgumentDecoderEPT0_T1_
__ZN7CoreIPC10Arguments2IyN6WebKit16LayerTreeContextEE6decodeEPNS_15ArgumentDecoderERS3_
__ZN7CoreIPC18callMemberFunctionIN6WebKit16DrawingAreaProxyEMS2_FvyRKNS1_16LayerTreeContextEEyS3_EEvRKNS_10Arguments2IT1_T2_EEPT_T0_
__ZN6WebKit20DrawingAreaProxyImpl31enterAcceleratedCompositingModeEyRKNS_16LayerTreeContextE
__ZN6WebKit12WebPageProxy31enterAcceleratedCompositingModeERKNS_16LayerTreeContextE
__ZN6WebKit14PageClientImpl31enterAcceleratedCompositingModeERKNS_16LayerTreeContextE
-[WKView(Internal) _enterAcceleratedCompositingMode:]
__ZN3WTF9RetainPtrI7CALayerEC2ENS_10AdoptNSTagEPS1_
_WKMakeRenderLayer
__ZN6WebKit24WebPluginSiteDataManager29didClearSiteDataForAllPluginsEy
__ZN3WTF7HashMapIyPN6WebKit24WebPluginSiteDataManager18ClearSiteDataStateENS_7IntHashIyEENS_10HashTraitsIyEENS7_IS4_EEE4takeERKy
__ZN3WTF10PassOwnPtrIN6WebKit24WebPluginSiteDataManager18ClearSiteDataStateEED1Ev
__ZN6WebKit24WebPluginSiteDataManager16didClearSiteDataEy
__ZN3WTF7HashMapIyNS_6RefPtrIN6WebKit12VoidCallbackEEENS_7IntHashIyEENS_10HashTraitsIyEENS7_IS4_EEE4takeERKy
__ZN3WTF9HashTableIySt4pairIyNS_6RefPtrIN6WebKit12VoidCallbackEEEENS_18PairFirstExtractorIS6_EENS_7IntHashIyEENS_14PairHashTraitsINS_10HashTraitsIyEENSC_IS5_EEEESD_E15deallocateTableEPS6_i
__ZN3WTF9HashTableIySt4pairIyNS_6RefPtrIN6WebKit12VoidCallbackEEEENS_18PairFirstExtractorIS6_EENS_7IntHashIyEENS_14PairHashTraitsINS_10HashTraitsIyEENSC_IS5_EEEESD_E16lookupForWritingERKy
__ZN3WTF9HashTableIySt4pairIyNS_6RefPtrIN6WebKit12VoidCallbackEEEENS_18PairFirstExtractorIS6_EENS_7IntHashIyEENS_14PairHashTraitsINS_10HashTraitsIyEENSC_IS5_EEEESD_E3addIyS5_NS_17HashMapTranslatorIS6_SF_SA_EEEES1_INS_17HashTableIteratorIyS6_S8_SA_SF_SD_EEbERKT_RKT0_
__ZN3WTF9HashTableIySt4pairIyNS_6RefPtrIN6WebKit12VoidCallbackEEEENS_18PairFirstExtractorIS6_EENS_7IntHashIyEENS_14PairHashTraitsINS_10HashTraitsIyEENSC_IS5_EEEESD_E4findIyNS_22IdentityHashTranslatorIyS6_SA_EEEENS_17HashTableIteratorIyS6_S8_SA_SF_SD_EERKT_
__ZN3WTF9HashTableIySt4pairIyNS_6RefPtrIN6WebKit12VoidCallbackEEEENS_18PairFirstExtractorIS6_EENS_7IntHashIyEENS_14PairHashTraitsINS_10HashTraitsIyEENSC_IS5_EEEESD_E6expandEv
__ZN3WTF9HashTableIySt4pairIyNS_6RefPtrIN6WebKit12VoidCallbackEEEENS_18PairFirstExtractorIS6_EENS_7IntHashIyEENS_14PairHashTraitsINS_10HashTraitsIyEENSC_IS5_EEEESD_E6rehashEi
__ZN3WTF9HashTableIySt4pairIyNS_6RefPtrIN6WebKit12VoidCallbackEEEENS_18PairFirstExtractorIS6_EENS_7IntHashIyEENS_14PairHashTraitsINS_10HashTraitsIyEENSC_IS5_EEEESD_E6removeEPS6_
__ZN6WebKit12VoidCallbackD0Ev
__ZN3WTF6OwnPtrIN6WebKit24WebPluginSiteDataManager18ClearSiteDataStateEED1Ev
__ZN7CoreIPC21handleMessageVariadicIN8Messages12WebPageProxy31DecidePolicyForNavigationActionEN6WebKit12WebPageProxyEMS5_FvyjjiRKN7WebCore15ResourceRequestEyPNS_15ArgumentDecoderERbRySD_EEEvSB_PNS_15ArgumentEncoderEPT0_T1_
__ZN7CoreIPC10Arguments6IyjjiN7WebCore15ResourceRequestEyE6decodeEPNS_15ArgumentDecoderERS3_
__ZN7CoreIPC10Arguments5IyjjiN7WebCore15ResourceRequestEE6decodeEPNS_15ArgumentDecoderERS3_
__ZN7CoreIPC10Arguments4IyjjiE6decodeEPNS_15ArgumentDecoderERS1_
__ZN7CoreIPC10Arguments3IyjjE6decodeEPNS_15ArgumentDecoderERS1_
__ZN7CoreIPC10Arguments2IyjE6decodeEPNS_15ArgumentDecoderERS1_
__ZN7CoreIPC18callMemberFunctionIN6WebKit12WebPageProxyEMS2_FvyjjiRKN7WebCore15ResourceRequestEyPNS_15ArgumentDecoderERbRySA_EyjjiS4_ybyyEEvRKNS_10Arguments6IT1_T2_T3_T4_T5_T6_EES8_RNS_10Arguments3IT7_T8_T9_EEPT_T0_
__ZN6WebKit12WebPageProxy31decidePolicyForNavigationActionEyjjiRKN7WebCore15ResourceRequestEyPN7CoreIPC15ArgumentDecoderERbRyS9_
__ZN6WebKit15WebPolicyClient31decidePolicyForNavigationActionEPNS_12WebPageProxyEPNS_13WebFrameProxyEN7WebCore14NavigationTypeENS_8WebEvent9ModifiersENS_13WebMouseEvent6ButtonERKNS5_15ResourceRequestEPNS_27WebFramePolicyListenerProxyEPNS_9APIObjectE
__ZN3WTF9HashTableINS_12AtomicStringESt4pairIS1_NS_6StringEENS_18PairFirstExtractorIS4_EENS_15CaseFoldingHashENS_14PairHashTraitsINS_10HashTraitsIS1_EENS9_IS3_EEEESA_E15deallocateTableEPS4_i
__ZN3WTF9HashTableINS_12AtomicStringESt4pairIS1_NS_6StringEENS_18PairFirstExtractorIS4_EENS_15CaseFoldingHashENS_14PairHashTraitsINS_10HashTraitsIS1_EENS9_IS3_EEEESA_E16lookupForWritingIS1_NS_22IdentityHashTranslatorIS1_S4_S7_EEEES2_IPS4_bERKT_
__ZN3WTF9HashTableINS_12AtomicStringESt4pairIS1_NS_6StringEENS_18PairFirstExtractorIS4_EENS_15CaseFoldingHashENS_14PairHashTraitsINS_10HashTraitsIS1_EENS9_IS3_EEEESA_E22isEmptyOrDeletedBucketERKS4_
__ZN3WTF9HashTableINS_12AtomicStringESt4pairIS1_NS_6StringEENS_18PairFirstExtractorIS4_EENS_15CaseFoldingHashENS_14PairHashTraitsINS_10HashTraitsIS1_EENS9_IS3_EEEESA_E3addIS1_S3_NS_17HashMapTranslatorIS4_SC_S7_EEEES2_INS_17HashTableIteratorIS1_S4_S6_S7_SC_SA_EEbERKT_RKT0_
__ZN3WTF9HashTableINS_12AtomicStringESt4pairIS1_NS_6StringEENS_18PairFirstExtractorIS4_EENS_15CaseFoldingHashENS_14PairHashTraitsINS_10HashTraitsIS1_EENS9_IS3_EEEESA_E3addIS1_S4_NS_22IdentityHashTranslatorIS1_S4_S7_EEEES2_INS_17HashTableIteratorIS1_S4_S6_S7_SC_SA_EEbERKT_RKT0_
__ZN3WTF9HashTableINS_12AtomicStringESt4pairIS1_NS_6StringEENS_18PairFirstExtractorIS4_EENS_15CaseFoldingHashENS_14PairHashTraitsINS_10HashTraitsIS1_EENS9_IS3_EEEESA_E4findIS1_NS_22IdentityHashTranslatorIS1_S4_S7_EEEENS_17HashTableIteratorIS1_S4_S6_S7_SC_SA_EERKT_
__ZN3WTF9HashTableINS_12AtomicStringESt4pairIS1_NS_6StringEENS_18PairFirstExtractorIS4_EENS_15CaseFoldingHashENS_14PairHashTraitsINS_10HashTraitsIS1_EENS9_IS3_EEEESA_E6expandEv
__ZN3WTF9HashTableINS_12AtomicStringESt4pairIS1_NS_6StringEENS_18PairFirstExtractorIS4_EENS_15CaseFoldingHashENS_14PairHashTraitsINS_10HashTraitsIS1_EENS9_IS3_EEEESA_E6rehashEi
__ZN3WTF9HashTableINS_12AtomicStringESt4pairIS1_NS_6StringEENS_18PairFirstExtractorIS4_EENS_15CaseFoldingHashENS_14PairHashTraitsINS_10HashTraitsIS1_EENS9_IS3_EEEESA_E6removeEPS4_
__ZN3WTF9HashTableINS_12AtomicStringESt4pairIS1_NS_6StringEENS_18PairFirstExtractorIS4_EENS_15CaseFoldingHashENS_14PairHashTraitsINS_10HashTraitsIS1_EENS9_IS3_EEEESA_EC2ERKSD_
__ZN3WTF9HashTableINS_12AtomicStringESt4pairIS1_NS_6StringEENS_18PairFirstExtractorIS4_EENS_15CaseFoldingHashENS_14PairHashTraitsINS_10HashTraitsIS1_EENS9_IS3_EEEESA_EaSERKSD_
__ZN3WTF12AtomicStringD1Ev
__ZN7CoreIPC13handleMessageIN8Messages10WebContext24DidPerformClientRedirectEN6WebKit10WebContextEMS5_FvyRKN3WTF6StringES9_yEEEvPNS_15ArgumentDecoderEPT0_T1_
__ZN6WebKit10WebContext24didPerformClientRedirectEyRKN3WTF6StringES4_y
__ZN6WebKit16WebHistoryClient24didPerformClientRedirectEPNS_10WebContextEPNS_12WebPageProxyERKN3WTF6StringES8_PNS_13WebFrameProxyE
__ZN6WebKit30WebContextInjectedBundleClient46didReceiveSynchronousMessageFromInjectedBundleEPNS_10WebContextERKN3WTF6StringEPNS_9APIObjectERNS3_6RefPtrIS7_EE
_WKCGContextGetShouldSmoothFonts
-[WKView viewDidHide]
__ZN6WebKit20DrawingAreaProxyImpl30exitAcceleratedCompositingModeEv
__ZN6WebKit12WebPageProxy30exitAcceleratedCompositingModeEv
__ZN6WebKit14PageClientImpl30exitAcceleratedCompositingModeEv
-[WKView(Internal) _exitAcceleratedCompositingMode]
__ZN3WTF9RetainPtrI6NSViewEaSESt9nullptr_t
-[WKView viewDidUnhide]
__ZN7CoreIPC13handleMessageIN8Messages12WebPageProxy14WindowToScreenEN6WebKit12WebPageProxyEMS5_FvRKN7WebCore7IntRectERS7_EEEvPNS_15ArgumentDecoderEPNS_15ArgumentEncoderEPT0_T1_
__ZN7CoreIPC18callMemberFunctionIN6WebKit12WebPageProxyEMS2_FvRKN7WebCore7IntRectERS4_ES4_S4_EEvRKNS_10Arguments1IT1_EERNSA_IT2_EEPT_T0_
__ZN6WebKit12WebPageProxy14windowToScreenERKN7WebCore7IntRectERS2_
__ZN6WebKit14PageClientImpl14windowToScreenERKN7WebCore7IntRectE
__ZN7CoreIPC13handleMessageIN8Messages12WebPageProxy18EditorStateChangedEN6WebKit12WebPageProxyEMS5_FvRKNS4_11EditorStateEEEEvPNS_15ArgumentDecoderEPT0_T1_
__ZN7CoreIPC18callMemberFunctionIN6WebKit12WebPageProxyEMS2_FvRKNS1_11EditorStateEES3_EEvRKNS_10Arguments1IT1_EEPT_T0_
__ZN6WebKit12WebPageProxy18editorStateChangedERKNS_11EditorStateE
__ZN6WebKit14PageClientImpl20updateTextInputStateEb
-[WKView(Internal) _updateTextInputStateIncludingSecureInputState:]
-[WKView _hitTest:dragTypes:]
-[WKView draggingEntered:]
-[WKView applicationFlags:]
__ZN6WebKit12WebPageProxy11dragEnteredEPN7WebCore8DragDataERKN3WTF6StringE
__ZN6WebKit12WebPageProxy27performDragControllerActionENS_20DragControllerActionEPN7WebCore8DragDataERKN3WTF6StringERKNS_16SandboxExtension6HandleE
__ZN6WebKit15WebProcessProxy4sendIN8Messages7WebPage27PerformDragControllerActionEEEbRKT_yj
__ZNK7CoreIPC10Arguments7IyRKN7WebCore8IntPointES4_yRKN3WTF6StringEjRKN6WebKit16SandboxExtension6HandleEE6encodeEPNS_15ArgumentEncoderE
__ZNK7CoreIPC10Arguments5IyRKN7WebCore8IntPointES4_yRKN3WTF6StringEE6encodeEPNS_15ArgumentEncoderE
__ZNK7CoreIPC10Arguments3IyRKN7WebCore8IntPointES4_E6encodeEPNS_15ArgumentEncoderE
__ZN7CoreIPC13handleMessageIN8Messages12WebPageProxy30DidPerformDragControllerActionEN6WebKit12WebPageProxyEMS5_FvyEEEvPNS_15ArgumentDecoderEPT0_T1_
__ZN6WebKit12WebPageProxy30didPerformDragControllerActionEy
-[WKView draggingUpdated:]
__ZN6WebKit12WebPageProxy11dragUpdatedEPN7WebCore8DragDataERKN3WTF6StringE
-[WKView prepareForDragOperation:]
-[WKView performDragOperation:]
__ZN6WebKit12WebPageProxy11performDragEPN7WebCore8DragDataERKN3WTF6StringERKNS_16SandboxExtension6HandleE
__ZN7CoreIPC13handleMessageIN8Messages12WebPageProxy23DidSaveFrameToPageCacheEN6WebKit12WebPageProxyEMS5_FvyEEEvPNS_15ArgumentDecoderEPT0_T1_
__ZN6WebKit12WebPageProxy23didSaveFrameToPageCacheEy
__ZN3WTF11VectorMoverILb0EN7CoreIPC10Connection7MessageINS1_15ArgumentDecoderEEEE15moveOverlappingEPKS5_S8_PS5_
_WKPageTryClose
__ZN6WebKit12WebPageProxy8tryCloseEv
__ZN6WebKit15WebProcessProxy4sendIN8Messages7WebPage8TryCloseEEEbRKT_yj
__ZN7CoreIPC13handleMessageIN8Messages12WebPageProxy9ClosePageEN6WebKit12WebPageProxyEMS5_FvbEEEvPNS_15ArgumentDecoderEPT0_T1_
__ZN7CoreIPC18callMemberFunctionIN6WebKit12WebPageProxyEMS2_FvbEbEEvRKNS_10Arguments1IT1_EEPT_T0_
__ZN6WebKit12WebPageProxy9closePageEb
__ZN6WebKit11WebUIClient5closeEPNS_12WebPageProxyE
_WKIconDatabaseClose
__ZN6WebKit15WebIconDatabase5closeEv
-[WKView flagsChanged:]
__ZN6WebKit22NativeWebKeyboardEventC1EP7NSEventP6NSView
__ZN6WebKit22NativeWebKeyboardEventC2EP7NSEventP6NSView
__ZN6WebKit15WebEventFactory22createWebKeyboardEventEP7NSEventP6NSView
_WKGetNSEventKeyChar
__ZN6WebKit16WebKeyboardEventC1ENS_8WebEvent4TypeERKN3WTF6StringES6_S6_iiibbbNS1_9ModifiersEd
__ZN6WebKit16WebKeyboardEventC2ENS_8WebEvent4TypeERKN3WTF6StringES6_S6_iiibbbNS1_9ModifiersEd
__ZN6WebKit12WebPageProxy19handleKeyboardEventERKNS_22NativeWebKeyboardEventE
__ZN3WTF5DequeIN6WebKit22NativeWebKeyboardEventELm0EE14expandCapacityEv
__ZN3WTF16VectorBufferBaseIN6WebKit22NativeWebKeyboardEventEE14allocateBufferEm
__ZN3WTF11VectorMoverILb0EN6WebKit22NativeWebKeyboardEventEE4moveEPKS2_S5_PS2_
__ZN6WebKit22NativeWebKeyboardEventC2ERKS0_
__ZN6WebKit16WebKeyboardEventC2ERKS0_
__ZN6WebKit15WebProcessProxy4sendIN8Messages7WebPage8KeyEventEEEbRKT_yj
__ZNK6WebKit16WebKeyboardEvent6encodeEPN7CoreIPC15ArgumentEncoderE
__ZNK7CoreIPC10Arguments5IRKN3WTF6StringES4_S4_RKiS6_E6encodeEPNS_15ArgumentEncoderE
__ZNK7CoreIPC10Arguments3IRKbS2_S2_E6encodeEPNS_15ArgumentEncoderE
__ZN6WebKit22NativeWebKeyboardEventD2Ev
__ZN6WebKit16WebKeyboardEventD2Ev
__ZN6WebKit14PageClientImpl16doneWithKeyEventERKNS_22NativeWebKeyboardEventEb
__ZNK6WebKit11WebUIClient30implementsDidNotHandleKeyEventEv
__ZN6WebKit11WebUIClient20didNotHandleKeyEventEPNS_12WebPageProxyERKNS_22NativeWebKeyboardEventE
__ZN7CoreIPC13handleMessageIN8Messages12WebPageProxy23InterpretQueuedKeyEventEN6WebKit12WebPageProxyEMS5_FvRKNS4_11EditorStateERbRN3WTF6VectorIN7WebCore15KeypressCommandELm0EEEEEEvPNS_15ArgumentDecoderEPNS_15ArgumentEncoderEPT0_T1_
__ZN7CoreIPC18callMemberFunctionIN6WebKit12WebPageProxyEMS2_FvRKNS1_11EditorStateERbRN3WTF6VectorIN7WebCore15KeypressCommandELm0EEEES3_bSB_EEvRKNS_10Arguments1IT1_EERNS_10Arguments2IT2_T3_EEPT_T0_
__ZN6WebKit12WebPageProxy23interpretQueuedKeyEventERKNS_11EditorStateERbRN3WTF6VectorIN7WebCore15KeypressCommandELm0EEE
__ZN6WebKit14PageClientImpl17interpretKeyEventERKNS_22NativeWebKeyboardEventERN3WTF6VectorIN7WebCore15KeypressCommandELm0EEE
-[WKView(Internal) _interpretKeyEvent:savingCommandsTo:]
__ZN7CoreIPC19VectorArgumentCoderILb0EN7WebCore15KeypressCommandEE6encodeEPNS_15ArgumentEncoderERKN3WTF6VectorIS2_Lm0EEE
__ZN3WTF6VectorIN7WebCore15KeypressCommandELm0EED2Ev
__ZN3WTF12VectorBufferIN7WebCore15KeypressCommandELm0EED2Ev
-[WKView doCommandBySelector:]
__ZN3WTF6VectorIN7WebCore15KeypressCommandELm0EE14expandCapacityEmPKS2_
__ZN3WTF6VectorIN7WebCore15KeypressCommandELm0EE15reserveCapacityEm
__ZN3WTF16VectorBufferBaseIN7WebCore15KeypressCommandEE14allocateBufferEm
__ZN3WTF11VectorMoverILb0EN7WebCore15KeypressCommandEE4moveEPKS2_S5_PS2_
__ZN7WebCore15KeypressCommandC2ERKS0_
__ZN7WebCore15KeypressCommandD2Ev
__ZN3WTF6VectorIN7WebCore15KeypressCommandELm0EE6shrinkEm
__ZN7CoreIPC13handleMessageIN8Messages12WebPageProxy29ExecuteSavedCommandBySelectorEN6WebKit12WebPageProxyEMS5_FvRKN3WTF6StringERbEEEvPNS_15ArgumentDecoderEPNS_15ArgumentEncoderEPT0_T1_
__ZN7CoreIPC18callMemberFunctionIN6WebKit12WebPageProxyEMS2_FvRKN3WTF6StringERbES4_bEEvRKNS_10Arguments1IT1_EERNSA_IT2_EEPT_T0_
__ZN6WebKit12WebPageProxy29executeSavedCommandBySelectorERKN3WTF6StringERb
__ZN6WebKit14PageClientImpl29executeSavedCommandBySelectorERKN3WTF6StringE
-[WKView(Internal) _executeSavedCommandBySelector:]
-[WKResponderChainSink initWithResponderChain:]
__ZN3WTF9RetainPtrI20WKResponderChainSinkEC2ENS_10AdoptNSTagEPS1_
-[WKResponderChainSink doCommandBySelector:]
-[WKResponderChainSink detach]
-[WKResponderChainSink didReceiveUnhandledCommand]
-[WKView(Internal) _resendKeyDownEvent:]
__ZN3WTF9RetainPtrI6WKViewEC2EPS1_
__ZN3WTF9RetainPtrI7NSEventEaSESt9nullptr_t
-[WKView validateUserInterfaceItem:]
__ZL22commandNameForSelectorP13objc_selector
__ZNK3WTF9HashTableIP13objc_selectorSt4pairIS2_NS_6StringEENS_18PairFirstExtractorIS5_EENS_7PtrHashIS2_EENS_14PairHashTraitsINS_10HashTraitsIS2_EENSB_IS4_EEEESC_E4findIS2_NS_22IdentityHashTranslatorIS2_S5_S9_EEEENS_22HashTableConstIteratorIS2_S5_S7_S9_SE_SC_EERKT_
__ZN3WTF14PairHashTraitsINS_10HashTraitsINS_6StringEEENS1_INS_6VectorINS_9RetainPtrIP11objc_objectEELm0EEEEEE10emptyValueEv
__ZNSt4pairIN3WTF6StringENS0_6VectorINS0_9RetainPtrIP11objc_objectEELm0EEEEC2ERKS1_RKS7_
__ZN3WTF6VectorINS_9RetainPtrIP11objc_objectEELm0EEC2ERKS5_
__ZN3WTF12VectorBufferINS_9RetainPtrIP11objc_objectEELm0EEC2Em
__ZN3WTF6VectorINS_9RetainPtrIP11objc_objectEELm0EED2Ev
__ZN3WTF12VectorBufferINS_9RetainPtrIP11objc_objectEELm0EED2Ev
__ZN3WTF6VectorINS_9RetainPtrIP11objc_objectEELm0EEaSERKS5_
__ZNSt6__copyILb0ESt26random_access_iterator_tagE4copyIPKN3WTF9RetainPtrIP11objc_objectEEPS7_EET0_T_SC_SB_
__ZN3WTF12VectorCopierILb0ENS_9RetainPtrIP11objc_objectEEE17uninitializedCopyEPKS4_S7_PS4_
__ZN3WTF6VectorINS_9RetainPtrIP11objc_objectEELm0EE15reserveCapacityEm
__ZN3WTF16VectorBufferBaseINS_9RetainPtrIP11objc_objectEEE14allocateBufferEm
__ZN3WTF11VectorMoverILb0ENS_9RetainPtrIP11objc_objectEEE4moveEPKS4_S7_PS4_
__ZN3WTF9RetainPtrIP11objc_objectEC2ES2_
__ZN6WebKit12WebPageProxy15validateCommandERKN3WTF6StringENS1_10PassRefPtrINS_23ValidateCommandCallbackEEE
__ZN3WTF7HashMapIyNS_6RefPtrIN6WebKit23ValidateCommandCallbackEEENS_7IntHashIyEENS_10HashTraitsIyEENS7_IS4_EEE3setERKyRKS4_
__ZN3WTF17HashMapTranslatorISt4pairIyNS_6RefPtrIN6WebKit23ValidateCommandCallbackEEEENS_14PairHashTraitsINS_10HashTraitsIyEENS8_IS5_EEEENS_7IntHashIyEEE9translateERS6_RKyRKS5_
__ZN6WebKit15WebProcessProxy4sendIN8Messages7WebPage15ValidateCommandEEEbRKT_yj
_WKFrameIsDisplayingMarkupDocument
__ZNK6WebKit13WebFrameProxy26isDisplayingMarkupDocumentEv
__ZN7CoreIPC13handleMessageIN8Messages12WebPageProxy23ValidateCommandCallbackEN6WebKit12WebPageProxyEMS5_FvRKN3WTF6StringEbiyEEEvPNS_15ArgumentDecoderEPT0_T1_
__ZN7CoreIPC10Arguments4IN3WTF6StringEbiyE6decodeEPNS_15ArgumentDecoderERS3_
__ZN7CoreIPC10Arguments3IN3WTF6StringEbiE6decodeEPNS_15ArgumentDecoderERS3_
__ZN7CoreIPC10Arguments2IN3WTF6StringEbE6decodeEPNS_15ArgumentDecoderERS3_
__ZN7CoreIPC18callMemberFunctionIN6WebKit12WebPageProxyEMS2_FvRKN3WTF6StringEbiyES4_biyEEvRKNS_10Arguments4IT1_T2_T3_T4_EEPT_T0_
__ZN6WebKit12WebPageProxy23validateCommandCallbackERKN3WTF6StringEbiy
__ZN3WTF7HashMapIyNS_6RefPtrIN6WebKit23ValidateCommandCallbackEEENS_7IntHashIyEENS_10HashTraitsIyEENS7_IS4_EEE4takeERKy
__ZN3WTF9HashTableIySt4pairIyNS_6RefPtrIN6WebKit23ValidateCommandCallbackEEEENS_18PairFirstExtractorIS6_EENS_7IntHashIyEENS_14PairHashTraitsINS_10HashTraitsIyEENSC_IS5_EEEESD_E15deallocateTableEPS6_i
__ZN3WTF9HashTableIySt4pairIyNS_6RefPtrIN6WebKit23ValidateCommandCallbackEEEENS_18PairFirstExtractorIS6_EENS_7IntHashIyEENS_14PairHashTraitsINS_10HashTraitsIyEENSC_IS5_EEEESD_E16lookupForWritingERKy
__ZN3WTF9HashTableIySt4pairIyNS_6RefPtrIN6WebKit23ValidateCommandCallbackEEEENS_18PairFirstExtractorIS6_EENS_7IntHashIyEENS_14PairHashTraitsINS_10HashTraitsIyEENSC_IS5_EEEESD_E3addIyS5_NS_17HashMapTranslatorIS6_SF_SA_EEEES1_INS_17HashTableIteratorIyS6_S8_SA_SF_SD_EEbERKT_RKT0_
__ZN3WTF9HashTableIySt4pairIyNS_6RefPtrIN6WebKit23ValidateCommandCallbackEEEENS_18PairFirstExtractorIS6_EENS_7IntHashIyEENS_14PairHashTraitsINS_10HashTraitsIyEENSC_IS5_EEEESD_E4findIyNS_22IdentityHashTranslatorIyS6_SA_EEEENS_17HashTableIteratorIyS6_S8_SA_SF_SD_EERKT_
__ZN3WTF9HashTableIySt4pairIyNS_6RefPtrIN6WebKit23ValidateCommandCallbackEEEENS_18PairFirstExtractorIS6_EENS_7IntHashIyEENS_14PairHashTraitsINS_10HashTraitsIyEENSC_IS5_EEEESD_E6expandEv
__ZN3WTF9HashTableIySt4pairIyNS_6RefPtrIN6WebKit23ValidateCommandCallbackEEEENS_18PairFirstExtractorIS6_EENS_7IntHashIyEENS_14PairHashTraitsINS_10HashTraitsIyEENSC_IS5_EEEESD_E6rehashEi
__ZN3WTF9HashTableIySt4pairIyNS_6RefPtrIN6WebKit23ValidateCommandCallbackEEEENS_18PairFirstExtractorIS6_EENS_7IntHashIyEENS_14PairHashTraitsINS_10HashTraitsIyEENSC_IS5_EEEESD_E6removeEPS6_
__ZN6WebKit23ValidateCommandCallback30performCallbackWithReturnValueEPN3WTF10StringImplEbi
__ZL23validateCommandCallbackPK14OpaqueWKStringbiPK13OpaqueWKErrorPv
-[WKView(Internal) _setUserInterfaceItemState:enabled:state:]
__ZN3WTF7HashMapINS_6StringENS_6VectorINS_9RetainPtrIP11objc_objectEELm0EEENS_10StringHashENS_10HashTraitsIS1_EENS9_IS7_EEE4takeERKS1_
__ZN3WTF9RetainPtrIP11objc_objectEC2ERKS3_
__ZNSt4pairIN3WTF6StringENS0_6VectorINS0_9RetainPtrIP11objc_objectEELm0EEEED2Ev
__ZN3WTF16VectorDestructorILb1ENS_9RetainPtrIP11objc_objectEEE8destructEPS4_S6_
__ZL8menuItemP11objc_object
__ZN6WebKit23ValidateCommandCallbackD0Ev
__ZN6WebKit18PluginProcessProxy22createPropertyListFileERKNS_15PluginInfoStore6PluginE
_WKPageGetPageZoomFactor
__ZNK6WebKit12WebPageProxy14pageZoomFactorEv
_WKFrameCanProvideSource
__ZNK6WebKit13WebFrameProxy16canProvideSourceEv
_WKPageSupportsTextEncoding
__ZNK6WebKit12WebPageProxy20supportsTextEncodingEv
_WKPageCopyCustomTextEncodingName
_WKStringIsEmpty
_WKPageStopLoading
__ZN6WebKit12WebPageProxy11stopLoadingEv
__ZN6WebKit15WebProcessProxy4sendIN8Messages7WebPage11StopLoadingEEEbRKT_yj
-[WKView mouseDragged:]
-[WKView mouseDraggedInternal:]
__ZN7CoreIPC13handleMessageIN8Messages12WebPageProxy27BackForwardForwardListCountEN6WebKit12WebPageProxyEMS5_FvRiEEEvPNS_15ArgumentDecoderEPNS_15ArgumentEncoderEPT0_T1_
__ZN6WebKit12WebPageProxy27backForwardForwardListCountERi
__ZN7CoreIPC13handleMessageIN8Messages12WebPageProxy24BackForwardBackListCountEN6WebKit12WebPageProxyEMS5_FvRiEEEvPNS_15ArgumentDecoderEPNS_15ArgumentEncoderEPT0_T1_
__ZN6WebKit12WebPageProxy24backForwardBackListCountERi
-[WKView copy:]
__ZN6WebKit12WebPageProxy18executeEditCommandERKN3WTF6StringE
__ZN6WebKit15WebProcessProxy4sendIN8Messages7WebPage18ExecuteEditCommandEEEbRKT_yj
_WKFrameCopyMIMEType
_WKFrameIsFrameSet
-[WKView validRequestorForSendType:returnType:]
-[WKView keyUp:]
__ZN7CoreIPC6decodeEPNS_15ArgumentDecoderERN3WTF9RetainPtrIPK8__CFDataEE
__ZN3WTF10RefCountedIN7WebCore8FormDataEE5derefEv
__ZN7CoreIPC21handleMessageVariadicIN8Messages12WebPageProxy14WillSubmitFormEN6WebKit12WebPageProxyEMS5_FvyyRKNS4_16StringPairVectorEyPNS_15ArgumentDecoderEEEEvSA_PT0_T1_
__ZN7CoreIPC10Arguments4IyyN6WebKit16StringPairVectorEyE6decodeEPNS_15ArgumentDecoderERS3_
__ZN7CoreIPC10Arguments3IyyN6WebKit16StringPairVectorEE6decodeEPNS_15ArgumentDecoderERS3_
__ZN7CoreIPC19VectorArgumentCoderILb0ESt4pairIN3WTF6StringES3_EE6decodeEPNS_15ArgumentDecoderERNS2_6VectorIS4_Lm0EEE
__ZN3WTF6VectorISt4pairINS_6StringES2_ELm0EE14shrinkCapacityEm
__ZN3WTF6VectorISt4pairINS_6StringES2_ELm0EED2Ev
__ZN7CoreIPC18callMemberFunctionIN6WebKit12WebPageProxyEMS2_FvyyRKNS1_16StringPairVectorEyPNS_15ArgumentDecoderEEyyS3_yEEvRKNS_10Arguments4IT1_T2_T3_T4_EES7_PT_T0_
__ZN6WebKit12WebPageProxy14willSubmitFormEyyRKNS_16StringPairVectorEyPN7CoreIPC15ArgumentDecoderE
__ZN6WebKit13WebFrameProxy32setUpFormSubmissionListenerProxyEy
__ZN6WebKit30WebFormSubmissionListenerProxyC1EPNS_13WebFrameProxyEy
__ZN6WebKit13WebFormClient14willSubmitFormEPNS_12WebPageProxyEPNS_13WebFrameProxyES4_RKN3WTF6VectorISt4pairINS5_6StringES8_ELm0EEEPNS_9APIObjectEPNS_30WebFormSubmissionListenerProxyE
_WKDictionaryGetSize
_WKFormSubmissionListenerContinue
__ZN6WebKit30WebFormSubmissionListenerProxy18continueSubmissionEv
__ZN6WebKit15WebProcessProxy4sendIN8Messages7WebPage24DidReceivePolicyDecisionEEEbRKT_yj
__ZNK7CoreIPC10Arguments3IyyjE6encodeEPNS_15ArgumentEncoderE
__ZN6WebKit30WebFormSubmissionListenerProxyD0Ev
__ZN7CoreIPC13handleMessageIN8Messages12WebPageProxy22FrameDidBecomeFrameSetEN6WebKit12WebPageProxyEMS5_FvybEEEvPNS_15ArgumentDecoderEPT0_T1_
__ZN7CoreIPC10Arguments2IybE6decodeEPNS_15ArgumentDecoderERS1_
__ZN7CoreIPC18callMemberFunctionIN6WebKit12WebPageProxyEMS2_FvybEybEEvRKNS_10Arguments2IT1_T2_EEPT_T0_
__ZN6WebKit12WebPageProxy22frameDidBecomeFrameSetEyb
__ZN7CoreIPC13handleMessageIN8Messages12WebPageProxy27FrameSetLargestFrameChangedEN6WebKit12WebPageProxyEMS5_FvyEEEvPNS_15ArgumentDecoderEPT0_T1_
__ZN6WebKit12WebPageProxy27frameSetLargestFrameChangedEy
__ZN3WTF9HashTableIyyNS_17IdentityExtractorIyEEN7WebCore12LinkHashHashENS_10HashTraitsIyEES6_E16lookupForWritingERKy
__ZN3WTF9HashTableIyyNS_17IdentityExtractorIyEEN7WebCore12LinkHashHashENS_10HashTraitsIyEES6_E4findIyNS_22IdentityHashTranslatorIyyS4_EEEENS_17HashTableIteratorIyyS2_S4_S6_S6_EERKT_
-[WKView viewWillStartLiveResize]
__ZN6WebKit12WebPageProxy23viewWillStartLiveResizeEv
__ZN6WebKit15WebProcessProxy4sendIN8Messages7WebPage23ViewWillStartLiveResizeEEEbRKT_yj
-[WKView viewDidEndLiveResize]
__ZN6WebKit12WebPageProxy21viewWillEndLiveResizeEv
__ZN6WebKit15WebProcessProxy4sendIN8Messages7WebPage21ViewWillEndLiveResizeEEEbRKT_yj
__ZN3WTF9HashTableIP13objc_selectorSt4pairIS2_NS_6StringEENS_18PairFirstExtractorIS5_EENS_7PtrHashIS2_EENS_14PairHashTraitsINS_10HashTraitsIS2_EENSB_IS4_EEEESC_E15deallocateTableEPS5_i
__ZN3WTF9HashTableIP13objc_selectorSt4pairIS2_NS_6StringEENS_18PairFirstExtractorIS5_EENS_7PtrHashIS2_EENS_14PairHashTraitsINS_10HashTraitsIS2_EENSB_IS4_EEEESC_E16lookupForWritingERKS2_
__ZN3WTF9HashTableIP13objc_selectorSt4pairIS2_NS_6StringEENS_18PairFirstExtractorIS5_EENS_7PtrHashIS2_EENS_14PairHashTraitsINS_10HashTraitsIS2_EENSB_IS4_EEEESC_E3addIS2_S4_NS_17HashMapTranslatorIS5_SE_S9_EEEES3_INS_17HashTableIteratorIS2_S5_S7_S9_SE_SC_EEbERKT_RKT0_
__ZN3WTF9HashTableIP13objc_selectorSt4pairIS2_NS_6StringEENS_18PairFirstExtractorIS5_EENS_7PtrHashIS2_EENS_14PairHashTraitsINS_10HashTraitsIS2_EENSB_IS4_EEEESC_E4findIS2_NS_22IdentityHashTranslatorIS2_S5_S9_EEEENS_17HashTableIteratorIS2_S5_S7_S9_SE_SC_EERKT_
__ZN3WTF9HashTableIP13objc_selectorSt4pairIS2_NS_6StringEENS_18PairFirstExtractorIS5_EENS_7PtrHashIS2_EENS_14PairHashTraitsINS_10HashTraitsIS2_EENSB_IS4_EEEESC_E6expandEv
__ZN3WTF9HashTableIP13objc_selectorSt4pairIS2_NS_6StringEENS_18PairFirstExtractorIS5_EENS_7PtrHashIS2_EENS_14PairHashTraitsINS_10HashTraitsIS2_EENSB_IS4_EEEESC_E6rehashEi
_WKPageSetMaintainsInactiveSelection
__ZN6WebKit12WebPageProxy29setMaintainsInactiveSelectionEb
-[WKView(Private) disableFrameSizeUpdates]
-[WKView(Private) enableFrameSizeUpdates]
___copy_helper_block_1
___destroy_helper_block_1
__ZN7CoreIPC13handleMessageIN8Messages16DrawingAreaProxy30ExitAcceleratedCompositingModeEN6WebKit16DrawingAreaProxyEMS5_FvyRKNS4_10UpdateInfoEEEEvPNS_15ArgumentDecoderEPT0_T1_
__ZN6WebKit20DrawingAreaProxyImpl30exitAcceleratedCompositingModeEyRKNS_10UpdateInfoE
__ZN7CoreIPC21handleMessageVariadicIN8Messages12WebPageProxy33DidSameDocumentNavigationForFrameEN6WebKit12WebPageProxyEMS5_FvyjRKN3WTF6StringEPNS_15ArgumentDecoderEEEEvSB_PT0_T1_
__ZN7CoreIPC10Arguments3IyjN3WTF6StringEE6decodeEPNS_15ArgumentDecoderERS3_
__ZN7CoreIPC18callMemberFunctionIN6WebKit12WebPageProxyEMS2_FvyjRKN3WTF6StringEPNS_15ArgumentDecoderEEyjS4_EEvRKNS_10Arguments3IT1_T2_T3_EES8_PT_T0_
__ZN6WebKit12WebPageProxy33didSameDocumentNavigationForFrameEyjRKN3WTF6StringEPN7CoreIPC15ArgumentDecoderE
__ZN6WebKit13WebFrameProxy25didSameDocumentNavigationERKN3WTF6StringE
__ZN6WebKit15WebLoaderClient33didSameDocumentNavigationForFrameEPNS_12WebPageProxyEPNS_13WebFrameProxyENS_26SameDocumentNavigationTypeEPNS_9APIObjectE
__ZN7CoreIPC10Arguments3IyjN3WTF6StringEED1Ev
__ZN7CoreIPC21handleMessageVariadicIN8Messages12WebPageProxy19DidFailLoadForFrameEN6WebKit12WebPageProxyEMS5_FvyRKN7WebCore13ResourceErrorEPNS_15ArgumentDecoderEEEEvSB_PT0_T1_
__ZN6WebKit12WebPageProxy19didFailLoadForFrameEyRKN7WebCore13ResourceErrorEPN7CoreIPC15ArgumentDecoderE
__ZN6WebKit13WebFrameProxy11didFailLoadEv
__ZN6WebKit15WebLoaderClient28didFailLoadWithErrorForFrameEPNS_12WebPageProxyEPNS_13WebFrameProxyERKN7WebCore13ResourceErrorEPNS_9APIObjectE
__ZN7CoreIPC13handleMessageIN8Messages12WebPageProxy21GetStatusBarIsVisibleEN6WebKit12WebPageProxyEMS5_FvRbEEEvPNS_15ArgumentDecoderEPNS_15ArgumentEncoderEPT0_T1_
__ZN6WebKit12WebPageProxy21getStatusBarIsVisibleERb
__ZN6WebKit11WebUIClient18statusBarIsVisibleEPNS_12WebPageProxyE
_WKBackForwardListGetBackItem
_WKPageGoToBackForwardListItem
__ZN6WebKit12WebPageProxy19goToBackForwardItemEPNS_22WebBackForwardListItemE
__ZN6WebKit15WebProcessProxy4sendIN8Messages7WebPage19GoToBackForwardItemEEEbRKT_yj
__ZNK6WebKit10WebContext31platformDefaultIconDatabasePathEv
-[WKView setDrawsBackground:]
__ZN6WebKit12WebPageProxy18setDrawsBackgroundEb
__ZN6WebKit15WebProcessProxy4sendIN8Messages7WebPage18SetDrawsBackgroundEEEbRKT_yj
_WKPageLoadURL
__ZN6WebKit12WebPageProxy7loadURLERKN3WTF6StringE
__ZN6WebKit15WebProcessProxy4sendIN8Messages7WebPage7LoadURLEEEbRKT_yj
-[WKView(Internal) _addTrackingRect:owner:userData:assumeInside:useTrackingNum:]
_WKPageForceRepaint
__ZN6WebKit12WebPageProxy12forceRepaintEN3WTF10PassRefPtrINS_12VoidCallbackEEE
__ZN6WebKit20DrawingAreaProxyImpl36waitForBackingStoreUpdateOnNextPaintEv
__ZN6WebKit15WebProcessProxy4sendIN8Messages7WebPage12ForceRepaintEEEbRKT_yj
__ZN7CoreIPC13handleMessageIN8Messages12WebPageProxy12VoidCallbackEN6WebKit12WebPageProxyEMS5_FvyEEEvPNS_15ArgumentDecoderEPT0_T1_
__ZN6WebKit12WebPageProxy12voidCallbackEy
_WKIconDatabaseTryCopyCGImageArrayForURL
__ZNK6WebKit7WebData4typeEv
__ZN3WTF6VectorIiLm0EE11appendRangeIPKiEEvT_S5_
__ZN6WebKit6Region5Shape10appendSpanEiPKiS3_
__ZN6WebKit6Region5Shape11canCoalesceEPKiS3_
__ZN6WebKit6Region5Shape11appendSpansERKS1_PKNS0_4SpanES6_
__ZN6WebKit15WebProcessProxy36didReceiveSyncWebProcessProxyMessageEPN7CoreIPC10ConnectionENS1_9MessageIDEPNS1_15ArgumentDecoderEPNS1_15ArgumentEncoderE
__ZN7CoreIPC13handleMessageIN8Messages15WebProcessProxy15ShouldTerminateEN6WebKit15WebProcessProxyEMS5_FvRbEEEvPNS_15ArgumentDecoderEPNS_15ArgumentEncoderEPT0_T1_
__ZN6WebKit15WebProcessProxy15shouldTerminateERb
__ZN6WebKit10WebContext15shouldTerminateEPNS_15WebProcessProxyE
__ZNK6WebKit31WebApplicationCacheManagerProxy15shouldTerminateEPNS_15WebProcessProxyE
__ZNK6WebKit21WebCookieManagerProxy15shouldTerminateEPNS_15WebProcessProxyE
__ZNK6WebKit23WebDatabaseManagerProxy15shouldTerminateEPNS_15WebProcessProxyE
__ZNK6WebKit30WebKeyValueStorageManagerProxy15shouldTerminateEPNS_15WebProcessProxyE
__ZNK6WebKit25WebMediaCacheManagerProxy15shouldTerminateEPNS_15WebProcessProxyE
__ZNK6WebKit24WebPluginSiteDataManager15shouldTerminateEPNS_15WebProcessProxyE
__ZNK6WebKit28WebResourceCacheManagerProxy15shouldTerminateEPNS_15WebProcessProxyE
__ZN6WebKit15WebProcessProxy10disconnectEv
__ZN7CoreIPC10Connection10invalidateEv
__ZN6WebKit10WebContext17disconnectProcessEPNS_15WebProcessProxyE
__ZN7CoreIPC10Connection18platformInvalidateEv
__ZN6WebKit19VisitedLinkProvider15processDidCloseEv
__ZN9WorkQueue30unregisterMachPortEventHandlerEj
__ZN3WTF9HashTableIjSt4pairIjPN9WorkQueue11EventSourceEENS_18PairFirstExtractorIS5_EENS_7IntHashIjEENS_14PairHashTraitsINS_10HashTraitsIjEENSB_IS4_EEEESC_E16lookupForWritingERKj
__ZN3WTF9HashTableIjSt4pairIjPN9WorkQueue11EventSourceEENS_18PairFirstExtractorIS5_EENS_7IntHashIjEENS_14PairHashTraitsINS_10HashTraitsIjEENSB_IS4_EEEESC_E3addIjS4_NS_17HashMapTranslatorIS5_SE_S9_EEEES1_INS_17HashTableIteratorIjS5_S7_S9_SE_SC_EEbERKT_RKT0_
__ZN3WTF9HashTableIjSt4pairIjPN9WorkQueue11EventSourceEENS_18PairFirstExtractorIS5_EENS_7IntHashIjEENS_14PairHashTraitsINS_10HashTraitsIjEENSB_IS4_EEEESC_E4findIjNS_22IdentityHashTranslatorIjS5_S9_EEEENS_17HashTableIteratorIjS5_S7_S9_SE_SC_EERKT_
__ZN3WTF9HashTableIjSt4pairIjPN9WorkQueue11EventSourceEENS_18PairFirstExtractorIS5_EENS_7IntHashIjEENS_14PairHashTraitsINS_10HashTraitsIjEENSB_IS4_EEEESC_E6expandEv
__ZN3WTF9HashTableIjSt4pairIjPN9WorkQueue11EventSourceEENS_18PairFirstExtractorIS5_EENS_7IntHashIjEENS_14PairHashTraitsINS_10HashTraitsIjEENSB_IS4_EEEESC_E6rehashEi
__ZN3WTF9HashTableIjSt4pairIjPN9WorkQueue11EventSourceEENS_18PairFirstExtractorIS5_EENS_7IntHashIjEENS_14PairHashTraitsINS_10HashTraitsIjEENSB_IS4_EEEESC_E6removeEPS5_
__ZN6WebKit31WebApplicationCacheManagerProxy10invalidateEv
__ZN6WebKit21invalidateCallbackMapIN3WTF6RefPtrINS_15GenericCallbackIPK13OpaqueWKArrayPNS_14ImmutableArrayEEEEEEEvRNS1_7HashMapIyT_NS1_7IntHashIyEENS1_10HashTraitsIyEENSF_ISC_EEEE
__ZN3WTF18copyValuesToVectorIyNS_6RefPtrIN6WebKit15GenericCallbackIPK13OpaqueWKArrayPNS2_14ImmutableArrayEEEEENS_7IntHashIyEENS_10HashTraitsIyEENSD_ISA_EENS_6VectorISA_Lm0EEEEEvRKNS_7HashMapIT_T0_T1_T2_T3_EERT4_
__ZN3WTF16VectorDestructorILb1ENS_6RefPtrIN6WebKit15GenericCallbackIPK13OpaqueWKArrayPNS2_14ImmutableArrayEEEEEE8destructEPSA_SC_
__ZN9WorkQueue11EventSource13cancelHandlerEPv
__ZN3WTF6VectorINS_6RefPtrIN6WebKit15GenericCallbackIPK13OpaqueWKArrayPNS2_14ImmutableArrayEEEEELm0EED2Ev
__ZN6WebKit21WebCookieManagerProxy10invalidateEv
__ZN6WebKit21invalidateCallbackMapIN3WTF6RefPtrINS_15GenericCallbackIjjEEEEEEvRNS1_7HashMapIyT_NS1_7IntHashIyEENS1_10HashTraitsIyEENSA_IS7_EEEE
__ZN9WorkQueue11EventSource15finalizeHandlerEPv
__ZN3WTF18copyValuesToVectorIyNS_6RefPtrIN6WebKit15GenericCallbackIjjEEEENS_7IntHashIyEENS_10HashTraitsIyEENS8_IS5_EENS_6VectorIS5_Lm0EEEEEvRKNS_7HashMapIT_T0_T1_T2_T3_EERT4_
__ZN3WTF16VectorDestructorILb1ENS_6RefPtrIN6WebKit15GenericCallbackIjjEEEEE8destructEPS5_S7_
__ZN3WTF6VectorINS_6RefPtrIN6WebKit15GenericCallbackIjjEEEELm0EED2Ev
__ZN6WebKit23WebDatabaseManagerProxy10invalidateEv
__ZN6WebKit26WebGeolocationManagerProxy10invalidateEv
__ZN6WebKit30WebKeyValueStorageManagerProxy10invalidateEv
__ZN6WebKit25WebMediaCacheManagerProxy10invalidateEv
__ZN6WebKit28WebResourceCacheManagerProxy10invalidateEv
__ZN6WebKit15WebProcessProxyD0Ev
__ZN6WebKit15ProcessLauncher10invalidateEv
__ZN6WebKit15ProcessLauncher18platformInvalidateEv
__ZN6WebKit22WebBackForwardListItemD0Ev
__ZN6WebKit19ResponsivenessTimerD1Ev
__ZN7CoreIPC10ConnectionD1Ev
__ZN7CoreIPC10ConnectionD2Ev
__ZN9WorkQueue10invalidateEv
__ZN9WorkQueue18platformInvalidateEv
__ZN3WTF14derefIfNotNullIN7CoreIPC10Connection16SyncMessageStateEEEvPT_
__ZN9WorkQueueD1Ev
___setUpTerminationNotificationHandler_block_invoke_1
___setUpTerminationNotificationHandler_block_invoke_2
__ZN3WTF6VectorISt4pairINS_6StringENS_6RefPtrIN6WebKit9APIObjectEEEELm0EE15reserveCapacityEm
__ZN3WTF16VectorBufferBaseISt4pairINS_6StringENS_6RefPtrIN6WebKit9APIObjectEEEEE14allocateBufferEm
__ZNSt4pairIN3WTF6StringENS0_6RefPtrIN6WebKit9APIObjectEEEEC2IS1_PS4_EERKS_IT_T0_E
__ZNSt4pairIN3WTF6StringEPN6WebKit9APIObjectEED1Ev
_WKPageIsClosed
_WKPageTerminate
__ZN6WebKit12WebPageProxy16terminateProcessEv
__ZN6WebKit15WebProcessProxy9terminateEv
__ZN6WebKit15ProcessLauncher16terminateProcessEv
__ZN7CoreIPC10Connection18connectionDidCloseEv
_WKPreferencesGetJavaEnabled
__ZNK6WebKit14WebPreferences11javaEnabledEv
_WKPreferencesGetPluginsEnabled
__ZNK6WebKit14WebPreferences14pluginsEnabledEv
_WKPreferencesGetJavaScriptEnabled
__ZNK6WebKit14WebPreferences17javaScriptEnabledEv
__ZN6WebKit12WebPageProxy20preferencesDidChangeEv
__ZN6WebKit15WebProcessProxy4sendIN8Messages7WebPage20PreferencesDidChangeEEEbRKT_yj
__ZN7CoreIPC13handleMessageIN8Messages12WebPageProxy13CreateNewPageEN6WebKit12WebPageProxyEMS5_FvRKN7WebCore14WindowFeaturesEjiRyRNS4_25WebPageCreationParametersEEEEvPNS_15ArgumentDecoderEPNS_15ArgumentEncoderEPT0_T1_
__ZN7CoreIPC10Arguments3IN7WebCore14WindowFeaturesEjiE6decodeEPNS_15ArgumentDecoderERS3_
__ZN7CoreIPC10Arguments2IN7WebCore14WindowFeaturesEjE6decodeEPNS_15ArgumentDecoderERS3_
__ZN7CoreIPC13ArgumentCoderIN7WebCore14WindowFeaturesEE6decodeEPNS_15ArgumentDecoderERS2_
__ZN7CoreIPC15ArgumentDecoder11decodeFloatERf
__ZN7CoreIPC18callMemberFunctionIN6WebKit12WebPageProxyEMS2_FvRKN7WebCore14WindowFeaturesEjiRyRNS1_25WebPageCreationParametersEES4_jiyS8_EEvRKNS_10Arguments3IT1_T2_T3_EERNS_10Arguments2IT4_T5_EEPT_T0_
__ZN6WebKit12WebPageProxy13createNewPageERKN7WebCore14WindowFeaturesEjiRyRNS_25WebPageCreationParametersE
__ZN6WebKit11WebUIClient13createNewPageEPNS_12WebPageProxyERKN7WebCore14WindowFeaturesENS_8WebEvent9ModifiersENS_13WebMouseEvent6ButtonE
__ZN6WebKit25WebPageCreationParametersaSERKS0_
__ZN7CoreIPC13handleMessageIN8Messages12WebPageProxy21SetToolbarsAreVisibleEN6WebKit12WebPageProxyEMS5_FvbEEEvPNS_15ArgumentDecoderEPT0_T1_
__ZN6WebKit12WebPageProxy21setToolbarsAreVisibleEb
__ZN6WebKit11WebUIClient21setToolbarsAreVisibleEPNS_12WebPageProxyEb
__ZN7CoreIPC13handleMessageIN8Messages12WebPageProxy21SetStatusBarIsVisibleEN6WebKit12WebPageProxyEMS5_FvbEEEvPNS_15ArgumentDecoderEPT0_T1_
__ZN6WebKit12WebPageProxy21setStatusBarIsVisibleEb
__ZN6WebKit11WebUIClient21setStatusBarIsVisibleEPNS_12WebPageProxyEb
__ZN7CoreIPC13handleMessageIN8Messages12WebPageProxy19SetMenuBarIsVisibleEN6WebKit12WebPageProxyEMS5_FvbEEEvPNS_15ArgumentDecoderEPT0_T1_
__ZN6WebKit12WebPageProxy19setMenuBarIsVisibleEb
__ZN6WebKit11WebUIClient19setMenuBarIsVisibleEPNS_12WebPageProxyEb
__ZN7CoreIPC13handleMessageIN8Messages12WebPageProxy14SetIsResizableEN6WebKit12WebPageProxyEMS5_FvbEEEvPNS_15ArgumentDecoderEPT0_T1_
__ZN6WebKit12WebPageProxy14setIsResizableEb
__ZN6WebKit11WebUIClient14setIsResizableEPNS_12WebPageProxyEb
__ZN7CoreIPC13handleMessageIN8Messages12WebPageProxy14GetWindowFrameEN6WebKit12WebPageProxyEMS5_FvRN7WebCore9FloatRectEEEEvPNS_15ArgumentDecoderEPNS_15ArgumentEncoderEPT0_T1_
__ZN6WebKit12WebPageProxy14getWindowFrameERN7WebCore9FloatRectE
__ZN6WebKit11WebUIClient11windowFrameEPNS_12WebPageProxyE
__ZN6WebKit14PageClientImpl18convertToUserSpaceERKN7WebCore9FloatRectE
-[WKView(Internal) _convertToUserSpace:]
__ZN7CoreIPC13handleMessageIN8Messages12WebPageProxy14SetWindowFrameEN6WebKit12WebPageProxyEMS5_FvRKN7WebCore9FloatRectEEEEvPNS_15ArgumentDecoderEPT0_T1_
__ZN7CoreIPC18callMemberFunctionIN6WebKit12WebPageProxyEMS2_FvRKN7WebCore9FloatRectEES4_EEvRKNS_10Arguments1IT1_EEPT_T0_
__ZN6WebKit12WebPageProxy14setWindowFrameERKN7WebCore9FloatRectE
__ZN6WebKit14PageClientImpl20convertToDeviceSpaceERKN7WebCore9FloatRectE
-[WKView(Internal) _convertToDeviceSpace:]
__ZN6WebKit11WebUIClient14setWindowFrameEPNS_12WebPageProxyERKN7WebCore9FloatRectE
__ZN6WebKit12WebPageProxy8showPageEv
__ZN6WebKit11WebUIClient8showPageEPNS_12WebPageProxyE
__ZN7CoreIPC13handleMessageIN8Messages12WebPageProxy22DismissCorrectionPanelEN6WebKit12WebPageProxyEMS5_FviEEEvPNS_15ArgumentDecoderEPT0_T1_
__ZN7CoreIPC18callMemberFunctionIN6WebKit12WebPageProxyEMS2_FviEiEEvRKNS_10Arguments1IT1_EEPT_T0_
__ZN6WebKit12WebPageProxy22dismissCorrectionPanelEi
__ZN7CoreIPC13handleMessageIN8Messages10WebContext13GetPluginPathEN6WebKit10WebContextEMS5_FvRKN3WTF6StringES9_RS7_EEEvPNS_15ArgumentDecoderEPNS_15ArgumentEncoderEPT0_T1_
__ZN7CoreIPC18callMemberFunctionIN6WebKit10WebContextEMS2_FvRKN3WTF6StringES6_RS4_ES4_S4_S4_EEvRKNS_10Arguments2IT1_T2_EERNS_10Arguments1IT3_EEPT_T0_
__ZN6WebKit10WebContext13getPluginPathERKN3WTF6StringES4_RS2_
__ZN6WebKit15PluginInfoStore10findPluginERN3WTF6StringERKN7WebCore4KURLE
__ZN6WebKit15PluginInfoStore21findPluginForMIMETypeERKN3WTF6StringE
__ZNK3WTF6String8endsWithERKS0_b
_WKGetFontInLanguageForRange
_WKCreateCTLineWithUniCharProvider
__ZN3WTF9HashTableIPN6WebKit12WebPageProxyES3_NS_17IdentityExtractorIS3_EENS_7PtrHashIS3_EENS_10HashTraitsIS3_EES9_E16lookupForWritingERKS3_
__ZN3WTF9HashTableIPN6WebKit12WebPageProxyES3_NS_17IdentityExtractorIS3_EENS_7PtrHashIS3_EENS_10HashTraitsIS3_EES9_E4findIS3_NS_22IdentityHashTranslatorIS3_S3_S7_EEEENS_17HashTableIteratorIS3_S3_S5_S7_S9_S9_EERKT_
-[WKView hasMarkedText]
-[WKView keyDown:]
-[WKView insertText:replacementRange:]
_WKFrameGetTypeID
__ZNK6WebKit9WebNumberIdLNS_9APIObject4TypeE21EE4typeEv
_WKDoubleGetTypeID
_WKStringGetTypeID
__ZN7CoreIPC13handleMessageIN8Messages12WebPageProxy26RegisterEditCommandForUndoEN6WebKit12WebPageProxyEMS5_FvyjEEEvPNS_15ArgumentDecoderEPT0_T1_
__ZN7CoreIPC18callMemberFunctionIN6WebKit12WebPageProxyEMS2_FvyjEyjEEvRKNS_10Arguments2IT1_T2_EEPT_T0_
__ZN6WebKit12WebPageProxy26registerEditCommandForUndoEyj
__ZN6WebKit19WebEditCommandProxyC1EyN7WebCore10EditActionEPNS_12WebPageProxyE
__ZN6WebKit12WebPageProxy14addEditCommandEPNS_19WebEditCommandProxyE
__ZN3WTF9HashTableIPN6WebKit19WebEditCommandProxyES3_NS_17IdentityExtractorIS3_EENS_7PtrHashIS3_EENS_10HashTraitsIS3_EES9_E3addIS3_S3_NS_22IdentityHashTranslatorIS3_S3_S7_EEEESt4pairINS_17HashTableIteratorIS3_S3_S5_S7_S9_S9_EEbERKT_RKT0_
__ZN3WTF9HashTableIPN6WebKit19WebEditCommandProxyES3_NS_17IdentityExtractorIS3_EENS_7PtrHashIS3_EENS_10HashTraitsIS3_EES9_E6expandEv
__ZN3WTF9HashTableIPN6WebKit19WebEditCommandProxyES3_NS_17IdentityExtractorIS3_EENS_7PtrHashIS3_EENS_10HashTraitsIS3_EES9_E6rehashEi
__ZN6WebKit12WebPageProxy19registerEditCommandEN3WTF10PassRefPtrINS_19WebEditCommandProxyEEENS0_10UndoOrRedoE
__ZN6WebKit14PageClientImpl19registerEditCommandEN3WTF10PassRefPtrINS_19WebEditCommandProxyEEENS_12WebPageProxy10UndoOrRedoE
-[WKEditCommandObjC .cxx_construct]
-[WKEditCommandObjC initWithWebEditCommandProxy:]
__ZN3WTF9RetainPtrI17WKEditCommandObjCEC2ENS_10AdoptNSTagEPS1_
__ZN6WebKit19WebEditCommandProxy17nameForEditActionEN7WebCore10EditActionE
-[WKEditCommandObjC .cxx_destruct]
__ZN6WebKit19WebEditCommandProxyD0Ev
__ZN6WebKit12WebPageProxy17removeEditCommandEPNS_19WebEditCommandProxyE
__ZNK3WTF9HashTableIPN6WebKit19WebEditCommandProxyES3_NS_17IdentityExtractorIS3_EENS_7PtrHashIS3_EENS_10HashTraitsIS3_EES9_E4findIS3_NS_22IdentityHashTranslatorIS3_S3_S7_EEEENS_22HashTableConstIteratorIS3_S3_S5_S7_S9_S9_EERKT_
__ZN3WTF9HashTableIPN6WebKit19WebEditCommandProxyES3_NS_17IdentityExtractorIS3_EENS_7PtrHashIS3_EENS_10HashTraitsIS3_EES9_E6removeEPS3_
__ZN6WebKit15WebProcessProxy4sendIN8Messages7WebPage20DidRemoveEditCommandEEEbRKT_yj
_WKUInt64GetTypeID
_WKUInt64GetValue
_WKPageGoBack
__ZN6WebKit12WebPageProxy6goBackEv
__ZN6WebKit15WebProcessProxy4sendIN8Messages7WebPage6GoBackEEEbRKT_yj
__ZN7CoreIPC13handleMessageIN8Messages12WebPageProxy13ShowPopupMenuEN6WebKit12WebPageProxyEMS5_FvRKN7WebCore7IntRectEyRKN3WTF6VectorINS4_12WebPopupItemELm0EEEiRKNS4_21PlatformPopupMenuDataEEEEvPNS_15ArgumentDecoderEPT0_T1_
__ZN6WebKit21PlatformPopupMenuDataC1Ev
__ZN7CoreIPC10Arguments5IN7WebCore7IntRectEyN3WTF6VectorIN6WebKit12WebPopupItemELm0EEEiNS5_21PlatformPopupMenuDataEE6decodeEPNS_15ArgumentDecoderERS9_
__ZN7CoreIPC10Arguments4IN7WebCore7IntRectEyN3WTF6VectorIN6WebKit12WebPopupItemELm0EEEiE6decodeEPNS_15ArgumentDecoderERS8_
__ZN7CoreIPC10Arguments3IN7WebCore7IntRectEyN3WTF6VectorIN6WebKit12WebPopupItemELm0EEEE6decodeEPNS_15ArgumentDecoderERS8_
__ZN7CoreIPC10Arguments2IN7WebCore7IntRectEyE6decodeEPNS_15ArgumentDecoderERS3_
__ZN7CoreIPC19VectorArgumentCoderILb0EN6WebKit12WebPopupItemEE6decodeEPNS_15ArgumentDecoderERN3WTF6VectorIS2_Lm0EEE
__ZN6WebKit12WebPopupItemC1Ev
__ZN6WebKit12WebPopupItem6decodeEPN7CoreIPC15ArgumentDecoderERS0_
__ZN7CoreIPC10Arguments8IRjRN3WTF6StringERyRbS4_S4_S6_S6_E6decodeEPNS_15ArgumentDecoderERS7_
__ZN7CoreIPC10Arguments7IRjRN3WTF6StringERyRbS4_S4_S6_E6decodeEPNS_15ArgumentDecoderERS7_
__ZN7CoreIPC10Arguments6IRjRN3WTF6StringERyRbS4_S4_E6decodeEPNS_15ArgumentDecoderERS7_
__ZN7CoreIPC10Arguments5IRjRN3WTF6StringERyRbS4_E6decodeEPNS_15ArgumentDecoderERS7_
__ZN7CoreIPC10Arguments4IRjRN3WTF6StringERyRbE6decodeEPNS_15ArgumentDecoderERS7_
__ZN7CoreIPC10Arguments3IRjRN3WTF6StringERyE6decodeEPNS_15ArgumentDecoderERS6_
__ZN7CoreIPC10Arguments2IRjRN3WTF6StringEE6decodeEPNS_15ArgumentDecoderERS5_
__ZN6WebKit12WebPopupItemC2ENS0_4TypeERKN3WTF6StringEN7WebCore13TextDirectionEbS5_S5_bb
__ZN6WebKit12WebPopupItemaSERKS0_
__ZN6WebKit12WebPopupItemD2Ev
__ZN3WTF6VectorIN6WebKit12WebPopupItemELm0EE14expandCapacityEmPKS2_
__ZN3WTF6VectorIN6WebKit12WebPopupItemELm0EE15reserveCapacityEm
__ZN3WTF16VectorBufferBaseIN6WebKit12WebPopupItemEE14allocateBufferEm
__ZN3WTF11VectorMoverILb0EN6WebKit12WebPopupItemEE4moveEPKS2_S5_PS2_
__ZN6WebKit12WebPopupItemC2ERKS0_
__ZN3WTF6VectorIN6WebKit12WebPopupItemELm0EE14shrinkCapacityEm
__ZN3WTF6VectorIN6WebKit12WebPopupItemELm0EED2Ev
__ZN6WebKit21PlatformPopupMenuData6decodeEPN7CoreIPC15ArgumentDecoderERS0_
__ZN6WebKit8FontInfo6decodeEPN7CoreIPC15ArgumentDecoderERS0_
__ZN7CoreIPC18callMemberFunctionIN6WebKit12WebPageProxyEMS2_FvRKN7WebCore7IntRectEyRKN3WTF6VectorINS1_12WebPopupItemELm0EEEiRKNS1_21PlatformPopupMenuDataEES4_ySA_iSD_EEvRKNS_10Arguments5IT1_T2_T3_T4_T5_EEPT_T0_
__ZN6WebKit12WebPageProxy13showPopupMenuERKN7WebCore7IntRectEyRKN3WTF6VectorINS_12WebPopupItemELm0EEEiRKNS_21PlatformPopupMenuDataE
__ZN6WebKit14PageClientImpl20createPopupMenuProxyEPNS_12WebPageProxyE
__ZN6WebKit20WebPopupMenuProxyMac6createEP6WKViewPNS_17WebPopupMenuProxy6ClientE
__ZN6WebKit20WebPopupMenuProxyMacC1EP6WKViewPNS_17WebPopupMenuProxy6ClientE
__ZN6WebKit20WebPopupMenuProxyMacC2EP6WKViewPNS_17WebPopupMenuProxy6ClientE
__ZN6WebKit20WebPopupMenuProxyMac13showPopupMenuERKN7WebCore7IntRectENS1_13TextDirectionEdRKN3WTF6VectorINS_12WebPopupItemELm0EEERKNS_21PlatformPopupMenuDataEi
__ZN6WebKit20WebPopupMenuProxyMac8populateERKN3WTF6VectorINS_12WebPopupItemELm0EEEP6NSFontN7WebCore13TextDirectionE
__ZN3WTF9RetainPtrI23NSMutableParagraphStyleEC2ENS_10AdoptNSTagEPS1_
__ZN3WTF9RetainPtrI19NSMutableDictionaryEC2ENS_10AdoptNSTagEPS1_
__ZN3WTF9RetainPtrI18NSAttributedStringEC2ENS_10AdoptNSTagEPS1_
__ZN3WTF9RetainPtrI6NSViewEC2ENS_10AdoptNSTagEPS1_
_WKPopupMenu
__ZThn16_N6WebKit12WebPageProxy24valueChangedForPopupMenuEPNS_17WebPopupMenuProxyEi
__ZN6WebKit15WebProcessProxy4sendIN8Messages7WebPage40DidChangeSelectedIndexForActivePopupMenuEEEbRKT_yj
__ZThn16_N6WebKit12WebPageProxy32currentlyProcessedMouseDownEventEv
__ZN3WTF10RefCountedIN6WebKit17WebPopupMenuProxyEE5derefEv
__ZN7CoreIPC10Arguments5IN7WebCore7IntRectEyN3WTF6VectorIN6WebKit12WebPopupItemELm0EEEiNS5_21PlatformPopupMenuDataEED2Ev
__ZN3WTF6VectorIN6WebKit12WebPopupItemELm0EE6shrinkEm
__ZN6WebKit20WebPopupMenuProxyMac13hidePopupMenuEv
__ZN6WebKit20WebPopupMenuProxyMacD0Ev
-[WKView rightMouseDown:]
__ZN7CoreIPC21handleMessageVariadicIN8Messages12WebPageProxy15ShowContextMenuEN6WebKit12WebPageProxyEMS5_FvRKN7WebCore8IntPointERKNS4_16ContextMenuStateERKN3WTF6VectorINS4_22WebContextMenuItemDataELm0EEEPNS_15ArgumentDecoderEEEEvSK_PT0_T1_
__ZN7CoreIPC10Arguments3IN7WebCore8IntPointEN6WebKit16ContextMenuStateEN3WTF6VectorINS3_22WebContextMenuItemDataELm0EEEE6decodeEPNS_15ArgumentDecoderERS9_
__ZN7CoreIPC10Arguments2IN7WebCore8IntPointEN6WebKit16ContextMenuStateEE6decodeEPNS_15ArgumentDecoderERS5_
__ZN6WebKit16ContextMenuState6decodeEPN7CoreIPC15ArgumentDecoderERS0_
__ZN7CoreIPC19VectorArgumentCoderILb0EN6WebKit22WebContextMenuItemDataEE6decodeEPNS_15ArgumentDecoderERN3WTF6VectorIS2_Lm0EEE
__ZN6WebKit22WebContextMenuItemData6decodeEPN7CoreIPC15ArgumentDecoderERS0_
__ZN7CoreIPC15ArgumentDecoder6decodeINS_10Arguments6IRjS3_RN3WTF6StringERbS7_RNS4_6VectorIN6WebKit22WebContextMenuItemDataELm0EEEEEEEbRT_
__ZN7CoreIPC10Arguments6IRjS1_RN3WTF6StringERbS5_RNS2_6VectorIN6WebKit22WebContextMenuItemDataELm0EEEE6decodeEPNS_15ArgumentDecoderERSB_
__ZN7CoreIPC10Arguments5IRjS1_RN3WTF6StringERbS5_E6decodeEPNS_15ArgumentDecoderERS6_
__ZN7CoreIPC10Arguments4IRjS1_RN3WTF6StringERbE6decodeEPNS_15ArgumentDecoderERS6_
__ZN7CoreIPC10Arguments3IRjS1_RN3WTF6StringEE6decodeEPNS_15ArgumentDecoderERS5_
__ZN7CoreIPC10Arguments2IRjS1_E6decodeEPNS_15ArgumentDecoderERS2_
__ZN3WTF6VectorIN6WebKit22WebContextMenuItemDataELm0EE14shrinkCapacityEm
__ZN3WTF6VectorIN6WebKit22WebContextMenuItemDataELm0EED2Ev
__ZN6WebKit22WebContextMenuItemDataaSERKS0_
__ZN3WTF6VectorIN6WebKit22WebContextMenuItemDataELm0EEaSERKS3_
__ZNSt13__copy_normalILb0ELb0EE8__copy_nIPKN6WebKit22WebContextMenuItemDataEPS3_EET0_T_S8_S7_
__ZNSt6__copyILb0ESt26random_access_iterator_tagE4copyIPKN6WebKit22WebContextMenuItemDataEPS4_EET0_T_S9_S8_
__ZN6WebKit22WebContextMenuItemDataD2Ev
__ZN3WTF6VectorIN6WebKit22WebContextMenuItemDataELm0EE14expandCapacityEmPKS2_
__ZN3WTF6VectorIN6WebKit22WebContextMenuItemDataELm0EE15reserveCapacityEm
__ZN3WTF16VectorBufferBaseIN6WebKit22WebContextMenuItemDataEE14allocateBufferEm
__ZN3WTF11VectorMoverILb0EN6WebKit22WebContextMenuItemDataEE4moveEPKS2_S5_PS2_
__ZN6WebKit22WebContextMenuItemDataC2ERKS0_
__ZN3WTF6VectorIN6WebKit22WebContextMenuItemDataELm0EEC2ERKS3_
__ZN7CoreIPC18callMemberFunctionIN6WebKit12WebPageProxyEMS2_FvRKN7WebCore8IntPointERKNS1_16ContextMenuStateERKN3WTF6VectorINS1_22WebContextMenuItemDataELm0EEEPNS_15ArgumentDecoderEES4_S7_SD_EEvRKNS_10Arguments3IT1_T2_T3_EESH_PT_T0_
__ZN6WebKit12WebPageProxy15showContextMenuERKN7WebCore8IntPointERKNS_16ContextMenuStateERKN3WTF6VectorINS_22WebContextMenuItemDataELm0EEEPN7CoreIPC15ArgumentDecoderE
__ZN6WebKit12WebPageProxy23internalShowContextMenuERKN7WebCore8IntPointERKNS_16ContextMenuStateERKN3WTF6VectorINS_22WebContextMenuItemDataELm0EEEPN7CoreIPC15ArgumentDecoderE
__ZN6WebKit14PageClientImpl22createContextMenuProxyEPNS_12WebPageProxyE
__ZN6WebKit22WebContextMenuProxyMac6createEP6WKViewPNS_12WebPageProxyE
__ZN6WebKit22WebContextMenuProxyMacC1EP6WKViewPNS_12WebPageProxyE
__ZN6WebKit22WebContextMenuProxyMacC2EP6WKViewPNS_12WebPageProxyE
__ZN6WebKit19WebContextMenuProxyC2Ev
__ZN6WebKit24WebPageContextMenuClient30getContextMenuFromProposedMenuEPNS_12WebPageProxyERKN3WTF6VectorINS_22WebContextMenuItemDataELm0EEERS6_PNS_9APIObjectE
__ZN6WebKit12MutableArray15reserveCapacityEj
__ZN6WebKit18WebContextMenuItemC1ERKNS_22WebContextMenuItemDataE
_WKContextMenuItemGetTag
__ZN6WebKit5toAPIEN7WebCore17ContextMenuActionE
_WKContextMenuItemSeparatorItem
__ZN6WebKit18WebContextMenuItem13separatorItemEv
__ZN6WebKit22WebContextMenuItemDataC1EN7WebCore19ContextMenuItemTypeENS1_17ContextMenuActionERKN3WTF6StringEbb
_WKContextMenuItemGetType
_WKArrayRemoveItemAtIndex
__ZN6WebKit12MutableArray17removeItemAtIndexEj
_WKContextMenuItemGetUserData
__ZNK6WebKit18WebContextMenuItem8userDataEv
__ZNK6WebKit22WebContextMenuItemData8userDataEv
_WKContextMenuItemSetUserData
__ZN6WebKit18WebContextMenuItem11setUserDataEPNS_9APIObjectE
__ZN6WebKit22WebContextMenuItemData11setUserDataEPNS_9APIObjectE
__ZN6WebKit14ImmutableArray2atINS_18WebContextMenuItemEEEPT_m
__ZNK6WebKit18WebContextMenuItem4typeEv
__ZN6WebKit18WebContextMenuItemD0Ev
__ZN6WebKit22WebContextMenuProxyMac15showContextMenuERKN7WebCore8IntPointERKN3WTF6VectorINS_22WebContextMenuItemDataELm0EEE
__ZN6WebKit22WebContextMenuProxyMac8populateERKN3WTF6VectorINS_22WebContextMenuItemDataELm0EEE
__ZN6WebKitL16nsMenuItemVectorERKN3WTF6VectorINS_22WebContextMenuItemDataELm0EEE
__ZN3WTF6VectorINS_9RetainPtrI10NSMenuItemEELm0EE15reserveCapacityEm
__ZN3WTF16VectorBufferBaseINS_9RetainPtrI10NSMenuItemEEE14allocateBufferEm
__ZN3WTF11VectorMoverILb0ENS_9RetainPtrI10NSMenuItemEEE4moveEPKS3_S6_PS3_
-[WebUserDataWrapper .cxx_construct]
-[WebUserDataWrapper initWithUserData:]
__ZN3WTF9RetainPtrI10NSMenuItemEC2ENS_10AdoptNSTagEPS1_
__ZN3WTF9RetainPtrI10NSMenuItemEC2ERKS2_
+[WKMenuTarget sharedMenuTarget]
__ZN6WebKitL14populateNSMenuEP6NSMenuRKN3WTF6VectorINS2_9RetainPtrI10NSMenuItemEELm0EEE
__ZN3WTF6VectorINS_9RetainPtrI10NSMenuItemEELm0EED2Ev
__ZN3WTF16VectorDestructorILb1ENS_9RetainPtrI10NSMenuItemEEE8destructEPS3_S5_
__ZN3WTF12VectorBufferINS_9RetainPtrI10NSMenuItemEELm0EED2Ev
-[WKMenuTarget setMenuProxy:]
_WKPopupContextMenu
-[WKView writeSelectionToPasteboard:types:]
__ZN6WebKit12WebPageProxy26writeSelectionToPasteboardERKN3WTF6StringERKNS1_6VectorIS2_Lm0EEE
__ZN7CoreIPC10Connection8sendSyncIN8Messages7WebPage26WriteSelectionToPasteboardEEEbRKT_RKNS5_5ReplyEyd
__ZN3WTF20VectorTypeOperationsIN6WebKit22WebContextMenuItemDataEE8destructEPS2_S4_
__ZN6WebKit22WebContextMenuItemDataD1Ev
__ZN6WebKit15WebProcessProxy4sendIN8Messages7WebPage17ContextMenuHiddenEEEbRKT_yj
__ZN6WebKit22WebContextMenuProxyMac15hideContextMenuEv
__ZN3WTF10RefCountedIN6WebKit19WebContextMenuProxyEE5derefEv
__ZN6WebKit22WebContextMenuProxyMacD0Ev
-[WebUserDataWrapper .cxx_destruct]
__ZN6WebKit19WebContextMenuProxyD2Ev
_WKContextMenuItemGetEnabled
_WKContextMenuItemCopyTitle
_WKContextMenuItemCreateAsAction
__ZN6WebKit6toImplEj
__ZN3WTF9RetainPtrI10NSMenuItemEC2EPS1_
_WKPageGoForward
__ZN6WebKit12WebPageProxy9goForwardEv
__ZN6WebKit15WebProcessProxy4sendIN8Messages7WebPage9GoForwardEEEbRKT_yj
__ZN7CoreIPC13handleMessageIN8Messages12WebPageProxy12SetDragImageEN6WebKit12WebPageProxyEMS5_FvRKN7WebCore8IntPointERKNS4_15ShareableBitmap6HandleEbEEEvPNS_15ArgumentDecoderEPT0_T1_
__ZN7CoreIPC10Arguments3IN7WebCore8IntPointEN6WebKit15ShareableBitmap6HandleEbE6decodeEPNS_15ArgumentDecoderERS6_
__ZN7CoreIPC10Arguments2IN7WebCore8IntPointEN6WebKit15ShareableBitmap6HandleEE6decodeEPNS_15ArgumentDecoderERS6_
__ZN7CoreIPC18callMemberFunctionIN6WebKit12WebPageProxyEMS2_FvRKN7WebCore8IntPointERKNS1_15ShareableBitmap6HandleEbES4_S8_bEEvRKNS_10Arguments3IT1_T2_T3_EEPT_T0_
__ZN6WebKit12WebPageProxy12setDragImageERKN7WebCore8IntPointERKNS_15ShareableBitmap6HandleEb
__ZN6WebKit14PageClientImpl12setDragImageERKN7WebCore8IntPointEN3WTF10PassRefPtrINS_15ShareableBitmapEEEb
__ZN6WebKit15ShareableBitmap11makeCGImageEv
__ZNK6WebKit15ShareableBitmap13createCGImageEP14CGDataProvider
__ZN3WTF9RetainPtrI7NSImageEC2ENS_10AdoptNSTagEPS1_
-[WKView(Internal) _setDragImage:at:linkDrag:]
-[WKView draggingExited:]
__ZN6WebKit12WebPageProxy10dragExitedEPN7WebCore8DragDataERKN3WTF6StringE
-[WKView draggedImage:endedAt:operation:]
__ZN6WebKit12WebPageProxy9dragEndedERKN7WebCore8IntPointES4_y
__ZN6WebKit15WebProcessProxy4sendIN8Messages7WebPage9DragEndedEEEbRKT_yj
__ZNK7CoreIPC10Arguments3IRKN7WebCore8IntPointES4_yE6encodeEPNS_15ArgumentEncoderE
__ZN6WebKit15ShareableBitmap23releaseDataProviderDataEPvPKvm
__ZN7CoreIPC13handleMessageIN8Messages12WebPageProxy20CheckTextOfParagraphEN6WebKit12WebPageProxyEMS5_FvRKN3WTF6StringEyRNS6_6VectorIN7WebCore18TextCheckingResultELm0EEEEEEvPNS_15ArgumentDecoderEPNS_15ArgumentEncoderEPT0_T1_
__ZN7CoreIPC18callMemberFunctionIN6WebKit12WebPageProxyEMS2_FvRKN3WTF6StringEyRNS3_6VectorIN7WebCore18TextCheckingResultELm0EEEES4_ySA_EEvRKNS_10Arguments2IT1_T2_EERNS_10Arguments1IT3_EEPT_T0_
__ZN6WebKit12WebPageProxy20checkTextOfParagraphERKN3WTF6StringEyRNS1_6VectorIN7WebCore18TextCheckingResultELm0EEE
__ZN6WebKit11TextChecker22uniqueSpellDocumentTagEPNS_12WebPageProxyE
__ZN6WebKit11TextChecker20checkTextOfParagraphExPKtiy
__ZN3WTF9RetainPtrI8NSStringEC2ENS_10AdoptNSTagEPS1_
__ZN3WTF6VectorIN7WebCore18TextCheckingResultELm0EEaSERKS3_
__ZNSt6__copyILb0ESt26random_access_iterator_tagE4copyIPKN7WebCore18TextCheckingResultEPS4_EET0_T_S9_S8_
__ZN3WTF12VectorCopierILb0EN7WebCore18TextCheckingResultEE17uninitializedCopyEPKS2_S5_PS2_
__ZN3WTF6VectorIN7WebCore18TextCheckingResultELm0EED2Ev
__ZN7CoreIPC19VectorArgumentCoderILb0EN7WebCore18TextCheckingResultEE6encodeEPNS_15ArgumentEncoderERKN3WTF6VectorIS2_Lm0EEE
__ZN6WebKit25WebFullScreenManagerProxy21didReceiveSyncMessageEPN7CoreIPC10ConnectionENS1_9MessageIDEPNS1_15ArgumentDecoderEPNS1_15ArgumentEncoderE
__ZN6WebKit25WebFullScreenManagerProxy46didReceiveSyncWebFullScreenManagerProxyMessageEPN7CoreIPC10ConnectionENS1_9MessageIDEPNS1_15ArgumentDecoderEPNS1_15ArgumentEncoderE
__ZN7CoreIPC13handleMessageIN8Messages25WebFullScreenManagerProxy18SupportsFullScreenEN6WebKit25WebFullScreenManagerProxyEMS5_FvbRbEEEvPNS_15ArgumentDecoderEPNS_15ArgumentEncoderEPT0_T1_
__ZN7CoreIPC18callMemberFunctionIN6WebKit25WebFullScreenManagerProxyEMS2_FvbRbEbbEEvRKNS_10Arguments1IT1_EERNS6_IT2_EEPT_T0_
__ZN6WebKit25WebFullScreenManagerProxy18supportsFullScreenEbRb
_WKPageTryRestoreScrollPosition
__ZN6WebKit12WebPageProxy24tryRestoreScrollPositionEv
__ZN6WebKit15WebProcessProxy4sendIN8Messages7WebPage24TryRestoreScrollPositionEEEbRKT_yj
__ZN7CoreIPC10Connection26dispatchConnectionDidCloseEv
__ZN6WebKit15WebProcessProxy8didCloseEPN7CoreIPC10ConnectionE
__ZN6WebKit12WebPageProxy15processDidCrashEv
__ZN6WebKit21invalidateCallbackMapIN3WTF6RefPtrINS_23ValidateCommandCallbackEEEEEvRNS1_7HashMapIyT_NS1_7IntHashIyEENS1_10HashTraitsIyEENS9_IS6_EEEE
__ZN3WTF18copyValuesToVectorIyNS_6RefPtrIN6WebKit23ValidateCommandCallbackEEENS_7IntHashIyEENS_10HashTraitsIyEENS7_IS4_EENS_6VectorIS4_Lm0EEEEEvRKNS_7HashMapIT_T0_T1_T2_T3_EERT4_
__ZN3WTF16VectorDestructorILb1ENS_6RefPtrIN6WebKit23ValidateCommandCallbackEEEE8destructEPS4_S6_
__ZN3WTF6VectorINS_6RefPtrIN6WebKit23ValidateCommandCallbackEEELm0EED2Ev
__ZN6WebKit14PageClientImpl15processDidCrashEv
-[WKView(Internal) _processDidCrash]
__ZN6WebKit15WebLoaderClient15processDidCrashEPNS_12WebPageProxyE
__ZN6WebKit12WebPageProxy28reattachToWebProcessWithItemEPNS_22WebBackForwardListItemE
__ZN6WebKit12WebPageProxy20reattachToWebProcessEv
__ZN6WebKit15WebProcessProxy18addExistingWebPageEPNS_12WebPageProxyEy
__ZN6WebKit14PageClientImpl18didRelaunchProcessEv
-[WKView(Internal) _didRelaunchProcess]
__ZN7CoreIPC10Connection16SyncMessageStateD2Ev
__ZN3WTF9HashTableIP7RunLoopSt4pairIS2_PN7CoreIPC10Connection16SyncMessageStateEENS_18PairFirstExtractorIS8_EENS_7PtrHashIS2_EENS_14PairHashTraitsINS_10HashTraitsIS2_EENSE_IS7_EEEESF_E16lookupForWritingERKS2_
__ZN3WTF9HashTableIP7RunLoopSt4pairIS2_PN7CoreIPC10Connection16SyncMessageStateEENS_18PairFirstExtractorIS8_EENS_7PtrHashIS2_EENS_14PairHashTraitsINS_10HashTraitsIS2_EENSE_IS7_EEEESF_E3addIS2_S7_NS_17HashMapTranslatorIS8_SH_SC_EEEES3_INS_17HashTableIteratorIS2_S8_SA_SC_SH_SF_EEbERKT_RKT0_
__ZN3WTF9HashTableIP7RunLoopSt4pairIS2_PN7CoreIPC10Connection16SyncMessageStateEENS_18PairFirstExtractorIS8_EENS_7PtrHashIS2_EENS_14PairHashTraitsINS_10HashTraitsIS2_EENSE_IS7_EEEESF_E4findIS2_NS_22IdentityHashTranslatorIS2_S8_SC_EEEENS_17HashTableIteratorIS2_S8_SA_SC_SH_SF_EERKT_
__ZN3WTF9HashTableIP7RunLoopSt4pairIS2_PN7CoreIPC10Connection16SyncMessageStateEENS_18PairFirstExtractorIS8_EENS_7PtrHashIS2_EENS_14PairHashTraitsINS_10HashTraitsIS2_EENSE_IS7_EEEESF_E6expandEv
__ZN3WTF9HashTableIP7RunLoopSt4pairIS2_PN7CoreIPC10Connection16SyncMessageStateEENS_18PairFirstExtractorIS8_EENS_7PtrHashIS2_EENS_14PairHashTraitsINS_10HashTraitsIS2_EENSE_IS7_EEEESF_E6rehashEi
__ZN3WTF9HashTableIP7RunLoopSt4pairIS2_PN7CoreIPC10Connection16SyncMessageStateEENS_18PairFirstExtractorIS8_EENS_7PtrHashIS2_EENS_14PairHashTraitsINS_10HashTraitsIS2_EENSE_IS7_EEEESF_E6removeEPS8_
__ZN7CoreIPC15BinarySemaphoreD1Ev
__ZN7CoreIPC21handleMessageVariadicIN8Messages12WebPageProxy30DecidePolicyForNewWindowActionEN6WebKit12WebPageProxyEMS5_FvyjjiRKN7WebCore15ResourceRequestERKN3WTF6StringEyPNS_15ArgumentDecoderEEEEvSF_PT0_T1_
__ZN7CoreIPC10Arguments7IyjjiN7WebCore15ResourceRequestEN3WTF6StringEyE6decodeEPNS_15ArgumentDecoderERS5_
__ZN7CoreIPC10Arguments6IyjjiN7WebCore15ResourceRequestEN3WTF6StringEE6decodeEPNS_15ArgumentDecoderERS5_
__ZN7CoreIPC18callMemberFunctionIN6WebKit12WebPageProxyEMS2_FvyjjiRKN7WebCore15ResourceRequestERKN3WTF6StringEyPNS_15ArgumentDecoderEEyjjiS4_S8_yEEvRKNS_10Arguments7IT1_T2_T3_T4_T5_T6_T7_EESC_PT_T0_
__ZN6WebKit12WebPageProxy30decidePolicyForNewWindowActionEyjjiRKN7WebCore15ResourceRequestERKN3WTF6StringEyPN7CoreIPC15ArgumentDecoderE
__ZN6WebKit15WebPolicyClient30decidePolicyForNewWindowActionEPNS_12WebPageProxyEPNS_13WebFrameProxyEN7WebCore14NavigationTypeENS_8WebEvent9ModifiersENS_13WebMouseEvent6ButtonERKNS5_15ResourceRequestERKN3WTF6StringEPNS_27WebFramePolicyListenerProxyEPNS_9APIObjectE
__ZN7CoreIPC10Arguments6IyjjiN7WebCore15ResourceRequestEN3WTF6StringEED2Ev
__ZN7CoreIPC13handleMessageIN8Messages12WebPageProxy28DidRestoreFrameFromPageCacheEN6WebKit12WebPageProxyEMS5_FvyyEEEvPNS_15ArgumentDecoderEPT0_T1_
__ZN6WebKit12WebPageProxy28didRestoreFrameFromPageCacheEyy
__ZN7CoreIPC13handleMessageIN8Messages12WebPageProxy36RequestGeolocationPermissionForFrameEN6WebKit12WebPageProxyEMS5_FvyyN3WTF6StringEEEEvPNS_15ArgumentDecoderEPT0_T1_
__ZN7CoreIPC10Arguments3IyyN3WTF6StringEE6decodeEPNS_15ArgumentDecoderERS3_
__ZN7CoreIPC18callMemberFunctionIN6WebKit12WebPageProxyEMS2_FvyyN3WTF6StringEEyyS4_EEvRKNS_10Arguments3IT1_T2_T3_EEPT_T0_
__ZN6WebKit17WebSecurityOrigin6createERKN3WTF6StringE
__ZN6WebKit40GeolocationPermissionRequestManagerProxy13createRequestEy
__ZN6WebKit33GeolocationPermissionRequestProxyC1EPNS_40GeolocationPermissionRequestManagerProxyEy
__ZN3WTF17HashMapTranslatorISt4pairIyNS_6RefPtrIN6WebKit33GeolocationPermissionRequestProxyEEEENS_14PairHashTraitsINS_10HashTraitsIyEENS8_IS5_EEEENS_7IntHashIyEEE9translateERS6_RKyRKS5_
__ZN6WebKit11WebUIClient43decidePolicyForGeolocationPermissionRequestEPNS_12WebPageProxyEPNS_13WebFrameProxyEPNS_17WebSecurityOriginEPNS_33GeolocationPermissionRequestProxyE
_WKSecurityOriginGetPort
_WKSecurityOriginGetHost
_WKSecurityOriginGetProtocol
__ZN7CoreIPC10Arguments3IyyN3WTF6StringEED1Ev
_WKGeolocationPermissionRequestAllow
__ZN6WebKit33GeolocationPermissionRequestProxy5allowEv
__ZN6WebKit40GeolocationPermissionRequestManagerProxy39didReceiveGeolocationPermissionDecisionEyb
__ZN6WebKit15WebProcessProxy4sendIN8Messages7WebPage39DidReceiveGeolocationPermissionDecisionEEEbRKT_yj
__ZN6WebKit33GeolocationPermissionRequestProxyD0Ev
__ZN6WebKit17WebSecurityOriginD0Ev
__ZN3WTF20ThreadSafeRefCountedIN7WebCore14SecurityOriginEE5derefEv
__ZN7WebCore14SecurityOriginD2Ev
__ZN6WebKit26WebGeolocationManagerProxy13startUpdatingEv
__ZN6WebKit22WebGeolocationProvider13startUpdatingEPNS_26WebGeolocationManagerProxyE
_WKGeolocationPositionCreate
__ZN6WebKit22WebGeolocationPositionC1Edddd
_WKGeolocationManagerProviderDidChangePosition
__ZN6WebKit26WebGeolocationManagerProxy25providerDidChangePositionEPNS_22WebGeolocationPositionE
__ZN6WebKit15WebProcessProxy4sendIN8Messages21WebGeolocationManager17DidChangePositionEEEbRKT_yj
__ZNK6WebKit22WebGeolocationPosition4Data6encodeEPN7CoreIPC15ArgumentEncoderE
__ZNK7CoreIPC10Arguments3IRKdS2_S2_E6encodeEPNS_15ArgumentEncoderE
__ZN6WebKit22WebGeolocationPositionD0Ev
__ZN7CoreIPC11decodeImageEPNS_15ArgumentDecoderERN3WTF6RefPtrIN7WebCore5ImageEEE
__ZN7CoreIPC11createImageEPN6WebKit15ShareableBitmapE
__ZN3WTF10RefCountedIN7WebCore5ImageEE5derefEv
__ZN6WebKit22WebGeolocationProvider12stopUpdatingEPNS_26WebGeolocationManagerProxyE
-[WKView rightMouseUp:]
-[WKView insertText:]
-[WKView _wantsKeyDownForEvent:]
__ZN3WTF6VectorIN7WebCore18TextCheckingResultELm0EE14expandCapacityEmPKS2_
__ZN3WTF6VectorIN7WebCore18TextCheckingResultELm0EE15reserveCapacityEm
__ZN3WTF16VectorBufferBaseIN7WebCore18TextCheckingResultEE14allocateBufferEm
__ZN3WTF11VectorMoverILb0EN7WebCore18TextCheckingResultEE4moveEPKS2_S5_PS2_
__ZN7WebCore18TextCheckingResultC2ERKS0_
__ZN3WTF6VectorIN7WebCore13GrammarDetailELm0EEC2ERKS3_
__ZN7WebCore18TextCheckingResultD2Ev
__ZN7WebCore18callRemovedLastRefEPNS_10TreeSharedINS_13ContainerNodeEEE
__ZN3WTF6VectorIN7WebCore13GrammarDetailELm0EED2Ev
__ZN3WTF6VectorIN7WebCore18TextCheckingResultELm0EE14shrinkCapacityEm
__ZN3WTF6VectorIN7WebCore18TextCheckingResultELm0EE6shrinkEm
__ZN7CoreIPC13ArgumentCoderIN7WebCore18TextCheckingResultEE6encodeEPNS_15ArgumentEncoderERKS2_
__ZN7CoreIPC19VectorArgumentCoderILb0EN7WebCore13GrammarDetailEE6encodeEPNS_15ArgumentEncoderERKN3WTF6VectorIS2_Lm0EEE
__ZN7CoreIPC13ArgumentCoderISt4pairIN3WTF6StringES3_EE6decodeEPNS_15ArgumentDecoderERS4_
__ZN3WTF6VectorISt4pairINS_6StringES2_ELm0EE14expandCapacityEmPKS3_
__ZN3WTF6VectorISt4pairINS_6StringES2_ELm0EE15reserveCapacityEm
__ZN3WTF16VectorBufferBaseISt4pairINS_6StringES2_EE14allocateBufferEm
__ZNSt4pairIN3WTF6StringES1_EC2ERKS2_
_WKDictionaryCopyKeys
__ZNK6WebKit19ImmutableDictionary4keysEv
__ZN3WTF6VectorISt4pairINS_6StringES2_ELm0EE6shrinkEm
__ZN6WebKit15PluginInfoStore7refreshEv
-[WKView rightMouseDragged:]
__ZNK3WTF6String10startsWithERKS0_b
__ZN3WTF10StringImpl10startsWithEPS0_b
__ZNK3WTF9HashTableINS_6StringES1_NS_17IdentityExtractorIS1_EENS_15CaseFoldingHashENS_10HashTraitsIS1_EES6_E8containsIS1_NS_22IdentityHashTranslatorIS1_S1_S4_EEEEbRKT_
_WKFramePolicyListenerDownload
__ZN6WebKit27WebFramePolicyListenerProxy8downloadEv
__ZN6WebKit10WebContext19createDownloadProxyEv
__ZN6WebKit13DownloadProxy6createEPNS_10WebContextE
__ZN3WTF7HashMapIyNS_6RefPtrIN6WebKit13DownloadProxyEEENS_7IntHashIyEENS_10HashTraitsIyEENS7_IS4_EEE3setERKyRKS4_
__ZN3WTF17HashMapTranslatorISt4pairIyNS_6RefPtrIN6WebKit13DownloadProxyEEEENS_14PairHashTraitsINS_10HashTraitsIyEENS8_IS5_EEEENS_7IntHashIyEEE9translateERS6_RKyRKS5_
__ZNK3WTF7HashMapIyNS_6RefPtrIN6WebKit13DownloadProxyEEENS_7IntHashIyEENS_10HashTraitsIyEENS7_IS4_EEE3getERKy
__ZN3WTF9HashTableIySt4pairIyNS_6RefPtrIN6WebKit13DownloadProxyEEEENS_18PairFirstExtractorIS6_EENS_7IntHashIyEENS_14PairHashTraitsINS_10HashTraitsIyEENSC_IS5_EEEESD_E15deallocateTableEPS6_i
__ZN3WTF9HashTableIySt4pairIyNS_6RefPtrIN6WebKit13DownloadProxyEEEENS_18PairFirstExtractorIS6_EENS_7IntHashIyEENS_14PairHashTraitsINS_10HashTraitsIyEENSC_IS5_EEEESD_E16lookupForWritingERKy
__ZN3WTF9HashTableIySt4pairIyNS_6RefPtrIN6WebKit13DownloadProxyEEEENS_18PairFirstExtractorIS6_EENS_7IntHashIyEENS_14PairHashTraitsINS_10HashTraitsIyEENSC_IS5_EEEESD_E3addIyS5_NS_17HashMapTranslatorIS6_SF_SA_EEEES1_INS_17HashTableIteratorIyS6_S8_SA_SF_SD_EEbERKT_RKT0_
__ZN3WTF9HashTableIySt4pairIyNS_6RefPtrIN6WebKit13DownloadProxyEEEENS_18PairFirstExtractorIS6_EENS_7IntHashIyEENS_14PairHashTraitsINS_10HashTraitsIyEENSC_IS5_EEEESD_E4findIyNS_22IdentityHashTranslatorIyS6_SA_EEEENS_17HashTableIteratorIyS6_S8_SA_SF_SD_EERKT_
__ZN3WTF9HashTableIySt4pairIyNS_6RefPtrIN6WebKit13DownloadProxyEEEENS_18PairFirstExtractorIS6_EENS_7IntHashIyEENS_14PairHashTraitsINS_10HashTraitsIyEENSC_IS5_EEEESD_E6expandEv
__ZN3WTF9HashTableIySt4pairIyNS_6RefPtrIN6WebKit13DownloadProxyEEEENS_18PairFirstExtractorIS6_EENS_7IntHashIyEENS_14PairHashTraitsINS_10HashTraitsIyEENSC_IS5_EEEESD_E6lookupERKy
__ZN3WTF9HashTableIySt4pairIyNS_6RefPtrIN6WebKit13DownloadProxyEEEENS_18PairFirstExtractorIS6_EENS_7IntHashIyEENS_14PairHashTraitsINS_10HashTraitsIyEENSC_IS5_EEEESD_E6rehashEi
__ZN3WTF9HashTableIySt4pairIyNS_6RefPtrIN6WebKit13DownloadProxyEEEENS_18PairFirstExtractorIS6_EENS_7IntHashIyEENS_14PairHashTraitsINS_10HashTraitsIyEENSC_IS5_EEEESD_E6removeEPS6_
__ZN6WebKit13DownloadProxy30didReceiveDownloadProxyMessageEPN7CoreIPC10ConnectionENS1_9MessageIDEPNS1_15ArgumentDecoderE
__ZN7CoreIPC13handleMessageIN8Messages13DownloadProxy8DidStartEN6WebKit13DownloadProxyEMS5_FvRKN7WebCore15ResourceRequestEEEEvPNS_15ArgumentDecoderEPT0_T1_
__ZN7CoreIPC18callMemberFunctionIN6WebKit13DownloadProxyEMS2_FvRKN7WebCore15ResourceRequestEES4_EEvRKNS_10Arguments1IT1_EEPT_T0_
__ZN6WebKit13DownloadProxy8didStartERKN7WebCore15ResourceRequestE
__ZN6WebKit17WebDownloadClient8didStartEPNS_10WebContextEPNS_13DownloadProxyE
_WKDownloadCopyRequest
__ZN7CoreIPC13handleMessageIN8Messages13DownloadProxy18DidReceiveResponseEN6WebKit13DownloadProxyEMS5_FvRKN7WebCore16ResourceResponseEEEEvPNS_15ArgumentDecoderEPT0_T1_
__ZN7CoreIPC18callMemberFunctionIN6WebKit13DownloadProxyEMS2_FvRKN7WebCore16ResourceResponseEES4_EEvRKNS_10Arguments1IT1_EEPT_T0_
__ZN6WebKit13DownloadProxy18didReceiveResponseERKN7WebCore16ResourceResponseE
__ZN6WebKit17WebDownloadClient18didReceiveResponseEPNS_10WebContextEPNS_13DownloadProxyERKN7WebCore16ResourceResponseE
__ZN7CoreIPC13handleMessageIN8Messages13DownloadProxy14DidReceiveDataEN6WebKit13DownloadProxyEMS5_FvyEEEvPNS_15ArgumentDecoderEPT0_T1_
__ZN7CoreIPC18callMemberFunctionIN6WebKit13DownloadProxyEMS2_FvyEyEEvRKNS_10Arguments1IT1_EEPT_T0_
__ZN6WebKit13DownloadProxy14didReceiveDataEy
__ZN6WebKit17WebDownloadClient14didReceiveDataEPNS_10WebContextEPNS_13DownloadProxyEy
__ZN6WebKit13DownloadProxy34didReceiveSyncDownloadProxyMessageEPN7CoreIPC10ConnectionENS1_9MessageIDEPNS1_15ArgumentDecoderEPNS1_15ArgumentEncoderE
__ZN7CoreIPC13handleMessageIN8Messages13DownloadProxy38DecideDestinationWithSuggestedFilenameEN6WebKit13DownloadProxyEMS5_FvRKN3WTF6StringERS7_RbRNS4_16SandboxExtension6HandleEEEEvPNS_15ArgumentDecoderEPNS_15ArgumentEncoderEPT0_T1_
__ZN7CoreIPC18callMemberFunctionIN6WebKit13DownloadProxyEMS2_FvRKN3WTF6StringERS4_RbRNS1_16SandboxExtension6HandleEES4_S4_bSA_EEvRKNS_10Arguments1IT1_EERNS_10Arguments3IT2_T3_T4_EEPT_T0_
__ZN6WebKit13DownloadProxy38decideDestinationWithSuggestedFilenameERKN3WTF6StringERS2_RbRNS_16SandboxExtension6HandleE
__ZN6WebKit17WebDownloadClient38decideDestinationWithSuggestedFilenameEPNS_10WebContextEPNS_13DownloadProxyERKN3WTF6StringERb
__ZNK7CoreIPC10Arguments3IN3WTF6StringEbN6WebKit16SandboxExtension6HandleEE6encodeEPNS_15ArgumentEncoderE
__ZN7CoreIPC13handleMessageIN8Messages13DownloadProxy20DidCreateDestinationEN6WebKit13DownloadProxyEMS5_FvRKN3WTF6StringEEEEvPNS_15ArgumentDecoderEPT0_T1_
__ZN7CoreIPC18callMemberFunctionIN6WebKit13DownloadProxyEMS2_FvRKN3WTF6StringEES4_EEvRKNS_10Arguments1IT1_EEPT_T0_
__ZN6WebKit13DownloadProxy20didCreateDestinationERKN3WTF6StringE
__ZN6WebKit17WebDownloadClient20didCreateDestinationEPNS_10WebContextEPNS_13DownloadProxyERKN3WTF6StringE
__ZN6WebKit13DownloadProxy9didFinishEv
__ZN6WebKit17WebDownloadClient9didFinishEPNS_10WebContextEPNS_13DownloadProxyE
__ZN6WebKit10WebContext16downloadFinishedEPNS_13DownloadProxyE
__ZN6WebKit13DownloadProxy10invalidateEv
_WKCreateNSURLConnectionDelegateProxy
_WKFramePolicyListenerIgnore
__ZN6WebKit27WebFramePolicyListenerProxy6ignoreEv
_WKGetCFURLResponseMIMEType
_WKMakeScrollbarPainterController
_WKQTIncludeOnlyModernMediaFileTypes
_WKGetMIMETypeForExtension
_WKSetUpFontCache
_WKContentAreaResized
_WKContentAreaDidShow
_WKSetNSURLRequestShouldContentSniff
_WKContentAreaDidHide
_WKMouseEnteredContentArea
_WKMouseMovedInContentArea
_WKGetUserToBaseCTM
_WKMouseExitedContentArea
__ZN7CoreIPC15ArgumentDecoder11decodeBytesERN3WTF6VectorIhLm0EEE
__ZN6WebKit24WebSerializedScriptValue5adoptERN3WTF6VectorIhLm0EEE
__ZNK6WebKit24WebSerializedScriptValue4typeEv
_WKSerializedScriptValueGetTypeID
_WKSerializedScriptValueGetInternalRepresentation
_WKSerializedScriptValueCreate
__ZN6WebKit24WebSerializedScriptValue6createEPK15OpaqueJSContextPK13OpaqueJSValuePS6_
__ZN3WTF10RefCountedIN7WebCore21SerializedScriptValueEE5derefEv
__ZN6WebKit24WebSerializedScriptValueD0Ev
_WKSerializedScriptValueCreateWithInternalRepresentation
__ZN6WebKit25WebFullScreenManagerProxy17didReceiveMessageEPN7CoreIPC10ConnectionENS1_9MessageIDEPNS1_15ArgumentDecoderE
__ZN6WebKit25WebFullScreenManagerProxy42didReceiveWebFullScreenManagerProxyMessageEPN7CoreIPC10ConnectionENS1_9MessageIDEPNS1_15ArgumentDecoderE
__ZN6WebKit25WebFullScreenManagerProxy15enterFullScreenEv
-[WKView(Internal) fullScreenWindowController]
-[WKFullScreenWindowController .cxx_construct]
-[WKFullScreenWindowController init]
-[WKFullScreenWindow initWithContentRect:styleMask:backing:defer:]
-[WKFullScreenWindowController windowDidLoad]
-[WKFullScreenWindowController setWebView:]
-[WKFullScreenWindowController enterFullScreen:]
-[WKFullScreenWindowController _fullScreenWindow]
-[WKFullScreenWindow backgroundLayer]
-[WKFullScreenWindowController _animationDuration]
-[WKFullScreenWindowController _manager]
-[WKFullScreenWindowController _page]
__ZN6WebKit25WebFullScreenManagerProxy19willEnterFullScreenEv
__ZN6WebKit15WebProcessProxy4sendIN8Messages20WebFullScreenManager19WillEnterFullScreenEEEbRKT_yj
__ZN6WebKit25WebFullScreenManagerProxy29beginEnterFullScreenAnimationEf
__ZN6WebKit15WebProcessProxy4sendIN8Messages20WebFullScreenManager29BeginEnterFullScreenAnimationEEEbRKT_yj
__ZN7CoreIPC13handleMessageIN8Messages25WebFullScreenManagerProxy17GetFullScreenRectEN6WebKit25WebFullScreenManagerProxyEMS5_FvRN7WebCore7IntRectEEEEvPNS_15ArgumentDecoderEPNS_15ArgumentEncoderEPT0_T1_
__ZN6WebKit25WebFullScreenManagerProxy17getFullScreenRectERN7WebCore7IntRectE
-[WKFullScreenWindowController getFullScreenRect]
__ZN7CoreIPC13handleMessageIN8Messages25WebFullScreenManagerProxy31EnterAcceleratedCompositingModeEN6WebKit25WebFullScreenManagerProxyEMS5_FvRKNS4_16LayerTreeContextEEEEvPNS_15ArgumentDecoderEPT0_T1_
__ZN7CoreIPC18callMemberFunctionIN6WebKit25WebFullScreenManagerProxyEMS2_FvRKNS1_16LayerTreeContextEES3_EEvRKNS_10Arguments1IT1_EEPT_T0_
__ZN6WebKit25WebFullScreenManagerProxy31enterAcceleratedCompositingModeERKNS_16LayerTreeContextE
-[WKFullScreenWindowController enterAcceleratedCompositingMode:]
__ZN6WebKit25WebFullScreenManagerProxy29beganEnterFullScreenAnimationEv
-[WKFullScreenWindowController beganEnterFullScreenAnimation]
-[WKFullScreenWindowController _updateMenuAndDockForFullScreen]
-[WKFullScreenWindowController _updatePowerAssertions]
-[WKFullScreenWindowController _enableIdleSystemSleep]
-[WKFullScreenWindowController _enableIdleDisplaySleep]
-[WKFullScreenWindowController _disableTickleTimer]
-[WKFullScreenWindow canBecomeKeyWindow]
__ZN7CoreIPC13handleMessageIN8Messages25WebFullScreenManagerProxy32FinishedEnterFullScreenAnimationEN6WebKit25WebFullScreenManagerProxyEMS5_FvbEEEvPNS_15ArgumentDecoderEPT0_T1_
__ZN7CoreIPC18callMemberFunctionIN6WebKit25WebFullScreenManagerProxyEMS2_FvbEbEEvRKNS_10Arguments1IT1_EEPT_T0_
__ZN6WebKit25WebFullScreenManagerProxy32finishedEnterFullScreenAnimationEb
-[WKFullScreenWindowController finishedEnterFullScreenAnimation:]
-[WKFullScreenWindowController _swapView:with:]
__ZN6WebKit25WebFullScreenManagerProxy18didEnterFullScreenEv
__ZN6WebKit15WebProcessProxy4sendIN8Messages20WebFullScreenManager18DidEnterFullScreenEEEbRKT_yj
__ZN6WebKit25WebFullScreenManagerProxy30exitAcceleratedCompositingModeEv
-[WKFullScreenWindowController exitAcceleratedCompositingMode]
__ZL34exitCompositedModeRepaintCompletedPK13OpaqueWKErrorPv
-[WKFullScreenWindowController exitCompositedModeRepaintCompleted]
-[WKFullScreenWindow keyDown:]
-[WKFullScreenWindow cancelOperation:]
-[WKFullScreenWindowController _requestExitFullScreenWithAnimation:]
-[WKFullScreenWindowController _requestExit]
-[WKFullScreenWindowController exitFullScreen]
__ZN6WebKit25WebFullScreenManagerProxy18willExitFullScreenEv
__ZN6WebKit15WebProcessProxy4sendIN8Messages20WebFullScreenManager18WillExitFullScreenEEEbRKT_yj
__ZN6WebKit25WebFullScreenManagerProxy28beginExitFullScreenAnimationEf
__ZN6WebKit15WebProcessProxy4sendIN8Messages20WebFullScreenManager28BeginExitFullScreenAnimationEEEbRKT_yj
__ZN6WebKit25WebFullScreenManagerProxy28beganExitFullScreenAnimationEv
-[WKFullScreenWindowController beganExitFullScreenAnimation]
-[WKFullScreenWindowController applicationDidChangeScreenParameters:]
__ZN7CoreIPC13handleMessageIN8Messages25WebFullScreenManagerProxy31FinishedExitFullScreenAnimationEN6WebKit25WebFullScreenManagerProxyEMS5_FvbEEEvPNS_15ArgumentDecoderEPT0_T1_
__ZN6WebKit25WebFullScreenManagerProxy31finishedExitFullScreenAnimationEb
-[WKFullScreenWindowController finishedExitFullScreenAnimation:]
__ZN6WebKit25WebFullScreenManagerProxy17didExitFullScreenEv
__ZN6WebKit15WebProcessProxy4sendIN8Messages20WebFullScreenManager17DidExitFullScreenEEEbRKT_yj
-[WKFullScreenWindowController applicationDidResignActive:]
__ZN3WTF6VectorISt4pairINS_6StringENS_6RefPtrIN6WebKit9APIObjectEEEELm0EE6shrinkEm
_WKDictionaryAddItem
__ZN6WebKit17MutableDictionary3addERKN3WTF6StringEPNS_9APIObjectE
__ZN7CoreIPC20handleMessageDelayedIN8Messages15WebProcessProxy26GetPluginProcessConnectionEN6WebKit15WebProcessProxyEMS5_FvRKN3WTF6StringENS6_10PassRefPtrINS3_12DelayedReplyEEEEEEvPNS_10ConnectionEPNS_15ArgumentDecoderEPNS_15ArgumentEncoderEPT0_T1_
__ZN7CoreIPC18callMemberFunctionIN6WebKit15WebProcessProxyEMS2_FvRKN3WTF6StringENS3_10PassRefPtrIN8Messages15WebProcessProxy26GetPluginProcessConnection12DelayedReplyEEEES4_SB_EEvRKNS_10Arguments1IT1_EENS7_IT2_EEPT_T0_
__ZN6WebKit15WebProcessProxy26getPluginProcessConnectionERKN3WTF6StringENS1_10PassRefPtrIN8Messages15WebProcessProxy26GetPluginProcessConnection12DelayedReplyEEE
__ZN6WebKit20PluginProcessManager26getPluginProcessConnectionERNS_15PluginInfoStoreERKN3WTF6StringENS3_10PassRefPtrIN8Messages15WebProcessProxy26GetPluginProcessConnection12DelayedReplyEEE
__ZN6WebKit15PluginInfoStore21infoForPluginWithPathERKN3WTF6StringE
__ZN6WebKit18PluginProcessProxy26getPluginProcessConnectionEN3WTF10PassRefPtrIN8Messages15WebProcessProxy26GetPluginProcessConnection12DelayedReplyEEE
__ZN3WTF5DequeINS_6RefPtrIN8Messages15WebProcessProxy26GetPluginProcessConnection12DelayedReplyEEELm0EE14expandCapacityEv
__ZN3WTF16VectorBufferBaseINS_6RefPtrIN8Messages15WebProcessProxy26GetPluginProcessConnection12DelayedReplyEEEE14allocateBufferEm
__ZN7CoreIPC10Connection4sendIN8Messages13PluginProcess26CreateWebProcessConnectionEEEbRKT_yj
__ZN7CoreIPC13handleMessageIN8Messages18PluginProcessProxy29DidCreateWebProcessConnectionEN6WebKit18PluginProcessProxyEMS5_FvRKNS_8MachPortEEEEvPNS_15ArgumentDecoderEPT0_T1_
__ZN7CoreIPC18callMemberFunctionIN6WebKit18PluginProcessProxyEMS2_FvRKNS_8MachPortEES3_EEvRKNS_10Arguments1IT1_EEPT_T0_
__ZN6WebKit18PluginProcessProxy29didCreateWebProcessConnectionERKN7CoreIPC8MachPortE
__ZN3WTF16VectorDestructorILb1ENS_6RefPtrIN8Messages15WebProcessProxy26GetPluginProcessConnection12DelayedReplyEEEE8destructEPS6_S8_
__ZN8Messages15WebProcessProxy26GetPluginProcessConnection12DelayedReply4sendERKN7CoreIPC8MachPortE
__ZN7CoreIPC10Connection13sendSyncReplyEN3WTF10PassOwnPtrINS_15ArgumentEncoderEEE
__ZN3WTF20ThreadSafeRefCountedIN8Messages15WebProcessProxy26GetPluginProcessConnection12DelayedReplyEE5derefEv
__ZN8Messages15WebProcessProxy26GetPluginProcessConnection12DelayedReplyD1Ev
__ZN8Messages15WebProcessProxy26GetPluginProcessConnection12DelayedReplyD2Ev
__ZN7CoreIPC13handleMessageIN8Messages12WebPageProxy26SetComplexTextInputEnabledEN6WebKit12WebPageProxyEMS5_FvybEEEvPNS_15ArgumentDecoderEPT0_T1_
__ZN6WebKit12WebPageProxy26setComplexTextInputEnabledEyb
__ZN6WebKit14PageClientImpl26setComplexTextInputEnabledEyb
-[WKView(Internal) _setComplexTextInputEnabled:pluginComplexTextInputIdentifier:]
+[WKTextInputWindowController sharedTextInputWindowController]
-[WKTextInputWindowController init]
-[WKTextInputPanel init]
_WKGetInputPanelWindowStyle
-[WKTextInputWindowController inputContext]
-[WKTextInputPanel _inputContext]
-[WKTextInputWindowController keyboardInputSourceChanged]
-[WKTextInputPanel _keyboardInputSourceChanged]
__ZN6WebKit18PluginProcessProxy8didCloseEPN7CoreIPC10ConnectionE
__ZN6WebKit18PluginProcessProxy36pluginProcessCrashedOrFailedToLaunchEv
__ZN6WebKit20PluginProcessManager24removePluginProcessProxyEPNS_18PluginProcessProxyE
__ZN6WebKit18PluginProcessProxyD0Ev
__ZN3WTF6VectorIN6WebKit18PluginProcessProxy20ClearSiteDataRequestELm0EED2Ev
__ZN6WebKit15WebProcessProxy4sendIN8Messages10WebProcess20PluginProcessCrashedEEEbRKT_yj
__ZN7CoreIPC6decodeEPNS_15ArgumentDecoderERN3WTF9RetainPtrIP23OpaqueSecCertificateRefEE
__ZN7CoreIPC13handleMessageIN8Messages12WebPageProxy8SetFocusEN6WebKit12WebPageProxyEMS5_FvbEEEvPNS_15ArgumentDecoderEPT0_T1_
__ZN6WebKit12WebPageProxy8setFocusEb
__ZN6WebKit11WebUIClient5focusEPNS_12WebPageProxyE
-[WKTextInputWindowController interpretKeyEvent:string:]
-[WKTextInputPanel _interpretKeyEvent:string:]
__ZN6WebKit11WebUIClient7unfocusEPNS_12WebPageProxyE
__ZN7CoreIPC13handleMessageIN8Messages12WebPageProxy19ShowCorrectionPanelEN6WebKit12WebPageProxyEMS5_FviRKN7WebCore9FloatRectERKN3WTF6StringESD_RKNSA_6VectorISB_Lm0EEEEEEvPNS_15ArgumentDecoderEPT0_T1_
__ZN7CoreIPC10Arguments5IiN7WebCore9FloatRectEN3WTF6StringES4_NS3_6VectorIS4_Lm0EEEE6decodeEPNS_15ArgumentDecoderERS7_
__ZN7CoreIPC10Arguments4IiN7WebCore9FloatRectEN3WTF6StringES4_E6decodeEPNS_15ArgumentDecoderERS5_
__ZN7CoreIPC10Arguments3IiN7WebCore9FloatRectEN3WTF6StringEE6decodeEPNS_15ArgumentDecoderERS5_
__ZN7CoreIPC10Arguments2IiN7WebCore9FloatRectEE6decodeEPNS_15ArgumentDecoderERS3_
__ZN7CoreIPC19VectorArgumentCoderILb0EN3WTF6StringEE6decodeEPNS_15ArgumentDecoderERNS1_6VectorIS2_Lm0EEE
__ZN3WTF6VectorINS_6StringELm0EE14shrinkCapacityEm
__ZN7CoreIPC18callMemberFunctionIN6WebKit12WebPageProxyEMS2_FviRKN7WebCore9FloatRectERKN3WTF6StringESA_RKNS7_6VectorIS8_Lm0EEEEiS4_S8_S8_SC_EEvRKNS_10Arguments5IT1_T2_T3_T4_T5_EEPT_T0_
__ZN6WebKit12WebPageProxy19showCorrectionPanelEiRKN7WebCore9FloatRectERKN3WTF6StringES8_RKNS5_6VectorIS6_Lm0EEE
__ZN6WebKit14PageClientImpl19showCorrectionPanelEN7WebCore19CorrectionPanelInfo9PanelTypeERKNS1_9FloatRectERKN3WTF6StringESA_RKNS7_6VectorIS8_Lm0EEE
__ZN6WebKit15CorrectionPanel4showEP6WKViewN7WebCore19CorrectionPanelInfo9PanelTypeERKNS3_9FloatRectERKN3WTF6StringESC_RKNS9_6VectorISA_Lm0EEE
-[WKView accessibilityIsIgnored]
__ZN7CoreIPC10Arguments4IiN7WebCore9FloatRectEN3WTF6StringES4_ED2Ev
__ZN7CoreIPC10Arguments3IiN7WebCore9FloatRectEN3WTF6StringEED2Ev
___show_block_invoke_1
__ZN6WebKit15CorrectionPanel25handleAcceptedReplacementEP8NSStringS2_S2_l
-[WKView(Private) spellCheckerDocumentTag]
-[WKView(Private) handleCorrectionPanelResult:]
__ZN6WebKit12WebPageProxy27handleCorrectionPanelResultERKN3WTF6StringE
__ZN6WebKit15WebProcessProxy4sendIN8Messages7WebPage27HandleCorrectionPanelResultEEEbRKT_yj
_WKFrameGetCertificateInfo
_WKCertificateInfoGetCertificateChain
__ZN3WTF15CaseFoldingHash5equalEPKNS_10StringImplES3_
__ZN6WebKit11TextChecker25closeSpellDocumentWithTagEx
-[WKMenuTarget forwardContextMenuAction:]
-[WebUserDataWrapper userData]
__ZN6WebKit12WebPageProxy23contextMenuItemSelectedERKNS_22WebContextMenuItemDataE
__ZN6WebKit24WebPageContextMenuClient29customContextMenuItemSelectedEPNS_12WebPageProxyERKNS_22WebContextMenuItemDataE
__ZN6WebKit12WebPageProxy14getMarkedRangeERyS1_
__ZN7CoreIPC10Connection8sendSyncIN8Messages7WebPage14GetMarkedRangeEEEbRKT_RKNS5_5ReplyEyd
__ZN7CoreIPC10Arguments2IRyS1_E6decodeEPNS_15ArgumentDecoderERS2_
_WKPreferencesGetMinimumFontSize
__ZNK6WebKit14WebPreferences15minimumFontSizeEv
_WKPreferencesGetTabsToLinks
__ZNK6WebKit14WebPreferences11tabsToLinksEv
__ZN6WebKit14WebPreferences31platformUpdateUInt32ValueForKeyERKN3WTF6StringEj
_WKPreferencesSetTabsToLinks
__ZN6WebKit14WebPreferences14setTabsToLinksERKb
_WKSecurityOriginCreate
__ZN6WebKit17WebSecurityOrigin6createERKN3WTF6StringES4_i
_WKResourceCacheManagerClearCacheForOrigin
__ZN6WebKit28WebResourceCacheManagerProxy19clearCacheForOriginEPNS_17WebSecurityOriginENS_21ResourceCachesToClearE
__ZN6WebKit15WebProcessProxy4sendIN8Messages23WebResourceCacheManager19ClearCacheForOriginEEEbRKT_yj
__ZNK6WebKit18SecurityOriginData6encodeEPN7CoreIPC15ArgumentEncoderE
__ZNK7CoreIPC10Arguments3IRKN3WTF6StringES4_RKiE6encodeEPNS_15ArgumentEncoderE
__ZN6WebKit18SecurityOriginDataD2Ev
_WKCookieManagerStartObservingCookieChanges
__ZN6WebKit21WebCookieManagerProxy27startObservingCookieChangesEv
__ZN6WebKit15WebProcessProxy4sendIN8Messages16WebCookieManager27StartObservingCookieChangesEEEbRKT_yj
_WKApplicationCacheManagerGetApplicationCacheOrigins
__ZN6WebKit31WebApplicationCacheManagerProxy26getApplicationCacheOriginsEN3WTF10PassRefPtrINS_15GenericCallbackIPK13OpaqueWKArrayPNS_14ImmutableArrayEEEEE
__ZN3WTF17HashMapTranslatorISt4pairIyNS_6RefPtrIN6WebKit15GenericCallbackIPK13OpaqueWKArrayPNS3_14ImmutableArrayEEEEEENS_14PairHashTraitsINS_10HashTraitsIyEENSE_ISB_EEEENS_7IntHashIyEEE9translateERSC_RKyRKSB_
__ZN6WebKit15WebProcessProxy4sendIN8Messages26WebApplicationCacheManager26GetApplicationCacheOriginsEEEbRKT_yj
_WKCookieManagerGetHostnamesWithCookies
__ZN6WebKit21WebCookieManagerProxy23getHostnamesWithCookiesEN3WTF10PassRefPtrINS_15GenericCallbackIPK13OpaqueWKArrayPNS_14ImmutableArrayEEEEE
__ZN6WebKit15WebProcessProxy4sendIN8Messages16WebCookieManager23GetHostnamesWithCookiesEEEbRKT_yj
_WKDatabaseManagerGetDatabaseOrigins
__ZN6WebKit23WebDatabaseManagerProxy18getDatabaseOriginsEN3WTF10PassRefPtrINS_15GenericCallbackIPK13OpaqueWKArrayPNS_14ImmutableArrayEEEEE
__ZN6WebKit15WebProcessProxy4sendIN8Messages18WebDatabaseManager18GetDatabaseOriginsEEEbRKT_yj
_WKKeyValueStorageManagerGetKeyValueStorageOrigins
__ZN6WebKit30WebKeyValueStorageManagerProxy25getKeyValueStorageOriginsEN3WTF10PassRefPtrINS_15GenericCallbackIPK13OpaqueWKArrayPNS_14ImmutableArrayEEEEE
__ZN6WebKit15WebProcessProxy4sendIN8Messages25WebKeyValueStorageManager25GetKeyValueStorageOriginsEEEbRKT_yj
_WKMediaCacheManagerGetHostnamesWithMediaCache
__ZN6WebKit25WebMediaCacheManagerProxy26getHostnamesWithMediaCacheEN3WTF10PassRefPtrINS_15GenericCallbackIPK13OpaqueWKArrayPNS_14ImmutableArrayEEEEE
__ZN6WebKit15WebProcessProxy4sendIN8Messages20WebMediaCacheManager26GetHostnamesWithMediaCacheEEEbRKT_yj
_WKPluginSiteDataManagerGetSitesWithData
__ZN6WebKit24WebPluginSiteDataManager16getSitesWithDataEN3WTF10PassRefPtrINS_15GenericCallbackIPK13OpaqueWKArrayPNS_14ImmutableArrayEEEEE
__ZN3WTF7HashMapIyPN6WebKit24WebPluginSiteDataManager21GetSitesWithDataStateENS_7IntHashIyEENS_10HashTraitsIyEENS7_IS4_EEE3setERKyRKS4_
__ZN6WebKit24WebPluginSiteDataManager21GetSitesWithDataState29getSitesWithDataForNextPluginEv
__ZN6WebKit20PluginProcessManager16getSitesWithDataERKNS_15PluginInfoStore6PluginEPNS_24WebPluginSiteDataManagerEy
__ZN6WebKit18PluginProcessProxy16getSitesWithDataEPNS_24WebPluginSiteDataManagerEy
_WKResourceCacheManagerGetCacheOrigins
__ZN6WebKit28WebResourceCacheManagerProxy15getCacheOriginsEN3WTF10PassRefPtrINS_15GenericCallbackIPK13OpaqueWKArrayPNS_14ImmutableArrayEEEEE
__ZN6WebKit15WebProcessProxy4sendIN8Messages23WebResourceCacheManager15GetCacheOriginsEEEbRKT_yj
__ZN6WebKit31WebApplicationCacheManagerProxy17didReceiveMessageEPN7CoreIPC10ConnectionENS1_9MessageIDEPNS1_15ArgumentDecoderE
__ZN6WebKit31WebApplicationCacheManagerProxy48didReceiveWebApplicationCacheManagerProxyMessageEPN7CoreIPC10ConnectionENS1_9MessageIDEPNS1_15ArgumentDecoderE
__ZN7CoreIPC13handleMessageIN8Messages31WebApplicationCacheManagerProxy29DidGetApplicationCacheOriginsEN6WebKit31WebApplicationCacheManagerProxyEMS5_FvRKN3WTF6VectorINS4_18SecurityOriginDataELm0EEEyEEEvPNS_15ArgumentDecoderEPT0_T1_
__ZN7CoreIPC10Arguments2IN3WTF6VectorIN6WebKit18SecurityOriginDataELm0EEEyE6decodeEPNS_15ArgumentDecoderERS6_
__ZN7CoreIPC19VectorArgumentCoderILb0EN6WebKit18SecurityOriginDataEE6decodeEPNS_15ArgumentDecoderERN3WTF6VectorIS2_Lm0EEE
__ZN3WTF6VectorIN6WebKit18SecurityOriginDataELm0EE14shrinkCapacityEm
__ZN3WTF6VectorIN6WebKit18SecurityOriginDataELm0EED2Ev
__ZN7CoreIPC18callMemberFunctionIN6WebKit31WebApplicationCacheManagerProxyEMS2_FvRKN3WTF6VectorINS1_18SecurityOriginDataELm0EEEyES6_yEEvRKNS_10Arguments2IT1_T2_EEPT_T0_
__ZN6WebKit31WebApplicationCacheManagerProxy29didGetApplicationCacheOriginsERKN3WTF6VectorINS_18SecurityOriginDataELm0EEEy
__ZN3WTF7HashMapIyNS_6RefPtrIN6WebKit15GenericCallbackIPK13OpaqueWKArrayPNS2_14ImmutableArrayEEEEENS_7IntHashIyEENS_10HashTraitsIyEENSD_ISA_EEE3setERKyRKSA_
__ZN3WTF7HashMapIyNS_6RefPtrIN6WebKit15GenericCallbackIPK13OpaqueWKArrayPNS2_14ImmutableArrayEEEEENS_7IntHashIyEENS_10HashTraitsIyEENSD_ISA_EEE4takeERKy
__ZN3WTF9HashTableIySt4pairIyNS_6RefPtrIN6WebKit15GenericCallbackIPK13OpaqueWKArrayPNS3_14ImmutableArrayEEEEEENS_18PairFirstExtractorISC_EENS_7IntHashIyEENS_14PairHashTraitsINS_10HashTraitsIyEENSI_ISB_EEEESJ_E15deallocateTableEPSC_i
__ZN3WTF9HashTableIySt4pairIyNS_6RefPtrIN6WebKit15GenericCallbackIPK13OpaqueWKArrayPNS3_14ImmutableArrayEEEEEENS_18PairFirstExtractorISC_EENS_7IntHashIyEENS_14PairHashTraitsINS_10HashTraitsIyEENSI_ISB_EEEESJ_E16lookupForWritingERKy
__ZN3WTF9HashTableIySt4pairIyNS_6RefPtrIN6WebKit15GenericCallbackIPK13OpaqueWKArrayPNS3_14ImmutableArrayEEEEEENS_18PairFirstExtractorISC_EENS_7IntHashIyEENS_14PairHashTraitsINS_10HashTraitsIyEENSI_ISB_EEEESJ_E3addIySB_NS_17HashMapTranslatorISC_SL_SG_EEEES1_INS_17HashTableIteratorIySC_SE_SG_SL_SJ_EEbERKT_RKT0_
__ZN3WTF9HashTableIySt4pairIyNS_6RefPtrIN6WebKit15GenericCallbackIPK13OpaqueWKArrayPNS3_14ImmutableArrayEEEEEENS_18PairFirstExtractorISC_EENS_7IntHashIyEENS_14PairHashTraitsINS_10HashTraitsIyEENSI_ISB_EEEESJ_E4findIyNS_22IdentityHashTranslatorIySC_SG_EEEENS_17HashTableIteratorIySC_SE_SG_SL_SJ_EERKT_
__ZN3WTF9HashTableIySt4pairIyNS_6RefPtrIN6WebKit15GenericCallbackIPK13OpaqueWKArrayPNS3_14ImmutableArrayEEEEEENS_18PairFirstExtractorISC_EENS_7IntHashIyEENS_14PairHashTraitsINS_10HashTraitsIyEENSI_ISB_EEEESJ_E6expandEv
__ZN3WTF9HashTableIySt4pairIyNS_6RefPtrIN6WebKit15GenericCallbackIPK13OpaqueWKArrayPNS3_14ImmutableArrayEEEEEENS_18PairFirstExtractorISC_EENS_7IntHashIyEENS_14PairHashTraitsINS_10HashTraitsIyEENSI_ISB_EEEESJ_E6rehashEi
__ZN3WTF9HashTableIySt4pairIyNS_6RefPtrIN6WebKit15GenericCallbackIPK13OpaqueWKArrayPNS3_14ImmutableArrayEEEEEENS_18PairFirstExtractorISC_EENS_7IntHashIyEENS_14PairHashTraitsINS_10HashTraitsIyEENSI_ISB_EEEESJ_E6removeEPSC_
__ZN6WebKit46performAPICallbackWithSecurityOriginDataVectorERKN3WTF6VectorINS_18SecurityOriginDataELm0EEEPNS_15GenericCallbackIPK13OpaqueWKArrayPNS_14ImmutableArrayEEE
__ZN6WebKit15GenericCallbackIPK13OpaqueWKArrayPNS_14ImmutableArrayEED0Ev
__ZN7CoreIPC13handleMessageIN8Messages21WebCookieManagerProxy26DidGetHostnamesWithCookiesEN6WebKit21WebCookieManagerProxyEMS5_FvRKN3WTF6VectorINS6_6StringELm0EEEyEEEvPNS_15ArgumentDecoderEPT0_T1_
__ZN7CoreIPC10Arguments2IN3WTF6VectorINS1_6StringELm0EEEyE6decodeEPNS_15ArgumentDecoderERS5_
__ZN7CoreIPC18callMemberFunctionIN6WebKit21WebCookieManagerProxyEMS2_FvRKN3WTF6VectorINS3_6StringELm0EEEyES6_yEEvRKNS_10Arguments2IT1_T2_EEPT_T0_
__ZN6WebKit21WebCookieManagerProxy26didGetHostnamesWithCookiesERKN3WTF6VectorINS1_6StringELm0EEEy
__ZN3WTF6VectorINS_6RefPtrIN6WebKit9APIObjectEEELm0EEC2Em
__ZN6WebKit23WebDatabaseManagerProxy40didReceiveWebDatabaseManagerProxyMessageEPN7CoreIPC10ConnectionENS1_9MessageIDEPNS1_15ArgumentDecoderE
__ZN7CoreIPC13handleMessageIN8Messages23WebDatabaseManagerProxy21DidGetDatabaseOriginsEN6WebKit23WebDatabaseManagerProxyEMS5_FvRKN3WTF6VectorINS6_6StringELm0EEEyEEEvPNS_15ArgumentDecoderEPT0_T1_
__ZN7CoreIPC18callMemberFunctionIN6WebKit23WebDatabaseManagerProxyEMS2_FvRKN3WTF6VectorINS3_6StringELm0EEEyES6_yEEvRKNS_10Arguments2IT1_T2_EEPT_T0_
__ZN6WebKit23WebDatabaseManagerProxy21didGetDatabaseOriginsERKN3WTF6VectorINS1_6StringELm0EEEy
__ZN6WebKit30WebKeyValueStorageManagerProxy17didReceiveMessageEPN7CoreIPC10ConnectionENS1_9MessageIDEPNS1_15ArgumentDecoderE
__ZN6WebKit30WebKeyValueStorageManagerProxy47didReceiveWebKeyValueStorageManagerProxyMessageEPN7CoreIPC10ConnectionENS1_9MessageIDEPNS1_15ArgumentDecoderE
__ZN7CoreIPC13handleMessageIN8Messages30WebKeyValueStorageManagerProxy28DidGetKeyValueStorageOriginsEN6WebKit30WebKeyValueStorageManagerProxyEMS5_FvRKN3WTF6VectorINS4_18SecurityOriginDataELm0EEEyEEEvPNS_15ArgumentDecoderEPT0_T1_
__ZN6WebKit18SecurityOriginData6decodeEPN7CoreIPC15ArgumentDecoderERS0_
__ZN7CoreIPC10Arguments3IRN3WTF6StringES3_RiE6decodeEPNS_15ArgumentDecoderERS5_
__ZN7CoreIPC10Arguments2IRN3WTF6StringES3_E6decodeEPNS_15ArgumentDecoderERS4_
__ZN3WTF6VectorIN6WebKit18SecurityOriginDataELm0EE14expandCapacityEmPKS2_
__ZN3WTF6VectorIN6WebKit18SecurityOriginDataELm0EE15reserveCapacityEm
__ZN3WTF16VectorBufferBaseIN6WebKit18SecurityOriginDataEE14allocateBufferEm
__ZN3WTF11VectorMoverILb0EN6WebKit18SecurityOriginDataEE4moveEPKS2_S5_PS2_
__ZN6WebKit18SecurityOriginDataC2ERKS0_
__ZN7CoreIPC18callMemberFunctionIN6WebKit30WebKeyValueStorageManagerProxyEMS2_FvRKN3WTF6VectorINS1_18SecurityOriginDataELm0EEEyES6_yEEvRKNS_10Arguments2IT1_T2_EEPT_T0_
__ZN6WebKit30WebKeyValueStorageManagerProxy28didGetKeyValueStorageOriginsERKN3WTF6VectorINS_18SecurityOriginDataELm0EEEy
__ZN3WTF6VectorIN6WebKit18SecurityOriginDataELm0EE6shrinkEm
__ZN7CoreIPC10Connection4sendIN8Messages13PluginProcess16GetSitesWithDataEEEbRKT_yj
__ZN7CoreIPC13handleMessageIN8Messages18PluginProcessProxy19DidGetSitesWithDataEN6WebKit18PluginProcessProxyEMS5_FvRKN3WTF6VectorINS6_6StringELm0EEEyEEEvPNS_15ArgumentDecoderEPT0_T1_
__ZN7CoreIPC18callMemberFunctionIN6WebKit18PluginProcessProxyEMS2_FvRKN3WTF6VectorINS3_6StringELm0EEEyES6_yEEvRKNS_10Arguments2IT1_T2_EEPT_T0_
__ZN6WebKit18PluginProcessProxy19didGetSitesWithDataERKN3WTF6VectorINS1_6StringELm0EEEy
__ZN6WebKit24WebPluginSiteDataManager34didGetSitesWithDataForSinglePluginERKN3WTF6VectorINS1_6StringELm0EEEy
__ZN3WTF9HashTableIySt4pairIyPN6WebKit24WebPluginSiteDataManager21GetSitesWithDataStateEENS_18PairFirstExtractorIS6_EENS_7IntHashIyEENS_14PairHashTraitsINS_10HashTraitsIyEENSC_IS5_EEEESD_E16lookupForWritingERKy
__ZN3WTF9HashTableIySt4pairIyPN6WebKit24WebPluginSiteDataManager21GetSitesWithDataStateEENS_18PairFirstExtractorIS6_EENS_7IntHashIyEENS_14PairHashTraitsINS_10HashTraitsIyEENSC_IS5_EEEESD_E3addIyS5_NS_17HashMapTranslatorIS6_SF_SA_EEEES1_INS_17HashTableIteratorIyS6_S8_SA_SF_SD_EEbERKT_RKT0_
__ZN3WTF9HashTableIySt4pairIyPN6WebKit24WebPluginSiteDataManager21GetSitesWithDataStateEENS_18PairFirstExtractorIS6_EENS_7IntHashIyEENS_14PairHashTraitsINS_10HashTraitsIyEENSC_IS5_EEEESD_E4findIyNS_22IdentityHashTranslatorIyS6_SA_EEEENS_17HashTableIteratorIyS6_S8_SA_SF_SD_EERKT_
__ZN3WTF9HashTableIySt4pairIyPN6WebKit24WebPluginSiteDataManager21GetSitesWithDataStateEENS_18PairFirstExtractorIS6_EENS_7IntHashIyEENS_14PairHashTraitsINS_10HashTraitsIyEENSC_IS5_EEEESD_E6expandEv
__ZN3WTF9HashTableIySt4pairIyPN6WebKit24WebPluginSiteDataManager21GetSitesWithDataStateEENS_18PairFirstExtractorIS6_EENS_7IntHashIyEENS_14PairHashTraitsINS_10HashTraitsIyEENSC_IS5_EEEESD_E6lookupERKy
__ZN3WTF9HashTableIySt4pairIyPN6WebKit24WebPluginSiteDataManager21GetSitesWithDataStateEENS_18PairFirstExtractorIS6_EENS_7IntHashIyEENS_14PairHashTraitsINS_10HashTraitsIyEENSC_IS5_EEEESD_E6rehashEi
__ZN3WTF9HashTableIySt4pairIyPN6WebKit24WebPluginSiteDataManager21GetSitesWithDataStateEENS_18PairFirstExtractorIS6_EENS_7IntHashIyEENS_14PairHashTraitsINS_10HashTraitsIyEENSC_IS5_EEEESD_E6removeEPS6_
__ZN6WebKit24WebPluginSiteDataManager21GetSitesWithDataState34didGetSitesWithDataForSinglePluginERKN3WTF6VectorINS2_6StringELm0EEE
_WKCookieManagerSetHTTPCookieAcceptPolicy
__ZN6WebKit21WebCookieManagerProxy25setHTTPCookieAcceptPolicyEj
__ZN6WebKit21WebCookieManagerProxy29persistHTTPCookieAcceptPolicyEj
__ZN6WebKit15WebProcessProxy4sendIN8Messages16WebCookieManager25SetHTTPCookieAcceptPolicyEEEbRKT_yj
__ZN6WebKit25WebMediaCacheManagerProxy17didReceiveMessageEPN7CoreIPC10ConnectionENS1_9MessageIDEPNS1_15ArgumentDecoderE
__ZN6WebKit25WebMediaCacheManagerProxy42didReceiveWebMediaCacheManagerProxyMessageEPN7CoreIPC10ConnectionENS1_9MessageIDEPNS1_15ArgumentDecoderE
__ZN7CoreIPC13handleMessageIN8Messages25WebMediaCacheManagerProxy29DidGetHostnamesWithMediaCacheEN6WebKit25WebMediaCacheManagerProxyEMS5_FvRKN3WTF6VectorINS6_6StringELm0EEEyEEEvPNS_15ArgumentDecoderEPT0_T1_
__ZN7CoreIPC18callMemberFunctionIN6WebKit25WebMediaCacheManagerProxyEMS2_FvRKN3WTF6VectorINS3_6StringELm0EEEyES6_yEEvRKNS_10Arguments2IT1_T2_EEPT_T0_
__ZN6WebKit25WebMediaCacheManagerProxy29didGetHostnamesWithMediaCacheERKN3WTF6VectorINS1_6StringELm0EEEy
__ZN6WebKit28WebResourceCacheManagerProxy45didReceiveWebResourceCacheManagerProxyMessageEPN7CoreIPC10ConnectionENS1_9MessageIDEPNS1_15ArgumentDecoderE
__ZN7CoreIPC13handleMessageIN8Messages28WebResourceCacheManagerProxy18DidGetCacheOriginsEN6WebKit28WebResourceCacheManagerProxyEMS5_FvRKN3WTF6VectorINS4_18SecurityOriginDataELm0EEEyEEEvPNS_15ArgumentDecoderEPT0_T1_
__ZN7CoreIPC18callMemberFunctionIN6WebKit28WebResourceCacheManagerProxyEMS2_FvRKN3WTF6VectorINS1_18SecurityOriginDataELm0EEEyES6_yEEvRKNS_10Arguments2IT1_T2_EEPT_T0_
__ZN6WebKit28WebResourceCacheManagerProxy18didGetCacheOriginsERKN3WTF6VectorINS_18SecurityOriginDataELm0EEEy
_WKCookieManagerStopObservingCookieChanges
__ZN6WebKit21WebCookieManagerProxy26stopObservingCookieChangesEv
__ZN6WebKit15WebProcessProxy4sendIN8Messages16WebCookieManager26StopObservingCookieChangesEEEbRKT_yj
__ZN6WebKit24WebPluginSiteDataManager32didGetSitesWithDataForAllPluginsERKN3WTF6VectorINS1_6StringELm0EEEy
__ZN3WTF7HashMapIyPN6WebKit24WebPluginSiteDataManager21GetSitesWithDataStateENS_7IntHashIyEENS_10HashTraitsIyEENS7_IS4_EEE4takeERKy
__ZN3WTF10PassOwnPtrIN6WebKit24WebPluginSiteDataManager21GetSitesWithDataStateEED1Ev
__ZN6WebKit24WebPluginSiteDataManager19didGetSitesWithDataERKN3WTF6VectorINS1_6StringELm0EEEy
__ZN3WTF6OwnPtrIN6WebKit24WebPluginSiteDataManager21GetSitesWithDataStateEED1Ev
-[WKView setFrame:andScrollBy:]
_WKPageFindString
__ZN6WebKit12WebPageProxy10findStringERKN3WTF6StringENS_11FindOptionsEj
__ZN6WebKit15WebProcessProxy4sendIN8Messages7WebPage10FindStringEEEbRKT_yj
__ZN7CoreIPC13handleMessageIN8Messages12WebPageProxy13DidFindStringEN6WebKit12WebPageProxyEMS5_FvRKN3WTF6StringEjEEEvPNS_15ArgumentDecoderEPT0_T1_
__ZN6WebKit12WebPageProxy13didFindStringERKN3WTF6StringEj
__ZN6WebKit13WebFindClient13didFindStringEPNS_12WebPageProxyERKN3WTF6StringEj
__ZN7CoreIPC13handleMessageIN8Messages12WebPageProxy16SetFindIndicatorEN6WebKit12WebPageProxyEMS5_FvRKN7WebCore9FloatRectERKN3WTF6VectorIS7_Lm0EEERKNS4_15ShareableBitmap6HandleEbEEEvPNS_15ArgumentDecoderEPT0_T1_
__ZN7CoreIPC10Arguments4IN7WebCore9FloatRectEN3WTF6VectorIS2_Lm0EEEN6WebKit15ShareableBitmap6HandleEbE6decodeEPNS_15ArgumentDecoderERS9_
__ZN7CoreIPC10Arguments3IN7WebCore9FloatRectEN3WTF6VectorIS2_Lm0EEEN6WebKit15ShareableBitmap6HandleEE6decodeEPNS_15ArgumentDecoderERS9_
__ZN7CoreIPC10Arguments2IN7WebCore9FloatRectEN3WTF6VectorIS2_Lm0EEEE6decodeEPNS_15ArgumentDecoderERS6_
__ZN7CoreIPC19VectorArgumentCoderILb0EN7WebCore9FloatRectEE6decodeEPNS_15ArgumentDecoderERN3WTF6VectorIS2_Lm0EEE
__ZN3WTF6VectorIN7WebCore9FloatRectELm0EE14expandCapacityEmPKS2_
__ZN3WTF6VectorIN7WebCore9FloatRectELm0EE15reserveCapacityEm
__ZN3WTF16VectorBufferBaseIN7WebCore9FloatRectEE14allocateBufferEm
__ZN3WTF11VectorMoverILb0EN7WebCore9FloatRectEE4moveEPKS2_S5_PS2_
__ZN3WTF6VectorIN7WebCore9FloatRectELm0EE14shrinkCapacityEm
__ZN7CoreIPC18callMemberFunctionIN6WebKit12WebPageProxyEMS2_FvRKN7WebCore9FloatRectERKN3WTF6VectorIS4_Lm0EEERKNS1_15ShareableBitmap6HandleEbES4_S9_SD_bEEvRKNS_10Arguments4IT1_T2_T3_T4_EEPT_T0_
__ZN6WebKit12WebPageProxy16setFindIndicatorERKN7WebCore9FloatRectERKN3WTF6VectorIS2_Lm0EEERKNS_15ShareableBitmap6HandleEb
__ZN6WebKit13FindIndicator6createERKN7WebCore9FloatRectERKN3WTF6VectorIS2_Lm0EEERKNS_15ShareableBitmap6HandleE
__ZN3WTF6VectorIN7WebCore9FloatRectELm0EEC2ERKS3_
__ZN3WTF12VectorCopierILb0EN7WebCore9FloatRectEE17uninitializedCopyEPKS2_S5_PS2_
__ZN6WebKit14PageClientImpl16setFindIndicatorEN3WTF10PassRefPtrINS_13FindIndicatorEEEb
-[WKView(Internal) _setFindIndicator:fadeOut:]
__ZN6WebKit19FindIndicatorWindow6createEP6WKView
__ZN6WebKit19FindIndicatorWindowC2EP6WKView
__ZN3WTF10PassOwnPtrIN6WebKit19FindIndicatorWindowEED1Ev
__ZN6WebKit19FindIndicatorWindow16setFindIndicatorEN3WTF10PassRefPtrINS_13FindIndicatorEEEb
__ZN6WebKit19FindIndicatorWindow11closeWindowEv
__ZNK6WebKit13FindIndicator9frameRectEv
-[WebFindIndicatorView .cxx_construct]
-[WebFindIndicatorView _initWithFindIndicator:]
__ZN3WTF9RetainPtrI20WebFindIndicatorViewEC2ENS_10AdoptNSTagEPS1_
-[WebFindIndicatorView isFlipped]
-[WebFindIndicatorView drawRect:]
__ZN6WebKit13FindIndicator4drawERN7WebCore15GraphicsContextERKNS1_7IntRectE
__ZN3WTF10RefCountedIN7WebCore9GeneratorEE5derefEv
_WKWindowBounceAnimationContextCreate
-[WebFindIndicatorWindowAnimation _initWithFindIndicatorWindow:animationDuration:animationProgressCallback:animationDidEndCallback:]
__ZN7CoreIPC10Arguments3IN7WebCore9FloatRectEN3WTF6VectorIS2_Lm0EEEN6WebKit15ShareableBitmap6HandleEED2Ev
-[WebFindIndicatorWindowAnimation setCurrentProgress:]
__ZN6WebKit19FindIndicatorWindow23bounceAnimationCallbackEd
_WKWindowBounceAnimationSetAnimationProgress
-[WebFindIndicatorWindowAnimation animationDidEnd:]
__ZN6WebKit19FindIndicatorWindow21bounceAnimationDidEndEv
_WKWindowBounceAnimationContextDestroy
__ZN3WTF10RefCountedIN6WebKit13FindIndicatorEE5derefEv
__ZN3WTF9RetainPtrI31WebFindIndicatorWindowAnimationEaSESt9nullptr_t
__ZN3WTF9RetainPtrI8NSWindowEaSESt9nullptr_t
-[WebFindIndicatorView .cxx_destruct]
__ZN6WebKit13FindIndicatorD1Ev
__ZN6WebKit13FindIndicatorD2Ev
__ZN6WebKit19FindIndicatorWindowD1Ev
__ZN6WebKit19FindIndicatorWindowD2Ev
__ZN7CoreIPC13handleMessageIN8Messages12WebPageProxy19DidFailToFindStringEN6WebKit12WebPageProxyEMS5_FvRKN3WTF6StringEEEEvPNS_15ArgumentDecoderEPT0_T1_
__ZN6WebKit12WebPageProxy19didFailToFindStringERKN3WTF6StringE
__ZN6WebKit13WebFindClient19didFailToFindStringEPNS_12WebPageProxyERKN3WTF6StringE
_WKPageHideFindUI
__ZN6WebKit12WebPageProxy10hideFindUIEv
__ZN6WebKit15WebProcessProxy4sendIN8Messages7WebPage10HideFindUIEEEbRKT_yj
-[WKView attributedSubstringForProposedRange:actualRange:]
-[WKView _executeSavedKeypressCommands]
__ZN6WebKit12WebPageProxy31getAttributedSubstringFromRangeEyyRNS_16AttributedStringE
__ZN7CoreIPC10Connection8sendSyncIN8Messages7WebPage31GetAttributedSubstringFromRangeEEEbRKT_RKNS5_5ReplyEyd
__ZN6WebKit16AttributedString6decodeEPN7CoreIPC15ArgumentDecoderERS0_
__ZN7CoreIPC6decodeEPNS_15ArgumentDecoderERN3WTF9RetainPtrI18NSAttributedStringEE
__ZN7CoreIPC6decodeEPNS_15ArgumentDecoderERN3WTF9RetainPtrI8NSStringEE
__ZN3WTF9RetainPtrI25NSMutableAttributedStringEC2ENS_10AdoptNSTagEPS1_
__ZN7CoreIPC6decodeEPNS_15ArgumentDecoderERN3WTF9RetainPtrI12NSDictionaryEE
__ZN7CoreIPC6decodeEPNS_15ArgumentDecoderERN3WTF9RetainPtrI6NSFontEE
__ZN7CoreIPC6decodeEPNS_15ArgumentDecoderERN3WTF9RetainPtrI8NSNumberEE
__ZN7CoreIPC6decodeEPNS_15ArgumentDecoderERN3WTF9RetainPtrI7NSColorEE
__ZN7CoreIPC13ArgumentCoderIN7WebCore5ColorEE6decodeEPNS_15ArgumentDecoderERS2_
-[WKView selectedRange]
__ZN6WebKit12WebPageProxy16getSelectedRangeERyS1_
__ZN7CoreIPC10Connection8sendSyncIN8Messages7WebPage16GetSelectedRangeEEEbRKT_RKNS5_5ReplyEyd
-[WKView firstRectForCharacterRange:actualRange:]
__ZN6WebKit12WebPageProxy26firstRectForCharacterRangeEyy
__ZN7CoreIPC10Connection8sendSyncIN8Messages7WebPage26FirstRectForCharacterRangeEEEbRKT_RKNS5_5ReplyEyd
__ZN6WebKit15GenericCallbackIPK14OpaqueWKStringPN3WTF10StringImplEE10invalidateEv
_WKPageSetPageZoomFactor
__ZN6WebKit12WebPageProxy17setPageZoomFactorEd
__ZN6WebKit15WebProcessProxy4sendIN8Messages7WebPage17SetPageZoomFactorEEEbRKT_yj
_WKPageSupportsTextZoom
__ZNK6WebKit12WebPageProxy16supportsTextZoomEv
_WKPageGetTextZoomFactor
_WKPageSetPageAndTextZoomFactors
__ZN6WebKit12WebPageProxy25setPageAndTextZoomFactorsEdd
_WKPageGetSourceForFrame
__ZN6WebKit12WebPageProxy17getSourceForFrameEPNS_13WebFrameProxyEN3WTF10PassRefPtrINS_15GenericCallbackIPK14OpaqueWKStringPNS3_10StringImplEEEEE
__ZN6WebKit15WebProcessProxy4sendIN8Messages7WebPage17GetSourceForFrameEEEbRKT_yj
_WKPageUseFixedLayout
_WKDoubleCreate
_WKPageSetScaleFactor
__ZN6WebKit12WebPageProxy12scaleWebViewEdRKN7WebCore8IntPointE
__ZN6WebKit15WebProcessProxy4sendIN8Messages7WebPage12ScaleWebViewEEEbRKT_yj
_WKBackForwardListGetForwardItem
-[WKView setDrawsTransparentBackground:]
__ZN6WebKit12WebPageProxy29setDrawsTransparentBackgroundEb
__ZN6WebKit15WebProcessProxy4sendIN8Messages7WebPage29SetDrawsTransparentBackgroundEEEbRKT_yj
_WKPageGetInspector
__ZN6WebKit12WebPageProxy9inspectorEv
__ZN6WebKit17WebInspectorProxyC1EPNS_12WebPageProxyE
_WKInspectorIsDebuggingJavaScript
_WKInspectorIsProfilingJavaScript
_WKPreferencesGetWebGLEnabled
__ZNK6WebKit14WebPreferences12webGLEnabledEv
_WKContextGetCacheModel
_WKPreferencesGetAuthorAndUserStylesEnabled
__ZNK6WebKit14WebPreferences26authorAndUserStylesEnabledEv
_WKPreferencesGetNeedsSiteSpecificQuirks
__ZNK6WebKit14WebPreferences23needsSiteSpecificQuirksEv
_WKDrawFocusRing
_WKPageCopyCustomUserAgent
-[WKView _windowDidMiniaturize:]
_WKFrameCopyTitle
__ZN6WebKit17WebInspectorProxy10invalidateEv
__ZN6WebKit17WebInspectorProxy8didCloseEv
__ZN6WebKit17WebInspectorProxy16platformDidCloseEv
__ZN6WebKit17WebInspectorProxyD0Ev
_WKStringCreateWithUTF8CString
__ZN6WebKit9WebString20createFromUTF8StringEPKc
_WKContextSetDatabaseDirectory
__WKContextSetAdditionalPluginsDirectory
__ZN6WebKit10WebContext29setAdditionalPluginsDirectoryERKN3WTF6StringE
__ZN6WebKit15PluginInfoStore31setAdditionalPluginsDirectoriesERKN3WTF6VectorINS1_6StringELm0EEE
__ZN3WTF6VectorIcLm128EE6appendIcEEvPKT_m
__ZN3WTF12VectorBufferIcLm128EE16deallocateBufferEPc
__ZN6WebKit12WebPageProxy15setInitialFocusEb
__ZN6WebKit15WebProcessProxy4sendIN8Messages7WebPage15SetInitialFocusEEEbRKT_yj
_WKPreferencesSetFontSmoothingLevel
__ZN6WebKit14WebPreferences21setFontSmoothingLevelERKj
_WKPreferencesSetXSSAuditorEnabled
__ZN6WebKit14WebPreferences20setXSSAuditorEnabledERKb
_WKPreferencesSetJavaScriptCanAccessClipboard
__ZN6WebKit14WebPreferences31setJavaScriptCanAccessClipboardERKb
_WKURLIsEqual
_WKStringIsEqualToUTF8CString
__ZN6WebKit9WebString17equalToUTF8StringEPKc
_WKStringGetMaximumUTF8CStringSize
_WKStringGetUTF8CString
__ZN6WebKit9WebString14getUTF8CStringEPcm
_WKInspectorClose
__ZN6WebKit17WebInspectorProxy5closeEv
__ZN6WebKit15WebProcessProxy4sendIN8Messages12WebInspector5CloseEEEbRKT_yj
__ZN6WebKit15PluginInfoStore22findPluginForExtensionERKN3WTF6StringERS2_
__ZSt6__findIPKN3WTF6StringES1_ET_S4_S4_RKT0_St26random_access_iterator_tag
__ZN6WebKit12WebPageGroupD0Ev
__ZN6WebKit14WebPreferences15removePageGroupEPNS_12WebPageGroupE
__ZNK3WTF9HashTableIPN6WebKit12WebPageGroupES3_NS_17IdentityExtractorIS3_EENS_7PtrHashIS3_EENS_10HashTraitsIS3_EES9_E4findIS3_NS_22IdentityHashTranslatorIS3_S3_S7_EEEENS_22HashTableConstIteratorIS3_S3_S5_S7_S9_S9_EERKT_
__ZN3WTF9HashTableIPN6WebKit12WebPageGroupES3_NS_17IdentityExtractorIS3_EENS_7PtrHashIS3_EENS_10HashTraitsIS3_EES9_E6removeEPS3_
__ZN6WebKit14WebPreferencesD0Ev
__ZN3WTF9HashTableIPN6WebKit19WebEditCommandProxyES3_NS_17IdentityExtractorIS3_EENS_7PtrHashIS3_EENS_10HashTraitsIS3_EES9_E16lookupForWritingERKS3_
__ZN3WTF9HashTableIPN6WebKit19WebEditCommandProxyES3_NS_17IdentityExtractorIS3_EENS_7PtrHashIS3_EENS_10HashTraitsIS3_EES9_E4findIS3_NS_22IdentityHashTranslatorIS3_S3_S7_EEEENS_17HashTableIteratorIS3_S3_S5_S7_S9_S9_EERKT_
__ZN7CoreIPC13handleMessageIN8Messages12WebPageProxy11CanUndoRedoEN6WebKit12WebPageProxyEMS5_FvjRbEEEvPNS_15ArgumentDecoderEPNS_15ArgumentEncoderEPT0_T1_
__ZN7CoreIPC18callMemberFunctionIN6WebKit12WebPageProxyEMS2_FvjRbEjbEEvRKNS_10Arguments1IT1_EERNS6_IT2_EEPT_T0_
__ZN6WebKit12WebPageProxy11canUndoRedoEjRb
__ZN6WebKit14PageClientImpl11canUndoRedoENS_12WebPageProxy10UndoOrRedoE
__ZN7CoreIPC13handleMessageIN8Messages12WebPageProxy15ExecuteUndoRedoEN6WebKit12WebPageProxyEMS5_FvjRbEEEvPNS_15ArgumentDecoderEPNS_15ArgumentEncoderEPT0_T1_
__ZN6WebKit12WebPageProxy15executeUndoRedoEjRb
__ZN6WebKit14PageClientImpl15executeUndoRedoENS_12WebPageProxy10UndoOrRedoE
-[WKEditorUndoTargetObjC undoEditing:]
-[WKEditCommandObjC command]
__ZN6WebKit19WebEditCommandProxy7unapplyEv
__ZN6WebKit15WebProcessProxy4sendIN8Messages7WebPage18UnapplyEditCommandEEEbRKT_yj
__ZN7CoreIPC13handleMessageIN8Messages12WebPageProxy10PrintFrameEN6WebKit12WebPageProxyEMS5_FvyEEEvPNS_15ArgumentDecoderEPNS_15ArgumentEncoderEPT0_T1_
__ZN6WebKit12WebPageProxy10printFrameEy
__ZN6WebKit11WebUIClient10printFrameEPNS_12WebPageProxyEPNS_13WebFrameProxyE
-[WKEditorUndoTargetObjC redoEditing:]
__ZN6WebKit19WebEditCommandProxy7reapplyEv
__ZN6WebKit15WebProcessProxy4sendIN8Messages7WebPage18ReapplyEditCommandEEEbRKT_yj
__ZN7CoreIPC13handleMessageIN8Messages12WebPageProxy18RunJavaScriptAlertEN6WebKit12WebPageProxyEMS5_FvyRKN3WTF6StringEEEEvPNS_15ArgumentDecoderEPNS_15ArgumentEncoderEPT0_T1_
__ZN7CoreIPC18callMemberFunctionIN6WebKit12WebPageProxyEMS2_FvyRKN3WTF6StringEEyS4_EEvRKNS_10Arguments2IT1_T2_EERNS_10Arguments0EPT_T0_
__ZN6WebKit12WebPageProxy18runJavaScriptAlertEyRKN3WTF6StringE
__ZN6WebKit11WebUIClient18runJavaScriptAlertEPNS_12WebPageProxyERKN3WTF6StringEPNS_13WebFrameProxyE
__ZN7CoreIPC10Connection27exceptionSourceEventHandlerEv
__Z17machExceptionPortv
_WKPageGetContext
_WKPageGetPageGroup
__ZN7CoreIPC13handleMessageIN8Messages12WebPageProxy19GetMenuBarIsVisibleEN6WebKit12WebPageProxyEMS5_FvRbEEEvPNS_15ArgumentDecoderEPNS_15ArgumentEncoderEPT0_T1_
__ZN6WebKit12WebPageProxy19getMenuBarIsVisibleERb
__ZN6WebKit11WebUIClient16menuBarIsVisibleEPNS_12WebPageProxyE
__ZN7CoreIPC13handleMessageIN8Messages12WebPageProxy20RunJavaScriptConfirmEN6WebKit12WebPageProxyEMS5_FvyRKN3WTF6StringERbEEEvPNS_15ArgumentDecoderEPNS_15ArgumentEncoderEPT0_T1_
__ZN7CoreIPC18callMemberFunctionIN6WebKit12WebPageProxyEMS2_FvyRKN3WTF6StringERbEyS4_bEEvRKNS_10Arguments2IT1_T2_EERNS_10Arguments1IT3_EEPT_T0_
__ZN6WebKit12WebPageProxy20runJavaScriptConfirmEyRKN3WTF6StringERb
__ZN6WebKit11WebUIClient20runJavaScriptConfirmEPNS_12WebPageProxyERKN3WTF6StringEPNS_13WebFrameProxyE
__ZN7CoreIPC13handleMessageIN8Messages12WebPageProxy19RunJavaScriptPromptEN6WebKit12WebPageProxyEMS5_FvyRKN3WTF6StringES9_RS7_EEEvPNS_15ArgumentDecoderEPNS_15ArgumentEncoderEPT0_T1_
__ZN7CoreIPC18callMemberFunctionIN6WebKit12WebPageProxyEMS2_FvyRKN3WTF6StringES6_RS4_EyS4_S4_S4_EEvRKNS_10Arguments3IT1_T2_T3_EERNS_10Arguments1IT4_EEPT_T0_
__ZN6WebKit12WebPageProxy19runJavaScriptPromptEyRKN3WTF6StringES4_RS2_
__ZN6WebKit11WebUIClient19runJavaScriptPromptEPNS_12WebPageProxyERKN3WTF6StringES6_PNS_13WebFrameProxyE
__ZN7CoreIPC13handleMessageIN8Messages12WebPageProxy21GetToolbarsAreVisibleEN6WebKit12WebPageProxyEMS5_FvRbEEEvPNS_15ArgumentDecoderEPNS_15ArgumentEncoderEPT0_T1_
__ZN6WebKit12WebPageProxy21getToolbarsAreVisibleERb
__ZN6WebKit11WebUIClient18toolbarsAreVisibleEPNS_12WebPageProxyE
__ZN7CoreIPC13handleMessageIN8Messages12WebPageProxy9TakeFocusEN6WebKit12WebPageProxyEMS5_FvjEEEvPNS_15ArgumentDecoderEPT0_T1_
__ZN6WebKit12WebPageProxy9takeFocusEj
__ZN6WebKit11WebUIClient9takeFocusEPNS_12WebPageProxyEj
__ZN6WebKit12WebPageProxy16backForwardClearEv
__ZN6WebKit18WebBackForwardList5clearEv
__ZN7CoreIPC13handleMessageIN8Messages12WebPageProxy25ShouldInterruptJavaScriptEN6WebKit12WebPageProxyEMS5_FvRbEEEvPNS_15ArgumentDecoderEPNS_15ArgumentEncoderEPT0_T1_
__ZN6WebKit12WebPageProxy25shouldInterruptJavaScriptERb
__ZN6WebKit11WebUIClient25shouldInterruptJavaScriptEPNS_12WebPageProxyE
__ZN7CoreIPC13handleMessageIN8Messages12WebPageProxy21ExceededDatabaseQuotaEN6WebKit12WebPageProxyEMS5_FvyRKN3WTF6StringES9_S9_yyyyRyEEEvPNS_15ArgumentDecoderEPNS_15ArgumentEncoderEPT0_T1_
__ZN7CoreIPC10Arguments8IyN3WTF6StringES2_S2_yyyyE6decodeEPNS_15ArgumentDecoderERS3_
__ZN7CoreIPC10Arguments7IyN3WTF6StringES2_S2_yyyE6decodeEPNS_15ArgumentDecoderERS3_
__ZN7CoreIPC10Arguments6IyN3WTF6StringES2_S2_yyE6decodeEPNS_15ArgumentDecoderERS3_
__ZN7CoreIPC10Arguments5IyN3WTF6StringES2_S2_yE6decodeEPNS_15ArgumentDecoderERS3_
__ZN7CoreIPC18callMemberFunctionIN6WebKit12WebPageProxyEMS2_FvyRKN3WTF6StringES6_S6_yyyyRyEyS4_S4_S4_yyyyyEEvRKNS_10Arguments8IT1_T2_T3_T4_T5_T6_T7_T8_EERNS_10Arguments1IT9_EEPT_T0_
__ZN6WebKit12WebPageProxy21exceededDatabaseQuotaEyRKN3WTF6StringES4_S4_yyyyRy
__ZN6WebKit11WebUIClient21exceededDatabaseQuotaEPNS_12WebPageProxyEPNS_13WebFrameProxyEPNS_17WebSecurityOriginERKN3WTF6StringESA_yyyy
__ZN7CoreIPC13handleMessageIN8Messages23WebDatabaseManagerProxy15DidModifyOriginEN6WebKit23WebDatabaseManagerProxyEMS5_FvRKN3WTF6StringEEEEvPNS_15ArgumentDecoderEPT0_T1_
__ZN7CoreIPC18callMemberFunctionIN6WebKit23WebDatabaseManagerProxyEMS2_FvRKN3WTF6StringEES4_EEvRKNS_10Arguments1IT1_EEPT_T0_
__ZN6WebKit23WebDatabaseManagerProxy15didModifyOriginERKN3WTF6StringE
__ZN6WebKit29WebDatabaseManagerProxyClient15didModifyOriginEPNS_23WebDatabaseManagerProxyEPNS_17WebSecurityOriginE
__ZN7CoreIPC13handleMessageIN8Messages23WebDatabaseManagerProxy17DidModifyDatabaseEN6WebKit23WebDatabaseManagerProxyEMS5_FvRKN3WTF6StringES9_EEEvPNS_15ArgumentDecoderEPT0_T1_
__ZN7CoreIPC18callMemberFunctionIN6WebKit23WebDatabaseManagerProxyEMS2_FvRKN3WTF6StringES6_ES4_S4_EEvRKNS_10Arguments2IT1_T2_EEPT_T0_
__ZN6WebKit23WebDatabaseManagerProxy17didModifyDatabaseERKN3WTF6StringES4_
__ZN6WebKit29WebDatabaseManagerProxyClient17didModifyDatabaseEPNS_23WebDatabaseManagerProxyEPNS_17WebSecurityOriginERKN3WTF6StringE
_WKInspectorShow
__ZN6WebKit17WebInspectorProxy4showEv
__ZN6WebKit15WebProcessProxy4sendIN8Messages12WebInspector4ShowEEEbRKT_yj
__ZN6WebKit17WebInspectorProxy38didReceiveSyncWebInspectorProxyMessageEPN7CoreIPC10ConnectionENS1_9MessageIDEPNS1_15ArgumentDecoderEPNS1_15ArgumentEncoderE
__ZN7CoreIPC13handleMessageIN8Messages17WebInspectorProxy19CreateInspectorPageEN6WebKit17WebInspectorProxyEMS5_FvRyRNS4_25WebPageCreationParametersEEEEvPNS_15ArgumentDecoderEPNS_15ArgumentEncoderEPT0_T1_
__ZN7CoreIPC18callMemberFunctionIN6WebKit17WebInspectorProxyEMS2_FvRyRNS1_25WebPageCreationParametersEEyS4_EEvRKNS_10Arguments0ERNS_10Arguments2IT1_T2_EEPT_T0_
__ZN6WebKit17WebInspectorProxy19createInspectorPageERyRNS_25WebPageCreationParametersE
__ZN6WebKit17WebInspectorProxy27platformCreateInspectorPageEv
__ZNK6WebKit17WebInspectorProxy16inspectorPageURLEv
__ZN6WebKit17WebInspectorProxy34didReceiveWebInspectorProxyMessageEPN7CoreIPC10ConnectionENS1_9MessageIDEPNS1_15ArgumentDecoderE
__ZN6WebKit17WebInspectorProxy12bringToFrontEv
__ZN6WebKit17WebInspectorProxy20platformBringToFrontEv
__ZN6WebKit17WebInspectorProxy20didLoadInspectorPageEv
__ZN6WebKit17WebInspectorProxy12platformOpenEv
-[WebInspectorProxyObjCAdapter initWithWebInspectorProxy:]
_WKNSWindowMakeBottomCornersSquare
__ZN7CoreIPC13handleMessageIN8Messages17WebInspectorProxy19InspectedURLChangedEN6WebKit17WebInspectorProxyEMS5_FvRKN3WTF6StringEEEEvPNS_15ArgumentDecoderEPT0_T1_
__ZN7CoreIPC18callMemberFunctionIN6WebKit17WebInspectorProxyEMS2_FvRKN3WTF6StringEES4_EEvRKNS_10Arguments1IT1_EEPT_T0_
__ZN6WebKit17WebInspectorProxy19inspectedURLChangedERKN3WTF6StringE
__ZN6WebKit17WebInspectorProxy27platformInspectedURLChangedERKN3WTF6StringE
__ZN6WebKit12WebPageProxy33shouldDelayWindowOrderingForEventERKNS_13WebMouseEventE
__ZN7CoreIPC10Connection8sendSyncIN8Messages7WebPage30ShouldDelayWindowOrderingEventEEEbRKT_RKNS5_5ReplyEyd
_WKInitializeMaximumHTTPConnectionCountPerHost
__ZN7CoreIPC13handleMessageIN8Messages12WebPageProxy17GetGuessesForWordEN6WebKit12WebPageProxyEMS5_FvRKN3WTF6StringES9_RNS6_6VectorIS7_Lm0EEEEEEvPNS_15ArgumentDecoderEPNS_15ArgumentEncoderEPT0_T1_
__ZN7CoreIPC18callMemberFunctionIN6WebKit12WebPageProxyEMS2_FvRKN3WTF6StringES6_RNS3_6VectorIS4_Lm0EEEES4_S4_S8_EEvRKNS_10Arguments2IT1_T2_EERNS_10Arguments1IT3_EEPT_T0_
__ZN6WebKit12WebPageProxy17getGuessesForWordERKN3WTF6StringES4_RNS1_6VectorIS2_Lm0EEE
__ZN6WebKit11TextChecker17getGuessesForWordExRKN3WTF6StringES4_RNS1_6VectorIS2_Lm0EEE
_WKPreferencesGetPageCacheEnabled
__ZNK6WebKit14WebPreferences13usesPageCacheEv
_WKPreferencesGetWebArchiveDebugModeEnabled
__ZNK6WebKit14WebPreferences26webArchiveDebugModeEnabledEv
_WKPreferencesGetLocalFileContentSniffingEnabled
__ZNK6WebKit14WebPreferences31localFileContentSniffingEnabledEv
_WKPreferencesGetAcceleratedCompositingEnabled
__ZNK6WebKit14WebPreferences29acceleratedCompositingEnabledEv
_WKPreferencesGetAcceleratedDrawingEnabled
__ZNK6WebKit14WebPreferences25acceleratedDrawingEnabledEv
_WKPreferencesGetCanvasUsesAcceleratedDrawing
__ZNK6WebKit14WebPreferences28canvasUsesAcceleratedDrawingEv
_WKPreferencesGetCompositingBordersVisible
__ZNK6WebKit14WebPreferences25compositingBordersVisibleEv
_WKPreferencesGetCompositingRepaintCountersVisible
__ZNK6WebKit14WebPreferences33compositingRepaintCountersVisibleEv
_WKPreferencesGetAVFoundationEnabled
__ZNK6WebKit14WebPreferences21isAVFoundationEnabledEv
_WKPreferencesGetFullScreenEnabled
__ZNK6WebKit14WebPreferences17fullScreenEnabledEv
_WKPreferencesGetPaginateDuringLayoutEnabled
__ZNK6WebKit14WebPreferences27paginateDuringLayoutEnabledEv
_WKPreferencesGetDOMPasteAllowed
__ZNK6WebKit14WebPreferences15domPasteAllowedEv
_WKCopyNSURLResponseStatusLine
_WKMakeScrollbarPainter
_WKScrollbarThickness
_WKScrollbarPainterSetDelegate
_WKSetPainterForPainterController
_WKScrollbarPainterUsesOverlayScrollers
_WKScrollbarMinimumThumbLength
_WKSetNSURLConnectionDefersCallbacks
_WKContentAreaWillPaint
_WKCreateCTTypesetterWithUniCharProviderAndOptions
_WKGetCFURLResponseHTTPResponse
-[WKView paste:]
_WKBackForwardListItemCopyTitle
_WKPageReload
__ZN6WebKit12WebPageProxy6reloadEb
__ZN6WebKit15WebProcessProxy4sendIN8Messages7WebPage6ReloadEEEbRKT_yj
_WKFrameGetResourceData
__ZN6WebKit13WebFrameProxy15getResourceDataEPNS_6WebURLEN3WTF10PassRefPtrINS_15GenericCallbackIPK12OpaqueWKDataPNS_7WebDataEEEEE
__ZN6WebKit12WebPageProxy24getResourceDataFromFrameEPNS_13WebFrameProxyEPNS_6WebURLEN3WTF10PassRefPtrINS_15GenericCallbackIPK12OpaqueWKDataPNS_7WebDataEEEEE
__ZN3WTF7HashMapIyNS_6RefPtrIN6WebKit15GenericCallbackIPK12OpaqueWKDataPNS2_7WebDataEEEEENS_7IntHashIyEENS_10HashTraitsIyEENSD_ISA_EEE3setERKyRKSA_
__ZN3WTF7HashMapIyNS_6RefPtrIN6WebKit15GenericCallbackIPK12OpaqueWKDataPNS2_7WebDataEEEEENS_7IntHashIyEENS_10HashTraitsIyEENSD_ISA_EEE4takeERKy
__ZN3WTF17HashMapTranslatorISt4pairIyNS_6RefPtrIN6WebKit15GenericCallbackIPK12OpaqueWKDataPNS3_7WebDataEEEEEENS_14PairHashTraitsINS_10HashTraitsIyEENSE_ISB_EEEENS_7IntHashIyEEE9translateERSC_RKyRKSB_
__ZN6WebKit15WebProcessProxy4sendIN8Messages7WebPage24GetResourceDataFromFrameEEEbRKT_yj
__ZNK7CoreIPC10Arguments3IyRKN3WTF6StringEyE6encodeEPNS_15ArgumentEncoderE
__ZN7CoreIPC13handleMessageIN8Messages12WebPageProxy12DataCallbackEN6WebKit12WebPageProxyEMS5_FvRKNS_13DataReferenceEyEEEvPNS_15ArgumentDecoderEPT0_T1_
__ZN7CoreIPC10Arguments2INS_13DataReferenceEyE6decodeEPNS_15ArgumentDecoderERS2_
__ZN7CoreIPC18callMemberFunctionIN6WebKit12WebPageProxyEMS2_FvRKNS_13DataReferenceEyES3_yEEvRKNS_10Arguments2IT1_T2_EEPT_T0_
__ZN6WebKit12WebPageProxy12dataCallbackERKN7CoreIPC13DataReferenceEy
__ZN3WTF9HashTableIySt4pairIyNS_6RefPtrIN6WebKit15GenericCallbackIPK12OpaqueWKDataPNS3_7WebDataEEEEEENS_18PairFirstExtractorISC_EENS_7IntHashIyEENS_14PairHashTraitsINS_10HashTraitsIyEENSI_ISB_EEEESJ_E15deallocateTableEPSC_i
__ZN3WTF9HashTableIySt4pairIyNS_6RefPtrIN6WebKit15GenericCallbackIPK12OpaqueWKDataPNS3_7WebDataEEEEEENS_18PairFirstExtractorISC_EENS_7IntHashIyEENS_14PairHashTraitsINS_10HashTraitsIyEENSI_ISB_EEEESJ_E16lookupForWritingERKy
__ZN3WTF9HashTableIySt4pairIyNS_6RefPtrIN6WebKit15GenericCallbackIPK12OpaqueWKDataPNS3_7WebDataEEEEEENS_18PairFirstExtractorISC_EENS_7IntHashIyEENS_14PairHashTraitsINS_10HashTraitsIyEENSI_ISB_EEEESJ_E3addIySB_NS_17HashMapTranslatorISC_SL_SG_EEEES1_INS_17HashTableIteratorIySC_SE_SG_SL_SJ_EEbERKT_RKT0_
__ZN3WTF9HashTableIySt4pairIyNS_6RefPtrIN6WebKit15GenericCallbackIPK12OpaqueWKDataPNS3_7WebDataEEEEEENS_18PairFirstExtractorISC_EENS_7IntHashIyEENS_14PairHashTraitsINS_10HashTraitsIyEENSI_ISB_EEEESJ_E4findIyNS_22IdentityHashTranslatorIySC_SG_EEEENS_17HashTableIteratorIySC_SE_SG_SL_SJ_EERKT_
__ZN3WTF9HashTableIySt4pairIyNS_6RefPtrIN6WebKit15GenericCallbackIPK12OpaqueWKDataPNS3_7WebDataEEEEEENS_18PairFirstExtractorISC_EENS_7IntHashIyEENS_14PairHashTraitsINS_10HashTraitsIyEENSI_ISB_EEEESJ_E6expandEv
__ZN3WTF9HashTableIySt4pairIyNS_6RefPtrIN6WebKit15GenericCallbackIPK12OpaqueWKDataPNS3_7WebDataEEEEEENS_18PairFirstExtractorISC_EENS_7IntHashIyEENS_14PairHashTraitsINS_10HashTraitsIyEENSI_ISB_EEEESJ_E6rehashEi
__ZN3WTF9HashTableIySt4pairIyNS_6RefPtrIN6WebKit15GenericCallbackIPK12OpaqueWKDataPNS3_7WebDataEEEEEENS_18PairFirstExtractorISC_EENS_7IntHashIyEENS_14PairHashTraitsINS_10HashTraitsIyEENSI_ISB_EEEESJ_E6removeEPSC_
__ZN6WebKit15GenericCallbackIPK12OpaqueWKDataPNS_7WebDataEED0Ev
__ZN6WebKit15WebProcessProxy4sendIN8Messages7WebPage34DidSelectItemFromActiveContextMenuEEEbRKT_yj
__ZNK6WebKit22WebContextMenuItemData6encodeEPN7CoreIPC15ArgumentEncoderE
__ZN7CoreIPC13ArgumentCoderINS_10Arguments6IRKjS3_RKN3WTF6StringERKbS9_RKNS4_6VectorIN6WebKit22WebContextMenuItemDataELm0EEEEEE6encodeEPNS_15ArgumentEncoderERKSG_
__ZNK7CoreIPC10Arguments5IRKjS2_RKN3WTF6StringERKbS8_E6encodeEPNS_15ArgumentEncoderE
__ZNK7CoreIPC10Arguments3IRKjS2_RKN3WTF6StringEE6encodeEPNS_15ArgumentEncoderE
__ZN7CoreIPC15ArgumentEncoder6encodeIN3WTF6VectorIN6WebKit22WebContextMenuItemDataELm0EEEEEvRKT_
__ZN7CoreIPC19VectorArgumentCoderILb0EN6WebKit22WebContextMenuItemDataEE6encodeEPNS_15ArgumentEncoderERKN3WTF6VectorIS2_Lm0EEE
__ZN7CoreIPC21handleMessageVariadicIN8Messages12WebPageProxy29DidRunInsecureContentForFrameEN6WebKit12WebPageProxyEMS5_FvyPNS_15ArgumentDecoderEEEEvS7_PT0_T1_
__ZN6WebKit12WebPageProxy29didRunInsecureContentForFrameEyPN7CoreIPC15ArgumentDecoderE
__ZN6WebKit15WebLoaderClient29didRunInsecureContentForFrameEPNS_12WebPageProxyEPNS_13WebFrameProxyEPNS_9APIObjectE
__ZN7CoreIPC21handleMessageVariadicIN8Messages12WebPageProxy33DidDisplayInsecureContentForFrameEN6WebKit12WebPageProxyEMS5_FvyPNS_15ArgumentDecoderEEEEvS7_PT0_T1_
__ZN6WebKit12WebPageProxy33didDisplayInsecureContentForFrameEyPN7CoreIPC15ArgumentDecoderE
__ZN6WebKit15WebLoaderClient33didDisplayInsecureContentForFrameEPNS_12WebPageProxyEPNS_13WebFrameProxyEPNS_9APIObjectE
_WKCopyDefaultSearchProviderDisplayName
_WKPageGetFocusedFrame
-[WKView printOperationWithPrintInfo:forFrame:]
-[WKPrintingView .cxx_construct]
-[WKPrintingView initWithFrameProxy:view:]
__ZN3WTF9RetainPtrI14WKPrintingViewEC2ENS_10AdoptNSTagEPS1_
-[WKView canChangeFrameLayout:]
-[WKPrintingView knowsPageRange:]
-[WKPrintingView _suspendAutodisplay]
-[WKPrintingView _setAutodisplay:]
-[WKPrintingView _adjustPrintingMarginsForHeaderAndFooter]
__ZN6WebKit12WebPageProxy12headerHeightEPNS_13WebFrameProxyE
__ZN6WebKit11WebUIClient12headerHeightEPNS_12WebPageProxyEPNS_13WebFrameProxyE
__ZN6WebKit12WebPageProxy12footerHeightEPNS_13WebFrameProxyE
__ZN6WebKit11WebUIClient12footerHeightEPNS_12WebPageProxyEPNS_13WebFrameProxyE
-[WKPrintingView _hasPageRects]
-[WKPrintingView _askPageToComputePageRects]
__ZN6WebKit9PrintInfoC1EP11NSPrintInfo
__ZN6WebKit9PrintInfoC2EP11NSPrintInfo
__ZN6WebKit12WebPageProxy23computePagesForPrintingEPNS_13WebFrameProxyERKNS_9PrintInfoEN3WTF10PassRefPtrINS_21ComputedPagesCallbackEEE
__ZN3WTF7HashMapIyNS_6RefPtrIN6WebKit21ComputedPagesCallbackEEENS_7IntHashIyEENS_10HashTraitsIyEENS7_IS4_EEE3setERKyRKS4_
__ZN3WTF17HashMapTranslatorISt4pairIyNS_6RefPtrIN6WebKit21ComputedPagesCallbackEEEENS_14PairHashTraitsINS_10HashTraitsIyEENS8_IS5_EEEENS_7IntHashIyEEE9translateERS6_RKyRKS5_
__ZN6WebKit15WebProcessProxy4sendIN8Messages7WebPage23ComputePagesForPrintingEEEbRKT_yj
__ZNK7CoreIPC10Arguments3IyRKN6WebKit9PrintInfoEyE6encodeEPNS_15ArgumentEncoderE
__ZNK6WebKit9PrintInfo6encodeEPN7CoreIPC15ArgumentEncoderE
__ZNK7CoreIPC10Arguments3IRKfS2_S2_E6encodeEPNS_15ArgumentEncoderE
-[WKPrintingView beginDocument]
-[WKPrintingView endDocument]
__ZN3WTF9HashTableIN7WebCore7IntRectESt4pairIS2_NS_6VectorIhLm0EEEENS_18PairFirstExtractorIS6_EENS_7IntHashIS2_EENS_14PairHashTraitsINS_10HashTraitsIS2_EENSC_IS5_EEEESD_E13allocateTableEi
__ZN3WTF9HashTableIN7WebCore7IntRectESt4pairIS2_NS_6VectorIhLm0EEEENS_18PairFirstExtractorIS6_EENS_7IntHashIS2_EENS_14PairHashTraitsINS_10HashTraitsIS2_EENSC_IS5_EEEESD_E13isEmptyBucketERKS6_
__ZN3WTF9HashTableIN7WebCore7IntRectESt4pairIS2_NS_6VectorIhLm0EEEENS_18PairFirstExtractorIS6_EENS_7IntHashIS2_EENS_14PairHashTraitsINS_10HashTraitsIS2_EENSC_IS5_EEEESD_E15deallocateTableEPS6_i
__ZN3WTF9HashTableIN7WebCore7IntRectESt4pairIS2_NS_6VectorIhLm0EEEENS_18PairFirstExtractorIS6_EENS_7IntHashIS2_EENS_14PairHashTraitsINS_10HashTraitsIS2_EENSC_IS5_EEEESD_E16initializeBucketERS6_
__ZN3WTF9HashTableIN7WebCore7IntRectESt4pairIS2_NS_6VectorIhLm0EEEENS_18PairFirstExtractorIS6_EENS_7IntHashIS2_EENS_14PairHashTraitsINS_10HashTraitsIS2_EENSC_IS5_EEEESD_E16lookupForWritingIS2_NS_22IdentityHashTranslatorIS2_S6_SA_EEEES3_IPS6_bERKT_
__ZN3WTF9HashTableIN7WebCore7IntRectESt4pairIS2_NS_6VectorIhLm0EEEENS_18PairFirstExtractorIS6_EENS_7IntHashIS2_EENS_14PairHashTraitsINS_10HashTraitsIS2_EENSC_IS5_EEEESD_E22isEmptyOrDeletedBucketERKS6_
__ZN3WTF9HashTableIN7WebCore7IntRectESt4pairIS2_NS_6VectorIhLm0EEEENS_18PairFirstExtractorIS6_EENS_7IntHashIS2_EENS_14PairHashTraitsINS_10HashTraitsIS2_EENSC_IS5_EEEESD_E3addIS2_S5_NS_17HashMapTranslatorIS6_SF_SA_EEEES3_INS_17HashTableIteratorIS2_S6_S8_SA_SF_SD_EEbERKT_RKT0_
__ZN3WTF9HashTableIN7WebCore7IntRectESt4pairIS2_NS_6VectorIhLm0EEEENS_18PairFirstExtractorIS6_EENS_7IntHashIS2_EENS_14PairHashTraitsINS_10HashTraitsIS2_EENSC_IS5_EEEESD_E4findIS2_NS_22IdentityHashTranslatorIS2_S6_SA_EEEENS_17HashTableIteratorIS2_S6_S8_SA_SF_SD_EERKT_
__ZN3WTF9HashTableIN7WebCore7IntRectESt4pairIS2_NS_6VectorIhLm0EEEENS_18PairFirstExtractorIS6_EENS_7IntHashIS2_EENS_14PairHashTraitsINS_10HashTraitsIS2_EENSC_IS5_EEEESD_E6expandEv
__ZN3WTF9HashTableIN7WebCore7IntRectESt4pairIS2_NS_6VectorIhLm0EEEENS_18PairFirstExtractorIS6_EENS_7IntHashIS2_EENS_14PairHashTraitsINS_10HashTraitsIS2_EENSC_IS5_EEEESD_E6rehashEi
-[WKPrintingView _delayedResumeAutodisplay]
-[WKPrintingView rectForPage:]
-[WKPrintingView isFlipped]
-[WKPrintingView locationOfPrintRect:]
-[WKPrintingView drawPageBorderWithSize:]
__ZN6WebKit12WebPageProxy10drawHeaderEPNS_13WebFrameProxyERKN7WebCore9FloatRectE
__ZN6WebKit11WebUIClient10drawHeaderEPNS_12WebPageProxyEPNS_13WebFrameProxyERKN7WebCore9FloatRectE
__ZN6WebKit12WebPageProxy10drawFooterEPNS_13WebFrameProxyERKN7WebCore9FloatRectE
__ZN6WebKit11WebUIClient10drawFooterEPNS_12WebPageProxyEPNS_13WebFrameProxyERKN7WebCore9FloatRectE
__ZN7CoreIPC13handleMessageIN8Messages12WebPageProxy21ComputedPagesCallbackEN6WebKit12WebPageProxyEMS5_FvRKN3WTF6VectorIN7WebCore7IntRectELm0EEEdyEEEvPNS_15ArgumentDecoderEPT0_T1_
__ZN7CoreIPC10Arguments3IN3WTF6VectorIN7WebCore7IntRectELm0EEEdyE6decodeEPNS_15ArgumentDecoderERS6_
__ZN7CoreIPC10Arguments2IN3WTF6VectorIN7WebCore7IntRectELm0EEEdE6decodeEPNS_15ArgumentDecoderERS6_
__ZN7CoreIPC18callMemberFunctionIN6WebKit12WebPageProxyEMS2_FvRKN3WTF6VectorIN7WebCore7IntRectELm0EEEdyES7_dyEEvRKNS_10Arguments3IT1_T2_T3_EEPT_T0_
__ZN6WebKit12WebPageProxy21computedPagesCallbackERKN3WTF6VectorIN7WebCore7IntRectELm0EEEdy
__ZN3WTF7HashMapIyNS_6RefPtrIN6WebKit21ComputedPagesCallbackEEENS_7IntHashIyEENS_10HashTraitsIyEENS7_IS4_EEE4takeERKy
__ZN3WTF9HashTableIySt4pairIyNS_6RefPtrIN6WebKit21ComputedPagesCallbackEEEENS_18PairFirstExtractorIS6_EENS_7IntHashIyEENS_14PairHashTraitsINS_10HashTraitsIyEENSC_IS5_EEEESD_E15deallocateTableEPS6_i
__ZN3WTF9HashTableIySt4pairIyNS_6RefPtrIN6WebKit21ComputedPagesCallbackEEEENS_18PairFirstExtractorIS6_EENS_7IntHashIyEENS_14PairHashTraitsINS_10HashTraitsIyEENSC_IS5_EEEESD_E16lookupForWritingERKy
__ZN3WTF9HashTableIySt4pairIyNS_6RefPtrIN6WebKit21ComputedPagesCallbackEEEENS_18PairFirstExtractorIS6_EENS_7IntHashIyEENS_14PairHashTraitsINS_10HashTraitsIyEENSC_IS5_EEEESD_E3addIyS5_NS_17HashMapTranslatorIS6_SF_SA_EEEES1_INS_17HashTableIteratorIyS6_S8_SA_SF_SD_EEbERKT_RKT0_
__ZN3WTF9HashTableIySt4pairIyNS_6RefPtrIN6WebKit21ComputedPagesCallbackEEEENS_18PairFirstExtractorIS6_EENS_7IntHashIyEENS_14PairHashTraitsINS_10HashTraitsIyEENSC_IS5_EEEESD_E4findIyNS_22IdentityHashTranslatorIyS6_SA_EEEENS_17HashTableIteratorIyS6_S8_SA_SF_SD_EERKT_
__ZN3WTF9HashTableIySt4pairIyNS_6RefPtrIN6WebKit21ComputedPagesCallbackEEEENS_18PairFirstExtractorIS6_EENS_7IntHashIyEENS_14PairHashTraitsINS_10HashTraitsIyEENSC_IS5_EEEESD_E6expandEv
__ZN3WTF9HashTableIySt4pairIyNS_6RefPtrIN6WebKit21ComputedPagesCallbackEEEENS_18PairFirstExtractorIS6_EENS_7IntHashIyEENS_14PairHashTraitsINS_10HashTraitsIyEENSC_IS5_EEEESD_E6rehashEi
__ZN3WTF9HashTableIySt4pairIyNS_6RefPtrIN6WebKit21ComputedPagesCallbackEEEENS_18PairFirstExtractorIS6_EENS_7IntHashIyEENS_14PairHashTraitsINS_10HashTraitsIyEENSC_IS5_EEEESD_E6removeEPS6_
__ZL23pageDidComputePageRectsRKN3WTF6VectorIN7WebCore7IntRectELm0EEEdPK13OpaqueWKErrorPv
__ZN3WTF10PassOwnPtrI18IPCCallbackContextED1Ev
__ZN3WTF6OwnPtrI18IPCCallbackContextED1Ev
__ZN6WebKit21ComputedPagesCallbackD0Ev
__ZN3WTF6VectorIN7WebCore7IntRectELm0EEaSERKS3_
__ZNSt6__copyILb0ESt26random_access_iterator_tagE4copyIPKN7WebCore7IntRectEPS4_EET0_T_S9_S8_
__ZN3WTF12VectorCopierILb0EN7WebCore7IntRectEE17uninitializedCopyEPKS2_S5_PS2_
-[WKPrintingView _isPrintingPreview]
-[WKPrintingView _updatePreview]
-[WKPrintingView drawRect:]
-[WKPrintingView _drawPreview:]
-[WKPrintingView _expectedPreviewCallbackForRect:]
__ZN6WebKit12WebPageProxy13beginPrintingEPNS_13WebFrameProxyERKNS_9PrintInfoE
__ZN6WebKit12WebPageProxy13drawRectToPDFEPNS_13WebFrameProxyERKN7WebCore7IntRectEN3WTF10PassRefPtrINS_15GenericCallbackIPK12OpaqueWKDataPNS_7WebDataEEEEE
__ZN6WebKit15WebProcessProxy4sendIN8Messages7WebPage13DrawRectToPDFEEEbRKT_yj
__ZNK7CoreIPC10Arguments3IyRKN7WebCore7IntRectEyE6encodeEPNS_15ArgumentEncoderE
__ZL16pageDidDrawToPDFPK12OpaqueWKDataPK13OpaqueWKErrorPv
__ZN3WTF9HashTableIySt4pairIyN7WebCore7IntRectEENS_18PairFirstExtractorIS4_EENS_7IntHashIyEENS_14PairHashTraitsINS_10HashTraitsIyEENSA_IS3_EEEESB_E16lookupForWritingERKy
__ZN3WTF9HashTableIySt4pairIyN7WebCore7IntRectEENS_18PairFirstExtractorIS4_EENS_7IntHashIyEENS_14PairHashTraitsINS_10HashTraitsIyEENSA_IS3_EEEESB_E3addIyS3_NS_17HashMapTranslatorIS4_SD_S8_EEEES1_INS_17HashTableIteratorIyS4_S6_S8_SD_SB_EEbERKT_RKT0_
__ZN3WTF9HashTableIySt4pairIyN7WebCore7IntRectEENS_18PairFirstExtractorIS4_EENS_7IntHashIyEENS_14PairHashTraitsINS_10HashTraitsIyEENSA_IS3_EEEESB_E4findIyNS_22IdentityHashTranslatorIyS4_S8_EEEENS_17HashTableIteratorIyS4_S6_S8_SD_SB_EERKT_
__ZN3WTF9HashTableIySt4pairIyN7WebCore7IntRectEENS_18PairFirstExtractorIS4_EENS_7IntHashIyEENS_14PairHashTraitsINS_10HashTraitsIyEENSA_IS3_EEEESB_E6expandEv
__ZN3WTF9HashTableIySt4pairIyN7WebCore7IntRectEENS_18PairFirstExtractorIS4_EENS_7IntHashIyEENS_14PairHashTraitsINS_10HashTraitsIyEENSA_IS3_EEEESB_E6rehashEi
__ZN3WTF9HashTableIySt4pairIyN7WebCore7IntRectEENS_18PairFirstExtractorIS4_EENS_7IntHashIyEENS_14PairHashTraitsINS_10HashTraitsIyEENSA_IS3_EEEESB_E6removeEPS4_
__ZN3WTF14PairHashTraitsINS_10HashTraitsIN7WebCore7IntRectEEENS1_INS_6VectorIhLm0EEEEEE10emptyValueEv
__ZN3WTF6VectorIhLm0EEC2ERKS1_
__ZN3WTF12VectorBufferIhLm0EEC2Em
__ZN3WTF12VectorBufferIhLm0EED2Ev
__ZN3WTF7IntHashIN7WebCore7IntRectEE4hashERKS2_
__ZN3WTF6VectorIhLm0EEaSERKS1_
__ZN3WTF7IntHashIN7WebCore7IntRectEE5equalERKS2_S5_
-[WKPrintingView _drawPDFDocument:page:atPoint:]
-[WKPrintingView _delayedResumeAutodisplayTimerFired]
__ZN6WebKit15WebProcessProxy4sendIN8Messages7WebPage11EndPrintingEEEbRKT_yj
-[WKPrintingView .cxx_destruct]
__ZN7CoreIPC13handleMessageIN8Messages13DownloadProxy32ShouldDecodeSourceDataOfMIMETypeEN6WebKit13DownloadProxyEMS5_FvRKN3WTF6StringERbEEEvPNS_15ArgumentDecoderEPNS_15ArgumentEncoderEPT0_T1_
__ZN7CoreIPC18callMemberFunctionIN6WebKit13DownloadProxyEMS2_FvRKN3WTF6StringERbES4_bEEvRKNS_10Arguments1IT1_EERNSA_IT2_EEPT_T0_
__ZN6WebKit13DownloadProxy32shouldDecodeSourceDataOfMIMETypeERKN3WTF6StringERb
__ZN6WebKit17WebDownloadClient32shouldDecodeSourceDataOfMIMETypeEPNS_10WebContextEPNS_13DownloadProxyERKN3WTF6StringE
__ZN6WebKit25WebFullScreenManagerProxy20disposeOfLayerClientEv
__ZN6WebKit15WebProcessProxy4sendIN8Messages20WebFullScreenManager20DisposeOfLayerClientEEEbRKT_yj
-[WKFullScreenWindowController close]
__ZN3WTF9RetainPtrI28WKFullScreenWindowControllerEaSESt9nullptr_t
-[WKFullScreenWindowController dealloc]
-[WKFullScreenWindow dealloc]
-[WKFullScreenWindowController .cxx_destruct]
__ZN7CoreIPC13handleMessageIN8Messages15WebProcessProxy19SecItemCopyMatchingEN6WebKit15WebProcessProxyEMS5_FvRKNS4_18SecItemRequestDataERNS4_19SecItemResponseDataEEEEvPNS_15ArgumentDecoderEPNS_15ArgumentEncoderEPT0_T1_
__ZN6WebKit18SecItemRequestDataC1Ev
__ZN6WebKit18SecItemRequestData6decodeEPN7CoreIPC15ArgumentDecoderERS0_
__ZN6WebKit19SecItemResponseDataC1Ev
__ZN7CoreIPC18callMemberFunctionIN6WebKit15WebProcessProxyEMS2_FvRKNS1_18SecItemRequestDataERNS1_19SecItemResponseDataEES3_S6_EEvRKNS_10Arguments1IT1_EERNSA_IT2_EEPT_T0_
__ZN6WebKit15WebProcessProxy19secItemCopyMatchingERKNS_18SecItemRequestDataERNS_19SecItemResponseDataE
__ZN6WebKit19SecItemResponseDataC1EiPKv
__ZN6WebKit19SecItemResponseDataaSERKS0_
__ZNK6WebKit19SecItemResponseData6encodeEPN7CoreIPC15ArgumentEncoderE
__ZN7CoreIPC15ArgumentEncoder11encodeInt64Ex
__ZN6WebKit18SecItemRequestDataD2Ev
__ZN7CoreIPC13handleMessageIN8Messages12WebPageProxy33DidReceiveAuthenticationChallengeEN6WebKit12WebPageProxyEMS5_FvyRKN7WebCore23AuthenticationChallengeEyEEEvPNS_15ArgumentDecoderEPT0_T1_
__ZN7CoreIPC10Arguments3IyN7WebCore23AuthenticationChallengeEyE6decodeEPNS_15ArgumentDecoderERS3_
__ZN7CoreIPC10Arguments2IyN7WebCore23AuthenticationChallengeEE6decodeEPNS_15ArgumentDecoderERS3_
__ZN7CoreIPC13ArgumentCoderIN7WebCore23AuthenticationChallengeEE6decodeEPNS_15ArgumentDecoderERS2_
__ZN7CoreIPC10Arguments5IRN7WebCore15ProtectionSpaceERNS1_10CredentialERjRNS1_16ResourceResponseERNS1_13ResourceErrorEE6decodeEPNS_15ArgumentDecoderERSB_
__ZN7CoreIPC10Arguments4IRN7WebCore15ProtectionSpaceERNS1_10CredentialERjRNS1_16ResourceResponseEE6decodeEPNS_15ArgumentDecoderERS9_
__ZN7CoreIPC10Arguments3IRN7WebCore15ProtectionSpaceERNS1_10CredentialERjE6decodeEPNS_15ArgumentDecoderERS7_
__ZN7CoreIPC10Arguments2IRN7WebCore15ProtectionSpaceERNS1_10CredentialEE6decodeEPNS_15ArgumentDecoderERS6_
__ZN7CoreIPC13ArgumentCoderIN7WebCore10CredentialEE6decodeEPNS_15ArgumentDecoderERS2_
__ZN7WebCore10CredentialaSERKS0_
__ZN7WebCore10CredentialD2Ev
__ZN7WebCore13ResourceErrorC2Ev
__ZN7WebCore23AuthenticationChallengeaSERKS0_
__ZN7WebCore27AuthenticationChallengeBaseaSERKS0_
__ZN7WebCore23AuthenticationChallengeD2Ev
__ZN7WebCore27AuthenticationChallengeBaseD2Ev
__ZN7CoreIPC18callMemberFunctionIN6WebKit12WebPageProxyEMS2_FvyRKN7WebCore23AuthenticationChallengeEyEyS4_yEEvRKNS_10Arguments3IT1_T2_T3_EEPT_T0_
__ZN6WebKit12WebPageProxy33didReceiveAuthenticationChallengeEyRKN7WebCore23AuthenticationChallengeEy
__ZN6WebKit28AuthenticationChallengeProxyC1ERKN7WebCore23AuthenticationChallengeEyPNS_15WebProcessProxyE
__ZN6WebKit28AuthenticationChallengeProxyC2ERKN7WebCore23AuthenticationChallengeEyPNS_15WebProcessProxyE
__ZN7WebCore23AuthenticationChallengeC2ERKS0_
__ZN7WebCore27AuthenticationChallengeBaseC2ERKS0_
__ZN7WebCore10CredentialC2ERKS0_
__ZN6WebKit30AuthenticationDecisionListenerC1EPNS_28AuthenticationChallengeProxyE
__ZN6WebKit15WebLoaderClient40didReceiveAuthenticationChallengeInFrameEPNS_12WebPageProxyEPNS_13WebFrameProxyEPNS_28AuthenticationChallengeProxyE
_WKAuthenticationChallengeGetProtectionSpace
__ZNK6WebKit28AuthenticationChallengeProxy15protectionSpaceEv
_WKProtectionSpaceCopyHost
__ZNK6WebKit18WebProtectionSpace4hostEv
_WKProtectionSpaceGetPort
__ZNK6WebKit18WebProtectionSpace4portEv
_WKProtectionSpaceCopyRealm
__ZNK6WebKit18WebProtectionSpace5realmEv
_WKAuthenticationChallengeGetPreviousFailureCount
_WKProtectionSpaceGetIsProxy
__ZNK6WebKit18WebProtectionSpace7isProxyEv
_WKProtectionSpaceGetReceivesCredentialSecurely
__ZNK6WebKit18WebProtectionSpace26receivesCredentialSecurelyEv
_WKAuthenticationChallengeGetProposedCredential
__ZNK6WebKit28AuthenticationChallengeProxy18proposedCredentialEv
__ZN6WebKit13WebCredentialC1ERKN7WebCore10CredentialE
_WKCredentialCopyUser
__ZNK6WebKit13WebCredential4userEv
_WKCredentialCreate
__ZN6WebKit13WebCredential6createEPNS_9WebStringES2_N7WebCore21CredentialPersistenceE
_WKAuthenticationChallengeGetDecisionListener
_WKAuthenticationDecisionListenerUseCredential
__ZN6WebKit30AuthenticationDecisionListener13useCredentialEPNS_13WebCredentialE
__ZN6WebKit28AuthenticationChallengeProxy13useCredentialEPNS_13WebCredentialE
__ZN6WebKit13WebCredential15certificateInfoEv
__ZN6WebKit13WebCredential4coreEv
__ZN6WebKit15WebProcessProxy4sendIN8Messages21AuthenticationManager25UseCredentialForChallengeEEEbRKT_yj
__ZNK7CoreIPC10Arguments3IyRKN7WebCore10CredentialERKN6WebKit23PlatformCertificateInfoEE6encodeEPNS_15ArgumentEncoderE
__ZN7CoreIPC13ArgumentCoderIN7WebCore10CredentialEE6encodeEPNS_15ArgumentEncoderERKS2_
__ZNK7CoreIPC10Arguments3IRKN3WTF6StringES4_RKjE6encodeEPNS_15ArgumentEncoderE
__ZNK6WebKit23PlatformCertificateInfo6encodeEPN7CoreIPC15ArgumentEncoderE
__ZN6WebKit13WebCredentialD0Ev
__ZN6WebKit28AuthenticationChallengeProxyD0Ev
__ZN6WebKit30AuthenticationDecisionListener15detachChallengeEv
__ZN6WebKit30AuthenticationDecisionListenerD0Ev
__ZN7CoreIPC13handleMessageIN8Messages15WebProcessProxy13SecItemUpdateEN6WebKit15WebProcessProxyEMS5_FvRKNS4_18SecItemRequestDataERNS4_19SecItemResponseDataEEEEvPNS_15ArgumentDecoderEPNS_15ArgumentEncoderEPT0_T1_
__ZN6WebKit15WebProcessProxy13secItemUpdateERKNS_18SecItemRequestDataERNS_19SecItemResponseDataE
__ZN7CoreIPC13handleMessageIN8Messages15WebProcessProxy10SecItemAddEN6WebKit15WebProcessProxyEMS5_FvRKNS4_18SecItemRequestDataERNS4_19SecItemResponseDataEEEEvPNS_15ArgumentDecoderEPNS_15ArgumentEncoderEPT0_T1_
__ZN6WebKit15WebProcessProxy10secItemAddERKNS_18SecItemRequestDataERNS_19SecItemResponseDataE
__ZN7CoreIPC6encodeEPNS_15ArgumentEncoderEP24OpaqueSecKeychainItemRef
__ZN6WebKit13DownloadProxyD0Ev
__ZN7CoreIPC6decodeEPNS_15ArgumentDecoderERN3WTF9RetainPtrIPK8__CFDateEE
_WKDownloadCancel
__ZN6WebKit13DownloadProxy6cancelEv
__ZN6WebKit15WebProcessProxy4sendIN8Messages10WebProcess14CancelDownloadEEEbRKT_yj
__ZN7CoreIPC13handleMessageIN8Messages13DownloadProxy9DidCancelEN6WebKit13DownloadProxyEMS5_FvRKNS_13DataReferenceEEEEvPNS_15ArgumentDecoderEPT0_T1_
__ZN7CoreIPC18callMemberFunctionIN6WebKit13DownloadProxyEMS2_FvRKNS_13DataReferenceEES3_EEvRKNS_10Arguments1IT1_EEPT_T0_
__ZN6WebKit13DownloadProxy9didCancelERKN7CoreIPC13DataReferenceE
__ZN6WebKit17WebDownloadClient9didCancelEPNS_10WebContextEPNS_13DownloadProxyE
_WKDownloadGetResumeData
_WKPreferencesSetCanvasUsesAcceleratedDrawing
__ZN6WebKit14WebPreferences31setCanvasUsesAcceleratedDrawingERKb
__WKContextSetAlwaysUsesComplexTextCodePath
__ZN6WebKit10WebContext32setAlwaysUsesComplexTextCodePathEb
__ZN6WebKit15WebProcessProxy4sendIN8Messages10WebProcess32SetAlwaysUsesComplexTextCodePathEEEbRKT_yj
-[WKView _windowDidDeminiaturize:]
__ZN6WebKit21WebCookieManagerProxy16cookiesDidChangeEv
__ZN6WebKit27WebCookieManagerProxyClient16cookiesDidChangeEPNS_21WebCookieManagerProxyE
__ZN6WebKit17WebInspectorProxy6attachEv
__ZN6WebKit17WebInspectorProxy14platformAttachEv
__ZNK6WebKit12WebPageProxy6wkViewEv
__ZNK6WebKit14PageClientImpl6wkViewEv
-[WebInspectorWKView tag]
-[WebInspectorProxyObjCAdapter inspectedViewFrameDidChange:]
__ZN6WebKit17WebInspectorProxy27inspectedViewFrameDidChangeEv
__ZN6WebKit17WebInspectorProxy6detachEv
__ZN6WebKit17WebInspectorProxy14platformDetachEv
-[WebInspectorProxyObjCAdapter windowWillClose:]
_WKDrawBezeledTextFieldCell
_WKIOSurfaceContextCreate
_WKContentAreaScrolled
_WKScrollbarPainterIsHorizontal
_WKSetScrollbarPainterKnobStyle
_WKScrollbarPainterPaint
_WKCopyCFURLResponseSuggestedFilename
_WKSetCFURLResponseMIMEType
_WKExecutableWasLinkedOnOrBeforeSnowLeopard
_WKIOSurfaceContextCreateImage
_WKQTMovieDisableComponent
_WKQTMovieMaxTimeLoadedChangeNotification
_WKScrollbarPainterForceFlashScrollers
_WKDrawBezeledTextArea
_WKGetFontInLanguageForCharacter
_WKAdvanceDefaultButtonPulseAnimation
_WKAppKitDrawDecoyWindow_isKeyWindow
__ZN6WebKit7WebPage36suspendActiveDOMObjectsAndAnimationsEv
__ZN6WebKit7WebPage35resumeActiveDOMObjectsAndAnimationsEv
__ZNK7WebCore5Frame25trackedRepaintRectsAsTextEv
__ZN7WebCore9FrameView17setTracksRepaintsEb
