__ZN3WTF10fastMallocEm
__ZN3WTF20TCMalloc_ThreadCache10InitModuleEv
__ZN3WTFL15InitSizeClassesEv
__Z20TCMalloc_SystemAllocmPmm
__ZN3WTFL13MetaDataAllocEm
__ZN3WTF17TCMalloc_PageHeap19initializeScavengerEv
__ZN3WTF20TCMalloc_ThreadCache22CreateCacheIfNecessaryEv
__ZN3WTF25TCMalloc_Central_FreeList11RemoveRangeEPPvS2_Pi
__ZN3WTF25TCMalloc_Central_FreeList18FetchFromSpansSafeEv
__ZN3WTF17TCMalloc_PageHeap10AllocLargeEm
__ZN3WTF17TCMalloc_PageHeap8GrowHeapEm
__ZN3WTF17TCMalloc_PageHeap6DeleteEPNS_4SpanE
__ZN3WTF16fastZeroedMallocEm
__ZN3WTF8fastFreeEPv
__ZN3WTF19initializeThreadingEv
__ZN3WTFL14threadMapMutexEv
__ZN3WTF20initializeMainThreadEv
__ZN3WTFL24initializeMainThreadOnceEv
__ZN3WTF5MutexC1Ev
__ZN3WTF28initializeMainThreadPlatformEv
__ZN3JSC19initializeThreadingEv
__ZN3JSCL23initializeThreadingOnceEv
__ZN3WTF10StringImpl5emptyEv
__ZN3WTF13WTFThreadDataC1Ev
__ZN3WTF11StackBounds10initializeEv
__ZN3JSC12VM10storeVPtrsEv
__ZN3JSC7JSArrayC1ENS_6JSCell20VPtrStealingHackTypeE
__ZN3JSC10JSFunctionC1ENS_6JSCell20VPtrStealingHackTypeE
__ZN3WTF15initializeDatesEv
__ZN3WTF11currentTimeEv
__ZN3WTF8msToYearEd
__ZN3JSC12JSStack19initializeThreadingEv
__ZN3WTF39initializeMainThreadToProcessMainThreadEv
__ZN3WTF36lockAtomicallyInitializedStaticMutexEv
__ZN3WTF38unlockAtomicallyInitializedStaticMutexEv
__ZN3WTF6StringC1EPKc
__ZN3WTF10StringImpl6createEPKc
__ZN3WTF10StringImpl6createEPKcj
__ZN3WTF10StringImpl19createUninitializedEjRPt
__ZN3WTF5equalEPKNS_10StringImplES2_
__ZN3WTF10StringImpl6createEPKtj
__ZN3WTF12isMainThreadEv
__ZN3WTF10StringImplD1Ev
__ZN3WTF10StringImplD2Ev
__ZN3WTF6String6numberEy
__ZN3WTF6String6formatEPKcz
__ZN3WTF6VectorIcLm256EE4growEm
__ZN3WTF13tryFastMallocEm
__ZN3WTF15ThreadConditionC1Ev
__ZN3WTF10StringImpl11reverseFindEtj
__ZNK3WTF6String9substringEjj
__ZN3WTF10StringImpl9substringEjj
__ZN3WTF7CString16newUninitializedEmRPc
__ZN3WTF7CString11mutableDataEv
__ZN3WTF7CString18copyBufferIfNeededEv
__ZN3WTF5Mutex4lockEv
__ZN3WTF5Mutex6unlockEv
__ZN3WTF10StringImpl12sharedBufferEv
__ZN3WTF10StringImpl8endsWithEPS0_b
__ZN3WTF12createThreadEPFPvS0_ES0_PKc
__ZN3WTF12createThreadEPFvPvES0_PKc
__ZN3WTF20createThreadInternalEPFPvS0_ES0_PKc
__ZN3WTFL35establishIdentifierForPthreadHandleERKP17_opaque_pthread_t
__ZN3WTF9HashTableIjSt4pairIjP17_opaque_pthread_tENS_18PairFirstExtractorIS4_EENS_7IntHashIjEENS_14PairHashTraitsINS_10HashTraitsIjEENSA_IS3_EEEESB_E6rehashEi
__ZN3WTFL16threadEntryPointEPv
__ZN3WTF31initializeCurrentThreadInternalEPKc
__ZN3WTF20ThreadIdentifierData10initializeEj
__ZN3WTF20ThreadIdentifierData23initializeKeyOnceHelperEv
__ZN3WTF5MutexD1Ev
__ZN3WTF6String29charactersWithNullTerminationEv
__ZN3WTF10StringImpl34createWithTerminatingNullCharacterERKS0_
__ZN3WTF13currentThreadEv
__ZN3WTF20ThreadIdentifierData10identifierEv
__ZNK3WTF6String15stripWhiteSpaceEv
__ZN3WTF10StringImpl15stripWhiteSpaceEv
__ZN3WTF6StringC1EPKt
__ZN3WTF6StringC2EPKt
__ZN3WTF16callOnMainThreadEPFvPvES0_
__ZN3WTF5DequeINS_19FunctionWithContextELm0EE14expandCapacityEv
__ZN3WTF37scheduleDispatchFunctionsOnMainThreadEv
__ZN3WTF15ThreadCondition4waitERNS_5MutexE
__ZN3WTF6String8fromUTF8EPKc
__ZN3WTF6String8fromUTF8EPKcm
__ZN3WTF7Unicode18convertUTF8ToUTF16EPPKcS2_PPtS4_b
__ZN3WTF15ThreadCondition6signalEv
__ZN3WTF7CStringC1EPKc
__ZN3WTF7CString4initEPKcm
__ZNK3WTF6String4utf8Eb
__ZN3WTF7Unicode18convertUTF16ToUTF8EPPKtS2_PPcS4_b
__ZN3WTF7CStringC1EPKcm
__ZN3WTF11fastReallocEPvm
__ZN3WTF12AtomicString3addEPKc
__ZN3WTF9HashTableIPNS_10StringImplES2_NS_17IdentityExtractorIS2_EENS_10StringHashENS_10HashTraitsIS2_EES7_E6rehashEi
__ZN3WTF12AtomicString3addEPKtj
__ZN3WTF10StringImpl4findEtj
__ZN3WTF25TCMalloc_Central_FreeList11InsertRangeEPvS1_i
__ZN3WTF25TCMalloc_Central_FreeList18ReleaseListToSpansEPv
-[WTFMainThreadCaller call]
__ZN3WTF31dispatchFunctionsFromMainThreadEv
__ZN3WTF15ThreadCondition9broadcastEv
__ZN3WTF15ThreadCondition9timedWaitERNS_5MutexEd
__ZN3WTF12detachThreadEj
__ZN3WTFL26pthreadHandleForIdentifierEj
__ZN3WTF20ThreadIdentifierData8destructEPv
__ZN3WTF31clearPthreadHandleForIdentifierEj
__ZN3WTF20TCMalloc_ThreadCache18DestroyThreadCacheEPv
__ZN3WTF20TCMalloc_ThreadCache11DeleteCacheEPS0_
__ZN3WTF25TCMalloc_Central_FreeList11ShrinkCacheEib
__ZN3WTFL10timerFiredEP16__CFRunLoopTimerPv
__ZNK3WTF6String5lowerEv
__ZN3WTF10StringImpl5lowerEv
__ZNK3WTF6String5splitEtRNS_6VectorIS0_Lm0EEE
__ZNK3WTF6String5splitERKS0_bRNS_6VectorIS0_Lm0EEE
__ZN3WTF10StringImpl4findEPS0_j
__ZN3WTF6VectorINS_6StringELm0EE14expandCapacityEm
__ZN3WTF6StringC1EPKcj
__ZN3WTF12AtomicString11addSlowCaseEPNS_10StringImplE
__ZN3WTF12AtomicString6removeEPNS_10StringImplE
_JSGlobalContextCreate
__ZN3JSC6JSLock4lockENS_14JSLockBehaviorE
__ZN3JSCL17createJSLockCountEv
__ZN3JSC12VM14sharedInstanceEv
__ZN3JSC12VMC2ENS0_14VMTypeENS_8HeapTypeE
__ZN3JSC21createIdentifierTableEv
__ZN3JSC17CommonIdentifiersC1EPNS_12VME
__ZN3JSC17CommonIdentifiersC2EPNS_12VME
__ZN3JSC10Identifier3addEPNS_12VMEPKc
__ZN3JSC15IdentifierTable3addIPKcNS_27IdentifierCStringTranslatorEEESt4pairIN3WTF29HashTableConstIteratorAdapterINS6_9HashTableIPNS6_10StringImplESA_NS6_17IdentityExtractorISA_EENS6_10StringHashENS6_10HashTraitsISA_EESF_EESA_EEbET_
__ZN3WTF9HashTableIPNS_10StringImplES2_NS_17IdentityExtractorIS2_EENS_10StringHashENS_10HashTraitsIS2_EES7_E6expandEv
__ZN3WTF9HashTableIPKcSt4pairIS2_NS_6RefPtrINS_10StringImplEEEENS_18PairFirstExtractorIS7_EENS_7PtrHashIS2_EENS_14PairHashTraitsINS_10HashTraitsIS2_EENSD_IS6_EEEESE_E6expandEv
__ZN3WTF9HashTableIPNS_10StringImplES2_NS_17IdentityExtractorIS2_EENS_10StringHashENS_10HashTraitsIS2_EES7_E4findIS2_NS_22IdentityHashTranslatorIS2_S2_S5_EEEENS_17HashTableIteratorIS2_S2_S4_S5_S7_S7_EERKT_
__ZN3JSC10IdentifierC1EPNS_12VMEPKc
__ZN3JSC12SmallStringsC1Ev
__ZN3JSC19ExecutableAllocator17intializePageSizeEv
__ZNK3JSC19ExecutableAllocator7isValidEv
__ZN3WTF11OSAllocator18reserveUncommittedEmNS0_5UsageEbb
__ZN3JSC14ExecutablePool11systemAllocEm
__ZN3WTF11OSAllocator6commitEPvmbb
__ZN3JSC5LexerC1EPNS_12VME
__ZN3JSC11ParserArenaC1Ev
__ZN3JSC11ParserArenaC2Ev
__ZN3JSC14TimeoutCheckerC1Ev
__ZN3JSC4HeapC1EPNS_12VME
__ZN3JSC4HeapC2EPNS_12VME
__ZN3JSC11MarkedSpaceC1EPNS_12VME
__ZN3JSC25DefaultGCActivityCallbackC1EPNS_4HeapE
__ZN3JSC25DefaultGCActivityCallback17commonConstructorEPNS_4HeapEP11__CFRunLoop
__ZN3JSC14MachineThreadsC1EPNS_4HeapE
__ZN3JSC9MarkStack18initializePagesizeEv
__ZN3WTF11OSAllocator16reserveAndCommitEmNS0_5UsageEbb
__ZN3JSC10HandleHeapC1EPNS_12VME
__ZN3WTF10BlockStackIN3JSC10HandleHeap4NodeEE4growEv
__ZN3WTF6VectorIPN3JSC10HandleHeap4NodeELm0EE15reserveCapacityEm
__ZN3JSC11HandleStackC1Ev
__ZN3WTF10BlockStackIN3JSC7JSValueEE4growEv
__ZN3WTF6VectorIPN3JSC7JSValueELm0EE15reserveCapacityEm
__ZN3JSC25DefaultGCActivityCallbackclEv
__ZN3JSC11RegExpCacheC1EPNS_12VME
__ZN3JSC11InterpreterC1ERNS_12VME
__ZN3JSC10HandleHeap12writeBarrierEPNS_7JSValueERKS1_
__ZN3JSC12JSStack23addToCommittedByteCountEl
__ZN3JSC11MarkedSpace21allocateFromSizeClassERNS0_9SizeClassE
__ZN3JSC11MarkedSpace13allocateBlockERNS0_9SizeClassE
__ZN3JSC11MarkedBlock6createEPNS_12VMEm
__ZN3WTF21PageAllocationAligned8allocateEmmNS_11OSAllocator5UsageEbb
__ZN3WTF9HashTableIPN3JSC11MarkedBlockES3_NS_17IdentityExtractorIS3_EENS_7PtrHashIS3_EENS_10HashTraitsIS3_EES9_E6rehashEi
__ZN3JSC6JSCellD1Ev
__ZN3JSC9StructureC1ERNS_12VME
__ZN3JSC6StrongINS_9StructureEE3setERNS_12VMEPS1_
__ZN3JSC9Structure6createERNS_12VMENS_7JSValueERKNS_8TypeInfoEjPKNS_9ClassInfoE
__ZN3JSC9StructureC1ERNS_12VMENS_7JSValueERKNS_8TypeInfoEjPKNS_9ClassInfoE
__ZN3WTF13wtfThreadDataEv
__ZN3JSC27startProfilerServerIfNeededEv
+[ProfilerServer sharedProfileServer]
-[ProfilerServer init]
__ZN3JSC9JITThunksC1EPNS_12VME
__ZN3JSC9JITThunksC2EPNS_12VME
__ZN3JSC3JITC1EPNS_12VMEPNS_9CodeBlockE
__ZN3JSC3JITC2EPNS_12VMEPNS_9CodeBlockE
__ZN3JSC3JIT35privateCompileCTIMachineTrampolinesEPN3WTF6RefPtrINS_14ExecutablePoolEEEPNS_12VMEPNS_19TrampolineStructureE
__ZN3JSC20MacroAssemblerX86_6413branchTestPtrENS_23MacroAssemblerX86Common15ResultConditionENS_12X86Registers10RegisterIDES4_
__ZN3JSC12X86Assembler23X86InstructionFormatter11oneByteOp64ENS0_15OneByteOpcodeIDEiNS_12X86Registers10RegisterIDE
__ZN3JSC12X86Assembler3jCCENS0_9ConditionE
__ZN3JSC15AssemblerBuffer11ensureSpaceEi
__ZN3JSC12X86Assembler23X86InstructionFormatter11oneByteOp64ENS0_15OneByteOpcodeIDEiNS_12X86Registers10RegisterIDEi
__ZN3JSC12X86Assembler23X86InstructionFormatter9oneByteOpENS0_15OneByteOpcodeIDEiNS_12X86Registers10RegisterIDEi
__ZN3JSC12X86Assembler23X86InstructionFormatter11memoryModRMEiNS_12X86Registers10RegisterIDEi
__ZN3JSC23MacroAssemblerX86Common8branch32ENS0_19RelationalConditionENS_12X86Registers10RegisterIDENS_22AbstractMacroAssemblerINS_12X86AssemblerEE12TrustedImm32E
__ZN3JSC12X86Assembler23X86InstructionFormatter9oneByteOpENS0_15OneByteOpcodeIDEiNS_12X86Registers10RegisterIDE
__ZN3JSC3JIT32compileOpCallInitializeCallFrameEv
__ZN3JSC20MacroAssemblerX86_6413branchTestPtrENS_23MacroAssemblerX86Common15ResultConditionENS_12X86Registers10RegisterIDENS_22AbstractMacroAssemblerINS_12X86AssemblerEE12TrustedImm32E
__ZN3JSC12X86Assembler23X86InstructionFormatter9oneByteOpENS0_15OneByteOpcodeIDENS_12X86Registers10RegisterIDE
__ZN3WTF6VectorIcLm128EE14expandCapacityEm
__ZN3WTF6VectorIcLm128EE4growEm
__ZN3JSC3JIT27privateCompileCTINativeCallEPNS_12VMEb
__ZNK3JSC22AbstractMacroAssemblerINS_12X86AssemblerEE4Jump4linkEPS2_
__ZN3WTF10RefCountedIN3JSC14ExecutablePoolEE5derefEv
__ZN3JSC14MachineThreads29makeUsableFromMultipleThreadsEv
_JSGlobalContextCreateInGroup
__ZN3JSC4Heap16activityCallbackEv
__ZN3JSC25DefaultGCActivityCallback11synchronizeEv
__ZN3JSC14TimeoutChecker5resetEv
__ZN3JSC14JSGlobalObjectnwEmPNS_12VME
__ZN3WTF12randomNumberEv
__ZN3WTF29cryptographicallyRandomNumberEv
__ZN3WTF35cryptographicallyRandomValuesFromOSEPhm
__ZN3JSC14JSGlobalObject4initEPNS_8JSObjectE
__ZN3JSC14JSGlobalObject5resetENS_7JSValueE
__ZN3JSC17FunctionPrototypeC1EPNS_9ExecStateEPNS_14JSGlobalObjectEPNS_9StructureE
__ZN3JSC17FunctionPrototypeC2EPNS_9ExecStateEPNS_14JSGlobalObjectEPNS_9StructureE
__ZN3JSC16InternalFunctionC2EPNS_12VMEPNS_14JSGlobalObjectEPNS_9StructureERKNS_10IdentifierE
__ZN3JSC24JSObjectWithGlobalObjectC2EPNS_14JSGlobalObjectEPNS_9StructureE
__ZN3JSC7UStringC1EPKc
__ZN3JSC12SmallStrings17createEmptyStringEPNS_12VME
__ZN3JSC9Structure40addPropertyTransitionToExistingStructureEPS0_RKNS_10IdentifierEjPNS_6JSCellERm
__ZN3JSC9Structure3getERNS_12VMEPN3WTF10StringImplERjRPNS_6JSCellE
__ZN3JSC9Structure21addPropertyTransitionERNS_12VMEPS0_RKNS_10IdentifierEjPNS_6JSCellERm
__ZN3JSC9Structure17createPropertyMapEj
__ZN3WTF14deleteOwnedPtrIN3JSC13PropertyTableEEEvPT_
__ZN3JSC9Structure16putSpecificValueERNS_12VMERKNS_10IdentifierEjPNS_6JSCellE
__ZN3JSC24StructureTransitionTable3addERNS_12VMEPNS_9StructureE
__ZN3JSC9Structure28addPropertyWithoutTransitionERNS_12VMERKNS_10IdentifierEjPNS_6JSCellE
__ZN3JSC8JSObject23allocatePropertyStorageEmm
__ZN3JSC17FunctionPrototype21addFunctionPropertiesEPNS_9ExecStateEPNS_14JSGlobalObjectEPNS_9StructureEPPNS_10JSFunctionES9_
__ZN3JSC10JSFunctionC1EPNS_9ExecStateEPNS_14JSGlobalObjectEPNS_9StructureEiRKNS_10IdentifierEPFPvS2_E
__ZN3JSC10JSFunctionC2EPNS_9ExecStateEPNS_14JSGlobalObjectEPNS_9StructureEiRKNS_10IdentifierEPFPvS2_E
__ZN3JSC12VM15getHostFunctionEPFPvPNS_9ExecStateEE
__ZN3JSC9JITThunks16hostFunctionStubEPNS_12VMEPFPvPNS_9ExecStateEE
__ZN3WTF7HashMapIPFPvPN3JSC9ExecStateEENS2_4WeakINS2_16NativeExecutableEEENS_7PtrHashIS6_EENS_10HashTraitsIS6_EENSC_IS9_EEE3addERKS6_RKS9_
__ZN3WTF9HashTableIPFPvPN3JSC9ExecStateEESt4pairIS6_NS2_4WeakINS2_16NativeExecutableEEEENS_18PairFirstExtractorISB_EENS_7PtrHashIS6_EENS_14PairHashTraitsINS_10HashTraitsIS6_EENSH_ISA_EEEESI_E6expandEv
__ZN3JSC3JIT27privateCompileCTINativeCallEN3WTF10PassRefPtrINS_14ExecutablePoolEEEPNS_12VMEPFPvPNS_9ExecStateEE
__ZN3JSC16NativeExecutable6createERNS_12VMENS_21MacroAssemblerCodePtrEPFPvPNS_9ExecStateEES3_S8_
__ZN3JSC8JSObject34putDirectFunctionWithoutTransitionEPNS_9ExecStateEPNS_10JSFunctionEj
__ZN3JSC10JSFunction4nameEPNS_9ExecStateE
__ZN3JSC15ObjectPrototypeC1EPNS_9ExecStateEPNS_14JSGlobalObjectEPNS_9StructureE
__ZN3JSC14ArrayPrototypeC1EPNS_14JSGlobalObjectEPNS_9StructureE
__ZN3JSC7JSArrayC2ERNS_12VMEPNS_9StructureE
__ZN3JSC15StringPrototypeC1EPNS_9ExecStateEPNS_14JSGlobalObjectEPNS_9StructureE
__ZN3JSC15StringPrototypeC2EPNS_9ExecStateEPNS_14JSGlobalObjectEPNS_9StructureE
__ZN3JSC12StringObjectC2EPNS_9ExecStateEPNS_9StructureE
__ZN3JSC16BooleanPrototypeC1EPNS_9ExecStateEPNS_14JSGlobalObjectEPNS_9StructureE
__ZN3JSC13BooleanObjectC2ERNS_12VMEPNS_9StructureE
__ZN3JSC15NumberPrototypeC1EPNS_9ExecStateEPNS_14JSGlobalObjectEPNS_9StructureE
__ZN3JSC12NumberObjectC2ERNS_12VMEPNS_9StructureE
__ZN3JSC13DatePrototypeC1EPNS_9ExecStateEPNS_14JSGlobalObjectEPNS_9StructureE
__ZN3JSC12DateInstanceC2EPNS_9ExecStateEPNS_9StructureE
__ZN3JSC12nonInlineNaNEv
__ZN3JSC15RegExpPrototypeC1EPNS_9ExecStateEPNS_14JSGlobalObjectEPNS_9StructureE
__ZN3JSC15RegExpPrototypeC2EPNS_9ExecStateEPNS_14JSGlobalObjectEPNS_9StructureE
__ZN3JSC6RegExp6createEPNS_12VMERKNS_7UStringENS_11RegExpFlagsE
__ZN3JSC6RegExp7compileEPNS_12VME
__ZN3JSC4Yarr11YarrPatternC1ERKNS_7UStringEbbPPKc
__ZN3JSC4Yarr11YarrPattern7compileERKNS_7UStringE
__ZN3WTF6VectorIPN3JSC4Yarr18PatternAlternativeELm0EE14expandCapacityEm
__ZN3JSC4Yarr6ParserINS0_22YarrPatternConstructorEE5parseEv
__ZN3JSC4Yarr10jitCompileERNS0_11YarrPatternEPNS_12VMERNS0_13YarrCodeBlockE
__ZN3JSC4Yarr13YarrGenerator13opCompileBodyEPNS0_18PatternDisjunctionE
__ZN3WTF6VectorIN3JSC22AbstractMacroAssemblerINS1_12X86AssemblerEE4JumpELm16EED1Ev
__ZN3JSC4Yarr13YarrGenerator20opCompileAlternativeEPNS0_18PatternAlternativeE
__ZN3JSC4Yarr13YarrGenerator8generateEv
__ZN3JSC4Yarr13YarrGenerator22jumpIfNoAvailableInputEj
__ZN3JSC22AbstractMacroAssemblerINS_12X86AssemblerEE8JumpList6appendENS2_4JumpE
__ZN3JSC4Yarr13YarrGenerator9backtrackEv
__ZN3JSC4Yarr13YarrGenerator17BacktrackingState4linkEPNS_14MacroAssemblerE
__ZN3JSC22AbstractMacroAssemblerINS_12X86AssemblerEE8JumpList4linkEPS2_
__ZN3JSC12X86Assembler7addl_irEiNS_12X86Registers10RegisterIDE
__ZN3JSC14MacroAssembler4jumpENS_22AbstractMacroAssemblerINS_12X86AssemblerEE5LabelE
__ZN3WTF15deleteAllValuesIPN3JSC4Yarr18PatternDisjunctionELm4EEEvRKNS_6VectorIT_XT0_EEE
__ZN3WTF15deleteAllValuesIPN3JSC4Yarr14CharacterClassELm0EEEvRKNS_6VectorIT_XT0_EEE
__ZN3JSC14ErrorPrototypeC1EPNS_9ExecStateEPNS_14JSGlobalObjectEPNS_9StructureE
__ZN3JSC14ErrorPrototypeC2EPNS_9ExecStateEPNS_14JSGlobalObjectEPNS_9StructureE
__ZN3JSC13ErrorInstanceC2EPNS_12VMEPNS_9StructureE
__ZN3JSC17ObjectConstructorC1EPNS_9ExecStateEPNS_14JSGlobalObjectEPNS_9StructureEPNS_15ObjectPrototypeE
__ZN3JSC17ObjectConstructorC2EPNS_9ExecStateEPNS_14JSGlobalObjectEPNS_9StructureEPNS_15ObjectPrototypeE
__ZN3JSC10Identifier3addEPNS_9ExecStateEPKc
__ZN3JSC19FunctionConstructorC1EPNS_9ExecStateEPNS_14JSGlobalObjectEPNS_9StructureEPNS_17FunctionPrototypeE
__ZN3JSC19FunctionConstructorC2EPNS_9ExecStateEPNS_14JSGlobalObjectEPNS_9StructureEPNS_17FunctionPrototypeE
__ZN3JSC16ArrayConstructorC1EPNS_9ExecStateEPNS_14JSGlobalObjectEPNS_9StructureEPNS_14ArrayPrototypeE
__ZN3JSC16ArrayConstructorC2EPNS_9ExecStateEPNS_14JSGlobalObjectEPNS_9StructureEPNS_14ArrayPrototypeE
__ZN3JSC17StringConstructorC1EPNS_9ExecStateEPNS_14JSGlobalObjectEPNS_9StructureEPNS_15StringPrototypeE
__ZN3JSC17StringConstructorC2EPNS_9ExecStateEPNS_14JSGlobalObjectEPNS_9StructureEPNS_15StringPrototypeE
__ZN3JSC18BooleanConstructorC1EPNS_9ExecStateEPNS_14JSGlobalObjectEPNS_9StructureEPNS_16BooleanPrototypeE
__ZN3JSC18BooleanConstructorC2EPNS_9ExecStateEPNS_14JSGlobalObjectEPNS_9StructureEPNS_16BooleanPrototypeE
__ZN3JSC17NumberConstructorC1EPNS_9ExecStateEPNS_14JSGlobalObjectEPNS_9StructureEPNS_15NumberPrototypeE
__ZN3JSC17NumberConstructorC2EPNS_9ExecStateEPNS_14JSGlobalObjectEPNS_9StructureEPNS_15NumberPrototypeE
__ZN3JSC15DateConstructorC1EPNS_9ExecStateEPNS_14JSGlobalObjectEPNS_9StructureEPNS_13DatePrototypeE
__ZN3JSC15DateConstructorC2EPNS_9ExecStateEPNS_14JSGlobalObjectEPNS_9StructureEPNS_13DatePrototypeE
__ZN3JSC17RegExpConstructorC1EPNS_9ExecStateEPNS_14JSGlobalObjectEPNS_9StructureEPNS_15RegExpPrototypeE
__ZN3JSC17RegExpConstructorC2EPNS_9ExecStateEPNS_14JSGlobalObjectEPNS_9StructureEPNS_15RegExpPrototypeE
__ZN3JSC16ErrorConstructorC1EPNS_9ExecStateEPNS_14JSGlobalObjectEPNS_9StructureEPNS_14ErrorPrototypeE
__ZN3JSC16ErrorConstructorC2EPNS_9ExecStateEPNS_14JSGlobalObjectEPNS_9StructureEPNS_14ErrorPrototypeE
__ZN3JSC22NativeErrorConstructorC1EPNS_9ExecStateEPNS_14JSGlobalObjectEPNS_9StructureES6_RKNS_7UStringE
__ZN3JSC22NativeErrorConstructorC2EPNS_9ExecStateEPNS_14JSGlobalObjectEPNS_9StructureES6_RKNS_7UStringE
__ZN3JSC10Identifier11addSlowCaseEPNS_9ExecStateEPN3WTF10StringImplE
__ZN3JSC15IdentifierTable3addEPN3WTF10StringImplE
__ZN3JSC20NativeErrorPrototypeC1EPNS_9ExecStateEPNS_14JSGlobalObjectEPNS_9StructureERKNS_7UStringEPNS_22NativeErrorConstructorE
__ZN3JSC20NativeErrorPrototypeC2EPNS_9ExecStateEPNS_14JSGlobalObjectEPNS_9StructureERKNS_7UStringEPNS_22NativeErrorConstructorE
__ZN3JSC10IdentifierC1EPNS_9ExecStateEPKc
__ZN3JSC10MathObjectC1EPNS_9ExecStateEPNS_14JSGlobalObjectEPNS_9StructureE
__ZN3JSC10MathObjectC2EPNS_9ExecStateEPNS_14JSGlobalObjectEPNS_9StructureE
__ZN3JSC12SmallStrings24singleCharacterStringRepEh
__ZN3JSC19SmallStringsStorageC2Ev
__ZN3JSC10JSONObjectC1EPNS_14JSGlobalObjectEPNS_9StructureE
__ZN3JSC14JSGlobalObject16addStaticGlobalsEPNS0_18GlobalPropertyInfoEi
__ZN3WTF7HashMapINS_6RefPtrINS_10StringImplEEEN3JSC16SymbolTableEntryENS4_17IdentifierRepHashENS_10HashTraitsIS3_EENS4_26SymbolTableIndexHashTraitsEE3addEPS2_RKS5_
__ZN3JSC9Structure25changePrototypeTransitionERNS_12VMEPS0_NS_7JSValueE
__ZN3JSC9Structure17copyPropertyTableERNS_12VMEPS0_
__ZN3JSC14JSGlobalObject10globalExecEv
_JSGlobalContextRetain
__ZN3JSC14MachineThreads16addCurrentThreadEv
__ZN3JSC6JSLockC1EPNS_9ExecStateE
__ZN3JSC4Heap7protectENS_7JSValueE
__ZN3JSC6JSLock6unlockENS_14JSLockBehaviorE
_JSStringCreateWithCFString
_JSValueMakeFromJSONString
__ZNK14OpaqueJSString7ustringEv
__ZN3JSC7UStringC1EPKtj
__ZN3JSC13LiteralParser5Lexer3lexERNS1_18LiteralParserTokenE
__ZN3JSC13LiteralParser5parseENS0_11ParserStateE
__ZN3JSC7JSArrayC1ERNS_12VMEPNS_9StructureE
__ZN3WTF13StringBuilder6appendEPKtj
__ZN3WTF13StringBuilder19appendUninitializedEj
__ZN3WTF13StringBuilder14allocateBufferEPKtj
__ZN3WTF13StringBuilder11shrinkToFitEv
__ZNK3WTF13StringBuilder11reifyStringEv
__ZNK3WTF13StringBuilder9canShrinkEv
__ZN3JSC7JSArray4pushEPNS_9ExecStateENS_7JSValueE
__ZN3JSC7JSArray20increaseVectorLengthEj
__ZN3WTF14tryFastReallocEPvm
_JSStringRelease
_JSValueIsNull
_JSValueIsUndefined
_JSValueIsBoolean
_JSValueIsNumber
_JSValueIsString
_JSValueToObject
__ZN3JSC12APIEntryShimC1EPNS_9ExecStateEb
__ZNK3JSC8JSObject8toObjectEPNS_9ExecStateEPNS_14JSGlobalObjectE
_JSContextGetGlobalObject
__ZNK3JSC8JSObject12toThisObjectEPNS_9ExecStateE
_JSStringCreateWithUTF8CString
_JSObjectGetProperty
__ZNK14OpaqueJSString10identifierEPN3JSC12VME
__ZN3JSC10Identifier3addEPNS_12VMEPKti
__ZN3JSC14JSGlobalObject18getOwnPropertySlotEPNS_9ExecStateERKNS_10IdentifierERNS_12PropertySlotE
_JSValueIsInstanceOfConstructor
__ZN3JSC16ArrayConstructor18getOwnPropertySlotEPNS_9ExecStateERKNS_10IdentifierERNS_12PropertySlotE
__ZN3JSC8JSObject11hasInstanceEPNS_9ExecStateENS_7JSValueES3_
__ZN3JSC6JSCell9getObjectEv
__ZN3JSC7JSArray18getOwnPropertySlotEPNS_9ExecStateERKNS_10IdentifierERNS_12PropertySlotE
_JSValueToNumber
_JSObjectGetPropertyAtIndex
__ZN3JSC7JSArray18getOwnPropertySlotEPNS_9ExecStateEjRNS_12PropertySlotE
_JSValueToStringCopy
__ZNK3JSC7JSValue8toStringEPNS_9ExecStateE
__ZN14OpaqueJSString6createERKN3JSC7UStringE
_JSStringCopyCFString
_JSGlobalContextRelease
__ZN3JSC4Heap9unprotectENS_7JSValueE
__ZN3WTF9HashTableIPN3JSC6JSCellESt4pairIS3_jENS_18PairFirstExtractorIS5_EENS_7PtrHashIS3_EENS_14PairHashTraitsINS_10HashTraitsIS3_EENSB_IjEEEESC_E4findIS3_NS_22IdentityHashTranslatorIS3_S5_S9_EEEENS_17HashTableIteratorIS3_S5_S7_S9_SE_SC_EERKT_
__ZN3WTF9HashTableIPN3JSC6JSCellESt4pairIS3_jENS_18PairFirstExtractorIS5_EENS_7PtrHashIS3_EENS_14PairHashTraitsINS_10HashTraitsIS3_EENSB_IjEEEESC_E6rehashEi
__ZN3JSC10HandleHeap4growEv
__ZN3JSC12SmallStrings27createSingleCharacterStringEPNS_12VMEh
__ZN3JSC37DefaultGCActivityCallbackPlatformData7triggerEP16__CFRunLoopTimerPv
__ZN3JSC4Heap17collectAllGarbageEv
__ZN3JSC12VM23recompileAllJSFunctionsEv
__ZN3JSC4Heap5resetENS0_11SweepToggleE
__ZN3JSC4Heap9markRootsEv
__ZN3JSC14MachineThreads23gatherConservativeRootsERNS_17ConservativeRootsEPv
__ZN3JSC14MachineThreads23gatherFromCurrentThreadERNS_17ConservativeRootsEPv
__ZN3JSC17ConservativeRoots3addEPvS1_
__ZN3JSC12JSStack23gatherConservativeRootsERNS_17ConservativeRootsE
__ZN3JSC11MarkedSpace10clearMarksEv
__ZN3JSC9MarkStack6appendERNS_17ConservativeRootsE
__ZN3JSC9MarkStack5drainEv
__ZN3JSC4Heap20markProtectedObjectsERNS_15HeapRootVisitorE
__ZN3JSC4Heap19markTempSortVectorsERNS_15HeapRootVisitorE
__ZN3JSC10HandleHeap17markStrongHandlesERNS_15HeapRootVisitorE
__ZN3JSC9MarkStack13visitChildrenEPNS_6JSCellE
__ZN3JSC9Structure13visitChildrenERNS_9MarkStackE
__ZN3JSC11HandleStack4markERNS_15HeapRootVisitorE
__ZN3JSC12SmallStrings13visitChildrenERNS_15HeapRootVisitorE
__ZN3JSC10HandleHeap15markWeakHandlesERNS_15HeapRootVisitorE
__ZN3JSC9MarkStack5resetEv
__ZN3JSC10HandleHeap19finalizeWeakHandlesEv
__ZN3JSC11MarkedSpace5resetEv
__ZN3JSC11MarkedSpace5sweepEv
__ZN3JSC11MarkedBlock5sweepEv
__ZN3JSC14JSGlobalObjectD1Ev
__ZN3JSC14JSGlobalObjectD2Ev
__ZN3WTF9HashTableINS_6RefPtrI21OpaqueJSWeakObjectMapEES3_NS_17IdentityExtractorIS3_EENS_7PtrHashIS3_EENS_10HashTraitsIS3_EES9_E15deallocateTableEPS3_i
__ZN3WTF9HashTableINS_6RefPtrI21OpaqueJSWeakObjectMapEES3_NS_17IdentityExtractorIS3_EENS_7PtrHashIS3_EENS_10HashTraitsIS3_EES9_E6rehashEi
__ZN3JSC8JSStringD1Ev
__ZN3JSC10JSFunctionD1Ev
__ZN3JSC14ArrayPrototypeD1Ev
__ZN3JSC7JSArrayD2Ev
__ZN3JSC13DatePrototypeD1Ev
__ZN3JSC13JSFinalObjectD1Ev
__ZN3JSC7JSArrayD1Ev
__ZN3JSC9StructureD1Ev
__ZN3JSC16NativeExecutableD1Ev
__ZN3JSC20NativeErrorPrototypeD1Ev
__ZN3JSC10MathObjectD1Ev
__ZN3JSC10JSONObjectD1Ev
__ZN3JSC17FunctionPrototypeD1Ev
__ZN3JSC17ObjectConstructorD1Ev
__ZN3JSC19FunctionConstructorD1Ev
__ZN3JSC16ArrayConstructorD1Ev
__ZN3JSC17StringConstructorD1Ev
__ZN3JSC18BooleanConstructorD1Ev
__ZN3JSC17NumberConstructorD1Ev
__ZN3JSC15DateConstructorD1Ev
__ZN3JSC16ErrorConstructorD1Ev
__ZN3JSC14ScopeChainNodeD1Ev
__ZN3JSC15ObjectPrototypeD1Ev
__ZN3JSC15StringPrototypeD1Ev
__ZN3JSC16BooleanPrototypeD1Ev
__ZN3JSC15NumberPrototypeD1Ev
__ZN3JSC15RegExpPrototypeD1Ev
__ZN3JSC12RegExpObjectD2Ev
__ZN3JSC6RegExpD1Ev
__ZN3JSC14ErrorPrototypeD1Ev
__ZN3JSC17RegExpConstructorD1Ev
__ZN3JSC22NativeErrorConstructorD1Ev
__ZN3JSC11MarkedSpace6shrinkEv
__ZN3JSC11MarkedSpace10freeBlocksERN3WTF16DoublyLinkedListINS_11MarkedBlockEEE
__ZN3JSC11MarkedBlock7destroyEPS0_
__ZN3WTF21PageAllocationAligned10deallocateEv
__ZNK3JSC11MarkedSpace4sizeEv
__ZN3WTFL43initializeMainThreadToProcessMainThreadOnceEv
__ZN3WTF47initializeMainThreadToProcessMainThreadPlatformEv
__ZN3WTF5equalEPKNS_10StringImplEPKc
__ZN3WTF17equalIgnoringCaseEPNS_10StringImplEPKc
__ZN3WTF12AtomicString4initEv
__ZN3WTF6String6appendERKS0_
__ZN3WTF6StringC1EPKtj
__ZN3WTF18charactersToDoubleEPKtmPbS2_
__ZN3WTF6strtodEPKcPPc
__ZN3WTF10StringImpl22containsOnlyWhitespaceEv
__ZN3WTF10StringImpl11reverseFindEPS0_j
__ZN3WTF17equalIgnoringCaseEPNS_10StringImplES1_
__ZN3JSC12VM12createLeakedENS_8HeapTypeE
__ZN3JSC24JSObjectWithGlobalObjectC2ERNS_12VMEPNS_14JSGlobalObjectEPNS_9StructureE
__ZN3JSC8evaluateEPNS_9ExecStateEPNS_14ScopeChainNodeERKNS_10SourceCodeENS_7JSValueE
__ZN3JSC17ProgramExecutableC1EPNS_9ExecStateERKNS_10SourceCodeE
__ZN3JSC11Interpreter7executeEPNS_17ProgramExecutableEPNS_9ExecStateEPNS_14ScopeChainNodeEPNS_8JSObjectE
__ZN3JSC24DynamicGlobalObjectScopeC1ERNS_12VMEPNS_14JSGlobalObjectE
__ZN3JSC19ExecutableAllocator19underMemoryPressureEv
__ZN3JSC12VM14resetDateCacheEv
__ZN3JSC17ProgramExecutable15compileInternalEPNS_9ExecStateEPNS_14ScopeChainNodeE
__ZN3JSC6Parser5parseINS_11ProgramNodeEEEN3WTF10PassRefPtrIT_EEPNS_14JSGlobalObjectEPNS_8DebuggerEPNS_9ExecStateERKNS_10SourceCodeEPNS_18FunctionParametersENS_18JSParserStrictnessEPPNS_8JSObjectE
__ZN3JSC6Parser5parseEPNS_12VMEPNS_18FunctionParametersENS_18JSParserStrictnessENS_12JSParserModeEPiPNS_7UStringE
__ZN3JSC5Lexer7setCodeERKNS_10SourceCodeERNS_11ParserArenaE
__ZN3JSC7jsParseEPNS_12VMEPNS_18FunctionParametersENS_18JSParserStrictnessENS_12JSParserModeEPKNS_10SourceCodeE
__ZN3JSC8JSParserC2EPNS_5LexerEPNS_12VMEPNS_18FunctionParametersEbbPNS_14SourceProviderE
__ZN3JSC8JSParser9pushScopeEv
__ZN3JSC8JSParser4nextENS_5Lexer7LexTypeE
__ZN3JSC5Lexer3lexEPNS_11JSTokenDataEPNS_11JSTokenInfoENS0_7LexTypeEb
__ZN3JSC8JSParser12parseProgramEv
__ZNK3JSC19SourceProviderCache8byteSizeEv
__ZN3WTF6VectorIPN3JSC20ParserArenaDeletableELm0EE15reserveCapacityEm
__ZN3JSC8JSParser19parseSourceElementsILNS0_18SourceElementsModeE0ENS_10ASTBuilderEEENT0_14SourceElementsERS4_
__ZN3JSC8JSParser14parseStatementINS_10ASTBuilderEEENT_9StatementERS3_RPKNS_10IdentifierE
__ZN3JSC6Parser16didFinishParsingEPNS_14SourceElementsEPNS_15ParserArenaDataIN3WTF6VectorISt4pairIPKNS_10IdentifierEjELm0EEEEEPNS3_INS5_IPNS_16FunctionBodyNodeELm0EEEEEjiiRNS4_7HashSetINS4_6RefPtrINS4_10StringImplEEENS_17IdentifierRepHashENS4_10HashTraitsISM_EEEE
__ZN3JSC11ParserArenaD1Ev
__ZN3JSC5Lexer5clearEv
__ZN3JSC11ProgramNode6createEPNS_12VMEPNS_14SourceElementsEPN3WTF6VectorISt4pairIPKNS_10IdentifierEjELm0EEEPNS6_IPNS_16FunctionBodyNodeELm0EEERNS5_7HashSetINS5_6RefPtrINS5_10StringImplEEENS_17IdentifierRepHashENS5_10HashTraitsISL_EEEERKNS_10SourceCodeEji
__ZN3JSC9ScopeNodeC2EPNS_12VMERKNS_10SourceCodeEPNS_14SourceElementsEPN3WTF6VectorISt4pairIPKNS_10IdentifierEjELm0EEEPNS9_IPNS_16FunctionBodyNodeELm0EEERNS8_7HashSetINS8_6RefPtrINS8_10StringImplEEENS_17IdentifierRepHashENS8_10HashTraitsISO_EEEEji
__ZN3JSC11ParserArena14derefWithArenaEN3WTF10PassRefPtrINS_21ParserArenaRefCountedEEE
__ZN3JSC11ParserArena10removeLastEv
__ZN3JSC11ParserArena5resetEv
__ZN3WTF6VectorIN3JSC10IdentifierELm64EE14shrinkCapacityEm
__ZN3JSC9CodeBlockC2EPNS_16ScriptExecutableENS_8CodeTypeEPNS_14JSGlobalObjectEN3WTF10PassRefPtrINS_14SourceProviderEEEjPNS6_7HashMapINS6_6RefPtrINS6_10StringImplEEENS_16SymbolTableEntryENS_17IdentifierRepHashENS6_10HashTraitsISD_EENS_26SymbolTableIndexHashTraitsEEEb
__ZN3JSC17BytecodeGeneratorC1EPNS_11ProgramNodeEPNS_14ScopeChainNodeEPN3WTF7HashMapINS5_6RefPtrINS5_10StringImplEEENS_16SymbolTableEntryENS_17IdentifierRepHashENS5_10HashTraitsIS9_EENS_26SymbolTableIndexHashTraitsEEEPNS_16ProgramCodeBlockE
__ZN3JSC17BytecodeGeneratorC2EPNS_11ProgramNodeEPNS_14ScopeChainNodeEPN3WTF7HashMapINS5_6RefPtrINS5_10StringImplEEENS_16SymbolTableEntryENS_17IdentifierRepHashENS5_10HashTraitsIS9_EENS_26SymbolTableIndexHashTraitsEEEPNS_16ProgramCodeBlockE
__ZN3JSC17BytecodeGenerator10emitOpcodeENS_8OpcodeIDE
__ZN3WTF6VectorIN3JSC11InstructionELm0EE15reserveCapacityEm
__ZN3WTF15SegmentedVectorIN3JSC10RegisterIDELm32EE13ensureSegmentEmm
__ZN3JSC14JSGlobalObject15resizeRegistersEii
__ZN3JSC17BytecodeGenerator8generateEv
__ZN3JSC11ProgramNode12emitBytecodeERNS_17BytecodeGeneratorEPNS_10RegisterIDE
__ZN3JSC17BytecodeGenerator13emitDebugHookENS_11DebugHookIDEii
__ZN3JSC17BytecodeGenerator12newTemporaryEv
__ZN3JSC17BytecodeGenerator11newRegisterEv
__ZN3JSC17BytecodeGenerator8emitLoadEPNS_10RegisterIDENS_7JSValueE
__ZN3JSC17BytecodeGenerator16addConstantValueENS_7JSValueE
__ZN3WTF9HashTableIPvSt4pairIS1_jENS_18PairFirstExtractorIS3_EENS_7PtrHashIS1_EENS_14PairHashTraitsIN3JSC24EncodedJSValueHashTraitsENS_10HashTraitsIjEEEESA_E6expandEv
__ZN3WTF6VectorIN3JSC12WriteBarrierINS1_7UnknownEEELm0EE14expandCapacityEm
__ZN3JSC17BytecodeGenerator16emitUnaryNoDstOpENS_8OpcodeIDEPNS_10RegisterIDE
__ZN3JSC9CodeBlock11shrinkToFitEv
__ZN3WTF6VectorIN3JSC11InstructionELm0EE14shrinkCapacityEm
__ZN3WTF6VectorIN3JSC17StructureStubInfoELm0EE14shrinkCapacityEm
__ZN3WTF6VectorIN3JSC10IdentifierELm0EE14shrinkCapacityEm
__ZN3WTF6VectorIN3JSC12WriteBarrierINS1_18FunctionExecutableEEELm0EE14shrinkCapacityEm
__ZN3WTF6VectorIN3JSC12WriteBarrierINS1_7UnknownEEELm0EE14shrinkCapacityEm
__ZN3JSC15ParserArenaDataIN3WTF6VectorISt4pairIPKNS_10IdentifierEjELm0EEEED1Ev
__ZN3JSC15ParserArenaDataIN3WTF6VectorIPNS_16FunctionBodyNodeELm0EEEED1Ev
__ZN3JSC14SourceElementsD1Ev
__ZN3JSC3JIT14privateCompileEPNS_21MacroAssemblerCodePtrE
__ZN3JSC3JIT22privateCompileMainPassEv
__ZN3JSC3JIT13emit_op_enterEPNS_11InstructionE
__ZN3JSC3JIT11emit_op_movEPNS_11InstructionE
__ZN3JSC3JIT11emit_op_endEPNS_11InstructionE
__ZN3JSC3JIT22privateCompileLinkPassEv
__ZN3JSC3JIT23privateCompileSlowCasesEv
__ZN3WTF6VectorIN3JSC18MethodCallLinkInfoELm0EE4growEm
__ZN3JSC17BytecodeGenerator18dumpsGeneratedCodeEv
__ZN3JSC4Heap29reportExtraMemoryCostSlowCaseEm
__ZN3JSC17BytecodeGeneratorD2Ev
__ZThn16_N3JSC11ProgramNodeD0Ev
__ZN3JSC11ProgramNodeD0Ev
__ZN3JSC12JSStack12globalObjectEv
__ZN3JSC14JSGlobalObject13copyGlobalsToERNS_12JSStackE
__ZN3JSC12JSStack15setGlobalObjectEPNS_14JSGlobalObjectE
_ctiTrampoline
__ZN3WTF15SegmentedVectorIN3JSC10IdentifierELm64EE6appendIS2_EEvRKT_
__ZNK3JSC9HashTable11createTableEPNS_12VME
__ZN3JSC8JSParser31parseExpressionOrLabelStatementINS_10ASTBuilderEEENT_9StatementERS3_
__ZN3JSC5Lexer16nextTokenIsColonEv
__ZN3JSC8JSParser15parseExpressionINS_10ASTBuilderEEENT_10ExpressionERS3_
__ZN3JSC8JSParser25parseAssignmentExpressionINS_10ASTBuilderEEENT_10ExpressionERS3_
__ZN3JSC8JSParser21parseMemberExpressionINS_10ASTBuilderEEENT_10ExpressionERS3_
__ZN3JSC11ParserArena20allocateFreeablePoolEv
__ZN3JSCL19isNonASCIIIdentPartEi
__ZN3JSC11ParserArena16allocateFreeableEm
__ZN3JSC14SourceElements6appendEPNS_13StatementNodeE
__ZNK3JSC13StatementNode16isEmptyStatementEv
__ZN3WTF6VectorIPN3JSC13StatementNodeELm0EE14expandCapacityEm
__ZN3JSC17ExprStatementNode12emitBytecodeERNS_17BytecodeGeneratorEPNS_10RegisterIDE
__ZN3JSC15DotAccessorNode12emitBytecodeERNS_17BytecodeGeneratorEPNS_10RegisterIDE
__ZN3JSC17BytecodeGenerator8emitNodeEPNS_10RegisterIDEPNS_4NodeE
__ZN3JSC11ResolveNode12emitBytecodeERNS_17BytecodeGeneratorEPNS_10RegisterIDE
__ZN3JSC17BytecodeGenerator11registerForERKNS_10IdentifierE
__ZN3JSC17BytecodeGenerator11emitResolveEPNS_10RegisterIDERKNS_10IdentifierE
__ZN3JSC17BytecodeGenerator18findScopedPropertyERKNS_10IdentifierERiRmbRbRPNS_8JSObjectE
__ZN3WTF6VectorIN3JSC17GlobalResolveInfoELm0EE14expandCapacityEm
__ZN3JSC17BytecodeGenerator11addConstantERKNS_10IdentifierE
__ZN3WTF6VectorIN3JSC10IdentifierELm0EE14expandCapacityEmPKS2_
__ZN3WTF6VectorIN3JSC10IdentifierELm0EE15reserveCapacityEm
__ZN3JSC17BytecodeGenerator11emitGetByIdEPNS_10RegisterIDES2_RKNS_10IdentifierE
__ZN3WTF6VectorIN3JSC17StructureStubInfoELm0EE14expandCapacityEm
__ZN3JSC3JIT22emit_op_resolve_globalEPNS_11InstructionEb
__ZN3WTF6VectorIN3JSC13SlowCaseEntryELm0EE14expandCapacityEmPKS2_
__ZN3WTF6VectorIN3JSC13SlowCaseEntryELm0EE14expandCapacityEm
__ZN3JSC3JIT17emit_op_get_by_idEPNS_11InstructionE
__ZN3JSC3JIT21compileGetByIdHotPathEiiPNS_10IdentifierEj
__ZN3JSC3JIT26emitSlow_op_resolve_globalEPNS_11InstructionERPNS_13SlowCaseEntryE
__ZN3JSC20MacroAssemblerX86_648storePtrENS_22AbstractMacroAssemblerINS_12X86AssemblerEE13TrustedImmPtrENS3_15ImplicitAddressE
__ZN3JSC11JITStubCall4callEj
__ZN3WTF6VectorIN3JSC10CallRecordELm0EE15reserveCapacityEm
__ZN3JSC3JIT21emitSlow_op_get_by_idEPNS_11InstructionERPNS_13SlowCaseEntryE
__ZN3JSC3JIT22compileGetByIdSlowCaseEiiPNS_10IdentifierERPNS_13SlowCaseEntryEb
__ZN3JSC11JITStubCall4callEv
_cti_op_resolve_global
__ZN3JSC15ObjectPrototype18getOwnPropertySlotEPNS_9ExecStateERKNS_10IdentifierERNS_12PropertySlotE
__ZN3JSC10Identifier8toUInt32ERKNS_7UStringERb
__ZN3WTF12AtomicString4findEPKtjj
__ZNK3WTF9HashTableIPNS_10StringImplES2_NS_17IdentityExtractorIS2_EENS_10StringHashENS_10HashTraitsIS2_EES7_E4findINS_17HashAndCharactersENS_24HashSetTranslatorAdapterIS2_S7_SA_NS_27HashAndCharactersTranslatorEEEEENS_22HashTableConstIteratorIS2_S2_S4_S5_S7_S7_EERKT_
__ZN3JSC28createUndefinedVariableErrorEPNS_9ExecStateERKNS_10IdentifierE
__ZN3JSC11makeUStringIPKcNS_7UStringEEES3_T_T0_
__ZN3WTF13tryMakeStringIPKcN3JSC7UStringEEENS_10PassRefPtrINS_10StringImplEEET_T0_
__ZN3JSC20createReferenceErrorEPNS_9ExecStateERKNS_7UStringE
__ZN3JSC13ErrorInstance6createEPNS_12VMEPNS_9StructureERKNS_7UStringE
__ZN3JSC13ErrorInstanceC2EPNS_12VMEPNS_9StructureERKNS_7UStringE
__ZN3JSCL23returnToThrowTrampolineEPNS_12VMENS_16ReturnAddressPtrERS2_
_ctiVMThrowTrampoline
_cti_vm_throw
__ZN3JSC11Interpreter14throwExceptionERPNS_9ExecStateERNS_7JSValueEj
__ZNK3JSC13ErrorInstance15isErrorInstanceEv
__ZNK3JSC8JSObject13exceptionTypeEv
__ZN3JSC9CodeBlock24handlerForBytecodeOffsetEj
__ZN3JSC11Interpreter15unwindCallFrameERPNS_9ExecStateENS_7JSValueERjRPNS_9CodeBlockE
_ctiOpThrowNotCaught
__ZNK3JSC8JSObject8toStringEPNS_9ExecStateE
__ZNK3JSC8JSObject11toPrimitiveEPNS_9ExecStateENS_22PreferredPrimitiveTypeE
__ZNK3JSC8JSObject12defaultValueEPNS_9ExecStateENS_22PreferredPrimitiveTypeE
__ZN3JSC14ErrorPrototype18getOwnPropertySlotEPNS_9ExecStateERKNS_10IdentifierERNS_12PropertySlotE
__ZN3JSC23setUpStaticFunctionSlotEPNS_9ExecStateEPKNS_9HashEntryEPNS_8JSObjectERKNS_10IdentifierERNS_12PropertySlotE
__ZN3JSC10JSFunction11getCallDataERNS_8CallDataE
__ZN3JSC4callEPNS_9ExecStateENS_7JSValueENS_8CallTypeERKNS_8CallDataES2_RKNS_7ArgListE
__ZN3JSC11Interpreter11executeCallEPNS_9ExecStateEPNS_8JSObjectENS_8CallTypeERKNS_8CallDataENS_7JSValueERKNS_7ArgListE
__ZN3JSCL22errorProtoFuncToStringEPNS_9ExecStateE
__ZN3WTF9HashTableIPN3JSC8JSObjectES3_NS_17IdentityExtractorIS3_EENS_7PtrHashIS3_EENS_10HashTraitsIS3_EES9_E6rehashEi
__ZNK3JSC8JSObject3getEPNS_9ExecStateERKNS_10IdentifierE
__ZN3WTF13tryMakeStringIN3JSC7UStringEPKcS2_EENS_10PassRefPtrINS_10StringImplEEET_T0_T1_
__ZN3JSC7toInt32Ed
__ZN3JSC11NewExprNode12emitBytecodeERNS_17BytecodeGeneratorEPNS_10RegisterIDE
__ZN3JSC13CallArgumentsC2ERNS_17BytecodeGeneratorEPNS_13ArgumentsNodeE
__ZN3JSC17BytecodeGenerator13emitConstructEPNS_10RegisterIDES2_RNS_13CallArgumentsEjjj
__ZN3JSC16ArgumentListNode12emitBytecodeERNS_17BytecodeGeneratorEPNS_10RegisterIDE
__ZN3JSC10StringNode12emitBytecodeERNS_17BytecodeGeneratorEPNS_10RegisterIDE
__ZN3JSC17BytecodeGenerator8emitLoadEPNS_10RegisterIDERKNS_10IdentifierE
__ZN3WTF9HashTableIPNS_10StringImplESt4pairIS2_PN3JSC8JSStringEENS_18PairFirstExtractorIS7_EENS4_17IdentifierRepHashENS_14PairHashTraitsINS_10HashTraitsIS2_EENSC_IS6_EEEESD_E6rehashEi
__ZN3WTF6VectorIN3JSC12CallLinkInfoELm0EE14expandCapacityEm
__ZN3JSC3JIT17emit_op_constructEPNS_11InstructionE
__ZN3JSC3JIT13compileOpCallENS_8OpcodeIDEPNS_11InstructionEj
__ZN3WTF6VectorIcLm128EE15reserveCapacityEm
__ZN3WTF6VectorIN3JSC10CallRecordELm0EE14expandCapacityEmPKS2_
__ZN3JSC3JIT23emit_op_call_put_resultEPNS_11InstructionE
__ZN3JSC3JIT21emitSlow_op_constructEPNS_11InstructionERPNS_13SlowCaseEntryE
__ZN3JSC3JIT21compileOpCallSlowCaseEPNS_11InstructionERPNS_13SlowCaseEntryEjNS_8OpcodeIDE
_cti_op_construct_NotJSConstruct
__ZN3JSC17StringConstructor16getConstructDataERNS_13ConstructDataE
__ZN3JSCL30constructWithStringConstructorEPNS_9ExecStateE
__ZN3JSC12StringObjectC1EPNS_9ExecStateEPNS_9StructureERKNS_7UStringE
__ZN3JSC12StringObjectC2EPNS_9ExecStateEPNS_9StructureERKNS_7UStringE
__ZN3JSC11BooleanNode12emitBytecodeERNS_17BytecodeGeneratorEPNS_10RegisterIDE
__ZN3JSC17BytecodeGenerator8emitLoadEPNS_10RegisterIDEb
__ZN3JSC9BlockNode12emitBytecodeERNS_17BytecodeGeneratorEPNS_10RegisterIDE
__ZN3JSC9ArrayNode12emitBytecodeERNS_17BytecodeGeneratorEPNS_10RegisterIDE
__ZN3JSC17BytecodeGenerator12emitNewArrayEPNS_10RegisterIDEPNS_11ElementNodeE
__ZN3JSC3JIT17emit_op_new_arrayEPNS_11InstructionE
_cti_op_new_array
__ZN3JSC7JSArrayC1ERNS_12VMEPNS_9StructureERKNS_7ArgListE
__ZN3JSC8JSParser17parseFunctionInfoILNS0_20FunctionRequirementsE0ELb0ENS_10ASTBuilderEEEbRT1_RPKNS_10IdentifierERNS4_19FormalParameterListERNS4_12FunctionBodyERiSE_SE_
__ZN3JSC8JSParser19parseSourceElementsILNS0_18SourceElementsModeE0ENS_13SyntaxCheckerEEENT0_14SourceElementsERS4_
__ZN3JSC8JSParser14parseStatementINS_13SyntaxCheckerEEENT_9StatementERS3_RPKNS_10IdentifierE
__ZN3JSC8JSParser15parseExpressionINS_13SyntaxCheckerEEENT_10ExpressionERS3_
__ZN3JSC8JSParser25parseAssignmentExpressionINS_13SyntaxCheckerEEENT_10ExpressionERS3_
__ZN3JSC8JSParser21parseMemberExpressionINS_13SyntaxCheckerEEENT_10ExpressionERS3_
__ZN3JSC16FunctionBodyNode6createEPNS_12VMEb
__ZN3JSC8JSParser5ScopeD1Ev
__ZN3JSC5Lexer10sourceCodeEiii
__ZN3JSC16FunctionBodyNode13finishParsingERKNS_10SourceCodeEPNS_13ParameterNodeERKNS_10IdentifierE
__ZN3JSC16FunctionBodyNode13finishParsingEN3WTF10PassRefPtrINS_18FunctionParametersEEERKNS_10IdentifierE
__ZN3JSC10ASTBuilder20makeFunctionCallNodeEPNS_14ExpressionNodeEPNS_13ArgumentsNodeEiii
__ZNK3JSC14ExpressionNode10isLocationEv
__ZN3JSC21FunctionCallValueNode12emitBytecodeERNS_17BytecodeGeneratorEPNS_10RegisterIDE
__ZN3JSC12FuncExprNode12emitBytecodeERNS_17BytecodeGeneratorEPNS_10RegisterIDE
__ZN3JSC17BytecodeGenerator25emitNewFunctionExpressionEPNS_10RegisterIDEPNS_12FuncExprNodeE
__ZN3JSC18FunctionExecutableC1EPNS_12VMERKNS_10IdentifierERKNS_10SourceCodeEbPNS_18FunctionParametersEbii
__ZN3WTF6VectorIN3JSC12WriteBarrierINS1_18FunctionExecutableEEELm0EE14expandCapacityEm
__ZN3JSC17BytecodeGenerator8emitCallEPNS_10RegisterIDES2_RNS_13CallArgumentsEjjj
__ZN3JSC17BytecodeGenerator8emitCallENS_8OpcodeIDEPNS_10RegisterIDES3_RNS_13CallArgumentsEjjj
__ZThn16_N3JSC16FunctionBodyNodeD0Ev
__ZN3JSC16FunctionBodyNodeD0Ev
__ZN3JSC3JIT20emit_op_new_func_expEPNS_11InstructionE
__ZN3JSC3JIT12emit_op_callEPNS_11InstructionE
__ZN3JSC3JIT16emitSlow_op_callEPNS_11InstructionERPNS_13SlowCaseEntryE
_cti_op_new_func_exp
__ZN3JSC10JSFunctionC1EPNS_9ExecStateEPNS_18FunctionExecutableEPNS_14ScopeChainNodeE
__ZN3JSC10JSFunctionC2EPNS_9ExecStateEPNS_18FunctionExecutableEPNS_14ScopeChainNodeE
_cti_vm_lazyLinkCall
__ZN3JSC18FunctionExecutable22compileForCallInternalEPNS_9ExecStateEPNS_14ScopeChainNodeE
__ZN3JSC6Parser5parseINS_16FunctionBodyNodeEEEN3WTF10PassRefPtrIT_EEPNS_14JSGlobalObjectEPNS_8DebuggerEPNS_9ExecStateERKNS_10SourceCodeEPNS_18FunctionParametersENS_18JSParserStrictnessEPPNS_8JSObjectE
__ZN3JSC8JSParser19parseSourceElementsILNS0_18SourceElementsModeE1ENS_10ASTBuilderEEENT0_14SourceElementsERS4_
__ZN3JSC8JSParser19parseThrowStatementINS_10ASTBuilderEEENT_9StatementERS3_
__ZN3JSC16FunctionBodyNode6createEPNS_12VMEPNS_14SourceElementsEPN3WTF6VectorISt4pairIPKNS_10IdentifierEjELm0EEEPNS6_IPS0_Lm0EEERNS5_7HashSetINS5_6RefPtrINS5_10StringImplEEENS_17IdentifierRepHashENS5_10HashTraitsISK_EEEERKNS_10SourceCodeEji
__ZN3JSC17BytecodeGeneratorC1EPNS_16FunctionBodyNodeEPNS_14ScopeChainNodeEPN3WTF7HashMapINS5_6RefPtrINS5_10StringImplEEENS_16SymbolTableEntryENS_17IdentifierRepHashENS5_10HashTraitsIS9_EENS_26SymbolTableIndexHashTraitsEEEPNS_9CodeBlockE
__ZN3JSC17BytecodeGeneratorC2EPNS_16FunctionBodyNodeEPNS_14ScopeChainNodeEPN3WTF7HashMapINS5_6RefPtrINS5_10StringImplEEENS_16SymbolTableEntryENS_17IdentifierRepHashENS5_10HashTraitsIS9_EENS_26SymbolTableIndexHashTraitsEEEPNS_9CodeBlockE
__ZN3WTF15SegmentedVectorIN3JSC10RegisterIDELm32EEC1Ev
__ZN3WTF6VectorIN3JSC11InstructionELm0EE14expandCapacityEm
__ZN3JSC16FunctionBodyNode12emitBytecodeERNS_17BytecodeGeneratorEPNS_10RegisterIDE
__ZN3JSC9ThrowNode12emitBytecodeERNS_17BytecodeGeneratorEPNS_10RegisterIDE
__ZNK3JSC9ScopeNode15singleStatementEv
__ZNK3JSC9BlockNode7isBlockEv
__ZNK3JSC13StatementNode12isReturnNodeEv
__ZN3JSC17BytecodeGenerator10emitReturnEPNS_10RegisterIDE
__ZN3JSC3JIT13emit_op_throwEPNS_11InstructionE
__ZN3JSC11JITStubCall11addArgumentEjNS_12X86Registers10RegisterIDE
__ZN3JSC3JIT11emit_op_retEPNS_11InstructionE
_cti_op_throw
__ZNK3JSC8JSString8toObjectEPNS_9ExecStateEPNS_14JSGlobalObjectE
__ZN3JSC12StringObjectC1ERNS_12VMEPNS_9StructureEPNS_8JSStringE
__ZN3JSC12StringObject18getOwnPropertySlotEPNS_9ExecStateERKNS_10IdentifierERNS_12PropertySlotE
__ZN3JSC15StringPrototype18getOwnPropertySlotEPNS_9ExecStateERKNS_10IdentifierERNS_12PropertySlotE
__ZN3JSC17BytecodeGenerator8emitMoveEPNS_10RegisterIDES2_
__ZN3JSCL20isNonASCIIIdentStartEi
__ZN3JSC10NumberNode12emitBytecodeERNS_17BytecodeGeneratorEPNS_10RegisterIDE
__ZN3JSC17BytecodeGenerator8emitLoadEPNS_10RegisterIDEd
__ZN3WTF9HashTableIdSt4pairIdN3JSC7JSValueEENS_18PairFirstExtractorIS4_EENS_9FloatHashIdEENS_14PairHashTraitsINS_10HashTraitsIdEENSA_IS3_EEEESB_E6expandEv
__ZN3JSC7UString6numberEj
__ZNK3JSC7JSValue16toObjectSlowCaseEPNS_9ExecStateEPNS_14JSGlobalObjectE
__ZN3JSC15constructNumberEPNS_9ExecStateEPNS_14JSGlobalObjectENS_7JSValueE
__ZN3JSC15NumberPrototype18getOwnPropertySlotEPNS_9ExecStateERKNS_10IdentifierERNS_12PropertySlotE
__ZN3JSC12StringObjectC1EPNS_9ExecStateEPNS_9StructureE
__ZN3JSC5Lexer7record8Ei
__ZN3JSC8NullNode12emitBytecodeERNS_17BytecodeGeneratorEPNS_10RegisterIDE
__ZN3JSC18FunctionExecutable11discardCodeEv
__ZN3JSC17FunctionCodeBlockD0Ev
__ZN3JSC9CodeBlockD2Ev
__ZN3JSC15WeakHandleOwner26isReachableFromOpaqueRootsENS_6HandleINS_7UnknownEEEPvRNS_9MarkStackE
__ZN3JSC12JSStack17GlobalObjectOwner8finalizeENS_6HandleINS_7UnknownEEEPv
__ZN3JSC13ErrorInstanceD1Ev
__ZN3JSC12StringObjectD1Ev
__ZN3JSC12NumberObjectD1Ev
__ZN3JSC17ProgramExecutableD1Ev
__ZN3JSC16ProgramCodeBlockD0Ev
__ZN3JSC19SourceProviderCacheD1Ev
__ZN3WTF20deleteAllPairSecondsIPN3JSC23SourceProviderCacheItemEKNS_7HashMapIiS3_NS_7IntHashIjEENS_10HashTraitsIiEENS7_IS3_EEEEEEvRT0_
__ZN3JSC17StructureStubInfo5derefEv
__ZN3JSC18FunctionExecutableD1Ev
__ZN3WTFeqERKNS_12AtomicStringEPKc
_JSClassCreate
__ZN13OpaqueJSClass6createEPK17JSClassDefinition
__ZN13OpaqueJSClassC2EPK17JSClassDefinitionPS_
__ZN3WTF9HashTableINS_6RefPtrINS_10StringImplEEESt4pairIS3_P19StaticFunctionEntryENS_18PairFirstExtractorIS7_EENS_10StringHashENS_14PairHashTraitsINS_10HashTraitsIS3_EENSC_IS6_EEEESD_E6expandEv
__ZN3WTF9HashTableINS_6RefPtrINS_10StringImplEEESt4pairIS3_P16StaticValueEntryENS_18PairFirstExtractorIS7_EENS_10StringHashENS_14PairHashTraitsINS_10HashTraitsIS3_EENSC_IS6_EEEESD_E6expandEv
_JSClassRetain
_JSObjectMake
__ZN3JSC16JSCallbackObjectINS_24JSObjectWithGlobalObjectEEC2EPNS_9ExecStateEPNS_14JSGlobalObjectEPNS_9StructureEP13OpaqueJSClassPv
__ZN3JSC16JSCallbackObjectINS_24JSObjectWithGlobalObjectEE4initEPNS_9ExecStateE
__ZN13OpaqueJSClass9prototypeEPN3JSC9ExecStateE
__ZN13OpaqueJSClass11contextDataEPN3JSC9ExecStateE
__ZN3WTF9HashTableIP13OpaqueJSClassSt4pairIS2_P24OpaqueJSClassContextDataENS_18PairFirstExtractorIS6_EENS_7PtrHashIS2_EENS_14PairHashTraitsINS_10HashTraitsIS2_EENSC_IS5_EEEESD_E6expandEv
__ZN24OpaqueJSClassContextDataC2ERN3JSC12VMEP13OpaqueJSClass
_JSClassRelease
_JSObjectSetProperty
__ZNK3JSC8JSObject11hasPropertyEPNS_9ExecStateERKNS_10IdentifierE
__ZN3JSC14JSGlobalObject17putWithAttributesEPNS_9ExecStateERKNS_10IdentifierENS_7JSValueEj
__ZN3JSC8JSObject3putEPNS_9ExecStateERKNS_10IdentifierENS_7JSValueERNS_15PutPropertySlotE
__ZN3JSC8JSObject17putWithAttributesEPNS_9ExecStateERKNS_10IdentifierENS_7JSValueEj
__ZN3JSC14JSGlobalObject3putEPNS_9ExecStateERKNS_10IdentifierENS_7JSValueERNS_15PutPropertySlotE
__ZN3JSC8JSParser16parseIfStatementINS_10ASTBuilderEEENT_9StatementERS3_
__ZNK3JSC15DotAccessorNode10isLocationEv
__ZNK3JSC14ExpressionNode13isResolveNodeEv
__ZNK3JSC14ExpressionNode21isBracketAccessorNodeEv
__ZN3JSC9CodeBlock25createRareDataIfNecessaryEv
__ZN3WTF6VectorIN3JSC8LineInfoELm0EE14expandCapacityEm
__ZN3JSC17BytecodeGenerator8newLabelEv
__ZNK3JSC14ExpressionNode26hasConditionContextCodegenEv
__ZN3WTF6VectorIN3JSC19ExpressionRangeInfoELm0EE14expandCapacityEm
__ZN3JSC17BytecodeGenerator15emitJumpIfFalseEPNS_10RegisterIDEPNS_5LabelE
__ZN3JSC19FunctionCallDotNode12emitBytecodeERNS_17BytecodeGeneratorEPNS_10RegisterIDE
__ZN3JSC17BytecodeGenerator15emitMethodCheckEv
__ZN3JSC17BytecodeGenerator9emitLabelEPNS_5LabelE
__ZN3WTF6VectorIjLm0EE15reserveCapacityEm
__ZN3WTF6VectorIN3JSC11HandlerInfoELm0EE14shrinkCapacityEm
__ZN3WTF6VectorIN3JSC15SimpleJumpTableELm0EE14shrinkCapacityEm
__ZN3WTF6VectorIN3JSC15StringJumpTableELm0EE14shrinkCapacityEm
__ZN3WTF6VectorIN3JSC8LineInfoELm0EE14shrinkCapacityEm
__ZN3JSC3JIT14emit_op_jfalseEPNS_11InstructionE
__ZN3JSC20MacroAssemblerX86_649branchPtrENS_23MacroAssemblerX86Common19RelationalConditionENS_12X86Registers10RegisterIDES4_
__ZN3WTF6VectorIN3JSC9JumpTableELm0EE14expandCapacityEmPKS2_
__ZN3WTF6VectorIN3JSC9JumpTableELm0EE14expandCapacityEm
__ZN3JSC3JIT20emit_op_method_checkEPNS_11InstructionE
__ZN3WTF6VectorIN3JSC25MethodCallCompilationInfoELm0EE14expandCapacityEm
__ZN3JSC3JIT18emitSlow_op_jfalseEPNS_11InstructionERPNS_13SlowCaseEntryE
__ZN3JSC23MacroAssemblerX86Common12branchTest32ENS0_15ResultConditionENS_12X86Registers10RegisterIDENS_22AbstractMacroAssemblerINS_12X86AssemblerEE12TrustedImm32E
__ZN3JSC3JIT24emitSlow_op_method_checkEPNS_11InstructionERPNS_13SlowCaseEntryE
__ZN3WTF6VectorIN3JSC32CallReturnOffsetToBytecodeOffsetELm0EE15reserveCapacityEm
_cti_op_get_by_id
__ZNK3JSC7JSValue3getEPNS_9ExecStateERKNS_10IdentifierERNS_12PropertySlotE
_cti_op_jtrue
__ZNK3JSC8JSObject9toBooleanEPNS_9ExecStateE
_cti_op_get_by_id_method_check
__ZN3JSC16JSCallbackObjectINS_24JSObjectWithGlobalObjectEE18getOwnPropertySlotEPNS_9ExecStateERKNS_10IdentifierERNS_12PropertySlotE
__ZN3JSC16JSCallbackObjectINS_24JSObjectWithGlobalObjectEE20staticFunctionGetterEPNS_9ExecStateENS_7JSValueERKNS_10IdentifierE
__ZN3JSC18JSCallbackFunctionC1EPNS_9ExecStateEPNS_14JSGlobalObjectEPFPK13OpaqueJSValuePK15OpaqueJSContextPS5_SB_mPKS7_PS7_ERKNS_10IdentifierE
_cti_op_call_NotJSFunction
__ZN3JSC18JSCallbackFunction11getCallDataERNS_8CallDataE
__ZN3JSC18JSCallbackFunction4callEPNS_9ExecStateE
__ZN3JSC6JSLock12DropAllLocksC1EPNS_9ExecStateE
_JSObjectGetPrivate
_JSValueMakeUndefined
__ZN3JSC6JSLock12DropAllLocksD1Ev
__ZN3WTF6String6appendEPKtj
__ZN3JSC15WeakHandleOwnerD2Ev
__ZN3JSC8JSParser24parseFunctionDeclarationINS_10ASTBuilderEEENT_9StatementERS3_
__ZN3JSC8JSParser17parseFunctionInfoILNS0_20FunctionRequirementsE1ELb1ENS_10ASTBuilderEEEbRT1_RPKNS_10IdentifierERNS4_19FormalParameterListERNS4_12FunctionBodyERiSE_SE_
__ZN3JSC8JSParser16parseIfStatementINS_13SyntaxCheckerEEENT_9StatementERS3_
__ZN3WTF7HashSetINS_6RefPtrINS_10StringImplEEEN3JSC17IdentifierRepHashENS_10HashTraitsIS3_EEE3addERKS3_
__ZN3JSC8JSParser31parseExpressionOrLabelStatementINS_13SyntaxCheckerEEENT_9StatementERS3_
__ZN3JSC8JSParser19parseVarDeclarationINS_13SyntaxCheckerEEENT_9StatementERS3_
__ZN3JSC8JSParser5Scope15declareVariableEPKNS_10IdentifierE
__ZN3WTF14deleteOwnedPtrIN3JSC23SourceProviderCacheItemEEEvPT_
__ZN3JSC8JSParser5Scope29copyCapturedVariablesToVectorERKN3WTF7HashSetINS2_6RefPtrINS2_10StringImplEEENS_17IdentifierRepHashENS2_10HashTraitsIS6_EEEERNS2_6VectorIS6_Lm0EEE
__ZN3WTF9HashTableINS_6RefPtrINS_10StringImplEEES3_NS_17IdentityExtractorIS3_EEN3JSC17IdentifierRepHashENS_10HashTraitsIS3_EES9_E13isEmptyBucketERKS3_
__ZN3WTF9HashTableINS_6RefPtrINS_10StringImplEEES3_NS_17IdentityExtractorIS3_EEN3JSC17IdentifierRepHashENS_10HashTraitsIS3_EES9_E15deallocateTableEPS3_i
__ZN3WTF9HashTableINS_6RefPtrINS_10StringImplEEES3_NS_17IdentityExtractorIS3_EEN3JSC17IdentifierRepHashENS_10HashTraitsIS3_EES9_E6expandEv
__ZN3WTF9HashTableINS_6RefPtrINS_10StringImplEEES3_NS_17IdentityExtractorIS3_EEN3JSC17IdentifierRepHashENS_10HashTraitsIS3_EES9_E6rehashEi
__ZN3WTF6VectorINS_6RefPtrINS_10StringImplEEELm0EE14expandCapacityEm
__ZN3JSC19SourceProviderCache3addEiN3WTF10PassOwnPtrINS_23SourceProviderCacheItemEEEj
__ZN3WTF9HashTableIiSt4pairIiPN3JSC23SourceProviderCacheItemEENS_18PairFirstExtractorIS5_EENS_7IntHashIjEENS_14PairHashTraitsINS_10HashTraitsIiEENSB_IS4_EEEESC_E6expandEv
__ZN3WTF6VectorIPN3JSC16FunctionBodyNodeELm0EE15reserveCapacityEm
__ZN3JSC8JSObject12removeDirectERNS_12VMERKNS_10IdentifierE
__ZN3WTF9HashTableINS_6RefPtrINS_10StringImplEEESt4pairIS3_N3JSC16SymbolTableEntryEENS_18PairFirstExtractorIS7_EENS5_17IdentifierRepHashENS_14PairHashTraitsINS_10HashTraitsIS3_EENS5_26SymbolTableIndexHashTraitsEEESD_E13isEmptyBucketERKS7_
__ZN3WTF9HashTableINS_6RefPtrINS_10StringImplEEESt4pairIS3_N3JSC16SymbolTableEntryEENS_18PairFirstExtractorIS7_EENS5_17IdentifierRepHashENS_14PairHashTraitsINS_10HashTraitsIS3_EENS5_26SymbolTableIndexHashTraitsEEESD_E6expandEv
__ZN3WTF9HashTableINS_6RefPtrINS_10StringImplEEESt4pairIS3_N3JSC16SymbolTableEntryEENS_18PairFirstExtractorIS7_EENS5_17IdentifierRepHashENS_14PairHashTraitsINS_10HashTraitsIS3_EENS5_26SymbolTableIndexHashTraitsEEESD_E6rehashEi
__ZN3WTF9HashTableIPNS_10StringImplES2_NS_17IdentityExtractorIS2_EEN3JSC17IdentifierRepHashENS_10HashTraitsIS2_EES8_E6rehashEi
__ZN3JSC17BytecodeGenerator12addGlobalVarERKNS_10IdentifierEbRPNS_10RegisterIDE
__ZN3JSC18FunctionExecutableC1EPNS_9ExecStateERKNS_10IdentifierERKNS_10SourceCodeEbPNS_18FunctionParametersEbii
__ZN3JSC12FuncDeclNode12emitBytecodeERNS_17BytecodeGeneratorEPNS_10RegisterIDE
__ZN3JSC14JSGlobalObject15copyGlobalsFromERNS_12JSStackE
__ZNK3WTF12AtomicString5lowerEv
__ZN3JSC41constructFunctionSkippingEvalEnabledCheckEPNS_9ExecStateEPNS_14JSGlobalObjectERKNS_7ArgListERKNS_10IdentifierERKNS_7UStringEi
__ZN3WTF13StringBuilder6appendEPKcj
__ZNK3JSC21UStringSourceProvider6lengthEv
__ZN3JSC18FunctionExecutable14fromGlobalCodeERKNS_10IdentifierEPNS_9ExecStateEPNS_8DebuggerERKNS_10SourceCodeEPPNS_8JSObjectE
__ZNK3JSC21UStringSourceProvider4dataEv
__ZN3JSC8JSParser16declareParameterEPKNS_10IdentifierE
__ZN3WTF6VectorIN3JSC10IdentifierELm0EE14expandCapacityEm
__ZN3JSC10JSFunction18getOwnPropertySlotEPNS_9ExecStateERKNS_10IdentifierERNS_12PropertySlotE
__ZN3JSC9Structure22materializePropertyMapERNS_12VME
__ZNK3JSC11ResolveNode10isLocationEv
__ZNK3JSC11ResolveNode13isResolveNodeEv
__ZN3JSC17BytecodeGenerator12addParameterERKNS_10IdentifierEi
__ZN3JSC23FunctionCallResolveNode12emitBytecodeERNS_17BytecodeGeneratorEPNS_10RegisterIDE
__ZNK3JSC16JSVariableObject16isVariableObjectEv
__ZN3JSC17BytecodeGenerator16emitGetScopedVarEPNS_10RegisterIDEmiNS_7JSValueE
__ZN3JSC3JIT22emit_op_get_global_varEPNS_11InstructionE
__ZN3JSC8JSParser19parseVarDeclarationINS_10ASTBuilderEEENT_9StatementERS3_
__ZN3WTF6VectorISt4pairIPKN3JSC10IdentifierEjELm0EE15reserveCapacityEm
__ZN3JSC9ScopeNode8capturesERKNS_10IdentifierE
__ZN3JSC17BytecodeGenerator6addVarERKNS_10IdentifierEbRPNS_10RegisterIDE
__ZNK3JSC14JSGlobalObject14isDynamicScopeERb
__ZN3JSC16VarStatementNode12emitBytecodeERNS_17BytecodeGeneratorEPNS_10RegisterIDE
__ZN3JSC17AssignResolveNode12emitBytecodeERNS_17BytecodeGeneratorEPNS_10RegisterIDE
__ZN3JSC17BytecodeGenerator15isLocalConstantERKNS_10IdentifierE
_cti_stack_check
__ZN3JSC16JSCallbackObjectINS_24JSObjectWithGlobalObjectEE17staticValueGetterEPNS_9ExecStateENS_7JSValueERKNS_10IdentifierE
__ZN3WTF9HashTableISt4pairINS_6RefPtrINS_10StringImplEEEjES1_IS5_PN3JSC7JSValueEENS_18PairFirstExtractorIS9_EENS6_24StructureTransitionTable4HashENS_14PairHashTraitsINSC_10HashTraitsENS_10HashTraitsIS8_EEEESF_E6rehashEi
_JSValueMakeString
__ZN3JSC8ThisNode12emitBytecodeERNS_17BytecodeGeneratorEPNS_10RegisterIDE
__ZN3JSC3JIT20emit_op_convert_thisEPNS_11InstructionE
__ZN3JSC23MacroAssemblerX86Common11branchTest8ENS0_15ResultConditionENS_22AbstractMacroAssemblerINS_12X86AssemblerEE7AddressENS4_12TrustedImm32E
__ZN3JSC3JIT24emitSlow_op_convert_thisEPNS_11InstructionERPNS_13SlowCaseEntryE
__ZN3JSC8JSObject13visitChildrenERNS_9MarkStackE
__ZN3JSC14JSGlobalObject13visitChildrenERNS_9MarkStackE
__ZN3JSC9MarkStack14MarkStackArrayIPNS_6JSCellEE6appendERKS3_
__ZN3JSC10JSFunction13visitChildrenERNS_9MarkStackE
__ZN3JSC18FunctionExecutable13visitChildrenERNS_9MarkStackE
__ZN3JSC14ScopeChainNode13visitChildrenERNS_9MarkStackE
__ZN3JSC12RegExpObject13visitChildrenERNS_9MarkStackE
__ZN3JSC15JSWrapperObject13visitChildrenERNS_9MarkStackE
__ZN3JSC7JSArray13visitChildrenERNS_9MarkStackE
__ZN3JSC22NativeErrorConstructor13visitChildrenERNS_9MarkStackE
__ZN3JSC16JSCallbackObjectINS_24JSObjectWithGlobalObjectEE13visitChildrenERNS_9MarkStackE
__ZN3JSC9WeakGCMapISt4pairIN3WTF6RefPtrINS2_10StringImplEEEjENS_9StructureENS_24StructureTransitionTable26WeakGCMapFinalizerCallbackENS8_4HashENS8_10HashTraitsEE8finalizeENS_6HandleINS_7UnknownEEEPv
__ZN3JSC9WeakGCMapISt4pairIN3WTF6RefPtrINS2_10StringImplEEEjENS_9StructureENS_24StructureTransitionTable26WeakGCMapFinalizerCallbackENS8_4HashENS8_10HashTraitsEED0Ev
__ZN3JSC9WeakGCMapISt4pairIN3WTF6RefPtrINS2_10StringImplEEEjENS_9StructureENS_24StructureTransitionTable26WeakGCMapFinalizerCallbackENS8_4HashENS8_10HashTraitsEED1Ev
__ZN3WTF7HashMapISt4pairINS_6RefPtrINS_10StringImplEEEjEPN3JSC7JSValueENS6_24StructureTransitionTable4HashENS9_10HashTraitsENS_10HashTraitsIS8_EEE4takeERKS5_
__ZN3JSC20JSCallbackObjectData8finalizeENS_6HandleINS_7UnknownEEEPv
__ZN3JSC16JSCallbackObjectINS_24JSObjectWithGlobalObjectEED1Ev
__ZN3JSC20JSCallbackObjectDataD0Ev
__ZN3JSC18JSCallbackFunctionD1Ev
__ZN3WTF10StringImpl23reverseFindIgnoringCaseEPS0_j
__ZN3WTF6VectorIN3JSC4Yarr11PatternTermELm0EE14expandCapacityEm
__ZN3JSC4Yarr6ParserINS0_22YarrPatternConstructorEE28CharacterClassParserDelegate20atomPatternCharacterEtb
__ZN3JSC4Yarr25CharacterClassConstructor14addSortedRangeERN3WTF6VectorINS0_14CharacterRangeELm0EEEtt
__ZN3WTF6VectorIN3JSC4Yarr14CharacterRangeELm0EE14expandCapacityEmPKS3_
__ZN3WTF6VectorIN3JSC4Yarr14CharacterRangeELm0EE14expandCapacityEm
__ZN3JSC4Yarr6ParserINS0_22YarrPatternConstructorEE11parseEscapeILb1ENS3_28CharacterClassParserDelegateEEEbRT0_
__ZN3JSC4Yarr25CharacterClassConstructor7putCharEt
__ZN3WTF6VectorItLm0EE14expandCapacityEm
__ZN3JSC4Yarr22YarrPatternConstructor21atomCharacterClassEndEv
__ZN3WTF6VectorIPN3JSC4Yarr14CharacterClassELm0EE14expandCapacityEm
__ZN3JSC4Yarr22YarrPatternConstructor20atomPatternCharacterEt
__ZN3JSC4Yarr6ParserINS0_22YarrPatternConstructorEE11parseEscapeILb0ES2_EEbRT0_
__ZN3JSC4Yarr11byteCompileERNS0_11YarrPatternEPN3WTF20BumpPointerAllocatorE
__ZN3WTF6VectorIN3JSC4Yarr8ByteTermELm0EE14expandCapacityEm
__ZN3JSC4Yarr12ByteCompiler15emitDisjunctionEPNS0_18PatternDisjunctionEjj
__ZN3JSC4Yarr13newlineCreateEv
__ZN3JSC4Yarr14wordcharCreateEv
__ZN3JSC4Yarr9interpretEPNS0_15BytecodePatternEPKtjjPi
__ZN3JSC4Yarr11Interpreter16matchDisjunctionEPNS0_15ByteDisjunctionEPNS1_18DisjunctionContextEb
__ZN3WTF6VectorIiLm0EE14expandCapacityEm
__ZN3JSC8JSParser20parseReturnStatementINS_13SyntaxCheckerEEENT_9StatementERS3_
__ZN3JSC5Lexer10scanRegExpERPKNS_10IdentifierES4_t
__ZN3JSC4Yarr11checkSyntaxERKNS_7UStringE
__ZN3JSC4Yarr6ParserINS0_13SyntaxCheckerEE5parseEv
__ZN3JSC8JSParser17parseTryStatementINS_13SyntaxCheckerEEENT_9StatementERS3_
__ZN3JSC8JSParser17parseForStatementINS_13SyntaxCheckerEEENT_9StatementERS3_
__ZN3WTF6VectorISt4pairIiiELm0EE14expandCapacityEm
__ZN3JSC8JSParser24parseFunctionDeclarationINS_13SyntaxCheckerEEENT_9StatementERS3_
__ZN3JSC8JSParser17parseFunctionInfoILNS0_20FunctionRequirementsE1ELb1ENS_13SyntaxCheckerEEEbRT1_RPKNS_10IdentifierERNS4_19FormalParameterListERNS4_12FunctionBodyERiSE_SE_
_JSValueToBoolean
__ZN3WTF21charactersToIntStrictEPKtmPbi
__ZN3JSC8JSParser17parseForStatementINS_10ASTBuilderEEENT_9StatementERS3_
__ZN3JSC10ASTBuilder14makeBinaryNodeEiSt4pairIPNS_14ExpressionNodeENS0_12BinaryOpInfoEES5_
__ZN3JSC10ASTBuilder15makePostfixNodeEPNS_14ExpressionNodeENS_8OperatorEiii
__ZN3JSC10ASTBuilder14makeAssignNodeEPNS_14ExpressionNodeENS_8OperatorES2_bbiii
__ZN3JSC7ForNode12emitBytecodeERNS_17BytecodeGeneratorEPNS_10RegisterIDE
__ZN3JSC17BytecodeGenerator13newLabelScopeENS_10LabelScope4TypeEPKNS_10IdentifierE
__ZN3JSC17BytecodeGenerator8emitJumpEPNS_5LabelE
__ZN3JSC19BracketAccessorNode12emitBytecodeERNS_17BytecodeGeneratorEPNS_10RegisterIDE
__ZNK3JSC10NumberNode6isPureERNS_17BytecodeGeneratorE
__ZN3JSC17BytecodeGenerator22willResolveToArgumentsERKNS_10IdentifierE
__ZNK3JSC11ResolveNode6isPureERNS_17BytecodeGeneratorE
__ZN3JSC17BytecodeGenerator7isLocalERKNS_10IdentifierE
__ZN3JSC17BytecodeGenerator12emitGetByValEPNS_10RegisterIDES2_S2_
__ZN3JSC18PostfixResolveNode12emitBytecodeERNS_17BytecodeGeneratorEPNS_10RegisterIDE
__ZN3JSC17BytecodeGenerator10emitPreIncEPNS_10RegisterIDE
__ZN3JSC12BinaryOpNode12emitBytecodeERNS_17BytecodeGeneratorEPNS_10RegisterIDE
__ZNK3JSC14ExpressionNode6isPureERNS_17BytecodeGeneratorE
__ZN3JSC17BytecodeGenerator12emitBinaryOpENS_8OpcodeIDEPNS_10RegisterIDES3_S3_NS_12OperandTypesE
__ZN3JSC17BytecodeGenerator14emitJumpIfTrueEPNS_10RegisterIDEPNS_5LabelE
__ZN3JSC3JIT11emit_op_jmpEPNS_11InstructionE
__ZN3JSC3JIT18emit_op_get_by_valEPNS_11InstructionE
__ZN3JSC20MacroAssemblerX86_649branchPtrENS_23MacroAssemblerX86Common19RelationalConditionENS_22AbstractMacroAssemblerINS_12X86AssemblerEE7AddressENS5_13TrustedImmPtrE
__ZN3JSC12X86Assembler23X86InstructionFormatter11oneByteOp64ENS0_15OneByteOpcodeIDEiNS_12X86Registers10RegisterIDES4_ii
__ZN3JSC3JIT15emit_op_incEPNS_11InstructionE
__ZN3JSC3JIT16emitTimeoutCheckEv
__ZN3JSC3JIT13emit_op_jlessEPNS_11InstructionE
__ZN3JSC3JIT22emitSlow_op_get_by_valEPNS_11InstructionERPNS_13SlowCaseEntryE
__ZN3JSC9JITThunks7ctiStubEPNS_12VMEPFNS_21MacroAssemblerCodePtrES2_PNS_14ExecutablePoolEE
__ZN3WTF9HashTableIPFN3JSC21MacroAssemblerCodePtrEPNS1_12VMEPNS1_14ExecutablePoolEESt4pairIS8_S2_ENS_18PairFirstExtractorISA_EENS_7PtrHashIS8_EENS_14PairHashTraitsINS_10HashTraitsIS8_EENSG_IS2_EEEESH_E6expandEv
__ZN3JSC3JIT27stringGetByValStubGeneratorEPNS_12VMEPNS_14ExecutablePoolE
__ZN3JSC21roundUpAllocationSizeEmm
__ZN3JSC3JIT19emitSlow_op_incEPNS_11InstructionERPNS_13SlowCaseEntryE
__ZN3JSC3JIT17emitSlow_op_jlessEPNS_11InstructionERPNS_13SlowCaseEntryE
__ZN3JSC12X86Assembler7movq_rrENS_12X86Registers10RegisterIDENS1_13XMMRegisterIDE
__ZN3JSC23MacroAssemblerX86Common12branchDoubleENS0_15DoubleConditionENS_12X86Registers13XMMRegisterIDES3_
__ZN3JSC12X86Assembler23X86InstructionFormatter9twoByteOpENS0_15TwoByteOpcodeIDEiNS_12X86Registers10RegisterIDE
__ZN3JSC10ASTBuilder11makeAddNodeEPNS_14ExpressionNodeES2_b
__ZNK3JSC14ExpressionNode8isNumberEv
__ZN3WTF6VectorIPN3JSC13StatementNodeELm0EE14expandCapacityEmPKS3_
__ZN3WTF6VectorIPN3JSC13StatementNodeELm0EE15reserveCapacityEm
__ZN3JSC13AssignDotNode12emitBytecodeERNS_17BytecodeGeneratorEPNS_10RegisterIDE
__ZNK3JSC7AddNode5isAddEv
__ZN3JSC12BinaryOpNode10emitStrcatERNS_17BytecodeGeneratorEPNS_10RegisterIDES4_PNS_21ReadModifyResolveNodeE
__ZNK3JSC14ExpressionNode5isAddEv
__ZNK3JSC10StringNode8isStringEv
__ZNK3JSC14ExpressionNode8isStringEv
__ZN3JSC17BytecodeGenerator15emitToPrimitiveEPNS_10RegisterIDES2_
__ZN3JSC17BytecodeGenerator10emitStrcatEPNS_10RegisterIDES2_i
__ZN3JSC17BytecodeGenerator11emitPutByIdEPNS_10RegisterIDERKNS_10IdentifierES2_
__ZN3JSC10IfElseNode12emitBytecodeERNS_17BytecodeGeneratorEPNS_10RegisterIDE
__ZN3JSC3JIT20emit_op_to_primitiveEPNS_11InstructionE
__ZN3JSC3JIT14emit_op_strcatEPNS_11InstructionE
__ZN3JSC3JIT17emit_op_put_by_idEPNS_11InstructionE
__ZN3JSC3JIT24emitSlow_op_to_primitiveEPNS_11InstructionERPNS_13SlowCaseEntryE
__ZN3JSC3JIT21emitSlow_op_put_by_idEPNS_11InstructionERPNS_13SlowCaseEntryE
_cti_op_strcat
_cti_op_put_by_id
__ZNK3JSC8JSString11resolveRopeEPNS_9ExecStateE
__ZNK3JSC8JSString19resolveRopeSlowCaseEPNS_9ExecStateEPt
__ZNK3JSC18EmptyStatementNode16isEmptyStatementEv
__ZN3JSC8JSParser17parseTryStatementINS_10ASTBuilderEEENT_9StatementERS3_
__ZN3WTF6VectorIPN3JSC14ExpressionNodeELm0EE14expandCapacityEm
__ZN3JSC17BytecodeGenerator20emitInitLazyRegisterEPNS_10RegisterIDE
__ZNK3JSC13LogicalOpNode26hasConditionContextCodegenEv
__ZN3JSC13LogicalOpNode30emitBytecodeInConditionContextERNS_17BytecodeGeneratorEPNS_5LabelES4_b
__ZNK3JSC14ExpressionNode6isNullEv
__ZNK3JSC10StringNode6isPureERNS_17BytecodeGeneratorE
__ZN3JSC17TypeOfResolveNode12emitBytecodeERNS_17BytecodeGeneratorEPNS_10RegisterIDE
__ZN3JSC17BytecodeGenerator11emitUnaryOpENS_8OpcodeIDEPNS_10RegisterIDES3_
__ZN3JSC17BytecodeGenerator19emitResolveWithBaseEPNS_10RegisterIDES2_RKNS_10IdentifierE
__ZN3JSC7TryNode12emitBytecodeERNS_17BytecodeGeneratorEPNS_10RegisterIDE
__ZN3JSC20EvalFunctionCallNode12emitBytecodeERNS_17BytecodeGeneratorEPNS_10RegisterIDE
__ZN3JSC17BytecodeGenerator12emitCallEvalEPNS_10RegisterIDES2_RNS_13CallArgumentsEjjj
__ZN3JSC17BytecodeGenerator9emitCatchEPNS_10RegisterIDEPNS_5LabelES4_
__ZN3WTF6VectorIN3JSC11HandlerInfoELm0EE14expandCapacityEm
__ZN3JSC17BytecodeGenerator16emitPushNewScopeEPNS_10RegisterIDERKNS_10IdentifierES2_
__ZN3WTF6VectorIN3JSC18ControlFlowContextELm0EE14expandCapacityEm
__ZN3JSC17BytecodeGenerator21emitResolveBaseForPutEPNS_10RegisterIDERKNS_10IdentifierE
__ZN3JSC17BytecodeGenerator15emitResolveBaseEPNS_10RegisterIDERKNS_10IdentifierE
__ZN3JSC17BytecodeGenerator12emitPopScopeEv
__ZN3JSC9EqualNode12emitBytecodeERNS_17BytecodeGeneratorEPNS_10RegisterIDE
__ZN3JSC17BytecodeGenerator14emitEqualityOpENS_8OpcodeIDEPNS_10RegisterIDES3_S3_
__ZN3JSC3JIT21emit_op_init_lazy_regEPNS_11InstructionE
__ZN3JSC3JIT25emit_op_create_activationEPNS_11InstructionE
__ZN3JSC20MacroAssemblerX86_6413branchTestPtrENS_23MacroAssemblerX86Common15ResultConditionENS_22AbstractMacroAssemblerINS_12X86AssemblerEE7AddressENS5_12TrustedImm32E
__ZN3JSC3JIT11emit_op_neqEPNS_11InstructionE
__ZN3JSC12X86Assembler6orl_irEiNS_12X86Registers10RegisterIDE
__ZN3JSC3JIT13emit_op_jtrueEPNS_11InstructionE
__ZN3JSC3JIT25emit_op_resolve_with_baseEPNS_11InstructionE
__ZN3JSC3JIT17emit_op_call_evalEPNS_11InstructionE
__ZN3JSC3JIT13emit_op_catchEPNS_11InstructionE
__ZN3JSC20MacroAssemblerX86_647loadPtrENS_22AbstractMacroAssemblerINS_12X86AssemblerEE15ImplicitAddressENS_12X86Registers10RegisterIDE
__ZN3JSC3JIT22emit_op_push_new_scopeEPNS_11InstructionE
__ZN3JSC3JIT20emit_op_resolve_baseEPNS_11InstructionE
__ZN3JSC3JIT15emit_op_resolveEPNS_11InstructionE
__ZN3JSC3JIT17emit_op_pop_scopeEPNS_11InstructionE
__ZN3JSC3JIT10emit_op_eqEPNS_11InstructionE
__ZN3JSC3JIT27emit_op_tear_off_activationEPNS_11InstructionE
__ZN3JSC3JIT15emitSlow_op_neqEPNS_11InstructionERPNS_13SlowCaseEntryE
__ZN3JSC3JIT17emitSlow_op_jtrueEPNS_11InstructionERPNS_13SlowCaseEntryE
__ZN3JSC3JIT21emitSlow_op_call_evalEPNS_11InstructionERPNS_13SlowCaseEntryE
__ZN3JSC3JIT14emitSlow_op_eqEPNS_11InstructionERPNS_13SlowCaseEntryE
_cti_op_push_activation
__ZN3JSC12JSActivationC1EPNS_9ExecStateEPNS_18FunctionExecutableE
_cti_op_typeof
__ZN3JSC20jsTypeStringForValueEPNS_9ExecStateENS_7JSValueE
_cti_op_eq
_cti_op_resolve_with_base
__ZN3JSC12JSActivation18getOwnPropertySlotEPNS_9ExecStateERKNS_10IdentifierERNS_12PropertySlotE
_cti_op_call_eval
__ZN3JSC11Interpreter8callEvalEPNS_9ExecStateEPNS_12JSStackEPNS_8RegisterEii
__ZN3JSC14EvalExecutableC1EPNS_9ExecStateERKNS_10SourceCodeEb
__ZN3JSC14EvalExecutable15compileInternalEPNS_9ExecStateEPNS_14ScopeChainNodeE
__ZN3JSC6Parser5parseINS_8EvalNodeEEEN3WTF10PassRefPtrIT_EEPNS_14JSGlobalObjectEPNS_8DebuggerEPNS_9ExecStateERKNS_10SourceCodeEPNS_18FunctionParametersENS_18JSParserStrictnessEPPNS_8JSObjectE
__ZN3JSC8EvalNode6createEPNS_12VMEPNS_14SourceElementsEPN3WTF6VectorISt4pairIPKNS_10IdentifierEjELm0EEEPNS6_IPNS_16FunctionBodyNodeELm0EEERNS5_7HashSetINS5_6RefPtrINS5_10StringImplEEENS_17IdentifierRepHashENS5_10HashTraitsISL_EEEERKNS_10SourceCodeEji
__ZN3JSC14ScopeChainNode10localDepthEv
__ZN3JSC17BytecodeGeneratorC1EPNS_8EvalNodeEPNS_14ScopeChainNodeEPN3WTF7HashMapINS5_6RefPtrINS5_10StringImplEEENS_16SymbolTableEntryENS_17IdentifierRepHashENS5_10HashTraitsIS9_EENS_26SymbolTableIndexHashTraitsEEEPNS_13EvalCodeBlockE
__ZN3JSC17BytecodeGeneratorC2EPNS_8EvalNodeEPNS_14ScopeChainNodeEPN3WTF7HashMapINS5_6RefPtrINS5_10StringImplEEENS_16SymbolTableEntryENS_17IdentifierRepHashENS5_10HashTraitsIS9_EENS_26SymbolTableIndexHashTraitsEEEPNS_13EvalCodeBlockE
__ZN3JSC8EvalNode12emitBytecodeERNS_17BytecodeGeneratorEPNS_10RegisterIDE
__ZThn16_N3JSC8EvalNodeD0Ev
__ZN3JSC8EvalNodeD0Ev
__ZN3WTF7HashMapINS_6RefPtrINS_10StringImplEEEN3JSC12WriteBarrierINS4_14EvalExecutableEEENS_10StringHashENS_10HashTraitsIS3_EENS9_IS7_EEE3setEPS2_RKS7_
__ZN3WTF9HashTableINS_6RefPtrINS_10StringImplEEESt4pairIS3_N3JSC12WriteBarrierINS5_14EvalExecutableEEEENS_18PairFirstExtractorIS9_EENS_10StringHashENS_14PairHashTraitsINS_10HashTraitsIS3_EENSE_IS8_EEEESF_E6expandEv
__ZNK3JSC7JSValue20toThisObjectSlowCaseEPNS_9ExecStateE
__ZN3JSC11Interpreter7executeEPNS_14EvalExecutableEPNS_9ExecStateEPNS_8JSObjectEiPNS_14ScopeChainNodeE
_cti_op_resolve
_JSValueMakeBoolean
__ZN3JSC8JSParser20parseReturnStatementINS_10ASTBuilderEEENT_9StatementERS3_
__ZN3JSC10ASTBuilder11makeDivNodeEPNS_14ExpressionNodeES2_b
__ZN3JSC14ExpressionNode14stripUnaryPlusEv
__ZNK3JSC10NumberNode8isNumberEv
__ZN3JSC15StrictEqualNode12emitBytecodeERNS_17BytecodeGeneratorEPNS_10RegisterIDE
__ZN3JSC10ReturnNode12emitBytecodeERNS_17BytecodeGeneratorEPNS_10RegisterIDE
__ZN3JSC13LogicalOpNode12emitBytecodeERNS_17BytecodeGeneratorEPNS_10RegisterIDE
__ZN3JSCeqERKNS_7UStringEPKc
__ZN3JSC23CallFunctionCallDotNode12emitBytecodeERNS_17BytecodeGeneratorEPNS_10RegisterIDE
__ZN3JSC17BytecodeGenerator25emitJumpIfNotFunctionCallEPNS_10RegisterIDEPNS_5LabelE
__ZNK3JSC10ReturnNode12isReturnNodeEv
__ZNK3JSC14SourceElements15singleStatementEv
__ZN3JSC3JIT16emit_op_stricteqEPNS_11InstructionE
__ZN3JSC3JIT17compileOpStrictEqEPNS_11InstructionENS0_21CompileOpStrictEqTypeE
__ZN3JSC3JIT11emit_op_divEPNS_11InstructionE
__ZN3JSC23MacroAssemblerX86Common4moveENS_22AbstractMacroAssemblerINS_12X86AssemblerEE12TrustedImm32ENS_12X86Registers10RegisterIDE
__ZN3JSC12X86Assembler11cvtsi2sd_rrENS_12X86Registers10RegisterIDENS1_13XMMRegisterIDE
__ZN3JSC3JIT16emit_op_jneq_ptrEPNS_11InstructionE
__ZN3JSC3JIT20emitSlow_op_stricteqEPNS_11InstructionERPNS_13SlowCaseEntryE
__ZN3JSC3JIT15emitSlow_op_divEPNS_11InstructionERPNS_13SlowCaseEntryE
_cti_op_stricteq
__ZN3JSC10RegExpNode12emitBytecodeERNS_17BytecodeGeneratorEPNS_10RegisterIDE
__ZN3JSC11regExpFlagsERKNS_7UStringE
__ZN3JSC11RegExpCache14lookupOrCreateERKNS_7UStringENS_11RegExpFlagsE
__ZN3WTF9HashTableIN3JSC9RegExpKeyESt4pairIS2_NS_6RefPtrINS1_6RegExpEEEENS_18PairFirstExtractorIS7_EENS_10RegExpHashIS2_EENS_14PairHashTraitsINS_10HashTraitsIS2_EENSD_IS6_EEEESE_E6rehashEi
__ZN3JSC11RegExpCache6createERKNS_7UStringENS_11RegExpFlagsEN3WTF24HashTableIteratorAdapterINS5_9HashTableINS_9RegExpKeyESt4pairIS8_NS5_6RefPtrINS_6RegExpEEEENS5_18PairFirstExtractorISD_EENS5_10RegExpHashIS8_EENS5_14PairHashTraitsINS5_10HashTraitsIS8_EENSJ_ISC_EEEESK_EESD_EE
__ZN3JSC4Yarr13YarrGenerator12generateTermEm
__ZN3JSC4Yarr13YarrGenerator19jumpIfCharNotEqualsEti
__ZN3JSC12X86Assembler23X86InstructionFormatter9oneByteOpENS0_15OneByteOpcodeIDEiNS_12X86Registers10RegisterIDES4_ii
__ZN3JSC12X86Assembler7subl_irEiNS_12X86Registers10RegisterIDE
__ZN3JSC4Yarr13YarrGenerator13backtrackTermEm
__ZN3JSC4Yarr13YarrGenerator20backtrackTermDefaultEm
__ZN3JSC17BytecodeGenerator13emitNewRegExpEPNS_10RegisterIDEN3WTF10PassRefPtrINS_6RegExpEEE
__ZN3JSC17BytecodeGenerator9addRegExpEN3WTF10PassRefPtrINS_6RegExpEEE
__ZNK3JSC14ExpressionNode10isSubtractEv
__ZN3JSC3JIT18emit_op_new_regexpEPNS_11InstructionE
__ZN3JSC8JSString18getOwnPropertySlotEPNS_9ExecStateERKNS_10IdentifierERNS_12PropertySlotE
_cti_op_new_regexp
__ZN3JSCL22stringProtoFuncReplaceEPNS_9ExecStateE
__ZNK3JSC7JSValue14toThisJSStringEPNS_9ExecStateE
__ZN3JSC9ExecState8argumentEi
__ZN3JSC6JSCell11getCallDataERNS_8CallDataE
__ZN3WTF6RefPtrINS_10StringImplEEaSERKS2_
__ZN3JSC6RegExp5matchERKNS_7UStringEiPN3WTF6VectorIiLm32EEE
__ZN3JSC4Yarr7executeERNS0_13YarrCodeBlockEPKtjjPi
__ZN3JSC3JIT11emit_op_addEPNS_11InstructionE
_cti_op_add
_cti_op_tear_off_activation
__ZN3JSC9JITThunks15tryCacheGetByIDEPNS_9ExecStateEPNS_9CodeBlockENS_16ReturnAddressPtrENS_7JSValueERKNS_10IdentifierERKNS_12PropertySlotEPNS_17StructureStubInfoE
__ZN3JSC3JIT33privateCompilePatchGetArrayLengthENS_16ReturnAddressPtrE
__ZNK3JSC8JSObject24getPropertySpecificValueEPNS_9ExecStateERKNS_10IdentifierERPNS_6JSCellE
__ZN3JSC27ctiPatchCallByReturnAddressEPNS_9CodeBlockENS_16ReturnAddressPtrENS_11FunctionPtrE
__ZN3JSC3JIT8linkCallEPNS_10JSFunctionEPNS_9CodeBlockES4_NS_21MacroAssemblerCodePtrEPNS_12CallLinkInfoEiPNS_12VME
__ZN3JSC3JIT20patchMethodCallProtoERNS_12VMEPNS_9CodeBlockERNS_18MethodCallLinkInfoEPNS_10JSFunctionEPNS_9StructureEPNS_8JSObjectENS_16ReturnAddressPtrE
__ZN3JSC9JITThunks15tryCachePutByIDEPNS_9ExecStateEPNS_9CodeBlockENS_16ReturnAddressPtrENS_7JSValueERKNS_15PutPropertySlotEPNS_17StructureStubInfoEb
_cti_op_get_by_id_generic
_cti_op_put_by_id_generic
__ZN3JSC14StructureChainC1ERNS_12VMEPNS_9StructureES4_
__ZN3JSC14StructureChainC2ERNS_12VMEPNS_9StructureES4_
__ZN3JSC3JIT26privateCompileGetByIdChainEPNS_17StructureStubInfoEPNS_9StructureEPNS_14StructureChainEmRKNS_10IdentifierERKNS_12PropertySlotEmNS_16ReturnAddressPtrEPNS_9ExecStateE
__ZN3JSC3JIT13testPrototypeENS_7JSValueERNS_22AbstractMacroAssemblerINS_12X86AssemblerEE8JumpListE
__ZN3JSC3JIT22compileGetDirectOffsetEPNS_8JSObjectENS_12X86Registers10RegisterIDEm
_cti_op_get_by_id_proto_list
__ZN3JSC3JIT30privateCompileGetByIdChainListEPNS_17StructureStubInfoEPNS_30PolymorphicAccessStructureListEiPNS_9StructureEPNS_14StructureChainEmRKNS_10IdentifierERKNS_12PropertySlotEmPNS_9ExecStateE
__ZNK3JSC14LogicalNotNode26hasConditionContextCodegenEv
__ZN3JSC11UnaryOpNode12emitBytecodeERNS_17BytecodeGeneratorEPNS_10RegisterIDE
__ZN3JSC14StructureChain13visitChildrenERNS_9MarkStackE
__ZN3JSC12RegExpObjectD1Ev
__ZN3JSC21UStringSourceProviderD0Ev
__ZN3JSC14EvalExecutableD1Ev
__ZN3JSC13EvalCodeBlockD0Ev
__ZN3JSC14ExecutablePool13systemReleaseERNS0_10AllocationE
__ZN3WTF11OSAllocator8decommitEPvm
__ZN3JSC12JSActivationD1Ev
__ZN3JSC19SourceProviderCache5clearEv
__ZNK3WTF6String8toDoubleEPbS1_
__ZN3JSC8JSParser5Scope19restoreFunctionInfoEPKNS_23SourceProviderCacheItemE
__ZN3JSC5Lexer9setOffsetEi
_JSStringCreateWithCharacters
__ZN3WTF6VectorItLm0EE14expandCapacityEmPKt
__ZN3WTF10StringImpl7replaceEtt
__ZN3JSC14StructureChainD1Ev
__ZN3WTF10StringImpl7replaceEPS0_S1_
__ZNK3WTF6String5toIntEPb
__ZN3WTF10StringImpl5toIntEPb
__ZN3WTF15charactersToIntEPKtmPb
__ZN3WTF6String6numberEi
__ZN3WTF6String6numberEt
__ZNK3WTF6String18simplifyWhiteSpaceEv
__ZN3WTF10StringImpl18simplifyWhiteSpaceEv
_JSValueMakeNumber
__ZN3JSC13LiteralParser5Lexer9lexNumberERNS1_18LiteralParserTokenE
__ZN3JSCL22stringProtoFuncIndexOfEPNS_9ExecStateE
__ZN3WTF10StringImpl5adoptERNS_12StringBufferE
__ZNK3WTF6String8foldCaseEv
__ZN3WTF10StringImpl8foldCaseEv
__ZN3WTF14FastMallocZone4sizeEP14_malloc_zone_tPKv
__ZNK3WTF6String7toFloatEPbS1_
__ZN3WTF10StringImpl7toFloatEPbS1_
__ZN3WTF17charactersToFloatEPKtmPbS2_
__ZN3JSC17ReadModifyDotNode12emitBytecodeERNS_17BytecodeGeneratorEPNS_10RegisterIDE
__ZN3JSC7UString6numberEi
__ZN3JSC3JIT15emitSlow_op_addEPNS_11InstructionERPNS_13SlowCaseEntryE
__ZN3JSC3JIT28compileBinaryArithOpSlowCaseENS_8OpcodeIDERPNS_13SlowCaseEntryEjjjNS_12OperandTypesEbb
__ZNK3JSC7UString5asciiEv
__ZN3JSC6JSLock12DropAllLocksC1ENS_14JSLockBehaviorE
_cti_op_less
__ZN3JSC8jsStringEPNS_9ExecStateERKNS_7UStringE
_cti_op_get_by_val
__ZN3WTF10StringImpl5upperEv
__ZN3JSC10ASTBuilder14makePrefixNodeEPNS_14ExpressionNodeENS_8OperatorEiii
__ZN3JSC17PrefixResolveNode12emitBytecodeERNS_17BytecodeGeneratorEPNS_10RegisterIDE
__ZN3JSC4Yarr22YarrPatternConstructor25atomBuiltInCharacterClassENS0_23BuiltInCharacterClassIDEb
__ZN3JSC4Yarr13YarrGenerator12atEndOfInputEv
__ZN3JSC4Yarr13YarrGenerator13readCharacterEiNS_12X86Registers10RegisterIDE
__ZN3JSC4Yarr13YarrGenerator19matchCharacterClassENS_12X86Registers10RegisterIDERNS_22AbstractMacroAssemblerINS_12X86AssemblerEE8JumpListEPKNS0_14CharacterClassE
__ZN3JSC14MacroAssembler4pokeENS_12X86Registers10RegisterIDEi
__ZN3JSC21ReadModifyResolveNode12emitBytecodeERNS_17BytecodeGeneratorEPNS_10RegisterIDE
__ZN3JSC3JIT20compileBinaryArithOpENS_8OpcodeIDEjjjNS_12OperandTypesE
__ZN3JSC23MacroAssemblerX86Common4moveENS_12X86Registers10RegisterIDES2_
__ZN3JSCL20stringProtoFuncMatchEPNS_9ExecStateE
__ZNK3JSC17RegExpConstructor14arrayOfMatchesEPNS_9ExecStateE
__ZN3JSC18RegExpMatchesArrayC2EPNS_9ExecStateEPNS_24RegExpConstructorPrivateE
__ZN3JSC7JSArrayC2ERNS_12VMEPNS_9StructureEjNS_17ArrayCreationModeE
__ZN3JSC7JSArray15setSubclassDataEPv
__ZN3JSC18RegExpMatchesArrayD1Ev
__ZNK3JSC7JSArray12subclassDataEv
__ZN3WTF10StringImpl16findIgnoringCaseEPKcj
__ZN3WTF14numberToStringEdPt
__ZN3WTF4dtoaILb1ELb0ELb0ELb1EEEvPcdiRbRiRj
__ZNK3WTF13DecimalNumber15toStringDecimalEPtj
__ZN3WTF10StringImpl8toDoubleEPbS1_
__ZN3WTF6VectorIjLm16EE6resizeEm
__ZN3WTFL7multaddERNS_6BigIntEii
__ZN3WTFL4multERNS_6BigIntERKS0_
__ZN3WTF6VectorIjLm16EEaSERKS1_
__ZN3WTF6String6numberEd
__ZN3JSC17BytecodeGenerator16emitPutScopedVarEmiPNS_10RegisterIDENS_7JSValueE
__ZN3JSC3JIT22emit_op_put_global_varEPNS_11InstructionE
__ZN3JSC3JIT11emit_op_subEPNS_11InstructionE
__ZN3JSC3JIT15emitSlow_op_subEPNS_11InstructionERPNS_13SlowCaseEntryE
__ZN3JSCL21stringProtoFuncSubstrEPNS_9ExecStateE
__ZNK3JSC7JSValue9toIntegerEPNS_9ExecStateE
__ZNK3JSC8JSString8toNumberEPNS_9ExecStateE
__ZN3JSC10jsToNumberERKNS_7UStringE
__ZN3JSCL19jsStrDecimalLiteralERPKtS1_
__ZN3WTF22cancelCallOnMainThreadEPFvPvES0_
__ZN3WTF22isMainThreadOrGCThreadEv
__ZNK3JSC8JSString9toBooleanEPNS_9ExecStateE
__ZN3WTF10StringImpl4findEPFbtEj
__ZN3WTF10StringImpl4findEPKcj
__ZN3WTF6String26fromUTF8WithLatin1FallbackEPKcm
__ZN3WTF10fastStrDupEPKc
__ZN3JSC10Identifier11addSlowCaseEPNS_12VMEPN3WTF10StringImplE
_JSStringRetain
___initializeScavenger_block_invoke_1
__ZN3WTF23waitForThreadCompletionEj
__ZN3WTF23waitForThreadCompletionEjPPv
_JSObjectCopyPropertyNames
__ZN3JSC8JSObject16copyBackingStoreEPNS_6JSCellERNS_11CopyVisitorE
__ZN3JSC8JSObject16getPropertyNamesEPNS_9ExecStateERNS_17PropertyNameArrayENS_15EnumerationModeE
__ZN3JSC8JSObject19getOwnPropertyNamesEPNS_9ExecStateERNS_17PropertyNameArrayENS_15EnumerationModeE
__ZN3JSC9Structure16getPropertyNamesERNS_12VMERNS_17PropertyNameArrayENS_15EnumerationModeE
__ZN3JSC9ExecState20objectPrototypeTableEPS0_
_JSPropertyNameArrayGetCount
_JSPropertyNameArrayRelease
__Z22TCMalloc_SystemReleasePvm
__Z21TCMalloc_SystemCommitPvm
__ZN3WTF6VectorIPvLm0EE14expandCapacityEm
__ZN3JSC3JIT15emit_op_jlesseqEPNS_11InstructionEb
__ZN3JSC3JIT16emit_op_jnlesseqEPNS_11InstructionE
__ZN3JSC3JIT19emitSlow_op_jlesseqEPNS_11InstructionERPNS_13SlowCaseEntryEb
__ZN3JSC3JIT20emitSlow_op_jnlesseqEPNS_11InstructionERPNS_13SlowCaseEntryE
__ZN3JSC19ReverseBinaryOpNode12emitBytecodeERNS_17BytecodeGeneratorEPNS_10RegisterIDE
__ZN3JSC3JIT14emit_op_jnlessEPNS_11InstructionE
__ZN3JSC3JIT18emitSlow_op_jnlessEPNS_11InstructionERPNS_13SlowCaseEntryE
__ZN3WTF6String8truncateEj
_cti_op_get_by_id_self_fail
__ZN3JSC3JIT29privateCompileGetByIdSelfListEPNS_17StructureStubInfoEPNS_30PolymorphicAccessStructureListEiPNS_9StructureERKNS_10IdentifierERKNS_12PropertySlotEm
_cti_op_get_by_id_custom_stub
__ZN3JSC10ASTBuilder12makeMultNodeEPNS_14ExpressionNodeES2_b
__ZN3JSC3JIT11emit_op_mulEPNS_11InstructionE
__ZN3JSC3JIT15emitSlow_op_mulEPNS_11InstructionERPNS_13SlowCaseEntryE
__ZN3WTF13StringBuilder15reserveCapacityEj
__ZN3WTF17equalIgnoringCaseEPKtPKcj
__ZN3WTF4dtoaEPcdRbRiRj
__ZNK3WTF13DecimalNumber28bufferLengthForStringDecimalEv
__ZN3JSC3JIT19patchPutByIdReplaceEPNS_9CodeBlockEPNS_17StructureStubInfoEPNS_9StructureEmNS_16ReturnAddressPtrEb
__ZN3JSC10Identifier5equalEPKN3WTF10StringImplEPKc
__ZN3JSC8JSParser19parseBreakStatementINS_13SyntaxCheckerEEENT_9StatementERS3_
__ZN3JSC8JSParser17parseFunctionInfoILNS0_20FunctionRequirementsE0ELb0ENS_13SyntaxCheckerEEEbRT1_RPKNS_10IdentifierERNS4_19FormalParameterListERNS4_12FunctionBodyERiSE_SE_
__ZN3JSC8JSParser21parseConstDeclarationINS_10ASTBuilderEEENT_9StatementERS3_
__ZN3JSC18ConstStatementNode12emitBytecodeERNS_17BytecodeGeneratorEPNS_10RegisterIDE
__ZN3JSC13ConstDeclNode12emitBytecodeERNS_17BytecodeGeneratorEPNS_10RegisterIDE
__ZN3JSC13ConstDeclNode14emitCodeSingleERNS_17BytecodeGeneratorE
__ZN3JSC17BytecodeGenerator16constRegisterForERKNS_10IdentifierE
__ZN3JSC21ThrowableBinaryOpNode12emitBytecodeERNS_17BytecodeGeneratorEPNS_10RegisterIDE
_cti_op_call_arityCheck
_cti_op_in
__ZN3JSC12JSActivation13visitChildrenERNS_9MarkStackE
__ZNK3JSC12JSActivation14isDynamicScopeERb
__ZN3JSC3JIT22emit_op_get_scoped_varEPNS_11InstructionE
__ZN3JSC8JSParser19parseBreakStatementINS_10ASTBuilderEEENT_9StatementERS3_
__ZN3JSC15ConditionalNode12emitBytecodeERNS_17BytecodeGeneratorEPNS_10RegisterIDE
__ZN3JSC9BreakNode12emitBytecodeERNS_17BytecodeGeneratorEPNS_10RegisterIDE
__ZN3JSC17BytecodeGenerator11breakTargetERKNS_10IdentifierE
__ZN3JSC17BytecodeGenerator14emitJumpScopesEPNS_5LabelEi
__ZN3JSCL20stringProtoFuncSplitEPNS_9ExecStateE
__ZN3JSC11jsSubstringEPNS_12VMERKNS_7UStringEjj
__ZN3JSC7JSArray3putEPNS_9ExecStateEjNS_7JSValueE
__ZN3JSC7JSArray11putSlowCaseEPNS_9ExecStateEjNS_7JSValueE
__ZN3JSC10ASTBuilder11makeSubNodeEPNS_14ExpressionNodeES2_b
__ZN3JSC10MathObject18getOwnPropertySlotEPNS_9ExecStateERKNS_10IdentifierERNS_12PropertySlotE
__ZN3JSCL16mathProtoFuncAbsEPNS_9ExecStateE
_cti_op_lesseq
__ZN3JSC7UString6numberEd
__ZN3JSC9CodeBlock14visitAggregateERNS_9MarkStackE
__ZN3JSC13EvalCodeCache14visitAggregateERNS_9MarkStackE
__ZN3JSC17StructureStubInfo14visitAggregateERNS_9MarkStackE
_cti_op_resolve_base
__ZN3JSC17ObjectLiteralNode12emitBytecodeERNS_17BytecodeGeneratorEPNS_10RegisterIDE
__ZN3JSC16PropertyListNode12emitBytecodeERNS_17BytecodeGeneratorEPNS_10RegisterIDE
__ZN3JSC17BytecodeGenerator13emitNewObjectEPNS_10RegisterIDE
__ZN3JSC17BytecodeGenerator17emitDirectPutByIdEPNS_10RegisterIDERKNS_10IdentifierES2_
__ZN3JSC3JIT18emit_op_new_objectEPNS_11InstructionE
_cti_op_new_object
_cti_op_put_by_id_direct
__ZN3JSC14ArrayPrototype18getOwnPropertySlotEPNS_9ExecStateERKNS_10IdentifierERNS_12PropertySlotE
__ZN3JSCL21arrayProtoFuncForEachEPNS_9ExecStateE
__ZN3JSC11Interpreter20prepareForRepeatCallEPNS_18FunctionExecutableEPNS_9ExecStateEPNS_10JSFunctionEiPNS_14ScopeChainNodeE
__ZNK3JSC19BracketAccessorNode10isLocationEv
__ZNK3JSC19BracketAccessorNode21isBracketAccessorNodeEv
__ZN3JSC17AssignBracketNode12emitBytecodeERNS_17BytecodeGeneratorEPNS_10RegisterIDE
__ZN3JSC17BytecodeGenerator12emitPutByValEPNS_10RegisterIDES2_S2_
__ZN3JSC3JIT18emit_op_put_by_valEPNS_11InstructionE
__ZN3JSC3JIT22emitSlow_op_put_by_valEPNS_11InstructionERPNS_13SlowCaseEntryE
__ZN3JSC11Interpreter7executeERNS_16CallFrameClosureE
__ZN3JSC3JIT16patchGetByIdSelfEPNS_9CodeBlockEPNS_17StructureStubInfoEPNS_9StructureEmNS_16ReturnAddressPtrE
_cti_op_put_by_val
__ZN3JSC11Interpreter13endRepeatCallERNS_16CallFrameClosureE
__ZN3JSC3JIT22emit_op_put_scoped_varEPNS_11InstructionE
_cti_op_is_string
_cti_op_is_number
__ZN3JSC20globalFuncParseFloatEPNS_9ExecStateE
__ZN3WTF6VectorIcLm32EE14expandCapacityEm
_cti_op_to_primitive
__ZN3JSCL22objectProtoFuncValueOfEPNS_9ExecStateE
__ZN3JSCL22arrayProtoFuncToStringEPNS_9ExecStateE
_cti_op_jless
__ZN3JSCL24stringProtoFuncSubstringEPNS_9ExecStateE
__ZN3JSC18globalFuncParseIntEPNS_9ExecStateE
__ZN3JSCL8parseIntERKNS_7UStringEi
__ZN3JSC15TypeOfValueNode12emitBytecodeERNS_17BytecodeGeneratorEPNS_10RegisterIDE
__ZN3JSC3JIT26privateCompileGetByIdProtoEPNS_17StructureStubInfoEPNS_9StructureES4_RKNS_10IdentifierERKNS_12PropertySlotEmNS_16ReturnAddressPtrEPNS_9ExecStateE
_cti_op_sub
__ZN3WTF6String6appendEc
__ZN3JSCL18arrayProtoFuncPushEPNS_9ExecStateE
__ZN3JSCL18arrayProtoFuncSortEPNS_9ExecStateE
__ZN3JSC7JSArray4sortEPNS_9ExecStateE
__ZN3JSC7JSArray17compactForSortingEv
__ZN3JSC4Heap18pushTempSortVectorEPN3WTF6VectorISt4pairINS_7JSValueENS_7UStringEELm0EEE
__ZN3WTF6VectorIPNS0_ISt4pairIN3JSC7JSValueENS2_7UStringEELm0EEELm0EE15reserveCapacityEm
__ZN3JSCL27compareByStringPairForQSortEPKvS1_
__ZN3WTF16codePointCompareEPKNS_10StringImplES2_
__ZN3JSC4Heap17popTempSortVectorEPN3WTF6VectorISt4pairINS_7JSValueENS_7UStringEELm0EEE
__ZN3JSCL18arrayProtoFuncJoinEPNS_9ExecStateE
__ZN3WTF6VectorItLm64EE17tryExpandCapacityEm
__ZN3JSC15JSStringBuilder5buildEPNS_9ExecStateE
__ZN3JSC17BytecodeGenerator15emitNewFunctionEPNS_10RegisterIDEPNS_16FunctionBodyNodeE
__ZN3JSC17BytecodeGenerator23emitNewFunctionInternalEPNS_10RegisterIDEjb
__ZN3JSC3JIT16emit_op_new_funcEPNS_11InstructionE
_cti_op_new_func
__ZN3JSC3JIT17emit_op_nstricteqEPNS_11InstructionE
__ZN3JSC3JIT21emitSlow_op_nstricteqEPNS_11InstructionERPNS_13SlowCaseEntryE
_cti_op_nstricteq
__ZN3JSC14LogicalNotNode30emitBytecodeInConditionContextERNS_17BytecodeGeneratorEPNS_5LabelES4_b
_cti_op_negate
__ZN3JSCL16mathProtoFuncMaxEPNS_9ExecStateE
__ZN3WTF15ThreadConditionD1Ev
__ZN3JSCL23stringProtoFuncToStringEPNS_9ExecStateE
__ZN3JSC24ApplyFunctionCallDotNode12emitBytecodeERNS_17BytecodeGeneratorEPNS_10RegisterIDE
__ZNK3JSC14ExpressionNode13isSimpleArrayEv
__ZN3JSC17BytecodeGenerator26emitJumpIfNotFunctionApplyEPNS_10RegisterIDEPNS_5LabelE
__ZN3JSC17BytecodeGenerator29uncheckedRegisterForArgumentsEv
__ZN3JSC17BytecodeGenerator15emitLoadVarargsEPNS_10RegisterIDES2_S2_
__ZN3JSC17BytecodeGenerator15emitCallVarargsEPNS_10RegisterIDES2_S2_S2_jjj
__ZN3JSC3JIT20emit_op_load_varargsEPNS_11InstructionE
__ZN3JSC3JIT20emit_op_call_varargsEPNS_11InstructionE
__ZN3JSC3JIT20compileOpCallVarargsEPNS_11InstructionE
__ZN3JSC3JIT24emit_op_create_argumentsEPNS_11InstructionE
__ZN3JSC3JIT24emitSlow_op_load_varargsEPNS_11InstructionERPNS_13SlowCaseEntryE
__ZN3JSC3JIT24emitSlow_op_call_varargsEPNS_11InstructionERPNS_13SlowCaseEntryE
__ZN3JSC3JIT28compileOpCallVarargsSlowCaseEPNS_11InstructionERPNS_13SlowCaseEntryE
_cti_op_call_jitCompile
__ZNK3JSC7JSValue19synthesizePrototypeEPNS_9ExecStateE
__ZN3JSC16BooleanPrototype18getOwnPropertySlotEPNS_9ExecStateERKNS_10IdentifierERNS_12PropertySlotE
__ZN3JSCL24booleanProtoFuncToStringEPNS_9ExecStateE
__ZN3JSC17BytecodeGenerator18pushFinallyContextEPNS_5LabelEPNS_10RegisterIDE
__ZN3JSC17BytecodeGenerator17popFinallyContextEv
__ZN3JSC17BytecodeGenerator19highestUsedRegisterEv
__ZN3JSC17BytecodeGenerator18emitJumpSubroutineEPNS_10RegisterIDEPNS_5LabelE
__ZN3JSC17BytecodeGenerator20emitSubroutineReturnEPNS_10RegisterIDE
__ZN3JSC3JIT11emit_op_jsrEPNS_11InstructionE
__ZN3WTF6VectorIN3JSC3JIT7JSRInfoELm0EE14expandCapacityEm
__ZN3JSC3JIT12emit_op_sretEPNS_11InstructionE
__ZN3JSC10throwErrorEPNS_9ExecStateENS_7JSValueE
__ZN3JSC12hasErrorInfoEPNS_9ExecStateEPNS_8JSObjectE
__ZN3JSC9CodeBlock27lineNumberForBytecodeOffsetEj
__ZN3JSC12addErrorInfoEPNS_9ExecStateEPNS_8JSObjectEiRKNS_10SourceCodeE
__ZN3JSC12addErrorInfoEPNS_12VMEPNS_8JSObjectEiRKNS_10SourceCodeE
__ZN3JSC8JSObject17putWithAttributesEPNS_12VMERKNS_10IdentifierENS_7JSValueEj
_cti_op_push_new_scope
__ZN3JSC19JSStaticScopeObject18getOwnPropertySlotEPNS_9ExecStateERKNS_10IdentifierERNS_12PropertySlotE
__ZN3JSC12JSActivation3putEPNS_9ExecStateERKNS_10IdentifierENS_7JSValueERNS_15PutPropertySlotE
_cti_op_pop_scope
__ZN3JSC19JSStaticScopeObjectD1Ev
__ZN3JSC14InstanceOfNode12emitBytecodeERNS_17BytecodeGeneratorEPNS_10RegisterIDE
__ZN3JSC17BytecodeGenerator20emitCheckHasInstanceEPNS_10RegisterIDE
__ZN3JSC17BytecodeGenerator14emitInstanceOfEPNS_10RegisterIDES2_S2_S2_
__ZN3JSC3JIT26emit_op_check_has_instanceEPNS_11InstructionE
__ZN3JSC3JIT18emit_op_instanceofEPNS_11InstructionE
__ZN3JSC3JIT30emitSlow_op_check_has_instanceEPNS_11InstructionERPNS_13SlowCaseEntryE
__ZN3JSC3JIT22emitSlow_op_instanceofEPNS_11InstructionERPNS_13SlowCaseEntryE
__ZN3JSC14throwTypeErrorEPNS_9ExecStateE
__ZN3JSC4Yarr12digitsCreateEv
__ZN3WTF16VectorBufferBaseIcE14allocateBufferEm
__ZN3JSC4Yarr13YarrGenerator24matchCharacterClassRangeENS_12X86Registers10RegisterIDERNS_22AbstractMacroAssemblerINS_12X86AssemblerEE8JumpListES8_PKNS0_14CharacterRangeEjPjPKtj
__ZN3JSC23MacroAssemblerX86Common4jumpEv
__ZN3JSC23MacroAssemblerX86Common8branch32ENS0_19RelationalConditionENS_12X86Registers10RegisterIDES3_
__ZN3JSC4Yarr13YarrGenerator17BacktrackingState6linkToENS_22AbstractMacroAssemblerINS_12X86AssemblerEE5LabelEPNS_14MacroAssemblerE
__ZN3JSC4Yarr22YarrPatternConstructor23setupDisjunctionOffsetsEPNS0_18PatternDisjunctionEjj
__ZN3JSC4Yarr13YarrGenerator17BacktrackingState24takeBacktracksToJumpListERNS_22AbstractMacroAssemblerINS_12X86AssemblerEE8JumpListEPNS_14MacroAssemblerE
__ZNK3JSC11BooleanNode6isPureERNS_17BytecodeGeneratorE
_cti_timeout_check
__ZN3JSC14TimeoutChecker10didTimeOutEPNS_9ExecStateE
__ZN3JSC22createNotAnObjectErrorEPNS_9ExecStateENS_7JSValueE
__ZN3JSC11makeUStringIPKcNS_7UStringES2_EES3_T_T0_T1_
__ZN3WTF13tryMakeStringIPKcN3JSC7UStringES2_EENS_10PassRefPtrINS_10StringImplEEET_T0_T1_
__ZN3JSC15createTypeErrorEPNS_9ExecStateERKNS_7UStringE
__ZN3JSC10throwErrorEPNS_9ExecStateEPNS_8JSObjectE
__ZN3JSC13JSNotAnObject18getOwnPropertySlotEPNS_9ExecStateERKNS_10IdentifierERNS_12PropertySlotE
__ZN3JSC9CodeBlock32expressionRangeForBytecodeOffsetEjRiS1_S1_
__ZN3JSC11makeUStringINS_7UStringEPKcS1_S3_EES1_T_T0_T1_T2_
__ZN3WTF13tryMakeStringIN3JSC7UStringEPKcS2_S4_EENS_10PassRefPtrINS_10StringImplEEET_T0_T1_T2_
__ZN3JSC13JSNotAnObjectD1Ev
__ZN3JSCL18mathProtoFuncRoundEPNS_9ExecStateE
__ZN3JSCL18mathProtoFuncFloorEPNS_9ExecStateE
__ZN3JSC6JSCell16getConstructDataERNS_13ConstructDataE
__ZN3JSC26createNotAConstructorErrorEPNS_9ExecStateENS_7JSValueE
__ZN3JSC23objectProtoFuncToStringEPNS_9ExecStateE
__ZNK3JSC8JSObject9classNameEv
__ZNK3JSC14ExpressionNode11isCommaNodeEv
__ZN3JSC9CommaNode12emitBytecodeERNS_17BytecodeGeneratorEPNS_10RegisterIDE
__ZN3JSC9CommaNodeD1Ev
__ZN3WTF6VectorIPNS0_IN3JSC10IdentifierELm64EEELm32EE14expandCapacityEm
__ZN3JSC10ASTBuilder11makeModNodeEPNS_14ExpressionNodeES2_b
__ZN3JSC3JIT11emit_op_modEPNS_11InstructionE
__ZN3JSC3JIT15emitSlow_op_modEPNS_11InstructionERPNS_13SlowCaseEntryE
__ZN3WTF9HashTableINS_6RefPtrINS_10StringImplEEESt4pairIS3_iENS_18PairFirstExtractorIS5_EEN3JSC17IdentifierRepHashENS_14PairHashTraitsINS_10HashTraitsIS3_EENS8_17BytecodeGenerator28IdentifierMapIndexHashTraitsEEESC_E4findIS3_NS_22IdentityHashTranslatorIS3_S5_S9_EEEENS_17HashTableIteratorIS3_S5_S7_S9_SF_SC_EERKT_
__ZN3WTF9HashTableINS_6RefPtrINS_10StringImplEEESt4pairIS3_iENS_18PairFirstExtractorIS5_EEN3JSC17IdentifierRepHashENS_14PairHashTraitsINS_10HashTraitsIS3_EENS8_17BytecodeGenerator28IdentifierMapIndexHashTraitsEEESC_E6rehashEi
__ZN3WTF6VectorIPNS0_IN3JSC10RegisterIDELm32EEELm32EE14expandCapacityEmPKS4_
__ZN3WTF6VectorIPNS0_IN3JSC10RegisterIDELm32EEELm32EE15reserveCapacityEm
__ZN3JSC16throwSyntaxErrorEPNS_9ExecStateE
_cti_op_load_varargs
__ZN3WTF13tryFastCallocEmm
__ZN3JSC17BytecodeGenerator10emitPreDecEPNS_10RegisterIDE
__ZN3JSC3JIT15emit_op_decEPNS_11InstructionE
__ZN3JSC3JIT19emitSlow_op_decEPNS_11InstructionERPNS_13SlowCaseEntryE
_cti_op_dec
__ZN3WTF10StringImpl16findIgnoringCaseEPS0_j
__ZN3JSC5Lexer19getUnicodeCharacterEv
__ZN3JSCL23numberProtoFuncToStringEPNS_9ExecStateE
__ZN3JSC12VM15getHostFunctionEPFPvPNS_9ExecStateEEPFNS_21MacroAssemblerCodePtrEPS0_PNS_14ExecutablePoolEE
__ZN3JSC9JITThunks16hostFunctionStubEPNS_12VMEPFPvPNS_9ExecStateEEPFNS_21MacroAssemblerCodePtrES2_PNS_14ExecutablePoolEE
__ZN3JSC18sqrtThunkGeneratorEPNS_12VMEPNS_14ExecutablePoolE
__ZN3JSC19SpecializedThunkJIT8finalizeENS_21MacroAssemblerCodePtrE
__ZN3JSC10JSFunctionC1EPNS_9ExecStateEPNS_14JSGlobalObjectEPNS_9StructureEiRKNS_10IdentifierEPNS_16NativeExecutableE
__ZN3JSC10JSFunctionC2EPNS_9ExecStateEPNS_14JSGlobalObjectEPNS_9StructureEiRKNS_10IdentifierEPNS_16NativeExecutableE
__ZN3JSC3JIT11emit_op_notEPNS_11InstructionE
__ZN3JSC3JIT15emitSlow_op_notEPNS_11InstructionERPNS_13SlowCaseEntryE
__ZN3JSC17powThunkGeneratorEPNS_12VMEPNS_14ExecutablePoolE
__ZN3JSC12X86Assembler7cmpl_imEiiNS_12X86Registers10RegisterIDE
__ZN3JSC23MacroAssemblerX86Common26branchConvertDoubleToInt32ENS_12X86Registers13XMMRegisterIDENS1_10RegisterIDERNS_22AbstractMacroAssemblerINS_12X86AssemblerEE8JumpListES2_
__ZN3JSC19SpecializedThunkJIT11returnInt32ENS_12X86Registers10RegisterIDE
__ZN3JSC19SpecializedThunkJIT12returnDoubleENS_12X86Registers13XMMRegisterIDE
__ZN3JSC19SpecializedThunkJITD1Ev
__ZN3JSC10ASTBuilder14makeDeleteNodeEPNS_14ExpressionNodeEiii
__ZN3JSC13DeleteDotNode12emitBytecodeERNS_17BytecodeGeneratorEPNS_10RegisterIDE
__ZN3JSC17BytecodeGenerator14emitDeleteByIdEPNS_10RegisterIDES2_RKNS_10IdentifierE
__ZN3JSC3JIT17emit_op_del_by_idEPNS_11InstructionE
_cti_op_del_by_id
__ZN3JSC16JSVariableObject14deletePropertyEPNS_9ExecStateERKNS_10IdentifierE
__ZN3JSC8JSObject14deletePropertyEPNS_9ExecStateERKNS_10IdentifierE
__ZN3JSC17ObjectConstructor18getOwnPropertySlotEPNS_9ExecStateERKNS_10IdentifierERNS_12PropertySlotE
__ZN3JSC9Structure27despecifyFunctionTransitionERNS_12VMEPS0_RKNS_10IdentifierE
__ZN3JSC13PropertyTableC2ERNS_12VMEPNS_6JSCellERKS0_
__ZNK3WTF6String6toUIntEPb
__ZN3WTF10StringImpl6toUIntEPb
__ZN3WTF16charactersToUIntEPKtmPb
__ZN3JSC8JSParser20parseSwitchStatementINS_13SyntaxCheckerEEENT_9StatementERS3_
__ZN3JSC8JSParser18parseSwitchClausesINS_13SyntaxCheckerEEENT_10ClauseListERS3_
__ZN3JSC15ObjectPrototype18getOwnPropertySlotEPNS_9ExecStateEjRNS_12PropertySlotE
__ZN3JSC8JSParser20parseSwitchStatementINS_10ASTBuilderEEENT_9StatementERS3_
__ZN3JSC8JSParser18parseSwitchClausesINS_10ASTBuilderEEENT_10ClauseListERS3_
__ZN3JSC10SwitchNode12emitBytecodeERNS_17BytecodeGeneratorEPNS_10RegisterIDE
__ZN3JSC13CaseBlockNode20emitBytecodeForBlockERNS_17BytecodeGeneratorEPNS_10RegisterIDES4_
__ZN3JSC13CaseBlockNode18tryOptimizedSwitchERN3WTF6VectorIPNS_14ExpressionNodeELm8EEERiS7_
__ZN3JSCL17processClauseListEPNS_14ClauseListNodeERN3WTF6VectorIPNS_14ExpressionNodeELm8EEERNS_10SwitchKindERbRiSB_
__ZN3JSC3JIT14emit_op_bitandEPNS_11InstructionE
__ZN3JSC3JIT18emitSlow_op_bitandEPNS_11InstructionERPNS_13SlowCaseEntryE
__ZN3JSC12RegExpObject18getOwnPropertySlotEPNS_9ExecStateERKNS_10IdentifierERNS_12PropertySlotE
__ZN3JSC15RegExpPrototype18getOwnPropertySlotEPNS_9ExecStateERKNS_10IdentifierERNS_12PropertySlotE
__ZN3JSCL19regExpProtoFuncTestEPNS_9ExecStateE
__ZN3JSC12RegExpObject4testEPNS_9ExecStateE
__ZN3JSC12RegExpObject5matchEPNS_9ExecStateE
__ZN3JSC3JIT20emit_op_resolve_skipEPNS_11InstructionE
_cti_op_resolve_skip
__ZN3WTFeqERKNS_12AtomicStringERKNS_6VectorItLm0EEE
__ZN3WTF11OSAllocator18releaseDecommittedEPvm
__ZN3WTF12AtomicString16fromUTF8InternalEPKcS2_
__ZN3WTF7Unicode36calculateStringHashAndLengthFromUTF8EPKcS2_RjS3_
__ZN3JSC17BytecodeGenerator11beginSwitchEPNS_10RegisterIDENS_10SwitchInfo10SwitchTypeE
__ZN3WTF6VectorIN3JSC10SwitchInfoELm0EE14expandCapacityEm
__ZN3JSC17BytecodeGenerator9endSwitchEjPN3WTF6RefPtrINS_5LabelEEEPPNS_14ExpressionNodeEPS3_ii
__ZN3WTF6VectorIN3JSC15StringJumpTableELm0EE14expandCapacityEm
__ZN3JSC15StringJumpTableC1ERKS0_
__ZN3JSC3JIT21emit_op_switch_stringEPNS_11InstructionE
__ZN3WTF6VectorIN3JSC12SwitchRecordELm0EE14expandCapacityEm
_cti_op_switch_string
__ZN3JSC10ASTBuilder13makeBitOrNodeEPNS_14ExpressionNodeES2_b
__ZN3JSC3JIT13emit_op_bitorEPNS_11InstructionE
__ZN3JSC3JIT17emitSlow_op_bitorEPNS_11InstructionERPNS_13SlowCaseEntryE
__ZNK3WTF6String5splitERKS0_RNS_6VectorIS0_Lm0EEE
__ZN3JSC8JSParser19parseWhileStatementINS_13SyntaxCheckerEEENT_9StatementERS3_
__ZN3JSC8JSParser19parseWhileStatementINS_10ASTBuilderEEENT_9StatementERS3_
__ZN3JSC9WhileNode12emitBytecodeERNS_17BytecodeGeneratorEPNS_10RegisterIDE
__ZN3WTF10StringImpl7replaceEtPS0_
__ZN3JSC3JIT31privateCompilePutByIdTransitionEPNS_17StructureStubInfoEPNS_9StructureES4_mPNS_14StructureChainENS_16ReturnAddressPtrEb
_cti_op_put_by_id_fail
__ZN3JSC17BytecodeGenerator11emitPostIncEPNS_10RegisterIDES2_
__ZN3JSCL23createPrototypePropertyERNS_12VMEPNS_14JSGlobalObjectEPNS_10JSFunctionE
__ZNK3JSC8NullNode6isNullEv
__ZN3JSC3JIT17emit_op_jneq_nullEPNS_11InstructionE
_cti_op_convert_this
_cti_vm_lazyLinkConstruct
__ZN3JSC18FunctionExecutable27compileForConstructInternalEPNS_9ExecStateEPNS_14ScopeChainNodeE
__ZN3JSC3JIT18emit_op_get_calleeEPNS_11InstructionE
__ZN3JSC3JIT19emit_op_create_thisEPNS_11InstructionE
_cti_op_create_this
__ZN3JSC16ArrayConstructor16getConstructDataERNS_13ConstructDataE
__ZN3JSCL29constructWithArrayConstructorEPNS_9ExecStateE
__ZN3JSCL27constructArrayWithSizeQuirkEPNS_9ExecStateERKNS_7ArgListE
__ZN3JSC3JIT16emit_op_jeq_nullEPNS_11InstructionE
__ZN3JSC3JIT16emit_op_neq_nullEPNS_11InstructionE
__ZN3WTF6VectorIN3JSC15SimpleJumpTableELm0EE14expandCapacityEm
__ZNK3JSC5Label4bindEii
__ZN3WTF6VectorIiLm0EEC2ERKS1_
__ZN3JSC3JIT18emit_op_switch_immEPNS_11InstructionE
__ZN3WTF6VectorIN3JSC17CodeLocationLabelELm0EE14expandCapacityEm
_cti_op_switch_imm
__ZN3JSCL26stringProtoFuncToLowerCaseEPNS_9ExecStateE
__ZN3JSC8JSString17substringFromRopeEPNS_9ExecStateEjj
__ZN3WTF6String6removeEji
__ZN3WTF6String6insertERKS0_j
__ZN3WTF6String6insertEPKtjj
__ZN3JSCL26stringProtoFuncToUpperCaseEPNS_9ExecStateE
__ZN3JSCL26stringProtoFuncLastIndexOfEPNS_9ExecStateE
__ZNK3JSC7JSValue20toIntegerPreserveNaNEPNS_9ExecStateE
__ZN3WTFeqERKNS_7CStringES2_
__ZN3WTF10StringImpl4fillEt
__ZN3WTF22charactersToUIntStrictEPKtmPbi
__ZNK3WTF6String5upperEv
__ZNK3JSC11Interpreter18retrieveLastCallerEPNS_9ExecStateERiRlRNS_7UStringERNS_7JSValueE
__ZN3JSC23createNotAFunctionErrorEPNS_9ExecStateENS_7JSValueE
__ZNK3WTF6String6latin1Ev
__ZN3JSC3JIT30privateCompileGetByIdProtoListEPNS_17StructureStubInfoEPNS_30PolymorphicAccessStructureListEiPNS_9StructureES6_RKNS_10IdentifierERKNS_12PropertySlotEmPNS_9ExecStateE
__ZN3JSC3JIT15emit_op_eq_nullEPNS_11InstructionE
__ZN3WTF6VectorISt4pairIiiELm8EE14expandCapacityEm
__ZN3WTF7Unicode18equalUTF16WithUTF8EPKtS2_PKcS4_
__ZN3WTF11emptyStringEv
__ZN3WTF6String6numberEj
__ZN3JSC14PostfixDotNode12emitBytecodeERNS_17BytecodeGeneratorEPNS_10RegisterIDE
__ZN3JSC7JSArrayC1ERNS_12VMEPNS_9StructureEjNS_17ArrayCreationModeE
__ZN3JSC10Identifier4fromEPNS_9ExecStateEj
__ZN3JSC3JIT22compileGetDirectOffsetENS_12X86Registers10RegisterIDES2_PNS_9StructureEm
__ZN3WTF6VectorIN3JSC14ExecutablePool10AllocationELm2EE15reserveCapacityEm
__ZN3JSC4Yarr12spacesCreateEv
__ZN3WTF10StringImpl4costEv
__ZN3JSC17BytecodeGenerator22emitGetArgumentsLengthEPNS_10RegisterIDES2_
__ZN3JSC3JIT28emit_op_get_arguments_lengthEPNS_11InstructionE
__ZN3JSC3JIT26emit_op_tear_off_argumentsEPNS_11InstructionE
__ZN3JSC3JIT32emitSlow_op_get_arguments_lengthEPNS_11InstructionERPNS_13SlowCaseEntryE
__ZN3JSC27ctiPatchCallByReturnAddressEPNS_9CodeBlockENS_16ReturnAddressPtrENS_21MacroAssemblerCodePtrE
__ZN3WTF6VectorIN3JSC4Yarr11PatternTermELm0EE14expandCapacityEmPKS3_
__ZN3JSC4Yarr13YarrGenerator29generateAssertionWordBoundaryEm
__ZN3JSC12X86Assembler23X86InstructionFormatter11memoryModRMEiNS_12X86Registers10RegisterIDES3_ii
__ZN3JSCL21stringProtoFuncSearchEPNS_9ExecStateE
__ZN3JSC17StringConstructor18getOwnPropertySlotEPNS_9ExecStateERKNS_10IdentifierERNS_12PropertySlotE
__ZN3JSC26fromCharCodeThunkGeneratorEPNS_12VMEPNS_14ExecutablePoolE
__ZN3JSCL12charToStringERNS_19SpecializedThunkJITEPNS_12VMENS_12X86Registers10RegisterIDES5_S5_
__ZN3JSCL18stringFromCharCodeEPNS_9ExecStateE
__ZNK3JSC8JSObject14isGlobalObjectEv
__ZNK3WTF6String16removeCharactersEPFbtE
__ZN3WTF10StringImpl16removeCharactersEPFbtE
_JSContextGetGlobalContext
_JSWeakObjectMapCreate
__ZN3JSC14JSGlobalObject17weakMapsFinalizerEv
_JSWeakObjectMapGet
_JSWeakObjectMapSet
__ZN3WTF9HashTableIPvSt4pairIS1_PN3JSC7JSValueEENS_18PairFirstExtractorIS6_EENS_7PtrHashIS1_EENS_14PairHashTraitsINS_10HashTraitsIS1_EENSC_IS5_EEEESD_E6rehashEi
__ZN3JSC4Yarr6ParserINS0_13SyntaxCheckerEE11parseEscapeILb1ENS3_28CharacterClassParserDelegateEEEbRT0_
__ZN3JSC8JSParser22parseContinueStatementINS_13SyntaxCheckerEEENT_9StatementERS3_
__ZN3JSC8JSParser21parseDoWhileStatementINS_10ASTBuilderEEENT_9StatementERS3_
__ZN3JSC9ForInNode12emitBytecodeERNS_17BytecodeGeneratorEPNS_10RegisterIDE
__ZN3JSC17BytecodeGenerator20emitGetPropertyNamesEPNS_10RegisterIDES2_S2_S2_PNS_5LabelE
__ZN3WTF6VectorIN3JSC12ForInContextELm0EE14expandCapacityEm
__ZN3JSC11DoWhileNode12emitBytecodeERNS_17BytecodeGeneratorEPNS_10RegisterIDE
__ZN3JSC17BytecodeGenerator20emitNextPropertyNameEPNS_10RegisterIDES2_S2_S2_S2_PNS_5LabelE
__ZN3JSC3JIT18emit_op_get_pnamesEPNS_11InstructionE
__ZN3JSC3JIT20emit_op_get_by_pnameEPNS_11InstructionE
__ZN3JSC3JIT18emit_op_next_pnameEPNS_11InstructionE
__ZN3JSC3JIT24emitSlow_op_get_by_pnameEPNS_11InstructionERPNS_13SlowCaseEntryE
__ZN3JSC9Structure22toDictionaryTransitionERNS_12VMEPS0_NS0_14DictionaryKindE
_cti_op_get_pnames
__ZN3JSC22JSPropertyNameIterator6createEPNS_9ExecStateEPNS_8JSObjectE
__ZN3WTF6VectorIN3JSC10IdentifierELm20EE14expandCapacityEm
_cti_has_property
__ZN3JSC9Structure26flattenDictionaryStructureERNS_12VMEPNS_8JSObjectE
_JSValueIsObjectOfClass
__ZN3JSC16JSCallbackObjectINS_24JSObjectWithGlobalObjectEE3putEPNS_9ExecStateERKNS_10IdentifierENS_7JSValueERNS_15PutPropertySlotE
_JSValueCreateJSONString
__ZN3JSC13JSONStringifyEPNS_9ExecStateENS_7JSValueEj
__ZN3JSC11StringifierC2EPNS_9ExecStateERKNS_5LocalINS_7UnknownEEES7_
__ZN3JSC11Stringifier9stringifyENS_6HandleINS_7UnknownEEE
__ZN3JSC11Stringifier22appendStringifiedValueERNS_14UStringBuilderENS_7JSValueEPNS_8JSObjectERKNS_27PropertyNameForFunctionCallE
__ZNK3JSC6JSCell9getStringEPNS_9ExecStateE
_JSValueProtect
__ZN3WTF10StringImpl19characterStartingAtEj
__ZN3JSC12StringObject3putEPNS_9ExecStateERKNS_10IdentifierENS_7JSValueERNS_15PutPropertySlotE
__ZN3JSCL27objectProtoFuncDefineGetterEPNS_9ExecStateE
__ZN3JSC8JSObject12defineGetterEPNS_9ExecStateERKNS_10IdentifierEPS0_j
__ZN3JSC7JSArray3putEPNS_9ExecStateERKNS_10IdentifierENS_7JSValueERNS_15PutPropertySlotE
__ZN3JSC10JSFunction3putEPNS_9ExecStateERKNS_10IdentifierENS_7JSValueERNS_15PutPropertySlotE
__ZN3JSC8JSParser21parseConstDeclarationINS_13SyntaxCheckerEEENT_9StatementERS3_
__ZN3JSC8JSParser17parseFunctionInfoILNS0_20FunctionRequirementsE1ELb0ENS_10ASTBuilderEEEbRT1_RPKNS_10IdentifierERNS4_19FormalParameterListERNS4_12FunctionBodyERiSE_SE_
__ZN3WTF7HashMapINS_6RefPtrINS_10StringImplEEEjN3JSC17IdentifierRepHashENS_10HashTraitsIS3_EENS6_IjEEE3addEPS2_RKj
__ZN3WTF9HashTableINS_6RefPtrINS_10StringImplEEESt4pairIS3_jENS_18PairFirstExtractorIS5_EEN3JSC17IdentifierRepHashENS_14PairHashTraitsINS_10HashTraitsIS3_EENSB_IjEEEESC_E6rehashEi
__ZN3JSC17BytecodeGenerator13emitPutGetterEPNS_10RegisterIDERKNS_10IdentifierES2_
__ZN3JSC17BytecodeGenerator13emitPutSetterEPNS_10RegisterIDERKNS_10IdentifierES2_
__ZN3JSC3JIT18emit_op_put_getterEPNS_11InstructionE
__ZN3JSC3JIT18emit_op_put_setterEPNS_11InstructionE
_cti_op_put_getter
_cti_op_put_setter
__ZN3JSC8JSObject12defineSetterEPNS_9ExecStateERKNS_10IdentifierEPS0_j
__ZNK3JSC12GetterSetter14isGetterSetterEv
__ZN3JSC17ObjectConstructor16getConstructDataERNS_13ConstructDataE
__ZN3JSCL30constructWithObjectConstructorEPNS_9ExecStateE
__ZNK3JSC6JSCell14isGetterSetterEv
_JSObjectIsFunction
_JSObjectCallAsFunction
__ZN3JSC8JSObject22fillGetterPropertySlotERNS_12PropertySlotEPNS_16WriteBarrierBaseINS_7UnknownEEE
__ZNK3JSC12PropertySlot14functionGetterEPNS_9ExecStateE
__ZN3JSC17BytecodeGenerator20emitGetArgumentByValEPNS_10RegisterIDES2_S2_
__ZN3JSC3JIT27emit_op_get_argument_by_valEPNS_11InstructionE
__ZN3JSC3JIT31emitSlow_op_get_argument_by_valEPNS_11InstructionERPNS_13SlowCaseEntryE
__ZNK3JSC8JSString12toThisObjectEPNS_9ExecStateE
__ZN3JSCL20arrayProtoFuncSpliceEPNS_9ExecStateE
__ZN3JSC7JSArray9setLengthEj
__ZN3JSCL11getPropertyEPNS_9ExecStateEPNS_8JSObjectEj
_cti_op_create_arguments
__ZN3JSCL19arrayProtoFuncSliceEPNS_9ExecStateE
__ZN3JSC9Arguments18getOwnPropertySlotEPNS_9ExecStateERKNS_10IdentifierERNS_12PropertySlotE
__ZN3WTF7HashMapIjPN3JSC16FunctionBodyNodeENS_7IntHashIjEENS_29UnsignedWithZeroKeyHashTraitsIjEENS_10HashTraitsIS3_EEE3setERKjRKS3_
__ZN3WTF9HashTableIjSt4pairIjPN3JSC16FunctionBodyNodeEENS_18PairFirstExtractorIS5_EENS_7IntHashIjEENS_14PairHashTraitsINS_29UnsignedWithZeroKeyHashTraitsIjEENS_10HashTraitsIS4_EEEESC_E6rehashEi
__ZN3JSC17BytecodeGenerator19emitLazyNewFunctionEPNS_10RegisterIDEPNS_16FunctionBodyNodeE
_JSObjectMakeArray
__ZN3JSC20MarkedArgumentBuffer10slowAppendENS_7JSValueE
_JSValueUnprotect
__ZN3WTF9HashTableIPN3JSC20MarkedArgumentBufferES3_NS_17IdentityExtractorIS3_EENS_7PtrHashIS3_EENS_10HashTraitsIS3_EES9_E6expandEv
__ZN3JSC8JSParser22parseContinueStatementINS_10ASTBuilderEEENT_9StatementERS3_
__ZN3WTF6VectorIPN3JSC14ExpressionNodeELm8EE14expandCapacityEm
__ZN3WTF6VectorINS_6RefPtrIN3JSC5LabelEEELm8EE14expandCapacityEm
__ZN3JSC12ContinueNode12emitBytecodeERNS_17BytecodeGeneratorEPNS_10RegisterIDE
__ZN3JSC17BytecodeGenerator14continueTargetERKNS_10IdentifierE
__ZN3JSC23FunctionCallBracketNode12emitBytecodeERNS_17BytecodeGeneratorEPNS_10RegisterIDE
_cti_op_is_function
__ZN3JSC16jsIsFunctionTypeENS_7JSValueE
__ZN3JSC9Arguments18getOwnPropertySlotEPNS_9ExecStateEjRNS_12PropertySlotE
_cti_op_not
__ZNK3JSC7UString20substringSharingImplEjj
__ZN3JSC4Heap8allocateEm
_cti_op_create_arguments_no_params
__ZN3JSCL20arrayProtoFuncConcatEPNS_9ExecStateE
__ZN3JSC7JSArray15copyToRegistersEPNS_9ExecStateEPNS_8RegisterEj
__ZN3JSC16JSCallbackObjectINS_24JSObjectWithGlobalObjectEE14callbackGetterEPNS_9ExecStateENS_7JSValueERKNS_10IdentifierE
__ZNK3JSC6JSCell9getStringEPNS_9ExecStateERNS_7UStringE
__ZN3JSC11Stringifier6Holder18appendNextPropertyERS0_RNS_14UStringBuilderE
__ZN3JSC8JSObject18getOwnPropertySlotEPNS_9ExecStateERKNS_10IdentifierERNS_12PropertySlotE
__ZN3JSC11Stringifier18appendQuotedStringERNS_14UStringBuilderERKNS_7UStringE
__ZN3JSC7UStringC1EPKcj
_JSObjectGetPrivateProperty
_JSObjectSetPrivateProperty
__ZN3JSC20JSCallbackObjectData18setPrivatePropertyERNS_12VMEPNS_6JSCellERKNS_10IdentifierENS_7JSValueE
__ZN3WTF9HashTableINS_6RefPtrINS_10StringImplEEESt4pairIS3_N3JSC12WriteBarrierINS5_7UnknownEEEENS_18PairFirstExtractorIS9_EENS5_17IdentifierRepHashENS_14PairHashTraitsINS_10HashTraitsIS3_EENSE_IS8_EEEESF_E6rehashEi
_JSObjectDeletePrivateProperty
__ZN3JSC4Yarr18PatternDisjunction17addNewAlternativeEv
__ZN3JSC4Yarr22YarrPatternConstructor15copyDisjunctionEPNS0_18PatternDisjunctionEb
__ZN3WTF6VectorIPN3JSC4Yarr18PatternDisjunctionELm4EE14expandCapacityEm
__ZN3WTF6VectorIN3JSC4Yarr13YarrGenerator17BacktrackingState19ReturnAddressRecordELm4EE14expandCapacityEm
__ZN3JSCL19regExpProtoFuncExecEPNS_9ExecStateE
__ZN3JSC12RegExpObject4execEPNS_9ExecStateE
__ZN3JSC18RegExpMatchesArray18getOwnPropertySlotEPNS_9ExecStateEjRNS_12PropertySlotE
__ZN3JSC18RegExpMatchesArray17fillArrayInstanceEPNS_9ExecStateE
__ZN3JSC28globalFuncDecodeURIComponentEPNS_9ExecStateE
__ZN3JSCL6decodeEPNS_9ExecStateEPKcb
__ZN3WTF6VectorItLm64EE9tryAppendItEEbPKT_m
__ZN3WTF7Unicode18UTF8SequenceLengthEc
__ZN3WTF7Unicode18decodeUTF8SequenceEPKc
__ZN3WTF6VectorItLm64EE18tryReserveCapacityEm
__ZN3JSC16globalFuncEscapeEPNS_9ExecStateE
__ZN3JSC13PrefixDotNode12emitBytecodeERNS_17BytecodeGeneratorEPNS_10RegisterIDE
__ZN3JSC17BytecodeGenerator11emitPostDecEPNS_10RegisterIDES2_
__ZN3JSC7JSArray19getOwnPropertyNamesEPNS_9ExecStateERNS_17PropertyNameArrayENS_15EnumerationModeE
__ZN3JSC17PropertyNameArray3addEPN3WTF10StringImplE
__ZN3JSC9ExecState19arrayPrototypeTableEPS0_
__ZN3JSC20charAtThunkGeneratorEPNS_12VMEPNS_14ExecutablePoolE
__ZN3JSCL14stringCharLoadERNS_19SpecializedThunkJITE
__ZN3JSCL21stringProtoFuncCharAtEPNS_9ExecStateE
__ZN3WTF6VectorIPN3JSC14ExpressionNodeELm16EE14expandCapacityEm
__ZN3WTF6VectorINS_6RefPtrIN3JSC10RegisterIDEEELm16EE14expandCapacityEm
__ZN3WTF14FastMallocZone9forceLockEP14_malloc_zone_t
__ZN3WTF14FastMallocZone11forceUnlockEP14_malloc_zone_t
__ZN3JSC3JIT30emit_op_resolve_global_dynamicEPNS_11InstructionE
__ZN3JSC3JIT34emitSlow_op_resolve_global_dynamicEPNS_11InstructionERPNS_13SlowCaseEntryE
__ZN3WTF6VectorIN3JSC11StringRangeELm16EE14expandCapacityEmPKS2_
__ZN3WTF6VectorIN3JSC11StringRangeELm16EE15reserveCapacityEm
__ZN3WTF6VectorIN3JSC7UStringELm16EE14expandCapacityEmPKS2_
__ZN3WTF6VectorIN3JSC7UStringELm16EE15reserveCapacityEm
__ZN3JSC10ASTBuilder17makeLeftShiftNodeEPNS_14ExpressionNodeES2_b
__ZN3JSC3JIT14emit_op_lshiftEPNS_11InstructionE
__ZN3JSC3JIT18emitSlow_op_lshiftEPNS_11InstructionERPNS_13SlowCaseEntryE
_cti_op_lshift
_cti_op_bitor
__ZN3WTF6VectorIPN3JSC9StructureELm8EE14expandCapacityEm
_cti_op_get_by_id_proto_list_full
__ZN3WTF6VectorIN3JSC4Yarr13YarrGenerator6YarrOpELm128EE14expandCapacityEmPKS4_
__ZN3WTF6VectorIN3JSC4Yarr13YarrGenerator6YarrOpELm128EE15reserveCapacityEm
__ZN3JSC17RegExpConstructor16getConstructDataERNS_13ConstructDataE
__ZN3JSCL30constructWithRegExpConstructorEPNS_9ExecStateE
__ZN3JSC15constructRegExpEPNS_9ExecStateEPNS_14JSGlobalObjectERKNS_7ArgListE
__ZN3JSC8JSObject18getOwnPropertySlotEPNS_9ExecStateEjRNS_12PropertySlotE
_JSWeakObjectMapRemove
__ZN3WTF7HashMapIPvPN3JSC7JSValueENS_7PtrHashIS1_EENS_10HashTraitsIS1_EENS7_IS4_EEE4takeERKS1_
_JSObjectSetPrivate
_JSValueIsEqual
__ZN3JSC7JSValue13equalSlowCaseEPNS_9ExecStateES0_S0_
__ZN3JSC4Heap16allocateSlowCaseEm
__ZN3JSC9WeakGCMapIPvNS_8JSObjectENS_33DefaultWeakGCMapFinalizerCallbackIS1_S2_EEN3WTF7PtrHashIS1_EENS5_10HashTraitsIS1_EEE8finalizeENS_6HandleINS_7UnknownEEES1_
__ZN3JSC22JSPropertyNameIteratorD1Ev
_JSStringGetMaximumUTF8CStringSize
_JSStringGetUTF8CString
__ZN3JSC10ASTBuilder14makeBitAndNodeEPNS_14ExpressionNodeES2_b
__ZN3JSC10ASTBuilder18makeRightShiftNodeEPNS_14ExpressionNodeES2_b
__ZN3JSC3JIT14emit_op_rshiftEPNS_11InstructionE
__ZN3JSC3JIT18emitSlow_op_rshiftEPNS_11InstructionERPNS_13SlowCaseEntryE
_cti_op_put_by_id_transition_realloc
__ZNK3WTF6String5splitEtbRNS_6VectorIS0_Lm0EEE
__ZN3JSC24charCodeAtThunkGeneratorEPNS_12VMEPNS_14ExecutablePoolE
_cti_op_get_by_val_string
__ZN3JSC17StringConstructor11getCallDataERNS_8CallDataE
__ZN3JSCL21callStringConstructorEPNS_9ExecStateE
__ZN3WTF6String6appendEt
_cti_op_is_undefined
__ZN3JSC17NumberConstructor18getOwnPropertySlotEPNS_9ExecStateERKNS_10IdentifierERNS_12PropertySlotE
__ZN3JSC13jsAddSlowCaseEPNS_9ExecStateENS_7JSValueES2_
__ZNK3JSC8JSString11toPrimitiveEPNS_9ExecStateENS_22PreferredPrimitiveTypeE
_cti_op_get_by_id_getter_stub
__ZN3JSC9Structure24removePropertyTransitionERNS_12VMEPS0_RKNS_10IdentifierERm
__ZN3JSC9Structure6removeERKNS_10IdentifierE
__ZN3WTF6VectorIjLm0EE14expandCapacityEm
__ZN3JSC9Structure31removePropertyWithoutTransitionERNS_12VMERKNS_10IdentifierE
__ZN3JSC12GetterSetter13visitChildrenERNS_9MarkStackE
__ZN3JSC9Arguments13visitChildrenERNS_9MarkStackE
__ZN3JSC14JSGlobalObject17WeakMapsFinalizer8finalizeENS_6HandleINS_7UnknownEEEPv
__ZN3JSC9ArgumentsD1Ev
__ZN3JSC9ArgumentsD2Ev
__ZNK3JSC19JSStaticScopeObject14isDynamicScopeERb
__ZN3JSC19globalFuncEncodeURIEPNS_9ExecStateE
__ZN3JSCL6encodeEPNS_9ExecStateEPKc
__ZNK3JSC7UString4utf8Eb
__ZN3JSCL17arrayProtoFuncMapEPNS_9ExecStateE
_JSStringIsEqualToUTF8CString
__ZN3JSC12GetterSetterD1Ev
__ZN3JSC22JSPropertyNameIterator13visitChildrenERNS_9MarkStackE
__ZNK3WTF6String19characterStartingAtEj
__ZN3JSC10ASTBuilder14makeBitXOrNodeEPNS_14ExpressionNodeES2_b
__ZN3JSC3JIT14emit_op_bitxorEPNS_11InstructionE
__ZN3JSC3JIT18emitSlow_op_bitxorEPNS_11InstructionERPNS_13SlowCaseEntryE
_cti_op_bitxor
__ZN3JSC8JSParser21parseDoWhileStatementINS_13SyntaxCheckerEEENT_9StatementERS3_
__ZN3JSCL16mathProtoFuncMinEPNS_9ExecStateE
__ZN3JSCL21arrayProtoFuncReverseEPNS_9ExecStateE
__ZN3JSC17ProgramExecutable13visitChildrenERNS_9MarkStackE
__ZN3JSC12VM18createContextGroupENS_8HeapTypeE
__ZN3JSC12VM22clearBuiltinStructuresEv
__ZN3JSC4Heap7destroyEv
__ZN3JSC9JITThunks22clearHostFunctionStubsEv
__ZN3JSC11MarkedSpace7destroyEv
__ZN3JSC12VMD1Ev
__ZN3JSC12VMD2Ev
__ZN3JSC12JSStackD1Ev
__ZN3JSC12JSStackD2Ev
__ZNK3JSC9HashTable11deleteTableEv
__ZN3JSC5LexerD1Ev
__ZN3WTF20deleteAllPairSecondsIP24OpaqueJSClassContextDataKNS_7HashMapIP13OpaqueJSClassS2_NS_7PtrHashIS5_EENS_10HashTraitsIS5_EENS8_IS2_EEEEEEvRT0_
__ZN24OpaqueJSClassContextDataD1Ev
__ZN24OpaqueJSClassContextDataD2Ev
__ZN3JSC17CommonIdentifiersD2Ev
__ZN3JSC21deleteIdentifierTableEPNS_15IdentifierTableE
__ZN3JSC15IdentifierTableD2Ev
__ZN3JSC4HeapD1Ev
__ZN3JSC4HeapD2Ev
__ZN3JSC14MachineThreadsD1Ev
__ZN3JSC14MachineThreadsD2Ev
__ZN3JSC25DefaultGCActivityCallbackD0Ev
__ZN3JSC9JITThunksD1Ev
__ZN3JSC12SmallStringsD1Ev
__ZN13OpaqueJSClass26createNoAutomaticPrototypeEPK17JSClassDefinition
__ZN3JSC16JSCallbackObjectINS_14JSGlobalObjectEEC2ERNS_12VMEP13OpaqueJSClassPNS_9StructureE
__ZN3JSC16JSCallbackObjectINS_14JSGlobalObjectEE4initEPNS_9ExecStateE
__ZN3JSC16JSCallbackObjectINS_14JSGlobalObjectEE18getOwnPropertySlotEPNS_9ExecStateERKNS_10IdentifierERNS_12PropertySlotE
__ZN13OpaqueJSClass12staticValuesEPN3JSC9ExecStateE
__ZN13OpaqueJSClass15staticFunctionsEPN3JSC9ExecStateE
__ZN3JSC14JSGlobalObject14resetPrototypeERNS_12VMENS_7JSValueE
_JSReportExtraMemoryCost
_JSValueIsObject
_JSValueMakeNull
_JSObjectSetPrototype
_JSValueGetType
__ZN3JSC16JSCallbackObjectINS_14JSGlobalObjectEE3putEPNS_9ExecStateERKNS_10IdentifierENS_7JSValueERNS_15PutPropertySlotE
_JSGarbageCollect
__ZN3JSC16JSCallbackObjectINS_14JSGlobalObjectEE13visitChildrenERNS_9MarkStackE
__ZN3JSC11makeUStringINS_7UStringES1_EES1_T_T0_
__ZN3WTF13tryMakeStringIN3JSC7UStringES2_EENS_10PassRefPtrINS_10StringImplEEET_T0_
__ZN3WTF13StringBuilder6appendEc
_JSEvaluateScript
__ZNK3JSC14JSGlobalObject17supportsProfilingEv
__ZNK3JSC14JSGlobalObject22supportsRichSourceInfoEv
__ZNK3JSC8JSObject8toNumberEPNS_9ExecStateE
_JSStringGetLength
_JSStringGetCharactersPtr
_JSValueIsStrictEqual
_JSCheckScriptSyntax
__ZN3JSC11checkSyntaxEPNS_9ExecStateERKNS_10SourceCodeE
__ZN3JSC17ProgramExecutable11checkSyntaxEPNS_9ExecStateE
__ZN3WTF6VectorIN3JSC9LabelInfoELm0EE14expandCapacityEmPKS2_
__ZN3WTF6VectorIN3JSC9LabelInfoELm0EE15reserveCapacityEm
__ZN3JSC17createSyntaxErrorEPNS_14JSGlobalObjectERKNS_7UStringE
_JSObjectCallAsConstructor
__ZN3JSC9constructEPNS_9ExecStateENS_7JSValueENS_13ConstructTypeERKNS_13ConstructDataERKNS_7ArgListE
__ZN3JSC11Interpreter16executeConstructEPNS_9ExecStateEPNS_8JSObjectENS_13ConstructTypeERKNS_13ConstructDataERKNS_7ArgListE
_JSObjectSetPropertyAtIndex
_JSObjectMakeFunction
__ZN3JSC17constructFunctionEPNS_9ExecStateEPNS_14JSGlobalObjectERKNS_7ArgListERKNS_10IdentifierERKNS_7UStringEi
__ZN3JSC8JSParser8popScopeERNS0_15AutoPopScopeRefEb
__ZN3JSCL25functionProtoFuncToStringEPNS_9ExecStateE
__ZNK3JSC21UStringSourceProvider8getRangeEii
__ZNK3JSC18FunctionExecutable11paramStringEv
__ZN3WTF13tryMakeStringIPKcN3JSC7UStringES2_S4_S2_S4_EENS_10PassRefPtrINS_10StringImplEEET_T0_T1_T2_T3_T4_
_JSObjectMakeFunctionWithCallback
_JSObjectMakeConstructor
__ZN3JSC21JSCallbackConstructorC1EPNS_14JSGlobalObjectEPNS_9StructureEP13OpaqueJSClassPFP13OpaqueJSValuePK15OpaqueJSContextS8_mPKPKS7_PSD_E
_JSPropertyNameArrayGetNameAtIndex
_JSObjectMakeDate
__ZN3JSC13constructDateEPNS_9ExecStateEPNS_14JSGlobalObjectERKNS_7ArgListE
__ZN3JSC12DateInstanceC1EPNS_9ExecStateEPNS_9StructureEd
__ZN3WTF8timeClipEd
__ZN3JSC13DatePrototype18getOwnPropertySlotEPNS_9ExecStateERKNS_10IdentifierERNS_12PropertySlotE
__ZN3JSCL21dateProtoFuncToStringEPNS_9ExecStateE
__ZNK3JSC12DateInstance26calculateGregorianDateTimeEPNS_9ExecStateE
__ZN3JSC21msToGregorianDateTimeEPNS_9ExecStateEdbRNS_17GregorianDateTimeE
__ZN3JSCL12getDSTOffsetEPNS_9ExecStateEdd
__ZN3WTF18dateToDaysFrom1970Eiii
__ZN3JSC10formatDateERKNS_17GregorianDateTimeERA100_c
__ZN3JSC10formatTimeERKNS_17GregorianDateTimeERA100_c
__ZN3WTF13tryMakeStringIPcPKcS1_EENS_10PassRefPtrINS_10StringImplEEET_T0_T1_
_JSObjectMakeError
__ZN3JSC13ErrorInstance6createEPNS_9ExecStateEPNS_9StructureENS_7JSValueE
_JSObjectMakeRegExp
__ZN3JSCL23regExpProtoFuncToStringEPNS_9ExecStateE
__ZN3JSCL18regExpObjectGlobalEPNS_9ExecStateENS_7JSValueERKNS_10IdentifierE
__ZN3JSCL22regExpObjectIgnoreCaseEPNS_9ExecStateENS_7JSValueERKNS_10IdentifierE
__ZN3JSCL21regExpObjectMultilineEPNS_9ExecStateENS_7JSValueERKNS_10IdentifierE
__ZN3JSCL18regExpObjectSourceEPNS_9ExecStateENS_7JSValueERKNS_10IdentifierE
__ZN3WTF13tryMakeStringIPKcN3JSC7UStringEPcEENS_10PassRefPtrINS_10StringImplEEET_T0_T1_
__ZN13OpaqueJSClassD1Ev
__ZN13OpaqueJSClassD2Ev
__ZN3JSC16JSCallbackObjectINS_14JSGlobalObjectEE20staticFunctionGetterEPNS_9ExecStateENS_7JSValueERKNS_10IdentifierE
__ZN3JSC19JSStaticScopeObject13visitChildrenERNS_9MarkStackE
__ZN3JSC12DateInstanceD1Ev
__ZN3JSC21JSCallbackConstructorD1Ev
__ZN3JSC16JSCallbackObjectINS_14JSGlobalObjectEE17staticValueGetterEPNS_9ExecStateENS_7JSValueERKNS_10IdentifierE
__ZN3JSC16JSCallbackObjectINS_24JSObjectWithGlobalObjectEE11getCallDataERNS_8CallDataE
__ZN3JSC16JSCallbackObjectINS_24JSObjectWithGlobalObjectEE14deletePropertyEPNS_9ExecStateERKNS_10IdentifierE
__ZN3JSC16JSCallbackObjectINS_24JSObjectWithGlobalObjectEE4callEPNS_9ExecStateE
__ZN3JSC16JSCallbackObjectINS_24JSObjectWithGlobalObjectEE16getConstructDataERNS_13ConstructDataE
__ZN3JSC16JSCallbackObjectINS_24JSObjectWithGlobalObjectEE9constructEPNS_9ExecStateE
_cti_op_instanceof
__ZN3JSC16JSCallbackObjectINS_24JSObjectWithGlobalObjectEE11hasInstanceEPNS_9ExecStateENS_7JSValueES5_
__ZN3JSC16JSCallbackObjectINS_24JSObjectWithGlobalObjectEE19getOwnPropertyNamesEPNS_9ExecStateERNS_17PropertyNameArrayENS_15EnumerationModeE
_JSPropertyNameAccumulatorAddName
__ZN3JSCL41objectConstructorGetOwnPropertyDescriptorEPNS_9ExecStateE
__ZN3JSC16JSCallbackObjectINS_24JSObjectWithGlobalObjectEE24getOwnPropertyDescriptorEPNS_9ExecStateERKNS_10IdentifierERNS_18PropertyDescriptorE
__ZN3JSC18PropertyDescriptor15setConfigurableEb
__ZN3JSC18PropertyDescriptor13setEnumerableEb
__ZNK3JSC18PropertyDescriptor20isAccessorDescriptorEv
__ZNK3JSC18PropertyDescriptor8writableEv
__ZNK3JSC18PropertyDescriptor10enumerableEv
__ZNK3JSC18PropertyDescriptor12configurableEv
__ZN3JSC8JSObject24getOwnPropertyDescriptorEPNS_9ExecStateERKNS_10IdentifierERNS_18PropertyDescriptorE
__ZN3JSC3JIT19emit_op_to_numberEPNS_11InstructionE
__ZN3JSC3JIT23emitSlow_op_to_numberEPNS_11InstructionERPNS_13SlowCaseEntryE
_cti_op_to_number
__ZNK3JSC16JSCallbackObjectINS_24JSObjectWithGlobalObjectEE8toNumberEPNS_9ExecStateE
__ZNK3JSC16JSCallbackObjectINS_24JSObjectWithGlobalObjectEE9classNameEv
__ZNK3JSC16JSCallbackObjectINS_24JSObjectWithGlobalObjectEE8toStringEPNS_9ExecStateE
__ZN3JSC21JSCallbackConstructor16getConstructDataERNS_13ConstructDataE
__ZN3JSCL19constructJSCallbackEPNS_9ExecStateE
__ZN3JSC24createStackOverflowErrorEPNS_9ExecStateE
__ZN3JSC16createRangeErrorEPNS_9ExecStateERKNS_7UStringE
_cti_op_mul
__ZN3JSC12JSStack21releaseExcessCapacityEv
__ZN3JSC16JSCallbackObjectINS_14JSGlobalObjectEED1Ev
_JSObjectHasProperty
_JSObjectGetPrototype
__ZN3JSC8JSObject15unwrappedObjectEv
__ZN3JSC11createErrorEPNS_9ExecStateERKNS_7UStringE
__ZN3JSC12VM6createENS_8HeapTypeE
__ZN3JSC8JSObject17putDirectFunctionEPNS_9ExecStateEPNS_10JSFunctionEj
__ZN3JSC12VM13startSamplingEv
__ZN3JSC11Interpreter13startSamplingEv
__ZN3JSC15DateConstructor16getConstructDataERNS_13ConstructDataE
__ZN3JSCL28constructWithDateConstructorEPNS_9ExecStateE
__ZN3JSC21gregorianDateTimeToMSEPNS_9ExecStateERKNS_17GregorianDateTimeEdb
__ZN3JSCL30dateProtoFuncGetTimezoneOffsetEPNS_9ExecStateE
__ZN3JSC12VM12stopSamplingEv
__ZN3JSC11Interpreter12stopSamplingEv
__ZN3WTF9HashTableIjSt4pairIjN3JSC12WriteBarrierINS2_7UnknownEEEENS_18PairFirstExtractorIS6_EENS_7IntHashIjEENS_14PairHashTraitsINS_10HashTraitsIjEENSC_IS5_EEEESD_E6rehashEi
__ZN3JSC12VM14dumpSampleDataEPNS_9ExecStateE
__ZN3JSC11Interpreter14dumpSampleDataEPNS_9ExecStateE
__ZN3JSC16ArrayConstructor11getCallDataERNS_8CallDataE
__ZN3JSCL20callArrayConstructorEPNS_9ExecStateE
__ZN3JSC17NumberConstructor11getCallDataERNS_8CallDataE
__ZN3JSCL21callNumberConstructorEPNS_9ExecStateE
__ZN3JSCL28numberConstructorPosInfinityEPNS_9ExecStateENS_7JSValueERKNS_10IdentifierE
_cti_op_mod
__ZN3JSC3JIT13linkConstructEPNS_10JSFunctionEPNS_9CodeBlockES4_NS_21MacroAssemblerCodePtrEPNS_12CallLinkInfoEiPNS_12VME
__ZN3JSC14EvalExecutable13visitChildrenERNS_9MarkStackE
__ZN3JSC17NumberConstructor16getConstructDataERNS_13ConstructDataE
__ZN3JSCL30constructWithNumberConstructorEPNS_9ExecStateE
__ZN3JSC12NumberObjectC1ERNS_12VMEPNS_9StructureE
__ZN3JSC18BooleanConstructor16getConstructDataERNS_13ConstructDataE
__ZN3JSCL31constructWithBooleanConstructorEPNS_9ExecStateE
__ZN3JSC16constructBooleanEPNS_9ExecStateERKNS_7ArgListE
__ZN3JSC13BooleanObjectC1ERNS_12VMEPNS_9StructureE
__ZN3JSC13BooleanObjectD1Ev
__ZN3JSC9ExecState21arrayConstructorTableEPS0_
__ZN3JSC17FunctionPrototype11getCallDataERNS_8CallDataE
__ZN3JSC16InternalFunction4nameEPNS_9ExecStateE
__ZN3JSC8VoidNode12emitBytecodeERNS_17BytecodeGeneratorEPNS_10RegisterIDE
__ZN3JSCL25numberConstructorNaNValueEPNS_9ExecStateENS_7JSValueERKNS_10IdentifierE
__ZN3JSCL28numberConstructorNegInfinityEPNS_9ExecStateENS_7JSValueERKNS_10IdentifierE
__ZN3JSC18BooleanConstructor11getCallDataERNS_8CallDataE
__ZN3JSCL22callBooleanConstructorEPNS_9ExecStateE
__ZN3WTF6VectorIN3JSC8JSString12RopeIterator8WorkItemELm16EE14expandCapacityEmPKS4_
__ZN3WTF6VectorIN3JSC8JSString12RopeIterator8WorkItemELm16EE15reserveCapacityEm
__ZN3JSC10JSFunction14deletePropertyEPNS_9ExecStateERKNS_10IdentifierE
__ZN3JSC18globalFuncUnescapeEPNS_9ExecStateE
__ZNK3WTF13DecimalNumber19toStringExponentialEPtj
__ZN3JSC8JSObject3putEPNS_9ExecStateEjNS_7JSValueE
__ZN3JSC7JSArray14deletePropertyEPNS_9ExecStateEj
__ZN3JSC19FunctionConstructor16getConstructDataERNS_13ConstructDataE
__ZN3JSCL32constructWithFunctionConstructorEPNS_9ExecStateE
__ZN3JSC17constructFunctionEPNS_9ExecStateEPNS_14JSGlobalObjectERKNS_7ArgListE
__ZN3JSCL22numberProtoFuncValueOfEPNS_9ExecStateE
__ZN3JSC12NumberObject11getJSNumberEv
__ZN3JSC11makeUStringINS_7UStringEPKcS1_EES1_T_T0_T1_
__ZN3JSCL23booleanProtoFuncValueOfEPNS_9ExecStateE
__ZN3JSC21ReadModifyBracketNode12emitBytecodeERNS_17BytecodeGeneratorEPNS_10RegisterIDE
__ZN3JSCltERKNS_7UStringES2_
__ZN3JSC7JSArray4sortEPNS_9ExecStateENS_7JSValueENS_8CallTypeERKNS_8CallDataE
__ZN3WTF7AVLTreeIN3JSC32AVLTreeAbstractorForArrayCompareELj44ENS_18AVLTreeDefaultBSetILj44EEEE6insertEi
__ZN3WTF7AVLTreeIN3JSC32AVLTreeAbstractorForArrayCompareELj44ENS_18AVLTreeDefaultBSetILj44EEEE7balanceEi
__ZNK3JSC7SubNode10isSubtractEv
__ZN3JSC17BytecodeGenerator17argumentNumberForERKNS_10IdentifierE
__ZN3JSC17BytecodeGenerator27setIsNumericCompareFunctionEb
__ZN3JSC7JSArray11sortNumericEPNS_9ExecStateENS_7JSValueENS_8CallTypeERKNS_8CallDataE
__ZN3JSCL20dateProtoFuncGetTimeEPNS_9ExecStateE
__ZN3JSC8JSObject18getPrimitiveNumberEPNS_9ExecStateERdRNS_7JSValueE
__ZN3JSC7JSArray14deletePropertyEPNS_9ExecStateERKNS_10IdentifierE
__ZNK3JSC7JSValue16synthesizeObjectEPNS_9ExecStateE
__ZN3JSC36constructBooleanFromImmediateBooleanEPNS_9ExecStateEPNS_14JSGlobalObjectENS_7JSValueE
__ZN3JSCL27dateProtoFuncGetUTCFullYearEPNS_9ExecStateE
__ZNK3JSC12DateInstance29calculateGregorianDateTimeUTCEPNS_9ExecStateE
__ZN3JSC23MacroAssemblerX86Common4moveENS_22AbstractMacroAssemblerINS_12X86AssemblerEE13TrustedImmPtrENS_12X86Registers10RegisterIDE
__ZN3JSCL24dateProtoFuncGetUTCMonthEPNS_9ExecStateE
__ZN3JSCL23dateProtoFuncGetUTCDateEPNS_9ExecStateE
__ZN3JSCL22dateProtoFuncGetUTCDayEPNS_9ExecStateE
__ZN3JSCL24dateProtoFuncGetUTCHoursEPNS_9ExecStateE
__ZN3JSCL26dateProtoFuncGetUTCMinutesEPNS_9ExecStateE
__ZN3JSCL26dateProtoFuncGetUTCSecondsEPNS_9ExecStateE
__ZN3JSCL31dateProtoFuncGetUTCMillisecondsEPNS_9ExecStateE
__ZN3JSCL24dateProtoFuncGetFullYearEPNS_9ExecStateE
__ZN3JSCL21dateProtoFuncGetMonthEPNS_9ExecStateE
__ZN3JSCL20dateProtoFuncGetDateEPNS_9ExecStateE
__ZN3JSCL19dateProtoFuncGetDayEPNS_9ExecStateE
__ZN3JSCL21dateProtoFuncGetHoursEPNS_9ExecStateE
__ZN3JSCL23dateProtoFuncGetMinutesEPNS_9ExecStateE
__ZN3JSCL23dateProtoFuncGetSecondsEPNS_9ExecStateE
__ZN3JSCL28dateProtoFuncGetMilliSecondsEPNS_9ExecStateE
__ZN3JSC9parseDateEPNS_9ExecStateERKNS_7UStringE
__ZN3WTF40parseES5DateFromNullTerminatedCharactersEPKc
__ZN3JSC37parseDateFromNullTerminatedCharactersEPNS_9ExecStateEPKc
__ZN3WTFL37parseDateFromNullTerminatedCharactersEPKcRbRi
__ZN3JSCL24dateProtoFuncToUTCStringEPNS_9ExecStateE
__ZN3JSC20formatDateUTCVariantERKNS_17GregorianDateTimeERA100_c
__ZN3JSC13formatTimeUTCERKNS_17GregorianDateTimeERA100_c
__ZN3JSCL24dateProtoFuncToGMTStringEPNS_9ExecStateE
__ZN3JSC15DateConstructor18getOwnPropertySlotEPNS_9ExecStateERKNS_10IdentifierERNS_12PropertySlotE
__ZN3JSCL9dateParseEPNS_9ExecStateE
__ZN3JSCL7dateUTCEPNS_9ExecStateE
__ZN3JSC15globalFuncIsNaNEPNS_9ExecStateE
_cti_op_is_object
__ZN3JSC14jsIsObjectTypeENS_7JSValueE
__ZN3JSCL20dateProtoFuncGetYearEPNS_9ExecStateE
_cti_op_inc
__ZN3JSCL20dateProtoFuncSetTimeEPNS_9ExecStateE
__ZN3JSCL17arrayProtoFuncPopEPNS_9ExecStateE
__ZN3JSC7JSArray3popEv
__ZN3JSCL19arrayProtoFuncShiftEPNS_9ExecStateE
__ZN3JSC7JSArray10shiftCountEPNS_9ExecStateEi
__ZN3JSCL28dateProtoFuncSetMilliSecondsEPNS_9ExecStateE
__ZN3JSCL23setNewValueFromTimeArgsEPNS_9ExecStateEib
__ZN3JSCL31dateProtoFuncSetUTCMillisecondsEPNS_9ExecStateE
__ZN3JSCL23dateProtoFuncSetSecondsEPNS_9ExecStateE
__ZN3JSCL23dateProtoFuncSetMinutesEPNS_9ExecStateE
__ZN3JSCL26dateProtoFuncSetUTCMinutesEPNS_9ExecStateE
__ZN3JSCL21dateProtoFuncSetHoursEPNS_9ExecStateE
__ZN3JSCL24dateProtoFuncSetUTCHoursEPNS_9ExecStateE
__ZN3JSCL20dateProtoFuncSetDateEPNS_9ExecStateE
__ZN3JSCL23setNewValueFromDateArgsEPNS_9ExecStateEib
__ZN3JSCL23dateProtoFuncSetUTCDateEPNS_9ExecStateE
__ZN3JSCL21dateProtoFuncSetMonthEPNS_9ExecStateE
__ZN3JSCL24dateProtoFuncSetUTCMonthEPNS_9ExecStateE
__ZN3JSCL24dateProtoFuncSetFullYearEPNS_9ExecStateE
__ZN3JSCL27dateProtoFuncSetUTCFullYearEPNS_9ExecStateE
__ZN3JSC8JSParser18parseWithStatementINS_13SyntaxCheckerEEENT_9StatementERS3_
_cti_op_construct_arityCheck
__ZN3JSC8JSParser18parseWithStatementINS_10ASTBuilderEEENT_9StatementERS3_
__ZN3JSC8WithNode12emitBytecodeERNS_17BytecodeGeneratorEPNS_10RegisterIDE
__ZN3JSC17BytecodeGenerator13emitPushScopeEPNS_10RegisterIDE
__ZN3JSC3JIT18emit_op_push_scopeEPNS_11InstructionE
_cti_op_push_scope
__ZN3JSC17DeleteResolveNode12emitBytecodeERNS_17BytecodeGeneratorEPNS_10RegisterIDE
__ZN3JSC3JIT26emit_op_ret_object_or_thisEPNS_11InstructionE
__ZN3JSC16JSVariableObject19getOwnPropertyNamesEPNS_9ExecStateERNS_17PropertyNameArrayENS_15EnumerationModeE
__ZN3WTF9HashTableIPNS_10StringImplES2_NS_17IdentityExtractorIS2_EENS_7PtrHashIS2_EENS_10HashTraitsIS2_EES8_E6expandEv
__ZN3WTF6VectorIN3JSC10IdentifierELm20EE15reserveCapacityEm
__ZN3JSC9ExecState17globalObjectTableEPS0_
__ZNK3JSC8JSObject16isVariableObjectEv
__ZN3JSC17ObjectConstructor11getCallDataERNS_8CallDataE
__ZN3JSC19FunctionConstructor11getCallDataERNS_8CallDataE
__ZN3JSC15DateConstructor11getCallDataERNS_8CallDataE
__ZN3JSCL25numberConstructorMaxValueEPNS_9ExecStateENS_7JSValueERKNS_10IdentifierE
__ZN3JSCL25numberConstructorMinValueEPNS_9ExecStateENS_7JSValueERKNS_10IdentifierE
__ZN3JSC10ASTBuilder18makeBitwiseNotNodeEPNS_14ExpressionNodeE
__ZN3JSC3JIT14emit_op_bitnotEPNS_11InstructionE
__ZN3JSC3JIT18emitSlow_op_bitnotEPNS_11InstructionERPNS_13SlowCaseEntryE
_cti_op_jlesseq
_cti_op_bitnot
__ZN3WTF6VectorIjLm16EE15reserveCapacityEm
_cti_op_rshift
__ZN3JSC10ASTBuilder19makeURightShiftNodeEPNS_14ExpressionNodeES2_b
__ZN3JSC3JIT15emit_op_urshiftEPNS_11InstructionE
__ZN3JSC3JIT19emitSlow_op_urshiftEPNS_11InstructionERPNS_13SlowCaseEntryE
_cti_op_urshift
_cti_op_bitand
_cti_op_div
__ZN3JSCL23callFunctionConstructorEPNS_9ExecStateE
__ZN3JSC10JSFunction12lengthGetterEPNS_9ExecStateENS_7JSValueERKNS_10IdentifierE
__ZN3JSC10JSFunction15argumentsGetterEPNS_9ExecStateENS_7JSValueERKNS_10IdentifierE
__ZNK3JSC11Interpreter17retrieveArgumentsEPNS_9ExecStateEPNS_10JSFunctionE
__ZN3JSCL21callFunctionPrototypeEPNS_9ExecStateE
__ZN3JSC10JSFunction19getOwnPropertyNamesEPNS_9ExecStateERNS_17PropertyNameArrayENS_15EnumerationModeE
__ZNK3JSC9CommaNode11isCommaNodeEv
__ZN3JSC18globalFuncIsFiniteEPNS_9ExecStateE
__ZN3JSCL19stringProtoFuncTrimEPNS_9ExecStateE
__ZN3JSCL10trimStringEPNS_9ExecStateENS_7JSValueEi
__ZN3JSC15isStrWhiteSpaceEt
__ZN3JSC15AssignErrorNode12emitBytecodeERNS_17BytecodeGeneratorEPNS_10RegisterIDE
__ZN3JSC17BytecodeGenerator23emitThrowReferenceErrorERKNS_7UStringE
__ZN3JSC3JIT29emit_op_throw_reference_errorEPNS_11InstructionE
_cti_op_throw_reference_error
__ZN3JSC16parseIntOverflowEPKcii
__ZN3JSC9ExecState9mathTableEPS0_
__ZN3JSCL17mathProtoFuncACosEPNS_9ExecStateE
__ZN3JSCL17mathProtoFuncASinEPNS_9ExecStateE
__ZN3JSCL17mathProtoFuncATanEPNS_9ExecStateE
__ZN3JSCL18mathProtoFuncATan2EPNS_9ExecStateE
__ZN3JSCL17mathProtoFuncCeilEPNS_9ExecStateE
__ZN3JSCL16mathProtoFuncCosEPNS_9ExecStateE
__ZN3JSCL16mathProtoFuncExpEPNS_9ExecStateE
__ZN3JSCL16mathProtoFuncLogEPNS_9ExecStateE
__ZN3JSCL16mathProtoFuncPowEPNS_9ExecStateE
__ZN3JSCL19mathProtoFuncRandomEPNS_9ExecStateE
__ZN3JSCL16mathProtoFuncSinEPNS_9ExecStateE
__ZN3JSCL17mathProtoFuncSqrtEPNS_9ExecStateE
__ZN3JSCL16mathProtoFuncTanEPNS_9ExecStateE
__ZN3JSC9ExecState22numberConstructorTableEPS0_
__ZN3JSC6JSCell11getJSNumberEv
__ZN3JSCL21callObjectConstructorEPNS_9ExecStateE
__ZN3JSC9ExecState22objectConstructorTableEPS0_
_cti_to_object
__ZN3JSC9ExecState20numberPrototypeTableEPS0_
__ZNK3JSC15DotAccessorNode17isDotAccessorNodeEv
__ZNK3JSC14ExpressionNode17isDotAccessorNodeEv
__ZN3JSC9ExecState22stringConstructorTableEPS0_
__ZN3JSCL26stringFromCharCodeSlowCaseEPNS_9ExecStateE
__ZN3JSCL25stringProtoFuncCharCodeAtEPNS_9ExecStateE
__ZNK3JSC12JSActivation12toThisObjectEPNS_9ExecStateE
__ZN3JSC12StringObject19getOwnPropertyNamesEPNS_9ExecStateERNS_17PropertyNameArrayENS_15EnumerationModeE
__ZN3JSC9ExecState11stringTableEPS0_
__ZN3JSC12StringObject14deletePropertyEPNS_9ExecStateERKNS_10IdentifierE
_cti_op_check_has_instance
__ZN3JSC23createInvalidParamErrorEPNS_9ExecStateEPKcNS_7JSValueE
__ZN3JSC11makeUStringIPKcNS_7UStringES2_S2_S2_EES3_T_T0_T1_T2_T3_
__ZN3WTF13tryMakeStringIPKcN3JSC7UStringES2_S2_S2_EENS_10PassRefPtrINS_10StringImplEEET_T0_T1_T2_T3_
__ZN3JSC17RegExpConstructor18getOwnPropertySlotEPNS_9ExecStateERKNS_10IdentifierERNS_12PropertySlotE
__ZN3JSC12RegExpObject3putEPNS_9ExecStateERKNS_10IdentifierENS_7JSValueERNS_15PutPropertySlotE
__ZN3JSCL21regExpObjectLastIndexEPNS_9ExecStateENS_7JSValueERKNS_10IdentifierE
__ZN3WTF6VectorIN3JSC4Yarr12ByteCompiler21ParenthesesStackEntryELm0EE14expandCapacityEm
__ZN3JSC4Yarr12ByteCompiler16closeAlternativeEi
__ZN3WTF6VectorIN3JSC4Yarr8ByteTermELm0EE14expandCapacityEmPKS3_
__ZN3WTF6VectorIPN3JSC4Yarr15ByteDisjunctionELm0EE14expandCapacityEm
__ZN3JSC18RegExpMatchesArray18getOwnPropertySlotEPNS_9ExecStateERKNS_10IdentifierERNS_12PropertySlotE
__ZN3JSC4Yarr11Interpreter20backtrackParenthesesERNS0_8ByteTermEPNS1_18DisjunctionContextE
__ZN3JSC4Yarr11YarrPattern21newlineCharacterClassEv
__ZN3JSC4Yarr6ParserINS0_22YarrPatternConstructorEE28CharacterClassParserDelegate25atomBuiltInCharacterClassENS0_23BuiltInCharacterClassIDEb
__ZN3WTF6VectorIPN3JSC4Yarr14CharacterClassELm0EE14expandCapacityEmPKS4_
__ZN3JSC4Yarr25CharacterClassConstructor6appendEPKNS0_14CharacterClassE
__ZN3JSC4Yarr15nonspacesCreateEv
__ZN3WTF6VectorIN3JSC22AbstractMacroAssemblerINS1_12X86AssemblerEE4JumpELm16EE14expandCapacityEmPKS5_
__ZN3WTF6VectorIN3JSC22AbstractMacroAssemblerINS1_12X86AssemblerEE4JumpELm16EE14expandCapacityEm
__ZN3JSC4Yarr15nondigitsCreateEv
__ZN3JSCL24setRegExpObjectLastIndexEPNS_9ExecStateEPNS_8JSObjectENS_7JSValueE
__ZN3JSC9ExecState11regExpTableEPS0_
__ZN3JSC9ExecState20regExpPrototypeTableEPS0_
__ZN3JSC9LabelNode12emitBytecodeERNS_17BytecodeGeneratorEPNS_10RegisterIDE
__ZN3WTF6VectorIiLm0EE15reserveCapacityEm
__ZN3JSC3JIT19emit_op_switch_charEPNS_11InstructionE
_cti_op_switch_char
__ZN3JSC22AbstractMacroAssemblerINS_12X86AssemblerEE8JumpList6appendERS3_
__ZNK3WTF9HashTableIPN3JSC20MarkedArgumentBufferES3_NS_17IdentityExtractorIS3_EENS_7PtrHashIS3_EENS_10HashTraitsIS3_EES9_E4findIS3_NS_22IdentityHashTranslatorIS3_S3_S7_EEEENS_22HashTableConstIteratorIS3_S3_S5_S7_S9_S9_EERKT_
__ZN3JSCL20stringProtoFuncSliceEPNS_9ExecStateE
_cti_op_get_by_id_proto_fail
__ZN3JSCL28arrayProtoFuncToLocaleStringEPNS_9ExecStateE
__ZN3JSC16ErrorConstructor16getConstructDataERNS_13ConstructDataE
__ZN3JSCL29constructWithErrorConstructorEPNS_9ExecStateE
__ZN3JSCL22compareNumbersForQSortEPKvS1_
__ZN3JSCL25dateProtoFuncToDateStringEPNS_9ExecStateE
__ZN3JSCL25dateProtoFuncToTimeStringEPNS_9ExecStateE
__ZN3JSCL27dateProtoFuncToLocaleStringEPNS_9ExecStateE
__ZN3JSCL16formatLocaleDateEPNS_9ExecStateEPNS_12DateInstanceEdNS_20LocaleDateTimeFormatE
__ZN3JSCL31dateProtoFuncToLocaleDateStringEPNS_9ExecStateE
__ZN3JSC16ErrorConstructor11getCallDataERNS_8CallDataE
__ZN3JSCL20callErrorConstructorEPNS_9ExecStateE
__ZN3JSC17RegExpConstructor11getCallDataERNS_8CallDataE
__ZN3JSCL21callRegExpConstructorEPNS_9ExecStateE
__ZNK3JSC8JSObject15isErrorInstanceEv
__ZN3JSC12JSActivation14deletePropertyEPNS_9ExecStateERKNS_10IdentifierE
__ZN3JSC17BytecodeGenerator14emitPutByIndexEPNS_10RegisterIDEjS2_
__ZN3JSC3JIT20emit_op_put_by_indexEPNS_11InstructionE
_cti_op_put_by_index
__ZN3JSC18EmptyStatementNode12emitBytecodeERNS_17BytecodeGeneratorEPNS_10RegisterIDE
__ZN3JSC9Arguments14deletePropertyEPNS_9ExecStateERKNS_10IdentifierE
__ZN3JSC17DeleteBracketNode12emitBytecodeERNS_17BytecodeGeneratorEPNS_10RegisterIDE
__ZN3JSC17BytecodeGenerator15emitDeleteByValEPNS_10RegisterIDES2_S2_
_cti_op_del_by_val
__ZN3JSC9Arguments14deletePropertyEPNS_9ExecStateEj
_cti_op_tear_off_arguments
__ZN3JSC9Arguments3putEPNS_9ExecStateEjNS_7JSValueE
__ZN3JSCL29objectProtoFuncHasOwnPropertyEPNS_9ExecStateE
__ZNK3JSC8JSObject14hasOwnPropertyEPNS_9ExecStateERKNS_10IdentifierE
__ZN3JSCL22numberProtoFuncToFixedEPNS_9ExecStateE
__ZN3WTF11dtoaRoundDPEPcdiRbRiRj
__ZN3WTF4dtoaILb0ELb0ELb1ELb0EEEvPcdiRbRiRj
__ZN3JSCL28numberProtoFuncToExponentialEPNS_9ExecStateE
__ZN3WTF11dtoaRoundSFEPcdiRbRiRj
__ZN3WTF4dtoaILb0ELb1ELb0ELb0EEEvPcdiRbRiRj
__ZN3JSCL26numberProtoFuncToPrecisionEPNS_9ExecStateE
__ZN3JSC22NativeErrorConstructor16getConstructDataERNS_13ConstructDataE
__ZN3JSCL35constructWithNativeErrorConstructorEPNS_9ExecStateE
__ZN3JSC23MacroAssemblerX86Common8branch16ENS0_19RelationalConditionENS_22AbstractMacroAssemblerINS_12X86AssemblerEE9BaseIndexENS4_12TrustedImm32E
__ZN3JSC4Yarr17nonwordcharCreateEv
__ZN3JSC12X86Assembler23X86InstructionFormatter15emitRexIfNeededEiii
__ZN3JSC8JSString18getPrimitiveNumberEPNS_9ExecStateERdRNS_7JSValueE
__ZN3JSCL28substituteBackreferencesSlowERKNS_7UStringES2_PKiPNS_6RegExpEm
__ZN3WTF6VectorItLm0EE6appendItEEvPKT_m
__ZN3JSC17createSyntaxErrorEPNS_9ExecStateERKNS_7UStringE
__ZN3JSCL26regExpConstructorLastMatchEPNS_9ExecStateENS_7JSValueERKNS_10IdentifierE
__ZNK3JSC17RegExpConstructor10getBackrefEPNS_9ExecStateEj
__ZN3JSCL28regExpConstructorLeftContextEPNS_9ExecStateENS_7JSValueERKNS_10IdentifierE
__ZNK3JSC17RegExpConstructor14getLeftContextEPNS_9ExecStateE
__ZN3JSCL29regExpConstructorRightContextEPNS_9ExecStateENS_7JSValueERKNS_10IdentifierE
__ZNK3JSC17RegExpConstructor15getRightContextEPNS_9ExecStateE
__ZN3WTF6VectorIiLm32EE15reserveCapacityEm
__ZN3JSCL24regExpConstructorDollar1EPNS_9ExecStateENS_7JSValueERKNS_10IdentifierE
__ZN3JSCL24regExpConstructorDollar2EPNS_9ExecStateENS_7JSValueERKNS_10IdentifierE
__ZN3WTF6VectorIPNS0_IN3JSC5LabelELm32EEELm32EE14expandCapacityEmPKS4_
__ZN3WTF6VectorIPNS0_IN3JSC5LabelELm32EEELm32EE15reserveCapacityEm
__ZN3JSC8JSString16replaceCharacterEPNS_9ExecStateEtRKNS_7UStringE
__ZN3JSCL21arrayProtoFuncUnShiftEPNS_9ExecStateE
__ZN3JSC7JSArray12unshiftCountEPNS_9ExecStateEi
__ZN3JSC7JSArray26increaseVectorPrefixLengthEj
__ZN3JSCL21stringProtoFuncConcatEPNS_9ExecStateE
__ZN3JSCL24regExpConstructorDollar3EPNS_9ExecStateENS_7JSValueERKNS_10IdentifierE
__ZN3JSCL24regExpConstructorDollar4EPNS_9ExecStateENS_7JSValueERKNS_10IdentifierE
__ZN3JSCL24regExpConstructorDollar5EPNS_9ExecStateENS_7JSValueERKNS_10IdentifierE
__ZN3JSCL24regExpConstructorDollar6EPNS_9ExecStateENS_7JSValueERKNS_10IdentifierE
__ZN3JSCL24regExpConstructorDollar7EPNS_9ExecStateENS_7JSValueERKNS_10IdentifierE
__ZN3JSCL24regExpConstructorDollar8EPNS_9ExecStateENS_7JSValueERKNS_10IdentifierE
__ZN3JSCL24regExpConstructorDollar9EPNS_9ExecStateENS_7JSValueERKNS_10IdentifierE
__ZN3JSC17RegExpConstructor3putEPNS_9ExecStateERKNS_10IdentifierENS_7JSValueERNS_15PutPropertySlotE
__ZN3JSCL25setRegExpConstructorInputEPNS_9ExecStateEPNS_8JSObjectENS_7JSValueE
__ZN3JSCL22regExpConstructorInputEPNS_9ExecStateENS_7JSValueERKNS_10IdentifierE
__ZN3JSCL26regExpConstructorLastParenEPNS_9ExecStateENS_7JSValueERKNS_10IdentifierE
__ZNK3JSC17RegExpConstructor12getLastParenEPNS_9ExecStateE
__ZN3JSCL26regExpConstructorMultilineEPNS_9ExecStateENS_7JSValueERKNS_10IdentifierE
__ZN3JSCL29setRegExpConstructorMultilineEPNS_9ExecStateEPNS_8JSObjectENS_7JSValueE
__ZN3JSCL22regExpProtoFuncCompileEPNS_9ExecStateE
__ZN3JSC14globalFuncEvalEPNS_9ExecStateE
__ZN3JSC11Interpreter7executeEPNS_14EvalExecutableEPNS_9ExecStateEPNS_8JSObjectEPNS_14ScopeChainNodeE
__ZN3JSC9Arguments3putEPNS_9ExecStateERKNS_10IdentifierENS_7JSValueERNS_15PutPropertySlotE
__ZN3JSC17ConservativeRoots4growEv
__ZN3JSCL27objectProtoFuncDefineSetterEPNS_9ExecStateE
__ZN3JSC15ObjectPrototype3putEPNS_9ExecStateERKNS_10IdentifierENS_7JSValueERNS_15PutPropertySlotE
__ZN3JSCL27objectProtoFuncLookupSetterEPNS_9ExecStateE
__ZN3JSC8JSObject12lookupSetterEPNS_9ExecStateERKNS_10IdentifierE
__ZN3JSCL27objectProtoFuncLookupGetterEPNS_9ExecStateE
__ZN3JSC8JSObject12lookupGetterEPNS_9ExecStateERKNS_10IdentifierE
__ZN3JSCL21stringProtoFuncAnchorEPNS_9ExecStateE
__ZN3WTF13tryMakeStringIPKcN3JSC7UStringES2_S4_S2_EENS_10PassRefPtrINS_10StringImplEEET_T0_T1_T2_T3_
__ZN3JSCL18stringProtoFuncBigEPNS_9ExecStateE
__ZN3JSCL20stringProtoFuncBlinkEPNS_9ExecStateE
__ZN3JSC22jsMakeNontrivialStringIPKcNS_7UStringES2_EENS_7JSValueEPNS_9ExecStateET_T0_T1_
__ZN3JSCL19stringProtoFuncBoldEPNS_9ExecStateE
__ZN3JSCL22stringProtoFuncItalicsEPNS_9ExecStateE
__ZN3JSCL20stringProtoFuncFixedEPNS_9ExecStateE
__ZN3JSCL24stringProtoFuncFontcolorEPNS_9ExecStateE
__ZN3JSCL23stringProtoFuncFontsizeEPNS_9ExecStateE
__ZN3JSCL19stringProtoFuncLinkEPNS_9ExecStateE
__ZN3JSCL20stringProtoFuncSmallEPNS_9ExecStateE
__ZN3JSCL21stringProtoFuncStrikeEPNS_9ExecStateE
__ZN3JSCL18stringProtoFuncSubEPNS_9ExecStateE
__ZN3JSCL18stringProtoFuncSupEPNS_9ExecStateE
__ZN3JSC18PostfixBracketNode12emitBytecodeERNS_17BytecodeGeneratorEPNS_10RegisterIDE
__ZN3JSC8JSString18getOwnPropertySlotEPNS_9ExecStateEjRNS_12PropertySlotE
__ZN3JSCL35objectProtoFuncPropertyIsEnumerableEPNS_9ExecStateE
__ZNK3JSC8JSObject20propertyIsEnumerableEPNS_9ExecStateERKNS_10IdentifierE
__ZN3JSC14JSGlobalObject24getOwnPropertyDescriptorEPNS_9ExecStateERKNS_10IdentifierERNS_18PropertyDescriptorE
__ZN3JSC16JSVariableObject14symbolTableGetERKNS_10IdentifierERNS_18PropertyDescriptorE
__ZN3JSC18PropertyDescriptor13setDescriptorENS_7JSValueEj
__ZN3JSC19globalFuncDecodeURIEPNS_9ExecStateE
__ZN3JSC14createURIErrorEPNS_9ExecStateERKNS_7UStringE
__ZN3WTF6VectorISt4pairIPN3JSC14ExpressionNodeENS2_10ASTBuilder12BinaryOpInfoEELm10EE14expandCapacityEmPKS7_
__ZN3WTF6VectorISt4pairIPN3JSC14ExpressionNodeENS2_10ASTBuilder12BinaryOpInfoEELm10EE15reserveCapacityEm
__ZN3WTF6VectorISt4pairIiiELm10EE14expandCapacityEm
__ZN3JSC29callHostFunctionAsConstructorEPNS_9ExecStateE
__ZNK3JSC9ArrayNode13isSimpleArrayEv
__ZN3JSCL20arrayProtoFuncFilterEPNS_9ExecStateE
__ZN3JSCL19arrayProtoFuncEveryEPNS_9ExecStateE
__ZN3JSCL18arrayProtoFuncSomeEPNS_9ExecStateE
__ZN3JSCL21arrayProtoFuncIndexOfEPNS_9ExecStateE
__ZN3JSC12StringObject18getOwnPropertySlotEPNS_9ExecStateEjRNS_12PropertySlotE
__ZN3JSC8JSObject14deletePropertyEPNS_9ExecStateEj
__ZN3JSCL25arrayProtoFuncLastIndexOfEPNS_9ExecStateE
__ZN3WTF20equalIgnoringNullityEPNS_10StringImplES1_
_cti_op_get_by_id_array_fail
__ZN3JSC17PrefixBracketNode12emitBytecodeERNS_17BytecodeGeneratorEPNS_10RegisterIDE
__ZN3JSC12VM10ClientDataD2Ev
__ZN3JSC8DebuggerD2Ev
__ZN3WTF14ThreadSpecificINS_13WTFThreadDataEE7destroyEPv
__ZN3WTF13WTFThreadDataD1Ev
__ZN3WTF17AtomicStringTable7destroyEPS0_
__ZN3JSC15IdentifierTableD1Ev
_cti_op_is_boolean
__ZN3JSC18RegExpMatchesArray14deletePropertyEPNS_9ExecStateEj
__ZN3JSC18RegExpMatchesArray3putEPNS_9ExecStateERKNS_10IdentifierENS_7JSValueERNS_15PutPropertySlotE
__ZN3JSC15WeakHandleOwner8finalizeENS_6HandleINS_7UnknownEEEPv
__ZN3WTF9dayInYearEdi
__ZN3WTF18monthFromDayInYearEib
__ZN3WTF23dayInMonthFromDayInYearEib
__ZNK3JSC4Heap11objectCountEv
__ZNK3JSC11MarkedSpace11objectCountEv
__ZN3JSC14JSGlobalObject12defineGetterEPNS_9ExecStateERKNS_10IdentifierEPNS_8JSObjectEj
__ZN3JSC14JSGlobalObject12defineSetterEPNS_9ExecStateERKNS_10IdentifierEPNS_8JSObjectEj
__ZN3JSC9Structure22getterSetterTransitionERNS_12VMEPS0_
__ZN3JSCL28objectProtoFuncIsPrototypeOfEPNS_9ExecStateE
__ZN3JSCL21functionProtoFuncCallEPNS_9ExecStateE
__ZNK3JSC7ArgList8getSliceEiRS0_
__ZN3JSCL36objectConstructorGetOwnPropertyNamesEPNS_9ExecStateE
__ZN3JSCL31objectConstructorGetPrototypeOfEPNS_9ExecStateE
__ZN3JSC22NativeErrorConstructor11getCallDataERNS_8CallDataE
__ZN3JSC10JSONObject18getOwnPropertySlotEPNS_9ExecStateERKNS_10IdentifierERNS_12PropertySlotE
__ZN3WTF10StringImpl23defaultWritingDirectionEPb
__ZN3JSC13JSNotAnObject18getOwnPropertySlotEPNS_9ExecStateEjRNS_12PropertySlotE
__ZN3JSC23throwStackOverflowErrorEPNS_9ExecStateE
__ZN3JSCL23arrayConstructorIsArrayEPNS_9ExecStateE
__ZN3JSCL21objectConstructorKeysEPNS_9ExecStateE
__ZNK3JSC8JSObject11hasPropertyEPNS_9ExecStateEj
__ZN3JSCL24dateProtoFuncToISOStringEPNS_9ExecStateE
_cti_op_get_by_id_string_fail
__ZN3JSC22StringRecursionChecker11emptyStringEv
__ZN3JSC22StringRecursionChecker23throwStackOverflowErrorEv
__ZN3JSC9ExecState9jsonTableEPS0_
__ZN3JSC10JSFunction12callerGetterEPNS_9ExecStateENS_7JSValueERKNS_10IdentifierE
__ZNK3JSC11Interpreter14retrieveCallerEPNS_9ExecStateEPNS_10JSFunctionE
__ZN3WTF27releaseFastMallocFreeMemoryEv
__ZN3JSC17BytecodeGenerator21emitComplexJumpScopesEPNS_5LabelEPNS_18ControlFlowContextES4_
__ZN3JSCL22functionProtoFuncApplyEPNS_9ExecStateE
__ZN3JSC7JSArray11fillArgListEPNS_9ExecStateERNS_20MarkedArgumentBufferE
__ZN3JSC9CodeBlock16createActivationEPNS_9ExecStateE
__ZN3JSCL22JSONProtoFuncStringifyEPNS_9ExecStateE
_cti_op_put_by_id_direct_fail
__ZN3JSCL18JSONProtoFuncParseEPNS_9ExecStateE
__ZN3JSC6Walker4walkENS_7JSValueE
__ZN3WTF6VectorIN3JSC5LocalINS1_7JSArrayEEELm16EE14expandCapacityEm
__ZN3WTF6VectorIjLm16EE14expandCapacityEm
__ZN3WTF6VectorIN3JSC11WalkerStateELm16EE14expandCapacityEm
__ZN3JSC11HandleStack4growEv
__ZN3JSC18RegExpMatchesArray3putEPNS_9ExecStateEjNS_7JSValueE
__ZNK3JSC27PropertyNameForFunctionCall5valueEPNS_9ExecStateE
__ZN3WTF13StringBuilder6resizeEj
__ZN3JSC8JSParser17parseFunctionInfoILNS0_20FunctionRequirementsE1ELb0ENS_13SyntaxCheckerEEEbRT1_RPKNS_10IdentifierERNS4_19FormalParameterListERNS4_12FunctionBodyERiSE_SE_
__ZN3JSCL19dateProtoFuncToJSONEPNS_9ExecStateE
__ZN3JSC9ExecState9dateTableEPS0_
__ZN3JSC10Identifier4fromEPNS_9ExecStateEd
__ZN3WTF6VectorIN3JSC11Stringifier6HolderELm16EE15reserveCapacityEm
__ZN3JSCL23objectConstructorCreateEPNS_9ExecStateE
__ZN3JSCL16definePropertiesEPNS_9ExecStateEPNS_8JSObjectES3_
__ZN3JSCL20toPropertyDescriptorEPNS_9ExecStateENS_7JSValueERNS_18PropertyDescriptorE
__ZN3WTF6VectorIN3JSC18PropertyDescriptorELm0EE14expandCapacityEm
__ZNK3JSC18PropertyDescriptor16isDataDescriptorEv
__ZN3JSC8JSObject17defineOwnPropertyEPNS_9ExecStateERKNS_10IdentifierERNS_18PropertyDescriptorEb
__ZN3JSCL13putDescriptorEPNS_9ExecStateEPNS_8JSObjectERKNS_10IdentifierERNS_18PropertyDescriptorEjRKS7_
__ZNK3JSC18PropertyDescriptor19isGenericDescriptorEv
__ZN3JSC18PropertyDescriptor9setGetterENS_7JSValueE
__ZNK3JSC18PropertyDescriptor6getterEv
__ZNK3JSC18PropertyDescriptor6setterEv
__ZN3JSC18PropertyDescriptor11setWritableEb
__ZN3JSC18PropertyDescriptor9setSetterENS_7JSValueE
__ZN3JSCL33objectConstructorDefinePropertiesEPNS_9ExecStateE
__ZNK3JSC18PropertyDescriptor7equalToEPNS_9ExecStateERKS0_
__ZNK3JSC18PropertyDescriptor15attributesEqualERKS0_
__ZNK3JSC18PropertyDescriptor22attributesWithOverrideERKS0_
__ZN3JSCL31objectConstructorDefinePropertyEPNS_9ExecStateE
__ZN3JSC7JSArray24getOwnPropertyDescriptorEPNS_9ExecStateERKNS_10IdentifierERNS_18PropertyDescriptorE
__ZN3JSC9Arguments19getOwnPropertyNamesEPNS_9ExecStateERNS_17PropertyNameArrayENS_15EnumerationModeE
__ZN3JSC9ExecState21booleanPrototypeTableEPS0_
__ZN3JSC9ExecState20dateConstructorTableEPS0_
__ZN3JSC9ExecState22regExpConstructorTableEPS0_
__ZN3JSC9ExecState19errorPrototypeTableEPS0_
__ZN3JSC12JSActivation18getArgumentsGetterEv
__ZN3JSC12JSActivation15argumentsGetterEPNS_9ExecStateENS_7JSValueERKNS_10IdentifierE
__ZN3JSCL20arrayProtoFuncReduceEPNS_9ExecStateE
__ZN3JSCL25arrayProtoFuncReduceRightEPNS_9ExecStateE
__ZN3JSC3JIT27emit_op_convert_this_strictEPNS_11InstructionE
__ZN3JSC3JIT31emitSlow_op_convert_this_strictEPNS_11InstructionERPNS_13SlowCaseEntryE
__ZN3JSC9Arguments33createStrictModeCalleeIfNecessaryEPNS_9ExecStateE
__ZN3JSC23createTypeErrorFunctionEPNS_9ExecStateERKNS_7UStringE
__ZN3JSC18PropertyDescriptor21setAccessorDescriptorENS_7JSValueES1_j
__ZN3JSC9Arguments24getOwnPropertyDescriptorEPNS_9ExecStateERKNS_10IdentifierERNS_18PropertyDescriptorE
__ZN3JSC27StrictModeTypeErrorFunction11getCallDataERNS_8CallDataE
__ZN3JSC27StrictModeTypeErrorFunction18callThrowTypeErrorEPNS_9ExecStateE
__ZN3JSC14throwTypeErrorEPNS_9ExecStateERKNS_7UStringE
__ZN3JSC9Arguments33createStrictModeCallerIfNecessaryEPNS_9ExecStateE
_cti_op_resolve_base_strict_put
__ZN3JSC37createErrorForInvalidGlobalAssignmentEPNS_9ExecStateERKNS_7UStringE
__ZN3JSC19JSStaticScopeObject3putEPNS_9ExecStateERKNS_10IdentifierENS_7JSValueERNS_15PutPropertySlotE
__ZN3JSC20StrictEvalActivationC1EPNS_9ExecStateE
__ZN3JSC15PrefixErrorNode12emitBytecodeERNS_17BytecodeGeneratorEPNS_10RegisterIDE
__ZN3JSC16PostfixErrorNode12emitBytecodeERNS_17BytecodeGeneratorEPNS_10RegisterIDE
__ZN3JSC10JSFunction24getOwnPropertyDescriptorEPNS_9ExecStateERKNS_10IdentifierERNS_18PropertyDescriptorE
__ZN3JSCL35createDescriptorForThrowingPropertyEPNS_9ExecStateERNS_18PropertyDescriptorEPKc
__ZN3JSC20StrictEvalActivationD1Ev
__ZN3JSC27StrictModeTypeErrorFunctionD1Ev
__ZN3JSC9Arguments15copyToRegistersEPNS_9ExecStateEPNS_8RegisterEj
__ZN3JSC23MacroAssemblerX86Common12branchTest32ENS0_15ResultConditionENS_22AbstractMacroAssemblerINS_12X86AssemblerEE7AddressENS4_12TrustedImm32E
__ZN3JSC23MacroAssemblerX86Common8branch32ENS0_19RelationalConditionENS_22AbstractMacroAssemblerINS_12X86AssemblerEE7AddressENS4_12TrustedImm32E
__ZN3JSC12X86Assembler23X86InstructionFormatter9twoByteOpENS0_15TwoByteOpcodeIDEiNS_12X86Registers10RegisterIDEi
__ZN3WTF6VectorIN3JSC22AbstractMacroAssemblerINS1_12X86AssemblerEE4JumpELm16EEC2ERKS6_
__ZN3JSCL31dateProtoFuncToLocaleTimeStringEPNS_9ExecStateE
__ZN3JSCL20dateProtoFuncSetYearEPNS_9ExecStateE
__ZN3JSCL26dateProtoFuncSetUTCSecondsEPNS_9ExecStateE
__ZN3JSC21DebuggerStatementNode12emitBytecodeERNS_17BytecodeGeneratorEPNS_10RegisterIDE
__ZN3JSC15DeleteValueNode12emitBytecodeERNS_17BytecodeGeneratorEPNS_10RegisterIDE
__ZN3JSC28globalFuncEncodeURIComponentEPNS_9ExecStateE
__ZN3JSC15createEvalErrorEPNS_9ExecStateERKNS_7UStringE
__ZN3JSC13JSNotAnObject3putEPNS_9ExecStateERKNS_10IdentifierENS_7JSValueERNS_15PutPropertySlotE
__ZN3JSC13JSNotAnObject3putEPNS_9ExecStateEjNS_7JSValueE
__ZN3WTF6String6numberEx
__ZN3JSC14ArrayPrototype24getOwnPropertyDescriptorEPNS_9ExecStateERKNS_10IdentifierERNS_18PropertyDescriptorE
__ZN3JSC13DatePrototype24getOwnPropertyDescriptorEPNS_9ExecStateERKNS_10IdentifierERNS_18PropertyDescriptorE
__ZN3JSC15StringPrototype24getOwnPropertyDescriptorEPNS_9ExecStateERKNS_10IdentifierERNS_18PropertyDescriptorE
__ZN3JSC12StringObject24getOwnPropertyDescriptorEPNS_9ExecStateERKNS_10IdentifierERNS_18PropertyDescriptorE
__ZN3JSC8JSString27getStringPropertyDescriptorEPNS_9ExecStateERKNS_10IdentifierERNS_18PropertyDescriptorE
__ZN3JSC15RegExpPrototype24getOwnPropertyDescriptorEPNS_9ExecStateERKNS_10IdentifierERNS_18PropertyDescriptorE
__ZN3JSC12RegExpObject24getOwnPropertyDescriptorEPNS_9ExecStateERKNS_10IdentifierERNS_18PropertyDescriptorE
__ZN3JSC17NumberConstructor24getOwnPropertyDescriptorEPNS_9ExecStateERKNS_10IdentifierERNS_18PropertyDescriptorE
__ZN3JSC17RegExpConstructor24getOwnPropertyDescriptorEPNS_9ExecStateERKNS_10IdentifierERNS_18PropertyDescriptorE
__ZN3JSC10MathObject24getOwnPropertyDescriptorEPNS_9ExecStateERKNS_10IdentifierERNS_18PropertyDescriptorE
__ZN3JSC18RegExpMatchesArray24getOwnPropertyDescriptorEPNS_9ExecStateERKNS_10IdentifierERNS_18PropertyDescriptorE
__ZN3JSCL8callDateEPNS_9ExecStateE
__ZN3JSCL26callNativeErrorConstructorEPNS_9ExecStateE
__ZN3JSC17BytecodeGenerator35emitThrowExpressionTooDeepExceptionEv
__ZN3JSC22createOutOfMemoryErrorEPNS_14JSGlobalObjectE
__ZN3JSC11createErrorEPNS_14JSGlobalObjectERKNS_7UStringE
__ZN3JSC13UnaryPlusNode14stripUnaryPlusEv
__ZN3JSCL29objectProtoFuncToLocaleStringEPNS_9ExecStateE
__ZN3WTF6VectorIN3JSC8JSParser14ScopeLabelInfoELm2EE14expandCapacityEm
__ZN3JSCL34objectConstructorPreventExtensionsEPNS_9ExecStateE
__ZN3JSC10JSFunction17preventExtensionsERNS_12VME
__ZN3JSC8JSObject17preventExtensionsERNS_12VME
__ZN3JSC9Structure27preventExtensionsTransitionERNS_12VMEPS0_
__ZN3JSCL21objectConstructorSealEPNS_9ExecStateE
__ZN3JSC8JSObject4sealERNS_12VME
__ZN3JSC9Structure8isSealedERNS_12VME
__ZN3JSC9Structure14sealTransitionERNS_12VMEPS0_
__ZN3JSCL23objectConstructorFreezeEPNS_9ExecStateE
__ZN3JSC8JSObject6freezeERNS_12VME
__ZN3JSC9Structure8isFrozenERNS_12VME
__ZN3JSC9Structure16freezeTransitionERNS_12VMEPS0_
__ZN3JSCL25objectConstructorIsSealedEPNS_9ExecStateE
__ZN3JSCL25objectConstructorIsFrozenEPNS_9ExecStateE
__ZN3JSCL29objectConstructorIsExtensibleEPNS_9ExecStateE
__ZN3JSC4Yarr25CharacterClassConstructor9addSortedERN3WTF6VectorItLm0EEEt
__ZNK3JSC19JSStaticScopeObject12toThisObjectEPNS_9ExecStateE
__ZN3JSCL23stringProtoFuncTrimLeftEPNS_9ExecStateE
__ZN3JSCL24stringProtoFuncTrimRightEPNS_9ExecStateE
__ZN3WTF6VectorIcLm0EE14expandCapacityEm
__ZN3JSCL28stringProtoFuncLocaleCompareEPNS_9ExecStateE
__ZN3WTF8Collator11userDefaultEv
__ZNK3WTF8Collator7collateEPKtmS2_m
__ZNK3WTF8Collator14createCollatorEv
__ZN3WTF8CollatorD1Ev
__ZN3WTF8Collator15releaseCollatorEv
__ZNK3JSC20StrictEvalActivation12toThisObjectEPNS_9ExecStateE
__ZN3JSC15IdentifierArena21makeNumericIdentifierEPNS_12VMEd
__ZN3JSC6JSCell3putEPNS_9ExecStateERKNS_10IdentifierENS_7JSValueERNS_15PutPropertySlotE
__ZN3JSC6JSCell3putEPNS_9ExecStateEjNS_7JSValueE
__ZN3WTF16codePointCompareERKNS_6StringES2_
__ZN3JSC3JIT25emit_op_profile_will_callEPNS_11InstructionE
__ZN3JSC3JIT24emit_op_profile_did_callEPNS_11InstructionE
__ZN3JSC8Profiler8profilerEv
__ZN3JSC8Profiler14startProfilingEPNS_9ExecStateERKNS_7UStringE
__ZN3JSC16ProfileGenerator6createEPNS_9ExecStateERKNS_7UStringEj
__ZN3JSC16ProfileGeneratorC2EPNS_9ExecStateERKNS_7UStringEj
__ZN3JSC7Profile6createERKNS_7UStringEj
__ZN3JSC7ProfileC2ERKNS_7UStringEj
__ZN3JSC11ProfileNodeC1EPNS_9ExecStateERKNS_14CallIdentifierEPS0_S6_
__ZN3JSC16ProfileGenerator24addParentForConsoleStartEPNS_9ExecStateE
__ZN3JSC8Profiler20createCallIdentifierEPNS_9ExecStateENS_7JSValueERKNS_7UStringEi
__ZN3JSC10JSFunction21calculatedDisplayNameEPNS_9ExecStateE
__ZN3JSC10JSFunction11displayNameEPNS_9ExecStateE
__ZN3JSC11ProfileNode10insertNodeEN3WTF10PassRefPtrIS0_EE
__ZN3WTF6VectorINS_6RefPtrIN3JSC16ProfileGeneratorEEELm0EE14expandCapacityEm
_cti_op_profile_did_call
__ZN3JSC8Profiler10didExecuteEPNS_9ExecStateENS_7JSValueE
__ZN3JSC16ProfileGenerator10didExecuteEPNS_9ExecStateERKNS_14CallIdentifierE
__ZN3JSC11ProfileNode10didExecuteEv
_cti_op_profile_will_call
__ZN3JSC8Profiler11willExecuteEPNS_9ExecStateENS_7JSValueE
__ZN3JSC16ProfileGenerator11willExecuteEPNS_9ExecStateERKNS_14CallIdentifierE
__ZN3JSC11ProfileNode11willExecuteEPNS_9ExecStateERKNS_14CallIdentifierE
__ZN3JSC8Profiler13stopProfilingEPNS_9ExecStateERKNS_7UStringE
__ZN3JSC16ProfileGenerator13stopProfilingEv
__ZN3JSC7Profile7forEachEMNS_11ProfileNodeEFvvE
__ZNK3JSC11ProfileNode25traverseNextNodePostOrderEv
__ZN3JSC11ProfileNode13stopProfilingEv
__ZN3JSC11ProfileNode11removeChildEPS0_
__ZN3JSC11ProfileNode8addChildEN3WTF10PassRefPtrIS0_EE
__ZN3JSC8Debugger23recompileAllJSFunctionsEPNS_12VME
__ZN3WTF9HashTableIPN3JSC18FunctionExecutableES3_NS_17IdentityExtractorIS3_EENS_7PtrHashIS3_EENS_10HashTraitsIS3_EES9_E6rehashEi
__ZN3JSC7ProfileD0Ev
__ZN3WTF10RefCountedIN3JSC11ProfileNodeEE5derefEv
__ZN3JSC8Profiler11willExecuteEPNS_9ExecStateERKNS_7UStringEi
__ZN3JSC8Profiler10didExecuteEPNS_9ExecStateERKNS_7UStringEi
__ZNK3JSC16ProfileGenerator5titleEv
__ZN3JSC8Profiler13stopProfilingEPNS_14JSGlobalObjectE
__ZN3JSC34createTerminatedExecutionExceptionEPNS_12VME
__ZNK3JSC24TerminatedExecutionError13exceptionTypeEv
__ZN3JSC24TerminatedExecutionErrorD1Ev
__ZN3WTF5Mutex7tryLockEv
__ZN3WTF6String6numberEm
__ZN3WTF5yieldEv
__ZN3WTF8CollatorC1EPKc
__ZN3WTF8Collator18setOrderLowerFirstEb
__ZN3JSC10JSONObject24getOwnPropertyDescriptorEPNS_9ExecStateERKNS_10IdentifierERNS_18PropertyDescriptorE
__ZN3JSC9Structure27despecifyDictionaryFunctionERNS_12VMERKNS_10IdentifierE
__ZN3JSC17ObjectConstructor24getOwnPropertyDescriptorEPNS_9ExecStateERKNS_10IdentifierERNS_18PropertyDescriptorE
__ZN3JSC15ObjectPrototype24getOwnPropertyDescriptorEPNS_9ExecStateERKNS_10IdentifierERNS_18PropertyDescriptorE
__ZN3JSC17StringConstructor24getOwnPropertyDescriptorEPNS_9ExecStateERKNS_10IdentifierERNS_18PropertyDescriptorE
__ZN3JSC16BooleanPrototype24getOwnPropertyDescriptorEPNS_9ExecStateERKNS_10IdentifierERNS_18PropertyDescriptorE
__ZN3JSC15NumberPrototype24getOwnPropertyDescriptorEPNS_9ExecStateERKNS_10IdentifierERNS_18PropertyDescriptorE
__ZN3JSC15DateConstructor24getOwnPropertyDescriptorEPNS_9ExecStateERKNS_10IdentifierERNS_18PropertyDescriptorE
__ZN3JSC14ErrorPrototype24getOwnPropertyDescriptorEPNS_9ExecStateERKNS_10IdentifierERNS_18PropertyDescriptorE
__ZN3JSC16ArrayConstructor24getOwnPropertyDescriptorEPNS_9ExecStateERKNS_10IdentifierERNS_18PropertyDescriptorE
__ZN3JSCL7dateNowEPNS_9ExecStateE
__ZN3JSC8Debugger6attachEPNS_14JSGlobalObjectE
__ZN3WTF9HashTableIPN3JSC14JSGlobalObjectES3_NS_17IdentityExtractorIS3_EENS_7PtrHashIS3_EENS_10HashTraitsIS3_EES9_E6rehashEi
__ZN3JSC7UString6numberEl
__ZN3JSC3JIT13emit_op_debugEPNS_11InstructionE
_cti_op_debug
__ZN3JSC11Interpreter5debugEPNS_9ExecStateENS_11DebugHookIDEii
__ZNK3JSC14SourceProvider13startPositionEv
__ZN3WTF9HashTableIPN3JSC18FunctionExecutableES3_NS_17IdentityExtractorIS3_EENS_7PtrHashIS3_EENS_10HashTraitsIS3_EES9_E4findIS3_NS_22IdentityHashTranslatorIS3_S3_S7_EEEENS_17HashTableIteratorIS3_S3_S5_S7_S9_S9_EERKT_
__ZN3WTF9HashTableIPN3JSC14SourceProviderESt4pairIS3_PNS1_9ExecStateEENS_18PairFirstExtractorIS7_EENS_7PtrHashIS3_EENS_14PairHashTraitsINS_10HashTraitsIS3_EENSD_IS6_EEEESE_E4findIS3_NS_22IdentityHashTranslatorIS3_S7_SB_EEEENS_17HashTableIteratorIS3_S7_S9_SB_SG_SE_EERKT_
__ZN3WTF9HashTableIPN3JSC14SourceProviderESt4pairIS3_PNS1_9ExecStateEENS_18PairFirstExtractorIS7_EENS_7PtrHashIS3_EENS_14PairHashTraitsINS_10HashTraitsIS3_EENSD_IS6_EEEESE_E6expandEv
__ZNK3JSC17DebuggerCallFrame4typeEv
__ZNK3JSC17DebuggerCallFrame22calculatedFunctionNameEv
__ZN3JSC12JSActivation19getOwnPropertyNamesEPNS_9ExecStateERNS_17PropertyNameArrayENS_15EnumerationModeE
__ZNK3JSC12JSActivation18isActivationObjectEv
__ZNK3JSC17DebuggerCallFrame10thisObjectEv
__ZN3WTF28setMainThreadCallbacksPausedEb
__ZNK3JSC17DebuggerCallFrame8evaluateERKNS_7UStringERNS_7JSValueE
__ZN3JSC8Debugger6detachEPNS_14JSGlobalObjectE
__ZN3JSC14JSGlobalObject11disableEvalEv
__ZN3WTF6VectorIN3JSC14ExecutablePool10AllocationELm2EE14expandCapacityEm
__ZNK3WTF6String8toIntPtrEPb
__ZN3WTF10StringImpl8toIntPtrEPb
__ZN3WTF18charactersToIntPtrEPKtmPb
__ZNK3JSC8JSObject18isActivationObjectEv
_cti_op_construct_jitCompile
__ZN3WTF10StringImpl7replaceEjjPS0_
__ZNK3JSC4Heap8capacityEv
__ZNK3JSC11MarkedSpace8capacityEv
__ZNK3JSC4Heap4sizeEv
__ZN3WTF29cryptographicallyRandomValuesEPvm
__ZN3WTF6VectorIN3JSC8JSParser5ScopeELm10EE15reserveCapacityEm
__ZN3JSC8JSString16getIndexSlowCaseEPNS_9ExecStateEj
__ZNK3WTF6String12toUIntStrictEPbi
__ZN3WTF10StringImpl12toUIntStrictEPbi
__ZN3WTF37parseDateFromNullTerminatedCharactersEPKc
__ZNK3WTF6String8toUInt64EPb
__ZN3WTF10StringImpl8toUInt64EPb
__ZN3WTF18charactersToUInt64EPKtmPb
__ZN3WTF3MD5C1Ev
__ZN3WTF3MD58addBytesEPKhm
__ZN3WTF3MD58checksumERNS_6VectorIhLm16EEE
__ZN3WTFL12MD5TransformEPjPKj
__ZN3WTF6String6numberEl
__ZN3JSC4Heap17globalObjectCountEv
__ZN3JSC4Heap20protectedObjectCountEv
__ZN3JSC4Heap25protectedObjectTypeCountsEv
__ZN3JSC11TypeCounterclEPNS_6JSCellE
__ZN3WTF9HashTableIPN3JSC6JSCellES3_NS_17IdentityExtractorIS3_EENS_7PtrHashIS3_EENS_10HashTraitsIS3_EES9_E6rehashEi
__ZN3WTF9HashTableIPKcSt4pairIS2_jENS_18PairFirstExtractorIS4_EENS_7PtrHashIS2_EENS_14PairHashTraitsINS_10HashTraitsIS2_EENSA_IjEEEESB_E6expandEv
__ZNK3JSC6JSCell17isAPIValueWrapperEv
__ZNK3JSC6JSCell22isPropertyNameIteratorEv
__ZN3JSC4Heap16objectTypeCountsEv
__ZN3WTF9HashTableIPN3JSC6JSCellES3_NS_17IdentityExtractorIS3_EENS_7PtrHashIS3_EENS_10HashTraitsIS3_EES9_E4findIS3_NS_22IdentityHashTranslatorIS3_S3_S7_EEEENS_17HashTableIteratorIS3_S3_S5_S7_S9_S9_EERKT_
__ZN3WTF20fastMallocStatisticsEv
__ZN3JSC22globalMemoryStatisticsEv
__ZN3JSC12JSStack18committedByteCountEv
__ZN3JSC19ExecutableAllocator18committedByteCountEv
__ZN3WTF9HashTableINS_6RefPtrINS_10StringImplEEESt4pairIS3_N3JSC14OffsetLocationEENS_18PairFirstExtractorIS7_EENS_10StringHashENS_14PairHashTraitsINS_10HashTraitsIS3_EENSC_IS6_EEEESD_E4findIPS2_NS_29RefPtrHashMapRawKeyTranslatorISI_S7_SF_SA_EEEENS_17HashTableIteratorIS3_S7_S9_SA_SF_SD_EERKT_
__ZN3WTF9HashTableINS_6RefPtrINS_10StringImplEEESt4pairIS3_N3JSC14OffsetLocationEENS_18PairFirstExtractorIS7_EENS_10StringHashENS_14PairHashTraitsINS_10HashTraitsIS3_EENSC_IS6_EEEESD_E4findIS3_NS_22IdentityHashTranslatorIS3_S7_SA_EEEENS_17HashTableIteratorIS3_S7_S9_SA_SF_SD_EERKT_
__ZN3WTF9HashTableINS_6RefPtrINS_10StringImplEEESt4pairIS3_N3JSC14OffsetLocationEENS_18PairFirstExtractorIS7_EENS_10StringHashENS_14PairHashTraitsINS_10HashTraitsIS3_EENSC_IS6_EEEESD_E6expandEv
__ZN3WTF9HashTableINS_6RefPtrINS_10StringImplEEESt4pairIS3_N3JSC14OffsetLocationEENS_18PairFirstExtractorIS7_EENS_10StringHashENS_14PairHashTraitsINS_10HashTraitsIS3_EENSC_IS6_EEEESD_EC2ERKSG_
__ZN3JSC9Arguments11fillArgListEPNS_9ExecStateERNS_20MarkedArgumentBufferE
__ZN3WTF6VectorIiLm8EE14expandCapacityEm
__ZN3WTF6VectorIN3JSC10ASTBuilder14AssignmentInfoELm10EE14expandCapacityEm
_cti_op_put_by_id_direct_generic
__ZN3WTF9HashTableIPN3JSC16FunctionBodyNodeESt4pairIS3_jENS_18PairFirstExtractorIS5_EENS_7PtrHashIS3_EENS_14PairHashTraitsINS_10HashTraitsIS3_EENSB_IjEEEESC_E4findIS3_NS_22IdentityHashTranslatorIS3_S5_S9_EEEENS_17HashTableIteratorIS3_S5_S7_S9_SE_SC_EERKT_
__ZN3WTF9HashTableIPN3JSC16FunctionBodyNodeESt4pairIS3_jENS_18PairFirstExtractorIS5_EENS_7PtrHashIS3_EENS_14PairHashTraitsINS_10HashTraitsIS3_EENSB_IjEEEESC_E6expandEv
__ZN3WTF3absERKNS_9MediaTimeE
__ZN3WTF9MediaTime11invalidTimeEv
__ZN3WTF9MediaTime14indefiniteTimeEv
__ZN3WTF9MediaTime15createWithFloatEfi
__ZN3WTF9MediaTime16createWithDoubleEdi
__ZN3WTF9MediaTime20negativeInfiniteTimeEv
__ZN3WTF9MediaTime20positiveInfiniteTimeEv
__ZN3WTF9MediaTimeD1Ev
__ZNK3WTF9MediaTimegtERKS0_
__ZNK3WTF9MediaTimeltERKS0_
__ZNK3WTF9MediaTimemiERKS0_
__ZNK3WTF9MediaTimeplERKS0_

