MODULE windows x86_64 72E103A85CB249078B76B2E7C06257B13 dump_syms_regtest64.pdb
INFO CODE_ID 5357F5C01A000 dump_syms_regtest64.exe
FUNC 1000 6 0 google_breakpad::i
FUNC 1010 6a 0 main
FUNC 1080 26 0 google_breakpad::C::C()
FUNC 10b0 15 0 google_breakpad::C::~C()
FUNC 10d0 36 0 google_breakpad::C::`scalar deleting destructor'(unsigned int)
FUNC 1110 26 0 google_breakpad::C::f()
FUNC 1140 b 0 google_breakpad::C::g()
FUNC 1150 8 0 google_breakpad::C::h(google_breakpad::C const &)
FUNC 1160 16 0 google_breakpad::C::set_member(int)
FUNC 1178 5 0 operator delete(void *)
FUNC 1180 39 0 type_info::`scalar deleting destructor'(unsigned int)
FUNC 11bc 180 0 __tmainCRTStartup
FUNC 133c 2c 0 fast_error_exit
FUNC 1368 12 0 mainCRTStartup
FUNC 137c 3d 0 free
FUNC 13d0 67 0 strcmp
FUNC 1438 6c 0 type_info::_Type_info_dtor(type_info *)
FUNC 14a4 38 0 __CxxUnhandledExceptionFilter(_EXCEPTION_POINTERS *)
FUNC 14dc 17 0 _CxxSetUnhandledExceptionFilter
FUNC 14f4 1cc 0 XcptFilter
FUNC 16c0 133 0 freefls
FUNC 17f4 24 0 getptd
FUNC 1818 82 0 getptd_noexit
FUNC 189c c2 0 initptd
FUNC 1960 7f 0 mtinit
FUNC 19e0 24 0 mtterm
FUNC 1a04 41 0 _crtCorExitProcess
FUNC 1a48 16 0 _crtExitProcess
FUNC 1a60 26 0 amsg_exit
FUNC 1a88 f 0 c_exit
FUNC 1a98 d 0 cexit
FUNC 1aa8 96 0 cinit
FUNC 1b40 c 0 exit
FUNC 1b4c 4b 0 init_pointers
FUNC 1b98 60 0 _initterm
FUNC 1bf8 39 0 initterm_e
FUNC 1c34 a 0 lockexit
FUNC 1c40 a 0 unlockexit
FUNC 1c4c 195 0 doexit
FUNC 1de4 a 0 exit
FUNC 1df0 20 0 heap_init
FUNC 1e10 32d 0 ioinit
FUNC 2140 f3 0 setargv
FUNC 2234 1c7 0 parse_cmdline
FUNC 23fc 131 0 setenvp
FUNC 2530 43 0 FF_MSGBANNER
FUNC 2574 2f 0 GET_RTERRMSG
FUNC 25a4 26f 0 NMSG_WRITE
FUNC 2814 7 0 _set_app_type
FUNC 281c 40 0 set_error_mode
FUNC 285c ac 0 _security_init_cookie
FUNC 2908 38 0 RTC_Initialize
FUNC 2940 38 0 RTC_Terminate
FUNC 2978 f4 0 _crtGetEnvironmentStringsA
FUNC 2a6c 1e1 0 _C_specific_handler
FUNC 2c50 20 0 _doserrno
FUNC 2c70 4e 0 dosmaperr
FUNC 2cc0 20 0 errno
FUNC 2ce0 4d 0 get_errno_from_oserr
FUNC 2d30 f2 0 call_reportfault
FUNC 2e24 8 0 initp_misc_invarg
FUNC 2e2c 65 0 invalid_parameter
FUNC 2e94 1e 0 invalid_parameter_noinfo
FUNC 2eb4 3b 0 invoke_watson
FUNC 2ef0 61 0 strcpy_s
FUNC 2f70 a8 0 strlen
FUNC 3018 44 0 lock
FUNC 305c 87 0 mtdeletelocks
FUNC 30e4 bd 0 mtinitlocknum
FUNC 31a4 61 0 mtinitlocks
FUNC 3208 18 0 unlock
FUNC 3220 b6 0 malloc
FUNC 32f0 24 0 local_unwind
FUNC 3320 18 0 NLG_Notify
FUNC 3340 1 0 _NLG_Dispatch2
FUNC 3350 1 0 _NLG_Return2
FUNC 3354 1f 0 terminate()
FUNC 3374 1d 0 initp_eh_hooks
FUNC 3394 6d 0 _crtCaptureCurrentContext
FUNC 3404 71 0 _crtCapturePreviousContext
FUNC 3478 1a 0 _crtFlsAlloc
FUNC 3494 1a 0 _crtFlsFree
FUNC 34b0 1a 0 _crtFlsGetValue
FUNC 34cc 1a 0 _crtFlsSetValue
FUNC 34e8 2b 0 _crtInitializeCriticalSectionEx
FUNC 3514 4c 0 _crtIsPackagedApp
FUNC 3560 3fa 0 _crtLoadWinApiPointers
FUNC 395c 7 0 _crtSetUnhandledExceptionFilter
FUNC 3964 7 0 _crtSleep
FUNC 396c 1f 0 _crtTerminateProcess
FUNC 398c 20 0 _crtUnhandledException
FUNC 39ac 7f 0 calloc_crt
FUNC 3a2c 7a 0 malloc_crt
FUNC 3aa8 81 0 realloc_crt
FUNC 3b2c 8c 0 _addlocaleref
FUNC 3bb8 196 0 _freetlocinfo
FUNC 3d50 a4 0 _removelocaleref
FUNC 3df4 75 0 _updatetlocinfo
FUNC 3e6c 62 0 updatetlocinfoEx_nolock
FUNC 3ed0 28 0 _initmbctable
FUNC 3ef8 a8 0 _LocaleUpdate::_LocaleUpdate(localeinfo_struct *)
FUNC 3fa0 7d 0 getSystemCP
FUNC 4020 8e 0 setSBCS
FUNC 40b0 1e1 0 setSBUpLow
FUNC 4294 ba 0 _updatetmbcinfo
FUNC 4350 244 0 setmbcp
FUNC 4594 2ae 0 setmbcp_nolock
FUNC 4850 44 0 FindPESection
FUNC 48a0 4d 0 IsNonwritableInCurrentImage
FUNC 48f0 2e 0 ValidateImageBase
FUNC 4920 43 0 _onexitinit
FUNC 4964 10a 0 onexit
FUNC 4a70 17 0 atexit
FUNC 4a88 39 0 initp_misc_cfltcvt_tab
FUNC 4ac4 33 0 callnewh
FUNC 4af8 8 0 initp_heap_handler
FUNC 4b00 8 0 initp_misc_purevirt
FUNC 4b08 e 0 _get_sigabrt
FUNC 4b18 1d 0 initp_misc_winsig
FUNC 4b38 233 0 raise
FUNC 4d6c 8 0 initp_misc_rand_s
FUNC 4d74 98 0 _initstdio
FUNC 4e0c 30 0 _endstdio
FUNC 4e3c 65 0 lock_file
FUNC 4ea4 31 0 lock_file2
FUNC 4ed8 4e 0 unlock_file
FUNC 4f28 1d 0 unlock_file2
FUNC 4f48 79 0 x_ismbbtype_l
FUNC 4fc4 12 0 ismbblead
FUNC 4fd8 85 0 wcscat_s
FUNC 5060 6b 0 wcscpy_s
FUNC 50cc 19 0 wcslen
FUNC 50e8 cc 0 wcsncpy_s
FUNC 51b4 273 0 _crtMessageBoxW
FUNC 5428 1d 0 _GSHandlerCheck
FUNC 5448 63 0 _GSHandlerCheckCommon
FUNC 54c0 1f 0 _security_check_cookie
FUNC 54e0 8 0 _crt_debugger_hook
FUNC 5500 22a 0 memset
FUNC 572c 55 0 abort
FUNC 5784 d3 0 realloc
FUNC 5858 9a 0 calloc_impl
FUNC 58f4 10a 0 _free_lconv_mon
FUNC 5a00 6c 0 _free_lconv_num
FUNC 5a6c 3fa 0 _free_lc_time
FUNC 5e68 2ec 0 __crtLCMapStringA_stat
FUNC 6154 96 0 _crtLCMapStringA
FUNC 61ec 176 0 __crtGetStringTypeA_stat
FUNC 6364 7c 0 _crtGetStringTypeA
FUNC 63e0 39 0 msize
FUNC 641c a 0 fptrap
FUNC 6428 8a 0 GetTableIndexFromLocaleName
FUNC 64b4 32 0 _crtDownlevelLocaleNameToLCID
FUNC 64e8 8f 0 _crtLCMapStringEx
FUNC 6578 55 0 _wcsnicmp_ascii
FUNC 65e0 565 0 memcpy
FUNC 6b48 26 0 fileno
FUNC 6b70 5f 0 isatty
FUNC 6bd0 4c 0 fflush_nolock
FUNC 6c1c 79 0 flush
FUNC 6c98 a 0 flushall
FUNC 6ca4 e6 0 flsall
FUNC 6d8c a8 0 fcloseall
FUNC 6e34 49 0 _raise_securityfailure
FUNC 6e80 d1 0 _report_gsfailure
FUNC 6f54 1a4 0 _isa_available_init
FUNC 70f8 47 0 locterm
FUNC 7150 4e 0 _chkstk
FUNC 71a0 d7 0 commit
FUNC 7278 e1 0 write
FUNC 735c 7f1 0 write_nolock
FUNC 7b50 7a 0 fclose_nolock
FUNC 7bcc 66 0 fclose
FUNC 7c34 db 0 isctype_l
FUNC 7d10 cf 0 _crt_atoflt_l
FUNC 7de0 c7 0 atodbl_l
FUNC 7ea8 8 0 atoflt_l
FUNC 7eb0 5 0 fpmath
FUNC 7eb8 86 0 cfltcvt_init
FUNC 7f50 c7 0 memcmp
FUNC 8018 98 0 _lock_fhandle
FUNC 80b0 aa 0 free_osfhnd
FUNC 815c 74 0 get_osfhandle
FUNC 81d0 2a 0 unlock_fhandle
FUNC 81fc 43 0 isleadbyte_l
FUNC 8240 45 0 isleadbyte
FUNC 8288 93 0 lseeki64_nolock
FUNC 831c 151 0 mbtowc_l
FUNC 8470 8 0 mbtowc
FUNC 8478 59 0 putwch_nolock
FUNC 84d4 c3 0 close
FUNC 8598 ba 0 close_nolock
FUNC 8654 37 0 freebuf
FUNC 8690 5b6 0 ld12tod
FUNC 8c48 5b6 0 ld12tof
FUNC 9200 861 0 _strgtold12_l
FUNC 9a64 24 0 cfltcvt
FUNC 9a88 7e 0 cfltcvt_l
FUNC 9b08 3b0 0 cftoa_l
FUNC 9eb8 1f9 0 _cftoe2_l
FUNC a0b4 f7 0 cftoe_l
FUNC a1ac 161 0 _cftof2_l
FUNC a310 d1 0 cftof_l
FUNC a3e4 134 0 cftog_l
FUNC a518 7 0 cropzeros
FUNC a520 96 0 cropzeros_l
FUNC a5b8 8 0 fassign
FUNC a5c0 40 0 fassign_l
FUNC a600 7 0 forcdecpt
FUNC a608 7f 0 forcdecpt_l
FUNC a688 12 0 positive
FUNC a69c 20 0 _termconout
FUNC a6bc 3b 0 _initconout
FUNC a6f8 222 0 _mtold12
FUNC a91c 7a 0 isdigit
FUNC a998 152 0 tolower_l
FUNC aaec 1e 0 tolower
FUNC ab0c 144 0 strrchr
FUNC ac50 cb 0 fptostr
FUNC ad1c cd 0 _dtold
FUNC adec b7 0 fltout2
FUNC aea4 ad8 0 $I10_OUTPUT
PUBLIC b97c 0 RtlUnwindEx
PUBLIC b982 0 IsProcessorFeaturePresent
FUNC b990 1e 0 __tmainCRTStartup$filt$0
FUNC b9ae 19 0 `type_info::_Type_info_dtor'::`1'::fin$0
FUNC b9c7 19 0 _freefls$fin$1
FUNC b9e0 19 0 _freefls$fin$0
FUNC b9f9 19 0 _initptd$fin$1
FUNC ba12 19 0 _initptd$fin$0
FUNC ba2b 24 0 doexit$fin$0
FUNC ba4f 1b 0 _ioinit$fin$0
FUNC ba6a 1d 0 _mtinitlocknum$fin$0
FUNC ba87 19 0 __updatetlocinfo$fin$0
FUNC baa0 19 0 __updatetmbcinfo$fin$0
FUNC bab9 19 0 _setmbcp$fin$0
FUNC bae0 20 0 _IsNonwritableInCurrentImage$filt$0
FUNC bb00 14 0 _onexit$fin$0
FUNC bb14 1e 0 raise$fin$0
FUNC bb32 28 0 flsall$fin$0
FUNC bb5a 19 0 flsall$fin$1
FUNC bb73 19 0 _fcloseall$fin$0
FUNC bb8c 19 0 _locterm$fin$0
FUNC bba5 17 0 _commit$fin$0
FUNC bbbc 17 0 _write$fin$0
FUNC bbd3 18 0 fclose$fin$0
FUNC bbeb 19 0 __lock_fhandle$fin$0
FUNC bc04 17 0 _close$fin$0
STACK CFI INIT 1010 6a .cfa: $rsp .ra: .cfa 8 - ^
STACK CFI 1010 .cfa: $rsp 80 +
STACK CFI INIT 10d0 36 .cfa: $rsp .ra: .cfa 8 - ^
STACK CFI 10d0 .cfa: $rsp 48 +
STACK CFI INIT 1110 26 .cfa: $rsp .ra: .cfa 8 - ^
STACK CFI 1110 .cfa: $rsp 48 +
STACK CFI INIT 1180 39 .cfa: $rsp .ra: .cfa 8 - ^
STACK CFI 1180 .cfa: $rsp 48 +
STACK CFI INIT 11bc 180 .cfa: $rsp .ra: .cfa 8 - ^
STACK CFI 11bc .cfa: $rsp 64 +
STACK CFI INIT 133c 2c .cfa: $rsp .ra: .cfa 8 - ^
STACK CFI 133c .cfa: $rsp 48 +
STACK CFI INIT 1368 12 .cfa: $rsp .ra: .cfa 8 - ^
STACK CFI 1368 .cfa: $rsp 48 +
STACK CFI INIT 137c 3d .cfa: $rsp .ra: .cfa 8 - ^
STACK CFI 137c .cfa: $rsp 48 +
STACK CFI INIT 13d0 67 .cfa: $rsp .ra: .cfa 8 - ^
STACK CFI 13d0 .cfa: $rsp 8 +
STACK CFI INIT 1438 6c .cfa: $rsp .ra: .cfa 8 - ^
STACK CFI 1438 .cfa: $rsp 64 +
STACK CFI INIT 14a4 38 .cfa: $rsp .ra: .cfa 8 - ^
STACK CFI 14a4 .cfa: $rsp 48 +
STACK CFI INIT 14dc 17 .cfa: $rsp .ra: .cfa 8 - ^
STACK CFI 14dc .cfa: $rsp 48 +
STACK CFI INIT 14f4 1cc .cfa: $rsp .ra: .cfa 8 - ^
STACK CFI 14f4 .cfa: $rsp 48 +
STACK CFI INIT 16c0 133 .cfa: $rsp .ra: .cfa 8 - ^
STACK CFI 16c0 .cfa: $rsp 48 +
STACK CFI INIT 17f4 24 .cfa: $rsp .ra: .cfa 8 - ^
STACK CFI 17f4 .cfa: $rsp 48 +
STACK CFI INIT 1818 82 .cfa: $rsp .ra: .cfa 8 - ^
STACK CFI 1818 .cfa: $rsp 48 +
STACK CFI INIT 189c c2 .cfa: $rsp .ra: .cfa 8 - ^
STACK CFI 189c .cfa: $rsp 48 +
STACK CFI INIT 1960 7f .cfa: $rsp .ra: .cfa 8 - ^
STACK CFI 1960 .cfa: $rsp 48 +
STACK CFI INIT 19e0 24 .cfa: $rsp .ra: .cfa 8 - ^
STACK CFI 19e0 .cfa: $rsp 48 +
STACK CFI INIT 1a04 41 .cfa: $rsp .ra: .cfa 8 - ^
STACK CFI 1a04 .cfa: $rsp 48 +
STACK CFI INIT 1a48 16 .cfa: $rsp .ra: .cfa 8 - ^
STACK CFI 1a48 .cfa: $rsp 48 +
STACK CFI INIT 1a60 26 .cfa: $rsp .ra: .cfa 8 - ^
STACK CFI 1a60 .cfa: $rsp 48 +
STACK CFI INIT 1aa8 96 .cfa: $rsp .ra: .cfa 8 - ^
STACK CFI 1aa8 .cfa: $rsp 48 +
STACK CFI INIT 1b4c 4b .cfa: $rsp .ra: .cfa 8 - ^
STACK CFI 1b4c .cfa: $rsp 48 +
STACK CFI INIT 1b98 60 .cfa: $rsp .ra: .cfa 8 - ^
STACK CFI 1b98 .cfa: $rsp 48 +
STACK CFI INIT 1bf8 39 .cfa: $rsp .ra: .cfa 8 - ^
STACK CFI 1bf8 .cfa: $rsp 48 +
STACK CFI INIT 1c4c 195 .cfa: $rsp .ra: .cfa 8 - ^
STACK CFI 1c4c .cfa: $rsp 112 +
STACK CFI INIT 1df0 20 .cfa: $rsp .ra: .cfa 8 - ^
STACK CFI 1df0 .cfa: $rsp 48 +
STACK CFI INIT 1e10 32d .cfa: $rsp .ra: .cfa 8 - ^
STACK CFI 1e10 .cfa: $rsp 224 +
STACK CFI INIT 2140 f3 .cfa: $rsp .ra: .cfa 8 - ^
STACK CFI 2140 .cfa: $rsp 64 +
STACK CFI INIT 2234 1c7 .cfa: $rsp .ra: .cfa 8 - ^
STACK CFI 2234 .cfa: $rsp 64 +
STACK CFI INIT 23fc 131 .cfa: $rsp .ra: .cfa 8 - ^
STACK CFI 23fc .cfa: $rsp 64 +
STACK CFI INIT 2530 43 .cfa: $rsp .ra: .cfa 8 - ^
STACK CFI 2530 .cfa: $rsp 48 +
STACK CFI INIT 25a4 26f .cfa: $rsp .ra: .cfa 8 - ^
STACK CFI 25a4 .cfa: $rsp 624 +
STACK CFI INIT 281c 40 .cfa: $rsp .ra: .cfa 8 - ^
STACK CFI 281c .cfa: $rsp 48 +
STACK CFI INIT 285c ac .cfa: $rsp .ra: .cfa 8 - ^
STACK CFI 285c .cfa: $rsp 48 +
STACK CFI INIT 2908 38 .cfa: $rsp .ra: .cfa 8 - ^
STACK CFI 2908 .cfa: $rsp 48 +
STACK CFI INIT 2940 38 .cfa: $rsp .ra: .cfa 8 - ^
STACK CFI 2940 .cfa: $rsp 48 +
STACK CFI INIT 2978 f4 .cfa: $rsp .ra: .cfa 8 - ^
STACK CFI 2978 .cfa: $rsp 80 +
STACK CFI INIT 2a6c 1e1 .cfa: $rsp .ra: .cfa 8 - ^
STACK CFI 2a6c .cfa: $rsp 112 +
STACK CFI INIT 2c50 20 .cfa: $rsp .ra: .cfa 8 - ^
STACK CFI 2c50 .cfa: $rsp 48 +
STACK CFI INIT 2c70 4e .cfa: $rsp .ra: .cfa 8 - ^
STACK CFI 2c70 .cfa: $rsp 48 +
STACK CFI INIT 2cc0 20 .cfa: $rsp .ra: .cfa 8 - ^
STACK CFI 2cc0 .cfa: $rsp 48 +
STACK CFI INIT 2d30 f2 .cfa: $rsp .ra: .cfa 8 - ^
STACK CFI 2d30 .cfa: $rsp 1472 +
STACK CFI INIT 2e2c 65 .cfa: $rsp .ra: .cfa 8 - ^
STACK CFI 2e2c .cfa: $rsp 64 +
STACK CFI INIT 2e94 1e .cfa: $rsp .ra: .cfa 8 - ^
STACK CFI 2e94 .cfa: $rsp 64 +
STACK CFI INIT 2eb4 3b .cfa: $rsp .ra: .cfa 8 - ^
STACK CFI 2eb4 .cfa: $rsp 48 +
STACK CFI INIT 2ef0 61 .cfa: $rsp .ra: .cfa 8 - ^
STACK CFI 2ef0 .cfa: $rsp 48 +
STACK CFI INIT 2f70 a8 .cfa: $rsp .ra: .cfa 8 - ^
STACK CFI 2f70 .cfa: $rsp 8 +
STACK CFI INIT 3018 44 .cfa: $rsp .ra: .cfa 8 - ^
STACK CFI 3018 .cfa: $rsp 48 +
STACK CFI INIT 305c 87 .cfa: $rsp .ra: .cfa 8 - ^
STACK CFI 305c .cfa: $rsp 48 +
STACK CFI INIT 30e4 bd .cfa: $rsp .ra: .cfa 8 - ^
STACK CFI 30e4 .cfa: $rsp 48 +
STACK CFI INIT 31a4 61 .cfa: $rsp .ra: .cfa 8 - ^
STACK CFI 31a4 .cfa: $rsp 48 +
STACK CFI INIT 3220 b6 .cfa: $rsp .ra: .cfa 8 - ^
STACK CFI 3220 .cfa: $rsp 48 +
STACK CFI INIT 32f0 24 .cfa: $rsp .ra: .cfa 8 - ^
STACK CFI 32f0 .cfa: $rsp 1248 +
STACK CFI INIT 3320 18 .cfa: $rsp .ra: .cfa 8 - ^
STACK CFI 3320 .cfa: $rsp 8 +
STACK CFI INIT 3340 1 .cfa: $rsp .ra: .cfa 8 - ^
STACK CFI 3340 .cfa: $rsp 8 +
STACK CFI INIT 3350 1 .cfa: $rsp .ra: .cfa 8 - ^
STACK CFI 3350 .cfa: $rsp 8 +
STACK CFI INIT 3354 1f .cfa: $rsp .ra: .cfa 8 - ^
STACK CFI 3354 .cfa: $rsp 48 +
STACK CFI INIT 3374 1d .cfa: $rsp .ra: .cfa 8 - ^
STACK CFI 3374 .cfa: $rsp 48 +
STACK CFI INIT 3394 6d .cfa: $rsp .ra: .cfa 8 - ^
STACK CFI 3394 .cfa: $rsp 80 +
STACK CFI INIT 3404 71 .cfa: $rsp .ra: .cfa 8 - ^
STACK CFI 3404 .cfa: $rsp 96 +
STACK CFI INIT 34e8 2b .cfa: $rsp .ra: .cfa 8 - ^
STACK CFI 34e8 .cfa: $rsp 48 +
STACK CFI INIT 3514 4c .cfa: $rsp .ra: .cfa 8 - ^
STACK CFI 3514 .cfa: $rsp 48 +
STACK CFI INIT 3560 3fa .cfa: $rsp .ra: .cfa 8 - ^
STACK CFI 3560 .cfa: $rsp 48 +
STACK CFI INIT 396c 1f .cfa: $rsp .ra: .cfa 8 - ^
STACK CFI 396c .cfa: $rsp 48 +
STACK CFI INIT 398c 20 .cfa: $rsp .ra: .cfa 8 - ^
STACK CFI 398c .cfa: $rsp 48 +
STACK CFI INIT 39ac 7f .cfa: $rsp .ra: .cfa 8 - ^
STACK CFI 39ac .cfa: $rsp 48 +
STACK CFI INIT 3a2c 7a .cfa: $rsp .ra: .cfa 8 - ^
STACK CFI 3a2c .cfa: $rsp 48 +
STACK CFI INIT 3aa8 81 .cfa: $rsp .ra: .cfa 8 - ^
STACK CFI 3aa8 .cfa: $rsp 48 +
STACK CFI INIT 3bb8 196 .cfa: $rsp .ra: .cfa 8 - ^
STACK CFI 3bb8 .cfa: $rsp 48 +
STACK CFI INIT 3df4 75 .cfa: $rsp .ra: .cfa 8 - ^
STACK CFI 3df4 .cfa: $rsp 48 +
STACK CFI INIT 3e6c 62 .cfa: $rsp .ra: .cfa 8 - ^
STACK CFI 3e6c .cfa: $rsp 48 +
STACK CFI INIT 3ed0 28 .cfa: $rsp .ra: .cfa 8 - ^
STACK CFI 3ed0 .cfa: $rsp 48 +
STACK CFI INIT 3ef8 a8 .cfa: $rsp .ra: .cfa 8 - ^
STACK CFI 3ef8 .cfa: $rsp 48 +
STACK CFI INIT 3fa0 7d .cfa: $rsp .ra: .cfa 8 - ^
STACK CFI 3fa0 .cfa: $rsp 80 +
STACK CFI INIT 4020 8e .cfa: $rsp .ra: .cfa 8 - ^
STACK CFI 4020 .cfa: $rsp 48 +
STACK CFI INIT 40b0 1e1 .cfa: $rsp .ra: .cfa 8 - ^
STACK CFI 40b0 .cfa: $rsp 1424 +
STACK CFI INIT 4294 ba .cfa: $rsp .ra: .cfa 8 - ^
STACK CFI 4294 .cfa: $rsp 48 +
STACK CFI INIT 4350 244 .cfa: $rsp .ra: .cfa 8 - ^
STACK CFI 4350 .cfa: $rsp 64 +
STACK CFI INIT 4594 2ae .cfa: $rsp .ra: .cfa 8 - ^
STACK CFI 4594 .cfa: $rsp 112 +
STACK CFI INIT 48a0 4d .cfa: $rsp .ra: .cfa 8 - ^
STACK CFI 48a0 .cfa: $rsp 48 +
STACK CFI INIT 4920 43 .cfa: $rsp .ra: .cfa 8 - ^
STACK CFI 4920 .cfa: $rsp 48 +
STACK CFI INIT 4964 10a .cfa: $rsp .ra: .cfa 8 - ^
STACK CFI 4964 .cfa: $rsp 64 +
STACK CFI INIT 4a70 17 .cfa: $rsp .ra: .cfa 8 - ^
STACK CFI 4a70 .cfa: $rsp 48 +
STACK CFI INIT 4a88 39 .cfa: $rsp .ra: .cfa 8 - ^
STACK CFI 4a88 .cfa: $rsp 48 +
STACK CFI INIT 4ac4 33 .cfa: $rsp .ra: .cfa 8 - ^
STACK CFI 4ac4 .cfa: $rsp 48 +
STACK CFI INIT 4b38 233 .cfa: $rsp .ra: .cfa 8 - ^
STACK CFI 4b38 .cfa: $rsp 96 +
STACK CFI INIT 4d74 98 .cfa: $rsp .ra: .cfa 8 - ^
STACK CFI 4d74 .cfa: $rsp 48 +
STACK CFI INIT 4e0c 30 .cfa: $rsp .ra: .cfa 8 - ^
STACK CFI 4e0c .cfa: $rsp 48 +
STACK CFI INIT 4e3c 65 .cfa: $rsp .ra: .cfa 8 - ^
STACK CFI 4e3c .cfa: $rsp 48 +
STACK CFI INIT 4ea4 31 .cfa: $rsp .ra: .cfa 8 - ^
STACK CFI 4ea4 .cfa: $rsp 48 +
STACK CFI INIT 4f48 79 .cfa: $rsp .ra: .cfa 8 - ^
STACK CFI 4f48 .cfa: $rsp 80 +
STACK CFI INIT 4fd8 85 .cfa: $rsp .ra: .cfa 8 - ^
STACK CFI 4fd8 .cfa: $rsp 48 +
STACK CFI INIT 5060 6b .cfa: $rsp .ra: .cfa 8 - ^
STACK CFI 5060 .cfa: $rsp 48 +
STACK CFI INIT 50e8 cc .cfa: $rsp .ra: .cfa 8 - ^
STACK CFI 50e8 .cfa: $rsp 48 +
STACK CFI INIT 51b4 273 .cfa: $rsp .ra: .cfa 8 - ^
STACK CFI 51b4 .cfa: $rsp 144 +
STACK CFI INIT 5428 1d .cfa: $rsp .ra: .cfa 8 - ^
STACK CFI 5428 .cfa: $rsp 48 +
STACK CFI INIT 5448 63 .cfa: $rsp .ra: .cfa 8 - ^
STACK CFI 5448 .cfa: $rsp 48 +
STACK CFI INIT 54c0 1f .cfa: $rsp .ra: .cfa 8 - ^
STACK CFI 54c0 .cfa: $rsp 8 +
STACK CFI INIT 5500 22a .cfa: $rsp .ra: .cfa 8 - ^
STACK CFI 5500 .cfa: $rsp 8 +
STACK CFI INIT 572c 55 .cfa: $rsp .ra: .cfa 8 - ^
STACK CFI 572c .cfa: $rsp 48 +
STACK CFI INIT 5784 d3 .cfa: $rsp .ra: .cfa 8 - ^
STACK CFI 5784 .cfa: $rsp 48 +
STACK CFI INIT 5858 9a .cfa: $rsp .ra: .cfa 8 - ^
STACK CFI 5858 .cfa: $rsp 48 +
STACK CFI INIT 58f4 10a .cfa: $rsp .ra: .cfa 8 - ^
STACK CFI 58f4 .cfa: $rsp 48 +
STACK CFI INIT 5a00 6c .cfa: $rsp .ra: .cfa 8 - ^
STACK CFI 5a00 .cfa: $rsp 48 +
STACK CFI INIT 5a6c 3fa .cfa: $rsp .ra: .cfa 8 - ^
STACK CFI 5a6c .cfa: $rsp 48 +
STACK CFI INIT 5e68 2ec .cfa: $rsp .ra: .cfa 8 - ^
STACK CFI 5e68 .cfa: $rsp 128 +
STACK CFI INIT 6154 96 .cfa: $rsp .ra: .cfa 8 - ^
STACK CFI 6154 .cfa: $rsp 128 +
STACK CFI INIT 61ec 176 .cfa: $rsp .ra: .cfa 8 - ^
STACK CFI 61ec .cfa: $rsp 112 +
STACK CFI INIT 6364 7c .cfa: $rsp .ra: .cfa 8 - ^
STACK CFI 6364 .cfa: $rsp 112 +
STACK CFI INIT 63e0 39 .cfa: $rsp .ra: .cfa 8 - ^
STACK CFI 63e0 .cfa: $rsp 48 +
STACK CFI INIT 6428 8a .cfa: $rsp .ra: .cfa 8 - ^
STACK CFI 6428 .cfa: $rsp 48 +
STACK CFI INIT 64b4 32 .cfa: $rsp .ra: .cfa 8 - ^
STACK CFI 64b4 .cfa: $rsp 48 +
STACK CFI INIT 64e8 8f .cfa: $rsp .ra: .cfa 8 - ^
STACK CFI 64e8 .cfa: $rsp 96 +
STACK CFI INIT 65e0 565 .cfa: $rsp .ra: .cfa 8 - ^
STACK CFI 65e0 .cfa: $rsp 8 +
STACK CFI INIT 6b48 26 .cfa: $rsp .ra: .cfa 8 - ^
STACK CFI 6b48 .cfa: $rsp 48 +
STACK CFI INIT 6b70 5f .cfa: $rsp .ra: .cfa 8 - ^
STACK CFI 6b70 .cfa: $rsp 48 +
STACK CFI INIT 6bd0 4c .cfa: $rsp .ra: .cfa 8 - ^
STACK CFI 6bd0 .cfa: $rsp 48 +
STACK CFI INIT 6c1c 79 .cfa: $rsp .ra: .cfa 8 - ^
STACK CFI 6c1c .cfa: $rsp 48 +
STACK CFI INIT 6ca4 e6 .cfa: $rsp .ra: .cfa 8 - ^
STACK CFI 6ca4 .cfa: $rsp 80 +
STACK CFI INIT 6d8c a8 .cfa: $rsp .ra: .cfa 8 - ^
STACK CFI 6d8c .cfa: $rsp 64 +
STACK CFI INIT 6e34 49 .cfa: $rsp .ra: .cfa 8 - ^
STACK CFI 6e34 .cfa: $rsp 48 +
STACK CFI INIT 6e80 d1 .cfa: $rsp .ra: .cfa 8 - ^
STACK CFI 6e80 .cfa: $rsp 64 +
STACK CFI INIT 6f54 1a4 .cfa: $rsp .ra: .cfa 8 - ^
STACK CFI 6f54 .cfa: $rsp 32 +
STACK CFI INIT 70f8 47 .cfa: $rsp .ra: .cfa 8 - ^
STACK CFI 70f8 .cfa: $rsp 48 +
STACK CFI INIT 7150 4e .cfa: $rsp .ra: .cfa 8 - ^
STACK CFI 7150 .cfa: $rsp 24 +
STACK CFI INIT 71a0 d7 .cfa: $rsp .ra: .cfa 8 - ^
STACK CFI 71a0 .cfa: $rsp 64 +
STACK CFI INIT 7278 e1 .cfa: $rsp .ra: .cfa 8 - ^
STACK CFI 7278 .cfa: $rsp 80 +
STACK CFI INIT 735c 7f1 .cfa: $rsp .ra: .cfa 8 - ^
STACK CFI 735c .cfa: $rsp 7040 +
STACK CFI INIT 7b50 7a .cfa: $rsp .ra: .cfa 8 - ^
STACK CFI 7b50 .cfa: $rsp 48 +
STACK CFI INIT 7bcc 66 .cfa: $rsp .ra: .cfa 8 - ^
STACK CFI 7bcc .cfa: $rsp 48 +
STACK CFI INIT 7c34 db .cfa: $rsp .ra: .cfa 8 - ^
STACK CFI 7c34 .cfa: $rsp 128 +
STACK CFI INIT 7d10 cf .cfa: $rsp .ra: .cfa 8 - ^
STACK CFI 7d10 .cfa: $rsp 160 +
STACK CFI INIT 7de0 c7 .cfa: $rsp .ra: .cfa 8 - ^
STACK CFI 7de0 .cfa: $rsp 144 +
STACK CFI INIT 7f50 c7 .cfa: $rsp .ra: .cfa 8 - ^
STACK CFI 7f50 .cfa: $rsp 8 +
STACK CFI INIT 8018 98 .cfa: $rsp .ra: .cfa 8 - ^
STACK CFI 8018 .cfa: $rsp 48 +
STACK CFI INIT 80b0 aa .cfa: $rsp .ra: .cfa 8 - ^
STACK CFI 80b0 .cfa: $rsp 48 +
STACK CFI INIT 815c 74 .cfa: $rsp .ra: .cfa 8 - ^
STACK CFI 815c .cfa: $rsp 48 +
STACK CFI INIT 81fc 43 .cfa: $rsp .ra: .cfa 8 - ^
STACK CFI 81fc .cfa: $rsp 80 +
STACK CFI INIT 8240 45 .cfa: $rsp .ra: .cfa 8 - ^
STACK CFI 8240 .cfa: $rsp 80 +
STACK CFI INIT 8288 93 .cfa: $rsp .ra: .cfa 8 - ^
STACK CFI 8288 .cfa: $rsp 48 +
STACK CFI INIT 831c 151 .cfa: $rsp .ra: .cfa 8 - ^
STACK CFI 831c .cfa: $rsp 96 +
STACK CFI INIT 8478 59 .cfa: $rsp .ra: .cfa 8 - ^
STACK CFI 8478 .cfa: $rsp 64 +
STACK CFI INIT 84d4 c3 .cfa: $rsp .ra: .cfa 8 - ^
STACK CFI 84d4 .cfa: $rsp 64 +
STACK CFI INIT 8598 ba .cfa: $rsp .ra: .cfa 8 - ^
STACK CFI 8598 .cfa: $rsp 48 +
STACK CFI INIT 8654 37 .cfa: $rsp .ra: .cfa 8 - ^
STACK CFI 8654 .cfa: $rsp 48 +
STACK CFI INIT 8690 5b6 .cfa: $rsp .ra: .cfa 8 - ^
STACK CFI 8690 .cfa: $rsp 144 +
STACK CFI INIT 8c48 5b6 .cfa: $rsp .ra: .cfa 8 - ^
STACK CFI 8c48 .cfa: $rsp 144 +
STACK CFI INIT 9200 861 .cfa: $rsp .ra: .cfa 8 - ^
STACK CFI 9200 .cfa: $rsp 224 +
STACK CFI INIT 9a64 24 .cfa: $rsp .ra: .cfa 8 - ^
STACK CFI 9a64 .cfa: $rsp 80 +
STACK CFI INIT 9a88 7e .cfa: $rsp .ra: .cfa 8 - ^
STACK CFI 9a88 .cfa: $rsp 64 +
STACK CFI INIT 9b08 3b0 .cfa: $rsp .ra: .cfa 8 - ^
STACK CFI 9b08 .cfa: $rsp 128 +
STACK CFI INIT 9eb8 1f9 .cfa: $rsp .ra: .cfa 8 - ^
STACK CFI 9eb8 .cfa: $rsp 112 +
STACK CFI INIT a0b4 f7 .cfa: $rsp .ra: .cfa 8 - ^
STACK CFI a0b4 .cfa: $rsp 176 +
STACK CFI INIT a1ac 161 .cfa: $rsp .ra: .cfa 8 - ^
STACK CFI a1ac .cfa: $rsp 80 +
STACK CFI INIT a310 d1 .cfa: $rsp .ra: .cfa 8 - ^
STACK CFI a310 .cfa: $rsp 160 +
STACK CFI INIT a3e4 134 .cfa: $rsp .ra: .cfa 8 - ^
STACK CFI a3e4 .cfa: $rsp 176 +
STACK CFI INIT a520 96 .cfa: $rsp .ra: .cfa 8 - ^
STACK CFI a520 .cfa: $rsp 80 +
STACK CFI INIT a5c0 40 .cfa: $rsp .ra: .cfa 8 - ^
STACK CFI a5c0 .cfa: $rsp 64 +
STACK CFI INIT a608 7f .cfa: $rsp .ra: .cfa 8 - ^
STACK CFI a608 .cfa: $rsp 80 +
STACK CFI INIT a69c 20 .cfa: $rsp .ra: .cfa 8 - ^
STACK CFI a69c .cfa: $rsp 48 +
STACK CFI INIT a6bc 3b .cfa: $rsp .ra: .cfa 8 - ^
STACK CFI a6bc .cfa: $rsp 80 +
STACK CFI INIT a6f8 222 .cfa: $rsp .ra: .cfa 8 - ^
STACK CFI a6f8 .cfa: $rsp 48 +
STACK CFI INIT a91c 7a .cfa: $rsp .ra: .cfa 8 - ^
STACK CFI a91c .cfa: $rsp 80 +
STACK CFI INIT a998 152 .cfa: $rsp .ra: .cfa 8 - ^
STACK CFI a998 .cfa: $rsp 128 +
STACK CFI INIT ab0c 144 .cfa: $rsp .ra: .cfa 8 - ^
STACK CFI ab0c .cfa: $rsp 32 +
STACK CFI INIT ac50 cb .cfa: $rsp .ra: .cfa 8 - ^
STACK CFI ac50 .cfa: $rsp 48 +
STACK CFI INIT ad1c cd .cfa: $rsp .ra: .cfa 8 - ^
STACK CFI ad1c .cfa: $rsp 8 +
STACK CFI INIT adec b7 .cfa: $rsp .ra: .cfa 8 - ^
STACK CFI adec .cfa: $rsp 176 +
STACK CFI INIT aea4 ad8 .cfa: $rsp .ra: .cfa 8 - ^
STACK CFI aea4 .cfa: $rsp 256 +
STACK CFI INIT b990 1e .cfa: $rsp .ra: .cfa 8 - ^
STACK CFI b990 .cfa: $rsp 48 +
STACK CFI INIT b9ae 19 .cfa: $rsp .ra: .cfa 8 - ^
STACK CFI b9ae .cfa: $rsp 48 +
STACK CFI INIT b9c7 19 .cfa: $rsp .ra: .cfa 8 - ^
STACK CFI b9c7 .cfa: $rsp 48 +
STACK CFI INIT b9e0 19 .cfa: $rsp .ra: .cfa 8 - ^
STACK CFI b9e0 .cfa: $rsp 48 +
STACK CFI INIT b9f9 19 .cfa: $rsp .ra: .cfa 8 - ^
STACK CFI b9f9 .cfa: $rsp 48 +
STACK CFI INIT ba12 19 .cfa: $rsp .ra: .cfa 8 - ^
STACK CFI ba12 .cfa: $rsp 48 +
STACK CFI INIT ba2b 24 .cfa: $rsp .ra: .cfa 8 - ^
STACK CFI ba2b .cfa: $rsp 48 +
STACK CFI INIT ba4f 1b .cfa: $rsp .ra: .cfa 8 - ^
STACK CFI ba4f .cfa: $rsp 48 +
STACK CFI INIT ba6a 1d .cfa: $rsp .ra: .cfa 8 - ^
STACK CFI ba6a .cfa: $rsp 48 +
STACK CFI INIT ba87 19 .cfa: $rsp .ra: .cfa 8 - ^
STACK CFI ba87 .cfa: $rsp 48 +
STACK CFI INIT baa0 19 .cfa: $rsp .ra: .cfa 8 - ^
STACK CFI baa0 .cfa: $rsp 48 +
STACK CFI INIT bab9 19 .cfa: $rsp .ra: .cfa 8 - ^
STACK CFI bab9 .cfa: $rsp 48 +
STACK CFI INIT bae0 20 .cfa: $rsp .ra: .cfa 8 - ^
STACK CFI bae0 .cfa: $rsp 48 +
STACK CFI INIT bb00 14 .cfa: $rsp .ra: .cfa 8 - ^
STACK CFI bb00 .cfa: $rsp 48 +
STACK CFI INIT bb14 1e .cfa: $rsp .ra: .cfa 8 - ^
STACK CFI bb14 .cfa: $rsp 48 +
STACK CFI INIT bb32 28 .cfa: $rsp .ra: .cfa 8 - ^
STACK CFI bb32 .cfa: $rsp 48 +
STACK CFI INIT bb5a 19 .cfa: $rsp .ra: .cfa 8 - ^
STACK CFI bb5a .cfa: $rsp 48 +
STACK CFI INIT bb73 19 .cfa: $rsp .ra: .cfa 8 - ^
STACK CFI bb73 .cfa: $rsp 48 +
STACK CFI INIT bb8c 19 .cfa: $rsp .ra: .cfa 8 - ^
STACK CFI bb8c .cfa: $rsp 48 +
STACK CFI INIT bba5 17 .cfa: $rsp .ra: .cfa 8 - ^
STACK CFI bba5 .cfa: $rsp 48 +
STACK CFI INIT bbbc 17 .cfa: $rsp .ra: .cfa 8 - ^
STACK CFI bbbc .cfa: $rsp 48 +
STACK CFI INIT bbd3 18 .cfa: $rsp .ra: .cfa 8 - ^
STACK CFI bbd3 .cfa: $rsp 48 +
STACK CFI INIT bbeb 19 .cfa: $rsp .ra: .cfa 8 - ^
STACK CFI bbeb .cfa: $rsp 48 +
STACK CFI INIT bc04 17 .cfa: $rsp .ra: .cfa 8 - ^
STACK CFI bc04 .cfa: $rsp 48 +
