MODULE windows x86 ABDA3C53D8074326AA40F41DD53824571 omap_stretched.pdb
FUNC 1000 54 0 main
FUNC 1060 a 0 google_breakpad::i
FUNC 106a 35 0 google_breakpad::C::C()
FUNC 109f 1e 0 google_breakpad::C::~C()
FUNC 10bd d 0 google_breakpad::C::set_member(int)
FUNC 10d4 9 0 google_breakpad::C::set_member(int)
FUNC 10dd 2b 0 google_breakpad::C::f()
FUNC 1112 7 0 google_breakpad::C::f()
FUNC 1119 10 0 google_breakpad::C::g()
FUNC 1129 7 0 google_breakpad::C::h(google_breakpad::C const &)
FUNC 1130 2c 0 google_breakpad::C::`scalar deleting destructor'(unsigned int)
FUNC 115c 1a 0 type_info::~type_info()
FUNC 1176 21 0 type_info::`scalar deleting destructor'(unsigned int)
FUNC 1197 b 0 operator delete(void *)
FUNC 11a2 29 0 fast_error_exit
FUNC 11cb 161 0 __tmainCRTStartup
FUNC 132c a 0 mainCRTStartup
FUNC 1336 70 0 type_info::_Type_info_dtor(type_info *)
FUNC 13a6 88 0 strcmp
FUNC 142e 35 0 free
FUNC 146d 5 0 free
FUNC 1472 6a 0 __CxxUnhandledExceptionFilter(_EXCEPTION_POINTERS *)
FUNC 14dc e 0 __CxxSetUnhandledExceptionFilter
FUNC 14ea 2b 0 __crtCorExitProcess
FUNC 1515 18 0 __crtExitProcess
FUNC 152d 9 0 _lockexit
FUNC 1536 9 0 _unlockexit
FUNC 153f 33 0 _init_pointers
FUNC 1572 2e 0 _initterm_e
FUNC 15a0 a1 0 _cinit
FUNC 1641 140 0 doexit
FUNC 1781 16 0 exit
FUNC 1797 16 0 _exit
FUNC 17ad f 0 _cexit
FUNC 17bc f 0 _c_exit
FUNC 17cb 1e 0 _amsg_exit
FUNC 17e9 26 0 _GET_RTERRMSG
FUNC 180f 1c5 0 _NMSG_WRITE
FUNC 19d4 39 0 _FF_MSGBANNER
FUNC 1a0d 251 0 _XcptFilter
FUNC 1c5e dc 0 _setenvp
FUNC 1d3a 2ee 0 parse_cmdline
FUNC 2032 3 0 parse_cmdline
FUNC 203f 4 0 parse_cmdline
FUNC 2043 c5 0 _setargv
FUNC 2108 b8 0 __crtGetEnvironmentStringsA
FUNC 21c0 3b2 0 _ioinit
FUNC 2572 30 0 _RTC_Initialize
FUNC 25a2 30 0 _RTC_Terminate
FUNC 25d2 9 0 _encoded_null
FUNC 25db 9 4 __crtTlsAlloc
FUNC 25e4 34 0 __set_flsgetvalue
FUNC 2618 3d 0 _mtterm
FUNC 2655 b4 0 _initptd
FUNC 2709 8d 0 _getptd_noexit
FUNC 2796 1a 0 _getptd
FUNC 27b0 12f 4 _freefls
FUNC 28df 18f 0 _mtinit
FUNC 2a6e 1e 0 _heap_init
FUNC 2a8c 45 0 _SEH_prolog4
FUNC 2ad1 14 0 _SEH_epilog4
FUNC 2ae5 2c4 0 _except_handler4
FUNC 2da9 9b 0 __security_init_cookie
FUNC 2e44 f 0 _initp_misc_invarg
FUNC 2e53 129 0 _call_reportfault
FUNC 2f7c 25 0 _invoke_watson
FUNC 2fa1 2d 0 _invalid_parameter
FUNC 2fce 10 0 _invalid_parameter_noinfo
FUNC 2fde 5e 0 _mtinitlocks
FUNC 303c 89 0 _mtdeletelocks
FUNC 30c5 17 0 _unlock
FUNC 30dc c2 0 _mtinitlocknum
FUNC 319e 47 0 _lock
FUNC 31e5 9c 0 strcpy_s
FUNC 3281 8b 0 strlen
FUNC 330c b6 0 malloc
FUNC 33c2 90 0 _local_unwind4
FUNC 3452 46 0 _unwind_handler4
FUNC 3498 1c 4 _seh_longjmp_unwind4
FUNC 34b4 17 0 _EH4_CallFilterFunc
FUNC 34cb 19 0 _EH4_TransferToHandler
FUNC 34e4 19 0 _EH4_GlobalUnwind2
FUNC 34fd 17 8 _EH4_LocalUnwind
FUNC 3514 42 0 _get_errno_from_oserr
FUNC 3556 13 0 _errno
FUNC 3569 39 0 terminate()
FUNC 35a2 11 0 _initp_eh_hooks
FUNC 35b3 1e 0 _initp_misc_winsig
FUNC 35d1 38 0 siglookup
FUNC 3613 9 0 siglookup
FUNC 361c d 0 __get_sigabrt
FUNC 3629 1a3 0 raise
FUNC 37cc f 0 _initp_misc_rand_s
FUNC 37db f 0 _initp_misc_purevirt
FUNC 37ea f 0 _initp_heap_handler
FUNC 37f9 28 0 _callnewh
FUNC 3821 c0 0 _onexit_nolock
FUNC 38e1 2a 0 __onexitinit
FUNC 3915 7 0 __onexitinit
FUNC 391c 3c 0 _onexit
FUNC 3958 17 0 atexit
FUNC 396f 23 0 _initp_misc_cfltcvt_tab
FUNC 3992 5d 0 _ValidateImageBase
FUNC 39ef 76 0 _FindPESection
FUNC 3a65 bc 0 _IsNonwritableInCurrentImage
FUNC 3b21 16c 0 __crtMessageBoxW
FUNC 3c8d ac 0 wcscat_s
FUNC 3d43 9 0 wcscat_s
FUNC 3d4c 12b 0 wcsncpy_s
FUNC 3e81 9 0 wcsncpy_s
FUNC 3e8a 25 0 wcslen
FUNC 3eaf 90 0 wcscpy_s
FUNC 3f49 6 0 wcscpy_s
FUNC 3f4f 49 0 _set_error_mode
FUNC 3f98 f 0 __security_check_cookie
FUNC 3fa7 45 0 _malloc_crt
FUNC 3fec 4c 0 _calloc_crt
FUNC 4038 4e 0 _realloc_crt
FUNC 4086 2f 0 CPtoLCID
FUNC 40b5 ab 0 setSBCS
FUNC 416a 9 0 setSBCS
FUNC 4173 246 0 setSBUpLow
FUNC 43b9 a4 0 __updatetmbcinfo
FUNC 445d 15d 0 _LocaleUpdate::_LocaleUpdate(localeinfo_struct *)
FUNC 45ba 87 0 getSystemCP
FUNC 464b 9 0 getSystemCP
FUNC 4654 2d2 0 _setmbcp_nolock
FUNC 4926 19a 0 _setmbcp
FUNC 4ac0 1e 0 __initmbctable
FUNC 4ade 70 0 x_ismbbtype_l
FUNC 4b58 6 0 x_ismbbtype_l
FUNC 4b5e 18 0 _ismbblead
FUNC 4b76 f8 0 __addlocaleref
FUNC 4c6e 102 0 __removelocaleref
FUNC 4d70 293 0 __freetlocinfo
FUNC 5003 6b 0 _updatetlocinfoEx_nolock
FUNC 506e 79 0 __updatetlocinfo
FUNC 50e7 8 0 _crt_debugger_hook
FUNC 50ef 7a 0 memset
FUNC 5169 95 0 _aulldvrm
FUNC 51fe 20 0 _global_unwind2
FUNC 521e 45 0 __unwind_handler
FUNC 5263 84 0 _local_unwind2
FUNC 52e7 23 0 _abnormal_termination
FUNC 530a 9 0 _NLG_Notify1
FUNC 5313 1f 0 _NLG_Notify
PUBLIC 532a 0 _NLG_Dispatch2
FUNC 5332 3 0 _NLG_Call
PUBLIC 5334 0 _NLG_Return2
FUNC 5335 33 0 abort
FUNC 5368 361 0 memcpy
FUNC 56c9 2a 0 _freea
FUNC 56f3 3d 0 _msize
FUNC 5730 9 0 _fptrap
FUNC 5739 106 0 __report_gsfailure
FUNC 583f 8d 0 _calloc_impl
FUNC 58d6 9 0 _calloc_impl
FUNC 58df bb 0 realloc
FUNC 59a4 6 0 realloc
FUNC 59aa 22d 0 __crtLCMapStringA_stat
FUNC 5bd7 40 0 __crtLCMapStringA
FUNC 5c21 6 0 __crtLCMapStringA
FUNC 5c27 112 0 __crtGetStringTypeA_stat
FUNC 5d39 3a 0 __crtGetStringTypeA
FUNC 5d7d 6 0 __crtGetStringTypeA
FUNC 5d83 775 0 __free_lc_time
FUNC 64f8 9f 0 __free_lconv_num
FUNC 6597 180 0 __free_lconv_mon
FUNC 6717 ba 0 _VEC_memzero
FUNC 67d1 10 0 __sse2_available_init
FUNC 67e1 103 0 _VEC_memcpy
FUNC 68e4 2c 0 _alloca_probe_16
PUBLIC 68fa 0 _alloca_probe_8
FUNC 6910 34 0 _allmul
FUNC 6944 2b 0 _chkstk
FUNC 696f 46 0 strcspn
FUNC 69b5 40 0 strpbrk
FUNC 69f5 61 0 __ascii_strnicmp
PUBLIC 6a56 10 RtlUnwind
STACK WIN 4 1000 54 6 0 8 0 14 0 1 $T0 $ebp = $eip $T0 4 + ^ = $ebp $T0 ^ = $esp $T0 8 + = 
STACK WIN 4 1060 a 3 0 0 0 0 0 1 $T0 $ebp = $eip $T0 4 + ^ = $ebp $T0 ^ = $esp $T0 8 + = 
STACK WIN 4 106a 35 7 0 0 0 4 0 1 $T0 $ebp = $eip $T0 4 + ^ = $ebp $T0 ^ = $esp $T0 8 + = 
STACK WIN 4 109f 1e 7 0 0 0 4 0 1 $T0 $ebp = $eip $T0 4 + ^ = $ebp $T0 ^ = $esp $T0 8 + = 
STACK WIN 4 10bd 7 7 0 4 0 4 0 1 $T0 $ebp = $eip $T0 4 + ^ = $ebp $T0 ^ = $esp $T0 8 + = 
STACK WIN 4 10c4 6 0 0 4 0 4 0 1 $T0 $ebp = $eip $T0 4 + ^ = $ebp $T0 ^ = $esp $T0 8 + = 
STACK WIN 4 10d4 9 0 0 4 0 4 0 1 $T0 $ebp = $eip $T0 4 + ^ = $ebp $T0 ^ = $esp $T0 8 + = 
STACK WIN 4 10dd 7 7 0 0 0 4 0 1 $T0 $ebp = $eip $T0 4 + ^ = $ebp $T0 ^ = $esp $T0 8 + = 
STACK WIN 4 10e4 24 0 0 0 0 4 0 1 $T0 $ebp = $eip $T0 4 + ^ = $ebp $T0 ^ = $esp $T0 8 + = 
STACK WIN 4 1112 7 0 0 0 0 4 0 1 $T0 $ebp = $eip $T0 4 + ^ = $ebp $T0 ^ = $esp $T0 8 + = 
STACK WIN 4 1119 10 7 0 0 0 4 0 1 $T0 $ebp = $eip $T0 4 + ^ = $ebp $T0 ^ = $esp $T0 8 + = 
STACK WIN 4 1129 7 3 0 4 0 0 0 1 $T0 $ebp = $eip $T0 4 + ^ = $ebp $T0 ^ = $esp $T0 8 + = 
STACK WIN 4 1130 2c 7 0 4 0 4 0 1 $T0 $ebp = $eip $T0 4 + ^ = $ebp $T0 ^ = $esp $T0 8 + = 
STACK WIN 4 115c 1a 0 0 0 0 0 0 1 $T0 .raSearch = $eip $T0 ^ = $esp $T0 4 + = 
STACK WIN 4 1176 21 8 0 4 0 0 0 1 $T0 $ebp = $eip $T0 4 + ^ = $ebp $T0 ^ = $esp $T0 8 + = 
STACK WIN 4 117c 17 2 0 4 4 0 0 1 $T0 $ebp = $eip $T0 4 + ^ = $ebp $T0 ^ = $esp $T0 8 + =  $23 $T0 4 - ^ = 
STACK WIN 4 1197 b 5 0 4 0 0 0 1 $T0 $ebp = $eip $T0 4 + ^ = $ebp $T0 ^ = $esp $T0 8 + = 
STACK WIN 4 11a2 29 5 0 4 0 0 0 1 $T0 $ebp = $eip $T0 4 + ^ = $ebp $T0 ^ = $esp $T0 8 + = 
STACK WIN 4 11cb 161 c 0 0 10 24 0 1 $T0 $ebp = $eip $T0 4 + ^ = $ebp $T0 ^ = $esp $T0 8 + =  $20 $T0 40 - ^ =  $23 $T0 44 - ^ =  $24 $T0 48 - ^ = 
STACK WIN 4 12ee 14 0 0 0 10 24 0 1 $T0 $ebp = $T2 $esp = $T1 .raSearchStart = $eip $T1 ^ = $ebp $T0 = $esp $T1 4 + = 
STACK WIN 4 132c a 0 0 0 0 0 0 1 $T0 .raSearch = $eip $T0 ^ = $esp $T0 4 + = 
STACK WIN 4 1336 70 c 0 4 10 1c 0 1 $T0 $ebp = $eip $T0 4 + ^ = $ebp $T0 ^ = $esp $T0 8 + =  $20 $T0 32 - ^ =  $23 $T0 36 - ^ =  $24 $T0 40 - ^ = 
STACK WIN 4 139d 8 0 0 4 10 1c 0 1 $T0 $ebp = $T2 $esp = $T1 .raSearchStart = $eip $T1 ^ = $ebp $T0 = $esp $T1 4 + = 
STACK WIN 4 142e 5 5 0 4 0 0 0 1 $T0 $ebp = $eip $T0 4 + ^ = $ebp $T0 ^ = $esp $T0 8 + = 
STACK WIN 4 1433 30 0 0 4 0 0 0 1 $T0 $ebp = $eip $T0 4 + ^ = $ebp $T0 ^ = $esp $T0 8 + = 
STACK WIN 4 146d 5 0 0 4 0 0 0 1 $T0 $ebp = $eip $T0 4 + ^ = $ebp $T0 ^ = $esp $T0 8 + = 
STACK WIN 4 144f 14 0 0 4 4 0 0 1 $T0 $ebp = $eip $T0 4 + ^ = $ebp $T0 ^ = $esp $T0 8 + =  $23 $T0 4 - ^ = 
STACK WIN 4 146d 3 0 0 4 4 0 0 1 $T0 $ebp = $eip $T0 4 + ^ = $ebp $T0 ^ = $esp $T0 8 + =  $23 $T0 4 - ^ = 
STACK WIN 4 1472 6a 5 0 4 0 0 0 1 $T0 $ebp = $eip $T0 4 + ^ = $ebp $T0 ^ = $esp $T0 8 + = 
STACK WIN 4 14dc e 0 0 0 0 0 0 1 $T0 .raSearch = $eip $T0 ^ = $esp $T0 4 + = 
STACK WIN 4 14ea 2b 5 0 4 0 0 0 1 $T0 $ebp = $eip $T0 4 + ^ = $ebp $T0 ^ = $esp $T0 8 + = 
STACK WIN 4 1515 18 5 0 4 0 0 0 1 $T0 $ebp = $eip $T0 4 + ^ = $ebp $T0 ^ = $esp $T0 8 + = 
STACK WIN 4 152d 9 0 0 0 0 0 0 1 $T0 .raSearch = $eip $T0 ^ = $esp $T0 4 + = 
STACK WIN 4 1536 9 0 0 0 0 0 0 1 $T0 .raSearch = $eip $T0 ^ = $esp $T0 4 + = 
STACK WIN 4 153f 33 3 0 0 0 0 0 1 $T0 .raSearch = $eip $T0 ^ = $esp $T0 4 + = 
STACK WIN 4 1542 2f 0 0 0 4 0 0 1 $T0 .raSearch = $eip $T0 ^ = $esp $T0 4 + =  $23 $T0 4 - ^ = 
STACK WIN 4 1572 2e 6 0 8 0 0 0 1 $T0 $ebp = $eip $T0 4 + ^ = $ebp $T0 ^ = $esp $T0 8 + = 
STACK WIN 4 1578 26 0 0 8 4 0 0 1 $T0 $ebp = $eip $T0 4 + ^ = $ebp $T0 ^ = $esp $T0 8 + =  $23 $T0 4 - ^ = 
STACK WIN 4 15a0 a1 5 0 4 0 0 0 1 $T0 $ebp = $eip $T0 4 + ^ = $ebp $T0 ^ = $esp $T0 8 + = 
STACK WIN 4 15e2 3e 0 0 4 4 0 0 1 $T0 $ebp = $eip $T0 4 + ^ = $ebp $T0 ^ = $esp $T0 8 + =  $23 $T0 4 - ^ = 
STACK WIN 4 15e3 3c 0 0 4 8 0 0 1 $T0 $ebp = $eip $T0 4 + ^ = $ebp $T0 ^ = $esp $T0 8 + =  $23 $T0 4 - ^ =  $24 $T0 8 - ^ = 
STACK WIN 4 1641 140 c 0 c 10 30 0 1 $T0 $ebp = $eip $T0 4 + ^ = $ebp $T0 ^ = $esp $T0 8 + =  $20 $T0 52 - ^ =  $23 $T0 56 - ^ =  $24 $T0 60 - ^ = 
STACK WIN 4 176c e 0 0 c 10 30 0 1 $T0 $ebp = $T2 $esp = $T1 .raSearchStart = $eip $T1 ^ = $ebp $T0 = $esp $T1 4 + = 
STACK WIN 4 1781 16 5 0 4 0 0 0 1 $T0 $ebp = $eip $T0 4 + ^ = $ebp $T0 ^ = $esp $T0 8 + = 
STACK WIN 4 1797 16 5 0 4 0 0 0 1 $T0 $ebp = $eip $T0 4 + ^ = $ebp $T0 ^ = $esp $T0 8 + = 
STACK WIN 4 17ad f 0 0 0 0 0 0 1 $T0 .raSearch = $eip $T0 ^ = $esp $T0 4 + = 
STACK WIN 4 17bc f 0 0 0 0 0 0 1 $T0 .raSearch = $eip $T0 ^ = $esp $T0 4 + = 
STACK WIN 4 17cb 1e 5 0 4 0 0 0 1 $T0 $ebp = $eip $T0 4 + ^ = $ebp $T0 ^ = $esp $T0 8 + = 
STACK WIN 4 17e9 26 5 0 4 0 0 0 1 $T0 $ebp = $eip $T0 4 + ^ = $ebp $T0 ^ = $esp $T0 8 + = 
STACK WIN 4 180f 1c5 1b 0 4 0 1fc 0 1 $T0 $ebp = $eip $T0 4 + ^ = $ebp $T0 ^ = $esp $T0 8 + = 
STACK WIN 4 1825 1a8 5 0 4 4 1fc 0 1 $T0 $ebp = $eip $T0 4 + ^ = $ebp $T0 ^ = $esp $T0 8 + =  $20 $T0 512 - ^ = 
STACK WIN 4 1826 1a4 4 0 4 8 1fc 0 1 $T0 $ebp = $eip $T0 4 + ^ = $ebp $T0 ^ = $esp $T0 8 + =  $20 $T0 512 - ^ =  $23 $T0 516 - ^ = 
STACK WIN 4 182a 19f 0 0 4 c 1fc 0 1 $T0 $ebp = $eip $T0 4 + ^ = $ebp $T0 ^ = $esp $T0 8 + =  $20 $T0 512 - ^ =  $23 $T0 516 - ^ =  $24 $T0 520 - ^ = 
STACK WIN 4 19d4 39 0 0 0 0 0 0 1 $T0 .raSearch = $eip $T0 ^ = $esp $T0 4 + = 
STACK WIN 4 1a0d 251 6 0 8 0 0 0 1 $T0 $ebp = $eip $T0 4 + ^ = $ebp $T0 ^ = $esp $T0 8 + = 
STACK WIN 4 1a13 236 0 0 8 4 0 0 1 $T0 $ebp = $eip $T0 4 + ^ = $ebp $T0 ^ = $esp $T0 8 + =  $23 $T0 4 - ^ = 
STACK WIN 4 1c53 9 0 0 8 4 0 0 1 $T0 $ebp = $eip $T0 4 + ^ = $ebp $T0 ^ = $esp $T0 8 + =  $23 $T0 4 - ^ = 
STACK WIN 4 1a3f 20a 0 0 8 8 0 0 1 $T0 $ebp = $eip $T0 4 + ^ = $ebp $T0 ^ = $esp $T0 8 + =  $23 $T0 4 - ^ =  $24 $T0 8 - ^ = 
STACK WIN 4 1c53 8 0 0 8 8 0 0 1 $T0 $ebp = $eip $T0 4 + ^ = $ebp $T0 ^ = $esp $T0 8 + =  $23 $T0 4 - ^ =  $24 $T0 8 - ^ = 
STACK WIN 4 1ab8 191 0 0 8 c 0 0 1 $T0 $ebp = $eip $T0 4 + ^ = $ebp $T0 ^ = $esp $T0 8 + =  $23 $T0 4 - ^ =  $24 $T0 8 - ^ =  $20 $T0 12 - ^ = 
STACK WIN 4 1c53 4 0 0 8 c 0 0 1 $T0 $ebp = $eip $T0 4 + ^ = $ebp $T0 ^ = $esp $T0 8 + =  $23 $T0 4 - ^ =  $24 $T0 8 - ^ =  $20 $T0 12 - ^ = 
STACK WIN 4 1c5e dc 0 0 0 0 0 0 1 $T0 .raSearch = $eip $T0 ^ = $esp $T0 4 + = 
STACK WIN 4 1c6d a8 0 0 0 4 0 0 1 $T0 .raSearch = $eip $T0 ^ = $esp $T0 4 + =  $23 $T0 4 - ^ = 
STACK WIN 4 1c74 a0 0 0 0 8 0 0 1 $T0 .raSearch = $eip $T0 ^ = $esp $T0 4 + =  $23 $T0 4 - ^ =  $24 $T0 8 - ^ = 
STACK WIN 4 1cb6 5d 0 0 0 c 0 0 1 $T0 .raSearch = $eip $T0 ^ = $esp $T0 4 + =  $23 $T0 4 - ^ =  $24 $T0 8 - ^ =  $20 $T0 12 - ^ = 
STACK WIN 4 1d3a d d 0 c 0 4 0 1 $T0 $ebp = $eip $T0 4 + ^ = $ebp $T0 ^ = $esp $T0 8 + = 
STACK WIN 4 1d51 2d7 0 0 c 0 4 0 1 $T0 $ebp = $eip $T0 4 + ^ = $ebp $T0 ^ = $esp $T0 8 + = 
STACK WIN 4 2032 3 0 0 c 0 4 0 1 $T0 $ebp = $eip $T0 4 + ^ = $ebp $T0 ^ = $esp $T0 8 + = 
STACK WIN 4 203f 4 0 0 c 0 4 0 1 $T0 $ebp = $eip $T0 4 + ^ = $ebp $T0 ^ = $esp $T0 8 + = 
STACK WIN 4 1d44 3 3 0 c 4 4 0 1 $T0 $ebp = $eip $T0 4 + ^ = $ebp $T0 ^ = $esp $T0 8 + =  $20 $T0 8 - ^ = 
STACK WIN 4 1d51 2d3 0 0 c 4 4 0 1 $T0 $ebp = $eip $T0 4 + ^ = $ebp $T0 ^ = $esp $T0 8 + =  $20 $T0 8 - ^ = 
STACK WIN 4 1d51 2d2 0 0 c 8 4 0 1 $T0 $ebp = $eip $T0 4 + ^ = $ebp $T0 ^ = $esp $T0 8 + =  $20 $T0 8 - ^ =  $23 $T0 12 - ^ = 
STACK WIN 4 2043 c5 d 0 0 0 c 0 1 $T0 $ebp = $eip $T0 4 + ^ = $ebp $T0 ^ = $esp $T0 8 + = 
STACK WIN 4 204c ba 4 0 0 4 c 0 1 $T0 $ebp = $eip $T0 4 + ^ = $ebp $T0 ^ = $esp $T0 8 + =  $20 $T0 16 - ^ = 
STACK WIN 4 204f b6 1 0 0 8 c 0 1 $T0 $ebp = $eip $T0 4 + ^ = $ebp $T0 ^ = $esp $T0 8 + =  $20 $T0 16 - ^ =  $23 $T0 20 - ^ = 
STACK WIN 4 2050 b4 0 0 0 c c 0 1 $T0 $ebp = $eip $T0 4 + ^ = $ebp $T0 ^ = $esp $T0 8 + =  $20 $T0 16 - ^ =  $23 $T0 20 - ^ =  $24 $T0 24 - ^ = 
STACK WIN 4 2108 b8 a 0 0 0 c 0 1 $T0 $ebp = $eip $T0 4 + ^ = $ebp $T0 ^ = $esp $T0 8 + = 
STACK WIN 4 2111 ad 1 0 0 4 c 0 1 $T0 $ebp = $eip $T0 4 + ^ = $ebp $T0 ^ = $esp $T0 8 + =  $20 $T0 16 - ^ = 
STACK WIN 4 2112 ab 0 0 0 8 c 0 1 $T0 $ebp = $eip $T0 4 + ^ = $ebp $T0 ^ = $esp $T0 8 + =  $20 $T0 16 - ^ =  $23 $T0 20 - ^ = 
STACK WIN 4 215b 61 0 0 0 c c 0 1 $T0 $ebp = $eip $T0 4 + ^ = $ebp $T0 ^ = $esp $T0 8 + =  $20 $T0 16 - ^ =  $23 $T0 20 - ^ =  $24 $T0 24 - ^ = 
STACK WIN 4 21c0 3b2 9 0 0 0 4c 0 1 $T0 $ebp = $eip $T0 4 + ^ = $ebp $T0 ^ = $esp $T0 8 + = 
STACK WIN 4 21c9 3a2 0 0 0 4 4c 0 1 $T0 $ebp = $eip $T0 4 + ^ = $ebp $T0 ^ = $esp $T0 8 + =  $23 $T0 80 - ^ = 
STACK WIN 4 2280 2ea 0 0 0 8 4c 0 1 $T0 $ebp = $eip $T0 4 + ^ = $ebp $T0 ^ = $esp $T0 8 + =  $23 $T0 80 - ^ =  $20 $T0 84 - ^ = 
STACK WIN 4 2281 2e8 0 0 0 c 4c 0 1 $T0 $ebp = $eip $T0 4 + ^ = $ebp $T0 ^ = $esp $T0 8 + =  $23 $T0 80 - ^ =  $20 $T0 84 - ^ =  $24 $T0 88 - ^ = 
STACK WIN 4 2572 30 e 0 0 0 0 0 1 $T0 .raSearch = $eip $T0 ^ = $esp $T0 4 + = 
STACK WIN 4 2575 2c b 0 0 4 0 0 1 $T0 .raSearch = $eip $T0 ^ = $esp $T0 4 + =  $23 $T0 4 - ^ = 
STACK WIN 4 2580 20 0 0 0 8 0 0 1 $T0 .raSearch = $eip $T0 ^ = $esp $T0 4 + =  $23 $T0 4 - ^ =  $24 $T0 8 - ^ = 
STACK WIN 4 25a2 30 e 0 0 0 0 0 1 $T0 .raSearch = $eip $T0 ^ = $esp $T0 4 + = 
STACK WIN 4 25a5 2c b 0 0 4 0 0 1 $T0 .raSearch = $eip $T0 ^ = $esp $T0 4 + =  $23 $T0 4 - ^ = 
STACK WIN 4 25b0 20 0 0 0 8 0 0 1 $T0 .raSearch = $eip $T0 ^ = $esp $T0 4 + =  $23 $T0 4 - ^ =  $24 $T0 8 - ^ = 
STACK WIN 4 25d2 9 0 0 0 0 0 0 1 $T0 .raSearch = $eip $T0 ^ = $esp $T0 4 + = 
STACK WIN 4 25db 9 0 0 4 0 0 0 1 $T0 .raSearch = $eip $T0 ^ = $esp $T0 4 + = 
STACK WIN 4 25e4 34 3 0 0 0 0 0 1 $T0 .raSearch = $eip $T0 ^ = $esp $T0 4 + = 
STACK WIN 4 25e7 30 0 0 0 4 0 0 1 $T0 .raSearch = $eip $T0 ^ = $esp $T0 4 + =  $23 $T0 4 - ^ = 
STACK WIN 4 2618 3d 0 0 0 0 0 0 1 $T0 .raSearch = $eip $T0 ^ = $esp $T0 4 + = 
STACK WIN 4 2655 b4 c 0 8 10 18 0 1 $T0 $ebp = $eip $T0 4 + ^ = $ebp $T0 ^ = $esp $T0 8 + =  $20 $T0 28 - ^ =  $23 $T0 32 - ^ =  $24 $T0 36 - ^ = 
STACK WIN 4 26f1 e 0 0 8 10 18 0 1 $T0 $ebp = $T2 $esp = $T1 .raSearchStart = $eip $T1 ^ = $ebp $T0 = $esp $T1 4 + = 
STACK WIN 4 2700 8 0 0 8 10 18 0 1 $T0 $ebp = $T2 $esp = $T1 .raSearchStart = $eip $T1 ^ = $ebp $T0 = $esp $T1 4 + = 
STACK WIN 4 2709 8d 4 0 0 0 0 0 1 $T0 .raSearch = $eip $T0 ^ = $esp $T0 4 + = 
STACK WIN 4 270c 89 1 0 0 4 0 0 1 $T0 .raSearch = $eip $T0 ^ = $esp $T0 4 + =  $23 $T0 4 - ^ = 
STACK WIN 4 270d 85 0 0 0 8 0 0 1 $T0 .raSearch = $eip $T0 ^ = $esp $T0 4 + =  $23 $T0 4 - ^ =  $24 $T0 8 - ^ = 
STACK WIN 4 2796 1a 3 0 0 0 0 0 1 $T0 .raSearch = $eip $T0 ^ = $esp $T0 4 + = 
STACK WIN 4 2799 16 0 0 0 4 0 0 1 $T0 .raSearch = $eip $T0 ^ = $esp $T0 4 + =  $23 $T0 4 - ^ = 
STACK WIN 4 27b0 12f c 0 4 10 18 0 1 $T0 $ebp = $eip $T0 4 + ^ = $ebp $T0 ^ = $esp $T0 8 + =  $20 $T0 28 - ^ =  $23 $T0 32 - ^ =  $24 $T0 36 - ^ = 
STACK WIN 4 28c7 b 0 0 4 10 18 0 1 $T0 $ebp = $T2 $esp = $T1 .raSearchStart = $eip $T1 ^ = $ebp $T0 = $esp $T1 4 + = 
STACK WIN 4 28d3 b 0 0 4 10 18 0 1 $T0 $ebp = $T2 $esp = $T1 .raSearchStart = $eip $T1 ^ = $ebp $T0 = $esp $T1 4 + = 
STACK WIN 4 28df 18f 3 0 0 0 0 0 1 $T0 .raSearch = $eip $T0 ^ = $esp $T0 4 + = 
STACK WIN 4 28e2 18b 0 0 0 4 0 0 1 $T0 .raSearch = $eip $T0 ^ = $esp $T0 4 + =  $24 $T0 4 - ^ = 
STACK WIN 4 28fd 16f 0 0 0 8 0 0 1 $T0 .raSearch = $eip $T0 ^ = $esp $T0 4 + =  $24 $T0 4 - ^ =  $23 $T0 8 - ^ = 
STACK WIN 4 2a6e 1e 0 0 0 0 0 0 1 $T0 .raSearch = $eip $T0 ^ = $esp $T0 4 + = 
STACK WIN 4 2ae5 21 21 0 10 0 18 0 1 $T0 $ebp = $eip $T0 4 + ^ = $ebp $T0 ^ = $esp $T0 8 + = 
STACK WIN 4 2b10 299 0 0 10 0 18 0 1 $T0 $ebp = $eip $T0 4 + ^ = $ebp $T0 ^ = $esp $T0 8 + = 
STACK WIN 4 2aee 18 18 0 10 4 18 0 1 $T0 $ebp = $eip $T0 4 + ^ = $ebp $T0 ^ = $esp $T0 8 + =  $20 $T0 28 - ^ = 
STACK WIN 4 2b10 16c 0 0 10 4 18 0 1 $T0 $ebp = $eip $T0 4 + ^ = $ebp $T0 ^ = $esp $T0 8 + =  $20 $T0 28 - ^ = 
STACK WIN 4 2afc a a 0 10 8 18 0 1 $T0 $ebp = $eip $T0 4 + ^ = $ebp $T0 ^ = $esp $T0 8 + =  $20 $T0 28 - ^ =  $23 $T0 32 - ^ = 
STACK WIN 4 2b10 16b 0 0 10 8 18 0 1 $T0 $ebp = $eip $T0 4 + ^ = $ebp $T0 ^ = $esp $T0 8 + =  $20 $T0 28 - ^ =  $23 $T0 32 - ^ = 
STACK WIN 4 2b10 16a 0 0 10 c 18 0 1 $T0 $ebp = $eip $T0 4 + ^ = $ebp $T0 ^ = $esp $T0 8 + =  $20 $T0 28 - ^ =  $23 $T0 32 - ^ =  $24 $T0 36 - ^ = 
STACK WIN 4 2da9 9b 17 0 0 0 10 0 1 $T0 $ebp = $eip $T0 4 + ^ = $ebp $T0 ^ = $esp $T0 8 + = 
STACK WIN 4 2dbf 83 1 0 0 4 10 0 1 $T0 $ebp = $eip $T0 4 + ^ = $ebp $T0 ^ = $esp $T0 8 + =  $20 $T0 20 - ^ = 
STACK WIN 4 2dc0 81 0 0 0 8 10 0 1 $T0 $ebp = $eip $T0 4 + ^ = $ebp $T0 ^ = $esp $T0 8 + =  $20 $T0 20 - ^ =  $24 $T0 24 - ^ = 
STACK WIN 4 2ddc 64 0 0 0 c 10 0 1 $T0 $ebp = $eip $T0 4 + ^ = $ebp $T0 ^ = $esp $T0 8 + =  $20 $T0 20 - ^ =  $24 $T0 24 - ^ =  $23 $T0 28 - ^ = 
STACK WIN 4 2e44 f 5 0 4 0 0 0 1 $T0 $ebp = $eip $T0 4 + ^ = $ebp $T0 ^ = $esp $T0 8 + = 
STACK WIN 4 2e53 129 1a 0 c 8 328 0 1 $T0 $ebp = $eip $T0 4 + ^ = $ebp $T0 ^ = $esp $T0 8 + =  $20 $T0 812 - ^ =  $24 $T0 816 - ^ = 
STACK WIN 4 2f7c 25 3 0 14 0 0 0 1 $T0 .raSearch = $eip $T0 ^ = $esp $T0 4 + = 
STACK WIN 4 2f7f 21 0 0 14 4 0 0 1 $T0 .raSearch = $eip $T0 ^ = $esp $T0 4 + =  $23 $T0 4 - ^ = 
STACK WIN 4 2fa1 2d 5 0 14 0 0 0 1 $T0 $ebp = $eip $T0 4 + ^ = $ebp $T0 ^ = $esp $T0 8 + = 
STACK WIN 4 2fce 10 0 0 0 0 0 0 1 $T0 .raSearch = $eip $T0 ^ = $esp $T0 4 + = 
STACK WIN 4 2fde 5e 4 0 0 0 0 0 1 $T0 .raSearch = $eip $T0 ^ = $esp $T0 4 + = 
STACK WIN 4 2fe1 4e 1 0 0 4 0 0 1 $T0 .raSearch = $eip $T0 ^ = $esp $T0 4 + =  $23 $T0 4 - ^ = 
STACK WIN 4 2fe2 4c 0 0 0 8 0 0 1 $T0 .raSearch = $eip $T0 ^ = $esp $T0 4 + =  $23 $T0 4 - ^ =  $24 $T0 8 - ^ = 
STACK WIN 4 303c 89 a 0 0 0 0 0 1 $T0 .raSearch = $eip $T0 ^ = $esp $T0 4 + = 
STACK WIN 4 303f 85 7 0 0 4 0 0 1 $T0 .raSearch = $eip $T0 ^ = $esp $T0 4 + =  $20 $T0 4 - ^ = 
STACK WIN 4 3046 7d 0 0 0 8 0 0 1 $T0 .raSearch = $eip $T0 ^ = $esp $T0 4 + =  $20 $T0 4 - ^ =  $23 $T0 8 - ^ = 
STACK WIN 4 3056 3e 0 0 0 c 0 0 1 $T0 .raSearch = $eip $T0 ^ = $esp $T0 4 + =  $20 $T0 4 - ^ =  $23 $T0 8 - ^ =  $24 $T0 12 - ^ = 
STACK WIN 4 30c5 17 5 0 4 0 0 0 1 $T0 $ebp = $eip $T0 4 + ^ = $ebp $T0 ^ = $esp $T0 8 + = 
STACK WIN 4 30dc c2 c 0 4 10 1c 0 1 $T0 $ebp = $eip $T0 4 + ^ = $ebp $T0 ^ = $esp $T0 8 + =  $20 $T0 32 - ^ =  $23 $T0 36 - ^ =  $24 $T0 40 - ^ = 
STACK WIN 4 3195 8 0 0 4 10 1c 0 1 $T0 $ebp = $T2 $esp = $T1 .raSearchStart = $eip $T1 ^ = $ebp $T0 = $esp $T1 4 + = 
STACK WIN 4 319e 47 9 0 4 0 0 0 1 $T0 $ebp = $eip $T0 4 + ^ = $ebp $T0 ^ = $esp $T0 8 + = 
STACK WIN 4 31a7 29 0 0 4 4 0 0 1 $T0 $ebp = $eip $T0 4 + ^ = $ebp $T0 ^ = $esp $T0 8 + =  $23 $T0 4 - ^ = 
STACK WIN 4 31da 9 0 0 4 4 0 0 1 $T0 $ebp = $eip $T0 4 + ^ = $ebp $T0 ^ = $esp $T0 8 + =  $23 $T0 4 - ^ = 
STACK WIN 4 31e5 9c a 0 c 0 0 0 1 $T0 $ebp = $eip $T0 4 + ^ = $ebp $T0 ^ = $esp $T0 8 + = 
STACK WIN 4 31ee 91 1 0 c 4 0 0 1 $T0 $ebp = $eip $T0 4 + ^ = $ebp $T0 ^ = $esp $T0 8 + =  $23 $T0 4 - ^ = 
STACK WIN 4 31ef 7c 0 0 c 8 0 0 1 $T0 $ebp = $eip $T0 4 + ^ = $ebp $T0 ^ = $esp $T0 8 + =  $23 $T0 4 - ^ =  $24 $T0 8 - ^ = 
STACK WIN 4 3275 9 0 0 c 8 0 0 1 $T0 $ebp = $eip $T0 4 + ^ = $ebp $T0 ^ = $esp $T0 8 + =  $23 $T0 4 - ^ =  $24 $T0 8 - ^ = 
STACK WIN 4 330c b6 6 0 4 0 0 0 1 $T0 $ebp = $eip $T0 4 + ^ = $ebp $T0 ^ = $esp $T0 8 + = 
STACK WIN 4 3312 9b 0 0 4 4 0 0 1 $T0 $ebp = $eip $T0 4 + ^ = $ebp $T0 ^ = $esp $T0 8 + =  $20 $T0 4 - ^ = 
STACK WIN 4 33b7 9 0 0 4 4 0 0 1 $T0 $ebp = $eip $T0 4 + ^ = $ebp $T0 ^ = $esp $T0 8 + =  $20 $T0 4 - ^ = 
STACK WIN 4 331f 70 0 0 4 8 0 0 1 $T0 $ebp = $eip $T0 4 + ^ = $ebp $T0 ^ = $esp $T0 8 + =  $20 $T0 4 - ^ =  $23 $T0 8 - ^ = 
STACK WIN 4 3399 6 0 0 4 8 0 0 1 $T0 $ebp = $eip $T0 4 + ^ = $ebp $T0 ^ = $esp $T0 8 + =  $20 $T0 4 - ^ =  $23 $T0 8 - ^ = 
STACK WIN 4 3320 6f 0 0 4 c 0 0 1 $T0 $ebp = $eip $T0 4 + ^ = $ebp $T0 ^ = $esp $T0 8 + =  $20 $T0 4 - ^ =  $23 $T0 8 - ^ =  $24 $T0 12 - ^ = 
STACK WIN 4 3399 5 0 0 4 c 0 0 1 $T0 $ebp = $eip $T0 4 + ^ = $ebp $T0 ^ = $esp $T0 8 + =  $20 $T0 4 - ^ =  $23 $T0 8 - ^ =  $24 $T0 12 - ^ = 
STACK WIN 4 3514 42 5 0 4 0 0 0 1 $T0 $ebp = $eip $T0 4 + ^ = $ebp $T0 ^ = $esp $T0 8 + = 
STACK WIN 4 3556 13 0 0 0 0 0 0 1 $T0 .raSearch = $eip $T0 ^ = $esp $T0 4 + = 
STACK WIN 4 3569 39 c 0 0 10 18 0 1 $T0 $ebp = $eip $T0 4 + ^ = $ebp $T0 ^ = $esp $T0 8 + =  $20 $T0 28 - ^ =  $23 $T0 32 - ^ =  $24 $T0 36 - ^ = 
STACK WIN 4 3589 4 0 0 0 10 18 0 1 $T0 $ebp = $T2 $esp = $T1 .raSearchStart = $eip $T1 ^ = $ebp $T0 = $esp $T1 4 + = 
STACK WIN 4 35a2 11 0 0 4 0 0 0 1 $T0 .raSearch = $eip $T0 ^ = $esp $T0 4 + = 
STACK WIN 4 35b3 1e 5 0 4 0 0 0 1 $T0 $ebp = $eip $T0 4 + ^ = $ebp $T0 ^ = $esp $T0 8 + = 
STACK WIN 4 35d1 5 5 0 4 0 0 0 1 $T0 $ebp = $eip $T0 4 + ^ = $ebp $T0 ^ = $esp $T0 8 + = 
STACK WIN 4 35d6 33 0 0 4 0 0 0 1 $T0 $ebp = $eip $T0 4 + ^ = $ebp $T0 ^ = $esp $T0 8 + = 
STACK WIN 4 3613 9 0 0 4 0 0 0 1 $T0 $ebp = $eip $T0 4 + ^ = $ebp $T0 ^ = $esp $T0 8 + = 
STACK WIN 4 35ea 1b 0 0 4 4 0 0 1 $T0 $ebp = $eip $T0 4 + ^ = $ebp $T0 ^ = $esp $T0 8 + =  $23 $T0 4 - ^ = 
STACK WIN 4 361c d 0 0 0 0 0 0 1 $T0 .raSearch = $eip $T0 ^ = $esp $T0 4 + = 
STACK WIN 4 3629 1a3 c 0 4 10 30 0 1 $T0 $ebp = $eip $T0 4 + ^ = $ebp $T0 ^ = $esp $T0 8 + =  $20 $T0 52 - ^ =  $23 $T0 56 - ^ =  $24 $T0 60 - ^ = 
STACK WIN 4 378a 14 0 0 4 10 30 0 1 $T0 $ebp = $T2 $esp = $T1 .raSearchStart = $eip $T1 ^ = $ebp $T0 = $esp $T1 4 + = 
STACK WIN 4 37cc f 5 0 4 0 0 0 1 $T0 $ebp = $eip $T0 4 + ^ = $ebp $T0 ^ = $esp $T0 8 + = 
STACK WIN 4 37db f 5 0 4 0 0 0 1 $T0 $ebp = $eip $T0 4 + ^ = $ebp $T0 ^ = $esp $T0 8 + = 
STACK WIN 4 37ea f 5 0 4 0 0 0 1 $T0 $ebp = $eip $T0 4 + ^ = $ebp $T0 ^ = $esp $T0 8 + = 
STACK WIN 4 37f9 28 5 0 4 0 0 0 1 $T0 $ebp = $eip $T0 4 + ^ = $ebp $T0 ^ = $esp $T0 8 + = 
STACK WIN 4 3821 c0 f 0 4 0 4 0 1 $T0 $ebp = $eip $T0 4 + ^ = $ebp $T0 ^ = $esp $T0 8 + = 
STACK WIN 4 3828 b7 8 0 4 4 4 0 1 $T0 $ebp = $eip $T0 4 + ^ = $ebp $T0 ^ = $esp $T0 8 + =  $20 $T0 8 - ^ = 
STACK WIN 4 3829 b5 7 0 4 8 4 0 1 $T0 $ebp = $eip $T0 4 + ^ = $ebp $T0 ^ = $esp $T0 8 + =  $20 $T0 8 - ^ =  $23 $T0 12 - ^ = 
STACK WIN 4 3830 ad 0 0 4 c 4 0 1 $T0 $ebp = $eip $T0 4 + ^ = $ebp $T0 ^ = $esp $T0 8 + =  $20 $T0 8 - ^ =  $23 $T0 12 - ^ =  $24 $T0 16 - ^ = 
STACK WIN 4 38e1 3 3 0 0 0 0 0 1 $T0 .raSearch = $eip $T0 ^ = $esp $T0 4 + = 
STACK WIN 4 38e4 27 0 0 0 0 0 0 1 $T0 .raSearch = $eip $T0 ^ = $esp $T0 4 + = 
STACK WIN 4 3915 7 0 0 0 0 0 0 1 $T0 .raSearch = $eip $T0 ^ = $esp $T0 4 + = 
STACK WIN 4 38e4 27 0 0 0 4 0 0 1 $T0 .raSearch = $eip $T0 ^ = $esp $T0 4 + =  $23 $T0 4 - ^ = 
STACK WIN 4 3915 6 0 0 0 4 0 0 1 $T0 .raSearch = $eip $T0 ^ = $esp $T0 4 + =  $23 $T0 4 - ^ = 
STACK WIN 4 391c 3c c 0 4 10 1c 0 1 $T0 $ebp = $eip $T0 4 + ^ = $ebp $T0 ^ = $esp $T0 8 + =  $20 $T0 32 - ^ =  $23 $T0 36 - ^ =  $24 $T0 40 - ^ = 
STACK WIN 4 3952 5 0 0 4 10 1c 0 1 $T0 $ebp = $T2 $esp = $T1 .raSearchStart = $eip $T1 ^ = $ebp $T0 = $esp $T1 4 + = 
STACK WIN 4 3958 17 5 0 4 0 0 0 1 $T0 $ebp = $eip $T0 4 + ^ = $ebp $T0 ^ = $esp $T0 8 + = 
STACK WIN 4 396f 23 4 0 0 0 0 0 1 $T0 .raSearch = $eip $T0 ^ = $esp $T0 4 + = 
STACK WIN 4 3972 1f 1 0 0 4 0 0 1 $T0 .raSearch = $eip $T0 ^ = $esp $T0 4 + =  $23 $T0 4 - ^ = 
STACK WIN 4 3973 1d 0 0 0 8 0 0 1 $T0 .raSearch = $eip $T0 ^ = $esp $T0 4 + =  $23 $T0 4 - ^ =  $24 $T0 8 - ^ = 
STACK WIN 4 3992 5d 5 0 4 0 0 0 1 $T0 $ebp = $eip $T0 4 + ^ = $ebp $T0 ^ = $esp $T0 8 + = 
STACK WIN 4 39ef 27 27 0 8 0 0 0 1 $T0 $ebp = $eip $T0 4 + ^ = $ebp $T0 ^ = $esp $T0 8 + = 
STACK WIN 4 3a20 7 7 0 8 0 0 0 1 $T0 $ebp = $eip $T0 4 + ^ = $ebp $T0 ^ = $esp $T0 8 + = 
STACK WIN 4 3a27 3e 0 0 8 0 0 0 1 $T0 $ebp = $eip $T0 4 + ^ = $ebp $T0 ^ = $esp $T0 8 + = 
STACK WIN 4 3a15 1 1 0 8 4 0 0 1 $T0 $ebp = $eip $T0 4 + ^ = $ebp $T0 ^ = $esp $T0 8 + =  $20 $T0 4 - ^ = 
STACK WIN 4 3a20 7 7 0 8 4 0 0 1 $T0 $ebp = $eip $T0 4 + ^ = $ebp $T0 ^ = $esp $T0 8 + =  $20 $T0 4 - ^ = 
STACK WIN 4 3a27 3c 0 0 8 4 0 0 1 $T0 $ebp = $eip $T0 4 + ^ = $ebp $T0 ^ = $esp $T0 8 + =  $20 $T0 4 - ^ = 
STACK WIN 4 3a20 42 7 0 8 8 0 0 1 $T0 $ebp = $eip $T0 4 + ^ = $ebp $T0 ^ = $esp $T0 8 + =  $20 $T0 4 - ^ =  $23 $T0 8 - ^ = 
STACK WIN 4 3a27 3a 0 0 8 c 0 0 1 $T0 $ebp = $eip $T0 4 + ^ = $ebp $T0 ^ = $esp $T0 8 + =  $20 $T0 4 - ^ =  $23 $T0 8 - ^ =  $24 $T0 12 - ^ = 
STACK WIN 4 3a65 bc 35 0 4 10 18 0 1 $T0 $ebp = $eip $T0 4 + ^ = $ebp $T0 ^ = $esp $T0 8 + =  $20 $T0 28 - ^ =  $23 $T0 32 - ^ =  $24 $T0 36 - ^ = 
STACK WIN 4 3af0 13 0 0 4 10 18 0 1 $T0 $ebp = $T2 $esp = $T1 .raSearchStart = $eip $T1 ^ = $ebp $T0 = $esp $T1 4 + = 
STACK WIN 4 3b21 16c 1e 0 c 0 24 0 1 $T0 $ebp = $eip $T0 4 + ^ = $ebp $T0 ^ = $esp $T0 8 + = 
STACK WIN 4 3b37 14f 8 0 c 4 24 0 1 $T0 $ebp = $eip $T0 4 + ^ = $ebp $T0 ^ = $esp $T0 8 + =  $20 $T0 40 - ^ = 
STACK WIN 4 3b3e 145 1 0 c 8 24 0 1 $T0 $ebp = $eip $T0 4 + ^ = $ebp $T0 ^ = $esp $T0 8 + =  $20 $T0 40 - ^ =  $23 $T0 44 - ^ = 
STACK WIN 4 3b3f 143 0 0 c c 24 0 1 $T0 $ebp = $eip $T0 4 + ^ = $ebp $T0 ^ = $esp $T0 8 + =  $20 $T0 40 - ^ =  $23 $T0 44 - ^ =  $24 $T0 48 - ^ = 
STACK WIN 4 3c8d a a 0 c 0 0 0 1 $T0 $ebp = $eip $T0 4 + ^ = $ebp $T0 ^ = $esp $T0 8 + = 
STACK WIN 4 3c97 a2 0 0 c 0 0 0 1 $T0 $ebp = $eip $T0 4 + ^ = $ebp $T0 ^ = $esp $T0 8 + = 
STACK WIN 4 3d43 9 0 0 c 0 0 0 1 $T0 $ebp = $eip $T0 4 + ^ = $ebp $T0 ^ = $esp $T0 8 + = 
STACK WIN 4 3c93 2c 4 0 c 4 0 0 1 $T0 $ebp = $eip $T0 4 + ^ = $ebp $T0 ^ = $esp $T0 8 + =  $23 $T0 4 - ^ = 
STACK WIN 4 3c97 27 0 0 c 8 0 0 1 $T0 $ebp = $eip $T0 4 + ^ = $ebp $T0 ^ = $esp $T0 8 + =  $23 $T0 4 - ^ =  $24 $T0 8 - ^ = 
STACK WIN 4 3d4c e e 0 10 0 0 0 1 $T0 $ebp = $eip $T0 4 + ^ = $ebp $T0 ^ = $esp $T0 8 + = 
STACK WIN 4 3d5a 11d 0 0 10 0 0 0 1 $T0 $ebp = $eip $T0 4 + ^ = $ebp $T0 ^ = $esp $T0 8 + = 
STACK WIN 4 3e81 9 0 0 10 0 0 0 1 $T0 $ebp = $eip $T0 4 + ^ = $ebp $T0 ^ = $esp $T0 8 + = 
STACK WIN 4 3d55 17 5 0 10 4 0 0 1 $T0 $ebp = $eip $T0 4 + ^ = $ebp $T0 ^ = $esp $T0 8 + =  $20 $T0 4 - ^ = 
STACK WIN 4 3d59 28 1 0 10 8 0 0 1 $T0 $ebp = $eip $T0 4 + ^ = $ebp $T0 ^ = $esp $T0 8 + =  $20 $T0 4 - ^ =  $23 $T0 8 - ^ = 
STACK WIN 4 3d5a 10 0 0 10 c 0 0 1 $T0 $ebp = $eip $T0 4 + ^ = $ebp $T0 ^ = $esp $T0 8 + =  $20 $T0 4 - ^ =  $23 $T0 8 - ^ =  $24 $T0 12 - ^ = 
STACK WIN 4 3e8a 25 5 0 4 0 0 0 1 $T0 $ebp = $eip $T0 4 + ^ = $ebp $T0 ^ = $esp $T0 8 + = 
STACK WIN 4 3eaf a a 0 c 0 0 0 1 $T0 $ebp = $eip $T0 4 + ^ = $ebp $T0 ^ = $esp $T0 8 + = 
STACK WIN 4 3eb9 86 0 0 c 0 0 0 1 $T0 $ebp = $eip $T0 4 + ^ = $ebp $T0 ^ = $esp $T0 8 + = 
STACK WIN 4 3f49 6 0 0 c 0 0 0 1 $T0 $ebp = $eip $T0 4 + ^ = $ebp $T0 ^ = $esp $T0 8 + = 
STACK WIN 4 3eb5 2c 4 0 c 4 0 0 1 $T0 $ebp = $eip $T0 4 + ^ = $ebp $T0 ^ = $esp $T0 8 + =  $23 $T0 4 - ^ = 
STACK WIN 4 3eb9 27 0 0 c 8 0 0 1 $T0 $ebp = $eip $T0 4 + ^ = $ebp $T0 ^ = $esp $T0 8 + =  $23 $T0 4 - ^ =  $24 $T0 8 - ^ = 
STACK WIN 4 3f4f 49 5 0 4 0 0 0 1 $T0 $ebp = $eip $T0 4 + ^ = $ebp $T0 ^ = $esp $T0 8 + = 
STACK WIN 4 3f98 f 0 0 0 0 0 0 1 $T0 .raSearch = $eip $T0 ^ = $esp $T0 4 + = 
STACK WIN 4 3fa7 45 7 0 4 0 0 0 1 $T0 $ebp = $eip $T0 4 + ^ = $ebp $T0 ^ = $esp $T0 8 + = 
STACK WIN 4 3fad 3d 1 0 4 4 0 0 1 $T0 $ebp = $eip $T0 4 + ^ = $ebp $T0 ^ = $esp $T0 8 + =  $23 $T0 4 - ^ = 
STACK WIN 4 3fae 3b 0 0 4 8 0 0 1 $T0 $ebp = $eip $T0 4 + ^ = $ebp $T0 ^ = $esp $T0 8 + =  $23 $T0 4 - ^ =  $24 $T0 8 - ^ = 
STACK WIN 4 3fec 4c 7 0 8 0 0 0 1 $T0 $ebp = $eip $T0 4 + ^ = $ebp $T0 ^ = $esp $T0 8 + = 
STACK WIN 4 3ff2 44 1 0 8 4 0 0 1 $T0 $ebp = $eip $T0 4 + ^ = $ebp $T0 ^ = $esp $T0 8 + =  $23 $T0 4 - ^ = 
STACK WIN 4 3ff3 42 0 0 8 8 0 0 1 $T0 $ebp = $eip $T0 4 + ^ = $ebp $T0 ^ = $esp $T0 8 + =  $23 $T0 4 - ^ =  $24 $T0 8 - ^ = 
STACK WIN 4 4038 4e 7 0 8 0 0 0 1 $T0 $ebp = $eip $T0 4 + ^ = $ebp $T0 ^ = $esp $T0 8 + = 
STACK WIN 4 403e 46 1 0 8 4 0 0 1 $T0 $ebp = $eip $T0 4 + ^ = $ebp $T0 ^ = $esp $T0 8 + =  $23 $T0 4 - ^ = 
STACK WIN 4 403f 44 0 0 8 8 0 0 1 $T0 $ebp = $eip $T0 4 + ^ = $ebp $T0 ^ = $esp $T0 8 + =  $23 $T0 4 - ^ =  $24 $T0 8 - ^ = 
STACK WIN 4 4086 2f 0 0 0 0 0 0 1 $T0 .raSearch = $eip $T0 ^ = $esp $T0 4 + = 
STACK WIN 4 40b5 6 6 0 0 0 0 0 1 $T0 .raSearch = $eip $T0 ^ = $esp $T0 4 + = 
STACK WIN 4 40bb a5 0 0 0 0 0 0 1 $T0 .raSearch = $eip $T0 ^ = $esp $T0 4 + = 
STACK WIN 4 416a 9 0 0 0 0 0 0 1 $T0 .raSearch = $eip $T0 ^ = $esp $T0 4 + = 
STACK WIN 4 40b8 3 3 0 0 4 0 0 1 $T0 .raSearch = $eip $T0 ^ = $esp $T0 4 + =  $23 $T0 4 - ^ = 
STACK WIN 4 40bb a5 0 0 0 4 0 0 1 $T0 .raSearch = $eip $T0 ^ = $esp $T0 4 + =  $23 $T0 4 - ^ = 
STACK WIN 4 416a 8 0 0 0 4 0 0 1 $T0 .raSearch = $eip $T0 ^ = $esp $T0 4 + =  $23 $T0 4 - ^ = 
STACK WIN 4 40b9 2 2 0 0 8 0 0 1 $T0 .raSearch = $eip $T0 ^ = $esp $T0 4 + =  $23 $T0 4 - ^ =  $24 $T0 8 - ^ = 
STACK WIN 4 40bb 97 0 0 0 8 0 0 1 $T0 .raSearch = $eip $T0 ^ = $esp $T0 4 + =  $23 $T0 4 - ^ =  $24 $T0 8 - ^ = 
STACK WIN 4 415d 3 0 0 0 8 0 0 1 $T0 .raSearch = $eip $T0 ^ = $esp $T0 4 + =  $23 $T0 4 - ^ =  $24 $T0 8 - ^ = 
STACK WIN 4 416a 7 0 0 0 8 0 0 1 $T0 .raSearch = $eip $T0 ^ = $esp $T0 4 + =  $23 $T0 4 - ^ =  $24 $T0 8 - ^ = 
STACK WIN 4 4173 246 17 0 0 0 51c 0 1 $T0 $ebp = $eip $T0 4 + ^ = $ebp $T0 ^ = $esp $T0 8 + = 
STACK WIN 4 4189 229 1 0 0 4 51c 0 1 $T0 $ebp = $eip $T0 4 + ^ = $ebp $T0 ^ = $esp $T0 8 + =  $20 $T0 1312 - ^ = 
STACK WIN 4 418a 225 0 0 0 8 51c 0 1 $T0 $ebp = $eip $T0 4 + ^ = $ebp $T0 ^ = $esp $T0 8 + =  $20 $T0 1312 - ^ =  $24 $T0 1316 - ^ = 
STACK WIN 4 43b9 a4 c 0 0 10 1c 0 1 $T0 $ebp = $eip $T0 4 + ^ = $ebp $T0 ^ = $esp $T0 8 + =  $20 $T0 32 - ^ =  $23 $T0 36 - ^ =  $24 $T0 40 - ^ = 
STACK WIN 4 4451 b 0 0 0 10 1c 0 1 $T0 $ebp = $T2 $esp = $T1 .raSearchStart = $eip $T1 ^ = $ebp $T0 = $esp $T1 4 + = 
STACK WIN 4 445d b b 0 4 0 0 0 1 $T0 $ebp = $eip $T0 4 + ^ = $ebp $T0 ^ = $esp $T0 8 + = 
STACK WIN 4 4472 148 0 0 4 0 0 0 1 $T0 $ebp = $eip $T0 4 + ^ = $ebp $T0 ^ = $esp $T0 8 + = 
STACK WIN 4 4466 2 2 0 4 4 0 0 1 $T0 $ebp = $eip $T0 4 + ^ = $ebp $T0 ^ = $esp $T0 8 + =  $23 $T0 4 - ^ = 
STACK WIN 4 4472 127 0 0 4 4 0 0 1 $T0 $ebp = $eip $T0 4 + ^ = $ebp $T0 ^ = $esp $T0 8 + =  $23 $T0 4 - ^ = 
STACK WIN 4 45a3 3 0 0 4 4 0 0 1 $T0 $ebp = $eip $T0 4 + ^ = $ebp $T0 ^ = $esp $T0 8 + =  $23 $T0 4 - ^ = 
STACK WIN 4 45b0 6 0 0 4 4 0 0 1 $T0 $ebp = $eip $T0 4 + ^ = $ebp $T0 ^ = $esp $T0 8 + =  $23 $T0 4 - ^ = 
STACK WIN 4 45ba 9 9 0 0 0 10 0 1 $T0 $ebp = $eip $T0 4 + ^ = $ebp $T0 ^ = $esp $T0 8 + = 
STACK WIN 4 45c3 7e 0 0 0 0 10 0 1 $T0 $ebp = $eip $T0 4 + ^ = $ebp $T0 ^ = $esp $T0 8 + = 
STACK WIN 4 464b 9 0 0 0 0 10 0 1 $T0 $ebp = $eip $T0 4 + ^ = $ebp $T0 ^ = $esp $T0 8 + = 
STACK WIN 4 45c3 7e 0 0 0 4 10 0 1 $T0 $ebp = $eip $T0 4 + ^ = $ebp $T0 ^ = $esp $T0 8 + =  $20 $T0 20 - ^ = 
STACK WIN 4 464b 7 0 0 0 4 10 0 1 $T0 $ebp = $eip $T0 4 + ^ = $ebp $T0 ^ = $esp $T0 8 + =  $20 $T0 20 - ^ = 
STACK WIN 4 4654 2d2 1b 0 8 0 20 0 1 $T0 $ebp = $eip $T0 4 + ^ = $ebp $T0 ^ = $esp $T0 8 + = 
STACK WIN 4 4667 2b8 8 0 8 4 20 0 1 $T0 $ebp = $eip $T0 4 + ^ = $ebp $T0 ^ = $esp $T0 8 + =  $20 $T0 36 - ^ = 
STACK WIN 4 466b 2b1 4 0 8 8 20 0 1 $T0 $ebp = $eip $T0 4 + ^ = $ebp $T0 ^ = $esp $T0 8 + =  $20 $T0 36 - ^ =  $23 $T0 40 - ^ = 
STACK WIN 4 466f 2ac 0 0 8 c 20 0 1 $T0 $ebp = $eip $T0 4 + ^ = $ebp $T0 ^ = $esp $T0 8 + =  $20 $T0 36 - ^ =  $23 $T0 40 - ^ =  $24 $T0 44 - ^ = 
STACK WIN 4 4926 19a c 0 4 10 24 0 1 $T0 $ebp = $eip $T0 4 + ^ = $ebp $T0 ^ = $esp $T0 8 + =  $20 $T0 40 - ^ =  $23 $T0 44 - ^ =  $24 $T0 48 - ^ = 
STACK WIN 4 4a87 8 0 0 4 10 24 0 1 $T0 $ebp = $T2 $esp = $T1 .raSearchStart = $eip $T1 ^ = $ebp $T0 = $esp $T1 4 + = 
STACK WIN 4 4ac0 1e 0 0 0 0 0 0 1 $T0 .raSearch = $eip $T0 ^ = $esp $T0 4 + = 
STACK WIN 4 4ade 8 8 0 10 0 10 0 1 $T0 $ebp = $eip $T0 4 + ^ = $ebp $T0 ^ = $esp $T0 8 + = 
STACK WIN 4 4ae6 68 0 0 10 0 10 0 1 $T0 $ebp = $eip $T0 4 + ^ = $ebp $T0 ^ = $esp $T0 8 + = 
STACK WIN 4 4b58 6 0 0 10 0 10 0 1 $T0 $ebp = $eip $T0 4 + ^ = $ebp $T0 ^ = $esp $T0 8 + = 
STACK WIN 4 4b5e 18 5 0 4 0 0 0 1 $T0 $ebp = $eip $T0 4 + ^ = $ebp $T0 ^ = $esp $T0 8 + = 
STACK WIN 4 4b76 f8 e 0 4 0 0 0 1 $T0 $ebp = $eip $T0 4 + ^ = $ebp $T0 ^ = $esp $T0 8 + = 
STACK WIN 4 4b7c f0 8 0 4 4 0 0 1 $T0 $ebp = $eip $T0 4 + ^ = $ebp $T0 ^ = $esp $T0 8 + =  $20 $T0 4 - ^ = 
STACK WIN 4 4b7d ee 7 0 4 8 0 0 1 $T0 $ebp = $eip $T0 4 + ^ = $ebp $T0 ^ = $esp $T0 8 + =  $20 $T0 4 - ^ =  $23 $T0 8 - ^ = 
STACK WIN 4 4b84 e6 0 0 4 c 0 0 1 $T0 $ebp = $eip $T0 4 + ^ = $ebp $T0 ^ = $esp $T0 8 + =  $20 $T0 4 - ^ =  $23 $T0 8 - ^ =  $24 $T0 12 - ^ = 
STACK WIN 4 4c6e 102 6 0 4 0 0 0 1 $T0 $ebp = $eip $T0 4 + ^ = $ebp $T0 ^ = $esp $T0 8 + = 
STACK WIN 4 4c74 fa 0 0 4 4 0 0 1 $T0 $ebp = $eip $T0 4 + ^ = $ebp $T0 ^ = $esp $T0 8 + =  $24 $T0 4 - ^ = 
STACK WIN 4 4c80 eb 0 0 4 8 0 0 1 $T0 $ebp = $eip $T0 4 + ^ = $ebp $T0 ^ = $esp $T0 8 + =  $24 $T0 4 - ^ =  $20 $T0 8 - ^ = 
STACK WIN 4 4c81 e9 0 0 4 c 0 0 1 $T0 $ebp = $eip $T0 4 + ^ = $ebp $T0 ^ = $esp $T0 8 + =  $24 $T0 4 - ^ =  $20 $T0 8 - ^ =  $23 $T0 12 - ^ = 
STACK WIN 4 4d70 a a 0 4 0 0 0 1 $T0 $ebp = $eip $T0 4 + ^ = $ebp $T0 ^ = $esp $T0 8 + = 
STACK WIN 4 4d87 9 9 0 4 0 0 0 1 $T0 $ebp = $eip $T0 4 + ^ = $ebp $T0 ^ = $esp $T0 8 + = 
STACK WIN 4 4d90 273 0 0 4 0 0 0 1 $T0 $ebp = $eip $T0 4 + ^ = $ebp $T0 ^ = $esp $T0 8 + = 
STACK WIN 4 4d76 4 4 0 4 4 0 0 1 $T0 $ebp = $eip $T0 4 + ^ = $ebp $T0 ^ = $esp $T0 8 + =  $20 $T0 4 - ^ = 
STACK WIN 4 4d87 9 9 0 4 4 0 0 1 $T0 $ebp = $eip $T0 4 + ^ = $ebp $T0 ^ = $esp $T0 8 + =  $20 $T0 4 - ^ = 
STACK WIN 4 4d90 271 0 0 4 4 0 0 1 $T0 $ebp = $eip $T0 4 + ^ = $ebp $T0 ^ = $esp $T0 8 + =  $20 $T0 4 - ^ = 
STACK WIN 4 4d77 3 3 0 4 8 0 0 1 $T0 $ebp = $eip $T0 4 + ^ = $ebp $T0 ^ = $esp $T0 8 + =  $20 $T0 4 - ^ =  $23 $T0 8 - ^ = 
STACK WIN 4 4d87 9 9 0 4 8 0 0 1 $T0 $ebp = $eip $T0 4 + ^ = $ebp $T0 ^ = $esp $T0 8 + =  $20 $T0 4 - ^ =  $23 $T0 8 - ^ = 
STACK WIN 4 4d90 270 0 0 4 8 0 0 1 $T0 $ebp = $eip $T0 4 + ^ = $ebp $T0 ^ = $esp $T0 8 + =  $20 $T0 4 - ^ =  $23 $T0 8 - ^ = 
STACK WIN 4 4d90 26f 0 0 4 c 0 0 1 $T0 $ebp = $eip $T0 4 + ^ = $ebp $T0 ^ = $esp $T0 8 + =  $20 $T0 4 - ^ =  $23 $T0 8 - ^ =  $24 $T0 12 - ^ = 
STACK WIN 4 5003 6b 6 0 8 0 0 0 1 $T0 $ebp = $eip $T0 4 + ^ = $ebp $T0 ^ = $esp $T0 8 + = 
STACK WIN 4 5009 63 0 0 8 4 0 0 1 $T0 $ebp = $eip $T0 4 + ^ = $ebp $T0 ^ = $esp $T0 8 + =  $24 $T0 4 - ^ = 
STACK WIN 4 5022 45 0 0 8 8 0 0 1 $T0 $ebp = $eip $T0 4 + ^ = $ebp $T0 ^ = $esp $T0 8 + =  $24 $T0 4 - ^ =  $23 $T0 8 - ^ = 
STACK WIN 4 506e 79 c 0 0 10 1c 0 1 $T0 $ebp = $eip $T0 4 + ^ = $ebp $T0 ^ = $esp $T0 8 + =  $20 $T0 32 - ^ =  $23 $T0 36 - ^ =  $24 $T0 40 - ^ = 
STACK WIN 4 50db 8 0 0 0 10 1c 0 1 $T0 $ebp = $T2 $esp = $T1 .raSearchStart = $eip $T1 ^ = $ebp $T0 = $esp $T1 4 + = 
STACK WIN 4 50e7 8 0 0 4 0 0 0 1 $T0 .raSearch = $eip $T0 ^ = $esp $T0 4 + = 
STACK WIN 4 5335 33 0 0 0 0 0 0 1 $T0 .raSearch = $eip $T0 ^ = $esp $T0 4 + = 
STACK WIN 4 56c9 2a 5 0 4 0 0 0 1 $T0 $ebp = $eip $T0 4 + ^ = $ebp $T0 ^ = $esp $T0 8 + = 
STACK WIN 4 56f3 3d 5 0 4 0 0 0 1 $T0 $ebp = $eip $T0 4 + ^ = $ebp $T0 ^ = $esp $T0 8 + = 
STACK WIN 4 5730 9 0 0 0 0 0 0 1 $T0 .raSearch = $eip $T0 ^ = $esp $T0 4 + = 
STACK WIN 4 5739 106 b 0 0 0 328 0 1 $T0 $ebp = $eip $T0 4 + ^ = $ebp $T0 ^ = $esp $T0 8 + = 
STACK WIN 4 583f 5 5 0 c 0 0 0 1 $T0 $ebp = $eip $T0 4 + ^ = $ebp $T0 ^ = $esp $T0 8 + = 
STACK WIN 4 5844 88 0 0 c 0 0 0 1 $T0 $ebp = $eip $T0 4 + ^ = $ebp $T0 ^ = $esp $T0 8 + = 
STACK WIN 4 58d6 9 0 0 c 0 0 0 1 $T0 $ebp = $eip $T0 4 + ^ = $ebp $T0 ^ = $esp $T0 8 + = 
STACK WIN 4 5875 57 0 0 c 4 0 0 1 $T0 $ebp = $eip $T0 4 + ^ = $ebp $T0 ^ = $esp $T0 8 + =  $23 $T0 4 - ^ = 
STACK WIN 4 58d6 7 0 0 c 4 0 0 1 $T0 $ebp = $eip $T0 4 + ^ = $ebp $T0 ^ = $esp $T0 8 + =  $23 $T0 4 - ^ = 
STACK WIN 4 58df 5 5 0 8 0 0 0 1 $T0 $ebp = $eip $T0 4 + ^ = $ebp $T0 ^ = $esp $T0 8 + = 
STACK WIN 4 58e4 b6 0 0 8 0 0 0 1 $T0 $ebp = $eip $T0 4 + ^ = $ebp $T0 ^ = $esp $T0 8 + = 
STACK WIN 4 59a4 6 0 0 8 0 0 0 1 $T0 $ebp = $eip $T0 4 + ^ = $ebp $T0 ^ = $esp $T0 8 + = 
STACK WIN 4 58f6 6c 0 0 8 4 0 0 1 $T0 $ebp = $eip $T0 4 + ^ = $ebp $T0 ^ = $esp $T0 8 + =  $23 $T0 4 - ^ = 
STACK WIN 4 590b 43 0 0 8 8 0 0 1 $T0 $ebp = $eip $T0 4 + ^ = $ebp $T0 ^ = $esp $T0 8 + =  $23 $T0 4 - ^ =  $24 $T0 8 - ^ = 
STACK WIN 4 5958 9 0 0 8 8 0 0 1 $T0 $ebp = $eip $T0 4 + ^ = $ebp $T0 ^ = $esp $T0 8 + =  $23 $T0 4 - ^ =  $24 $T0 8 - ^ = 
STACK WIN 4 59aa 22d 1a 0 24 c 10 0 1 $T0 $ebp = $eip $T0 4 + ^ = $ebp $T0 ^ = $esp $T0 8 + =  $20 $T0 20 - ^ =  $23 $T0 24 - ^ =  $24 $T0 28 - ^ = 
STACK WIN 4 5bd7 8 8 0 24 0 10 0 1 $T0 $ebp = $eip $T0 4 + ^ = $ebp $T0 ^ = $esp $T0 8 + = 
STACK WIN 4 5bdf 38 0 0 24 0 10 0 1 $T0 $ebp = $eip $T0 4 + ^ = $ebp $T0 ^ = $esp $T0 8 + = 
STACK WIN 4 5c21 6 0 0 24 0 10 0 1 $T0 $ebp = $eip $T0 4 + ^ = $ebp $T0 ^ = $esp $T0 8 + = 
STACK WIN 4 5c27 112 16 0 1c c 8 0 1 $T0 $ebp = $eip $T0 4 + ^ = $ebp $T0 ^ = $esp $T0 8 + =  $20 $T0 12 - ^ =  $23 $T0 16 - ^ =  $24 $T0 20 - ^ = 
STACK WIN 4 5d39 8 8 0 20 0 10 0 1 $T0 $ebp = $eip $T0 4 + ^ = $ebp $T0 ^ = $esp $T0 8 + = 
STACK WIN 4 5d41 32 0 0 20 0 10 0 1 $T0 $ebp = $eip $T0 4 + ^ = $ebp $T0 ^ = $esp $T0 8 + = 
STACK WIN 4 5d7d 6 0 0 20 0 10 0 1 $T0 $ebp = $eip $T0 4 + ^ = $ebp $T0 ^ = $esp $T0 8 + = 
STACK WIN 4 5d83 775 6 0 4 0 0 0 1 $T0 $ebp = $eip $T0 4 + ^ = $ebp $T0 ^ = $esp $T0 8 + = 
STACK WIN 4 5d89 76d 0 0 4 4 0 0 1 $T0 $ebp = $eip $T0 4 + ^ = $ebp $T0 ^ = $esp $T0 8 + =  $23 $T0 4 - ^ = 
STACK WIN 4 64f8 9f 6 0 4 0 0 0 1 $T0 $ebp = $eip $T0 4 + ^ = $ebp $T0 ^ = $esp $T0 8 + = 
STACK WIN 4 64fe 97 0 0 4 4 0 0 1 $T0 $ebp = $eip $T0 4 + ^ = $ebp $T0 ^ = $esp $T0 8 + =  $23 $T0 4 - ^ = 
STACK WIN 4 6597 180 6 0 4 0 0 0 1 $T0 $ebp = $eip $T0 4 + ^ = $ebp $T0 ^ = $esp $T0 8 + = 
STACK WIN 4 659d 178 0 0 4 4 0 0 1 $T0 $ebp = $eip $T0 4 + ^ = $ebp $T0 ^ = $esp $T0 8 + =  $23 $T0 4 - ^ = 
STACK WIN 4 6717 ba 0 0 c 0 0 0 1 $T0 .raSearch = $eip $T0 ^ = $esp $T0 4 + = 
STACK WIN 4 67d1 10 0 0 0 0 0 0 1 $T0 .raSearch = $eip $T0 ^ = $esp $T0 4 + = 
STACK WIN 4 67e1 103 0 0 c 0 0 0 1 $T0 .raSearch = $eip $T0 ^ = $esp $T0 4 + = 
STACK WIN 0 12ee 14 0 0 0 0 0 0 0 0
STACK WIN 0 139d 9 0 0 0 0 0 0 0 0
STACK WIN 0 13a6 88 0 0 8 0 0 0 0 0
STACK WIN 0 176c f 0 0 0 0 0 0 0 0
STACK WIN 0 26f1 f 0 0 0 0 0 0 0 0
STACK WIN 0 2700 9 0 0 0 0 0 0 0 0
STACK WIN 0 28c7 c 0 0 0 0 0 0 0 0
STACK WIN 0 28d3 c 0 0 0 0 0 0 0 0
STACK WIN 0 3195 9 0 0 0 0 0 0 0 0
STACK WIN 0 3281 8b 0 0 4 0 0 0 0 0
STACK WIN 0 33c2 90 3 0 c c 0 0 0 0
STACK WIN 0 3452 46 0 0 10 4 0 0 0 1
STACK WIN 0 34b4 17 4 0 0 10 0 0 0 1
STACK WIN 0 34cb 19 0 0 0 0 0 0 0 0
STACK WIN 0 34fd 17 1 0 8 4 0 0 0 1
STACK WIN 0 3589 4 0 0 0 0 0 0 0 0
STACK WIN 0 378a 15 0 0 0 0 0 0 0 0
STACK WIN 0 3952 6 0 0 0 0 0 0 0 0
STACK WIN 0 3af0 13 0 0 0 0 0 0 0 0
STACK WIN 0 4451 c 0 0 0 0 0 0 0 0
STACK WIN 0 4a87 9 0 0 0 0 0 0 0 0
STACK WIN 0 50db 9 0 0 0 0 0 0 0 0
STACK WIN 0 50ef 7a 0 0 c 0 0 0 0 0
STACK WIN 0 5169 95 0 0 10 0 4 0 0 0
STACK WIN 0 5263 84 3 0 8 c 0 0 0 0
STACK WIN 0 52e7 23 0 0 0 0 0 0 0 0
STACK WIN 0 5332 3 0 0 0 0 0 0 0 0
STACK WIN 0 6910 1a 0 0 10 0 0 0 0 0
STACK WIN 0 692a 1a 0 0 10 0 4 0 0 0
