MODULE windows x86 11F7284EDE764667AA5234B0E7B07EEF1 omap_reorder_funcs.pdb
FUNC 41e2 54 0 main
FUNC 4242 a 0 google_breakpad::i
FUNC 2b6a 21 0 google_breakpad::C::C()
FUNC 30dd 14 0 google_breakpad::C::~C()
FUNC 21f6 16 0 google_breakpad::C::set_member(int)
FUNC 22e9 1e 0 google_breakpad::C::f()
FUNC 2895 10 0 google_breakpad::C::g()
FUNC 308e 7 0 google_breakpad::C::h(google_breakpad::C const &)
FUNC 13a0 2c 0 google_breakpad::C::`scalar deleting destructor'(unsigned int)
FUNC 205a 10 0 type_info::~type_info()
FUNC 1445 21 0 type_info::`scalar deleting destructor'(unsigned int)
FUNC 2307 b 0 operator delete(void *)
FUNC 3238 29 0 fast_error_exit
FUNC 32ed 161 0 __tmainCRTStartup
FUNC 2104 a 0 mainCRTStartup
FUNC 5330 70 0 type_info::_Type_info_dtor(type_info *)
FUNC 2f6b 88 0 strcmp
FUNC 2b8b 3a 0 free
FUNC 23da 42 0 __CxxUnhandledExceptionFilter(_EXCEPTION_POINTERS *)
FUNC 283a e 0 __CxxSetUnhandledExceptionFilter
FUNC 18d9 2b 0 __crtCorExitProcess
FUNC 5175 18 0 __crtExitProcess
FUNC 48f0 9 0 _lockexit
FUNC 406d 9 0 _unlockexit
FUNC 1fa0 33 0 _init_pointers
FUNC 5043 24 0 _initterm_e
FUNC 147f 97 0 _cinit
FUNC 4504 140 0 doexit
FUNC 315a 16 0 exit
FUNC 1778 16 0 _exit
FUNC 3229 f 0 _cexit
FUNC 405e f 0 _c_exit
FUNC 2abf 1e 0 _amsg_exit
FUNC 424c 26 0 _GET_RTERRMSG
FUNC 268b 1af 0 _NMSG_WRITE
FUNC 21bd 39 0 _FF_MSGBANNER
FUNC 3ed7 14a 0 _XcptFilter
FUNC 255c dc 0 _setenvp
FUNC 54b7 19a 0 parse_cmdline
FUNC 15b7 bb 0 _setargv
FUNC 220c 97 0 __crtGetEnvironmentStringsA
FUNC 1cf7 245 0 _ioinit
FUNC 137a 26 0 _RTC_Initialize
FUNC 2034 26 0 _RTC_Terminate
FUNC 3d7a 9 0 _encoded_null
FUNC 156e 9 4 __crtTlsAlloc
FUNC 380c 34 0 __set_flsgetvalue
FUNC 4021 3d 0 _mtterm
FUNC 53a0 b4 0 _initptd
FUNC 13cc 79 0 _getptd_noexit
FUNC 2848 1a 0 _getptd
FUNC 4272 12f 4 _freefls
FUNC 4980 17b 0 _mtinit
FUNC 252f 1e 0 _heap_init
FUNC 1c7a 45 0 _SEH_prolog4
FUNC 1cbf 14 0 _SEH_epilog4
FUNC 1aeb 18f 0 _except_handler4
FUNC 2ff3 9b 0 __security_init_cookie
FUNC 1214 f 0 _initp_misc_invarg
FUNC 4afb 129 0 _call_reportfault
FUNC 5150 25 0 _invoke_watson
FUNC 3261 2d 0 _invalid_parameter
FUNC 146f 10 0 _invalid_parameter_noinfo
FUNC 2af4 4a 0 _mtinitlocks
FUNC 4d69 57 0 _mtdeletelocks
FUNC 2add 17 0 _unlock
FUNC 12b8 c2 0 _mtinitlocknum
FUNC 31f6 33 0 _lock
FUNC 2a1e 5f 0 strcpy_s
FUNC 4eba 8b 0 strlen
FUNC 2312 94 0 malloc
FUNC 43b2 90 0 _local_unwind4
FUNC 4442 46 0 _unwind_handler4
FUNC 4488 1c 4 _seh_longjmp_unwind4
FUNC 44a4 17 0 _EH4_CallFilterFunc
FUNC 44bb 19 0 _EH4_TransferToHandler
FUNC 44d4 19 0 _EH4_GlobalUnwind2
FUNC 44ed 17 8 _EH4_LocalUnwind
FUNC 2a7d 42 0 _get_errno_from_oserr
FUNC 3095 13 0 _errno
FUNC 31bd 39 0 terminate()
FUNC 43a1 11 0 _initp_eh_hooks
FUNC 215a 1e 0 _initp_misc_winsig
FUNC 24f8 37 0 siglookup
FUNC 48e3 d 0 __get_sigabrt
FUNC 518d 1a3 0 raise
FUNC 254d f 0 _initp_misc_rand_s
FUNC 37b7 f 0 _initp_misc_purevirt
FUNC 24e9 f 0 _initp_heap_handler
FUNC 4644 28 0 _callnewh
FUNC 4c24 b6 0 _onexit_nolock
FUNC 11e3 31 0 __onexitinit
FUNC 5114 3c 0 _onexit
FUNC 3ec0 17 0 atexit
FUNC 28a5 23 0 _initp_misc_cfltcvt_tab
FUNC 30a8 35 0 _ValidateImageBase
FUNC 32a9 44 0 _FindPESection
FUNC 5651 bc 0 _IsNonwritableInCurrentImage
FUNC 4076 16c 0 __crtMessageBoxW
FUNC 3943 75 0 wcscat_s
FUNC 241c cd 0 wcsncpy_s
FUNC 328e 1b 0 wcslen
FUNC 5454 63 0 wcscpy_s
FUNC 3d3b 3f 0 _set_error_mode
FUNC 28c8 f 0 __security_check_cookie
FUNC 2178 45 0 _malloc_crt
FUNC 210e 4c 0 _calloc_crt
FUNC 4e39 4e 0 _realloc_crt
FUNC 2bc5 2f 0 CPtoLCID
FUNC 1f3c 64 0 setSBCS
FUNC 466c 190 0 setSBUpLow
FUNC 3d83 a4 0 __updatetmbcinfo
FUNC 48f9 87 0 _LocaleUpdate::_LocaleUpdate(localeinfo_struct *)
FUNC 10e5 7c 0 getSystemCP
FUNC 3b52 1e9 0 _setmbcp_nolock
FUNC 39b8 19a 0 _setmbcp
FUNC 1cd3 1e 0 __initmbctable
FUNC 2638 53 0 x_ismbbtype_l
FUNC 1516 18 0 _ismbblead
FUNC 4cda 8f 0 __addlocaleref
FUNC 3e27 99 0 __removelocaleref
FUNC 178e 14b 0 __freetlocinfo
FUNC 3170 4d 0 _updatetlocinfoEx_nolock
FUNC 4dc0 79 0 __updatetlocinfo
FUNC 344e 8 0 _crt_debugger_hook
FUNC 208a 7a 0 memset
FUNC 1223 95 0 _aulldvrm
FUNC 28d7 20 0 _global_unwind2
FUNC 28f7 45 0 __unwind_handler
FUNC 293c 84 0 _local_unwind2
FUNC 29c0 23 0 _abnormal_termination
FUNC 29e3 9 0 _NLG_Notify1
FUNC 29ec 1f 0 _NLG_Notify
PUBLIC 2a03 0 _NLG_Dispatch2
FUNC 2a0b 3 0 _NLG_Call
PUBLIC 2a0d 0 _NLG_Return2
FUNC 2862 33 0 abort
FUNC 3456 361 0 memcpy
FUNC 206a 20 0 _freea
FUNC 4e87 33 0 _msize
FUNC 1466 9 0 _fptrap
FUNC 1672 106 0 __report_gsfailure
FUNC 1161 82 0 _calloc_impl
FUNC 5067 ad 0 realloc
FUNC 1904 1e7 0 __crtLCMapStringA_stat
FUNC 22a3 46 0 __crtLCMapStringA
FUNC 47fc e7 0 __crtGetStringTypeA_stat
FUNC 152e 40 0 __crtGetStringTypeA
FUNC 2bf4 377 0 __free_lc_time
FUNC 30f1 69 0 __free_lconv_num
FUNC 4f45 fe 0 __free_lconv_mon
FUNC 1000 ba 0 _VEC_memzero
FUNC 2a0e 10 0 __sse2_available_init
FUNC 3840 103 0 _VEC_memcpy
FUNC 2b3e 2c 0 _alloca_probe_16
PUBLIC 2b54 0 _alloca_probe_8
FUNC 23a6 34 0 _allmul
FUNC 10ba 2b 0 _chkstk
FUNC 37c6 46 0 strcspn
FUNC 1577 40 0 strpbrk
FUNC 1fd3 61 0 __ascii_strnicmp
PUBLIC 1cf1 10 RtlUnwind
STACK WIN 4 41e2 54 6 0 8 0 14 0 1 $T0 $ebp = $eip $T0 4 + ^ = $ebp $T0 ^ = $esp $T0 8 + = 
STACK WIN 4 4242 a 3 0 0 0 0 0 1 $T0 $ebp = $eip $T0 4 + ^ = $ebp $T0 ^ = $esp $T0 8 + = 
STACK WIN 4 2b6a 21 7 0 0 0 4 0 1 $T0 $ebp = $eip $T0 4 + ^ = $ebp $T0 ^ = $esp $T0 8 + = 
STACK WIN 4 30dd 14 7 0 0 0 4 0 1 $T0 $ebp = $eip $T0 4 + ^ = $ebp $T0 ^ = $esp $T0 8 + = 
STACK WIN 4 21f6 16 7 0 4 0 4 0 1 $T0 $ebp = $eip $T0 4 + ^ = $ebp $T0 ^ = $esp $T0 8 + = 
STACK WIN 4 22e9 1e 7 0 0 0 4 0 1 $T0 $ebp = $eip $T0 4 + ^ = $ebp $T0 ^ = $esp $T0 8 + = 
STACK WIN 4 2895 10 7 0 0 0 4 0 1 $T0 $ebp = $eip $T0 4 + ^ = $ebp $T0 ^ = $esp $T0 8 + = 
STACK WIN 4 308e 7 3 0 4 0 0 0 1 $T0 $ebp = $eip $T0 4 + ^ = $ebp $T0 ^ = $esp $T0 8 + = 
STACK WIN 4 13a0 2c 7 0 4 0 4 0 1 $T0 $ebp = $eip $T0 4 + ^ = $ebp $T0 ^ = $esp $T0 8 + = 
STACK WIN 4 205a 10 0 0 0 0 0 0 1 $T0 .raSearch = $eip $T0 ^ = $esp $T0 4 + = 
STACK WIN 4 1445 21 8 0 4 0 0 0 1 $T0 $ebp = $eip $T0 4 + ^ = $ebp $T0 ^ = $esp $T0 8 + = 
STACK WIN 4 144b 17 2 0 4 4 0 0 1 $T0 $ebp = $eip $T0 4 + ^ = $ebp $T0 ^ = $esp $T0 8 + =  $23 $T0 4 - ^ = 
STACK WIN 4 2307 b 5 0 4 0 0 0 1 $T0 $ebp = $eip $T0 4 + ^ = $ebp $T0 ^ = $esp $T0 8 + = 
STACK WIN 4 3238 29 5 0 4 0 0 0 1 $T0 $ebp = $eip $T0 4 + ^ = $ebp $T0 ^ = $esp $T0 8 + = 
STACK WIN 4 32ed 161 c 0 0 10 24 0 1 $T0 $ebp = $eip $T0 4 + ^ = $ebp $T0 ^ = $esp $T0 8 + =  $20 $T0 40 - ^ =  $23 $T0 44 - ^ =  $24 $T0 48 - ^ = 
STACK WIN 4 3410 14 0 0 0 10 24 0 1 $T0 $ebp = $T2 $esp = $T1 .raSearchStart = $eip $T1 ^ = $ebp $T0 = $esp $T1 4 + = 
STACK WIN 4 2104 a 0 0 0 0 0 0 1 $T0 .raSearch = $eip $T0 ^ = $esp $T0 4 + = 
STACK WIN 4 5330 70 c 0 4 10 1c 0 1 $T0 $ebp = $eip $T0 4 + ^ = $ebp $T0 ^ = $esp $T0 8 + =  $20 $T0 32 - ^ =  $23 $T0 36 - ^ =  $24 $T0 40 - ^ = 
STACK WIN 4 5397 8 0 0 4 10 1c 0 1 $T0 $ebp = $T2 $esp = $T1 .raSearchStart = $eip $T1 ^ = $ebp $T0 = $esp $T1 4 + = 
STACK WIN 4 2b8b 3a 5 0 4 0 0 0 1 $T0 $ebp = $eip $T0 4 + ^ = $ebp $T0 ^ = $esp $T0 8 + = 
STACK WIN 4 2bac 17 0 0 4 4 0 0 1 $T0 $ebp = $eip $T0 4 + ^ = $ebp $T0 ^ = $esp $T0 8 + =  $23 $T0 4 - ^ = 
STACK WIN 4 23da 42 5 0 4 0 0 0 1 $T0 $ebp = $eip $T0 4 + ^ = $ebp $T0 ^ = $esp $T0 8 + = 
STACK WIN 4 283a e 0 0 0 0 0 0 1 $T0 .raSearch = $eip $T0 ^ = $esp $T0 4 + = 
STACK WIN 4 18d9 2b 5 0 4 0 0 0 1 $T0 $ebp = $eip $T0 4 + ^ = $ebp $T0 ^ = $esp $T0 8 + = 
STACK WIN 4 5175 18 5 0 4 0 0 0 1 $T0 $ebp = $eip $T0 4 + ^ = $ebp $T0 ^ = $esp $T0 8 + = 
STACK WIN 4 48f0 9 0 0 0 0 0 0 1 $T0 .raSearch = $eip $T0 ^ = $esp $T0 4 + = 
STACK WIN 4 406d 9 0 0 0 0 0 0 1 $T0 .raSearch = $eip $T0 ^ = $esp $T0 4 + = 
STACK WIN 4 1fa0 33 3 0 0 0 0 0 1 $T0 .raSearch = $eip $T0 ^ = $esp $T0 4 + = 
STACK WIN 4 1fa3 2f 0 0 0 4 0 0 1 $T0 .raSearch = $eip $T0 ^ = $esp $T0 4 + =  $23 $T0 4 - ^ = 
STACK WIN 4 5043 24 6 0 8 0 0 0 1 $T0 $ebp = $eip $T0 4 + ^ = $ebp $T0 ^ = $esp $T0 8 + = 
STACK WIN 4 5049 1c 0 0 8 4 0 0 1 $T0 $ebp = $eip $T0 4 + ^ = $ebp $T0 ^ = $esp $T0 8 + =  $23 $T0 4 - ^ = 
STACK WIN 4 147f 97 5 0 4 0 0 0 1 $T0 $ebp = $eip $T0 4 + ^ = $ebp $T0 ^ = $esp $T0 8 + = 
STACK WIN 4 14c1 34 0 0 4 4 0 0 1 $T0 $ebp = $eip $T0 4 + ^ = $ebp $T0 ^ = $esp $T0 8 + =  $23 $T0 4 - ^ = 
STACK WIN 4 14c2 32 0 0 4 8 0 0 1 $T0 $ebp = $eip $T0 4 + ^ = $ebp $T0 ^ = $esp $T0 8 + =  $23 $T0 4 - ^ =  $24 $T0 8 - ^ = 
STACK WIN 4 4504 140 c 0 c 10 30 0 1 $T0 $ebp = $eip $T0 4 + ^ = $ebp $T0 ^ = $esp $T0 8 + =  $20 $T0 52 - ^ =  $23 $T0 56 - ^ =  $24 $T0 60 - ^ = 
STACK WIN 4 462f e 0 0 c 10 30 0 1 $T0 $ebp = $T2 $esp = $T1 .raSearchStart = $eip $T1 ^ = $ebp $T0 = $esp $T1 4 + = 
STACK WIN 4 315a 16 5 0 4 0 0 0 1 $T0 $ebp = $eip $T0 4 + ^ = $ebp $T0 ^ = $esp $T0 8 + = 
STACK WIN 4 1778 16 5 0 4 0 0 0 1 $T0 $ebp = $eip $T0 4 + ^ = $ebp $T0 ^ = $esp $T0 8 + = 
STACK WIN 4 3229 f 0 0 0 0 0 0 1 $T0 .raSearch = $eip $T0 ^ = $esp $T0 4 + = 
STACK WIN 4 405e f 0 0 0 0 0 0 1 $T0 .raSearch = $eip $T0 ^ = $esp $T0 4 + = 
STACK WIN 4 2abf 1e 5 0 4 0 0 0 1 $T0 $ebp = $eip $T0 4 + ^ = $ebp $T0 ^ = $esp $T0 8 + = 
STACK WIN 4 424c 26 5 0 4 0 0 0 1 $T0 $ebp = $eip $T0 4 + ^ = $ebp $T0 ^ = $esp $T0 8 + = 
STACK WIN 4 268b 1af 1b 0 4 0 1fc 0 1 $T0 $ebp = $eip $T0 4 + ^ = $ebp $T0 ^ = $esp $T0 8 + = 
STACK WIN 4 26a1 192 5 0 4 4 1fc 0 1 $T0 $ebp = $eip $T0 4 + ^ = $ebp $T0 ^ = $esp $T0 8 + =  $20 $T0 512 - ^ = 
STACK WIN 4 26a2 18e 4 0 4 8 1fc 0 1 $T0 $ebp = $eip $T0 4 + ^ = $ebp $T0 ^ = $esp $T0 8 + =  $20 $T0 512 - ^ =  $23 $T0 516 - ^ = 
STACK WIN 4 26a6 189 0 0 4 c 1fc 0 1 $T0 $ebp = $eip $T0 4 + ^ = $ebp $T0 ^ = $esp $T0 8 + =  $20 $T0 512 - ^ =  $23 $T0 516 - ^ =  $24 $T0 520 - ^ = 
STACK WIN 4 21bd 39 0 0 0 0 0 0 1 $T0 .raSearch = $eip $T0 ^ = $esp $T0 4 + = 
STACK WIN 4 3ed7 14a 6 0 8 0 0 0 1 $T0 $ebp = $eip $T0 4 + ^ = $ebp $T0 ^ = $esp $T0 8 + = 
STACK WIN 4 3edd 142 0 0 8 4 0 0 1 $T0 $ebp = $eip $T0 4 + ^ = $ebp $T0 ^ = $esp $T0 8 + =  $23 $T0 4 - ^ = 
STACK WIN 4 3ef5 129 0 0 8 8 0 0 1 $T0 $ebp = $eip $T0 4 + ^ = $ebp $T0 ^ = $esp $T0 8 + =  $23 $T0 4 - ^ =  $24 $T0 8 - ^ = 
STACK WIN 4 3f46 d4 0 0 8 c 0 0 1 $T0 $ebp = $eip $T0 4 + ^ = $ebp $T0 ^ = $esp $T0 8 + =  $23 $T0 4 - ^ =  $24 $T0 8 - ^ =  $20 $T0 12 - ^ = 
STACK WIN 4 255c dc 0 0 0 0 0 0 1 $T0 .raSearch = $eip $T0 ^ = $esp $T0 4 + = 
STACK WIN 4 256b a8 0 0 0 4 0 0 1 $T0 .raSearch = $eip $T0 ^ = $esp $T0 4 + =  $23 $T0 4 - ^ = 
STACK WIN 4 2572 a0 0 0 0 8 0 0 1 $T0 .raSearch = $eip $T0 ^ = $esp $T0 4 + =  $23 $T0 4 - ^ =  $24 $T0 8 - ^ = 
STACK WIN 4 25b4 5d 0 0 0 c 0 0 1 $T0 .raSearch = $eip $T0 ^ = $esp $T0 4 + =  $23 $T0 4 - ^ =  $24 $T0 8 - ^ =  $20 $T0 12 - ^ = 
STACK WIN 4 54b7 19a d 0 c 0 4 0 1 $T0 $ebp = $eip $T0 4 + ^ = $ebp $T0 ^ = $esp $T0 8 + = 
STACK WIN 4 54c1 185 3 0 c 4 4 0 1 $T0 $ebp = $eip $T0 4 + ^ = $ebp $T0 ^ = $esp $T0 8 + =  $20 $T0 8 - ^ = 
STACK WIN 4 54c4 181 0 0 c 8 4 0 1 $T0 $ebp = $eip $T0 4 + ^ = $ebp $T0 ^ = $esp $T0 8 + =  $20 $T0 8 - ^ =  $23 $T0 12 - ^ = 
STACK WIN 4 15b7 bb d 0 0 0 c 0 1 $T0 $ebp = $eip $T0 4 + ^ = $ebp $T0 ^ = $esp $T0 8 + = 
STACK WIN 4 15c0 b0 4 0 0 4 c 0 1 $T0 $ebp = $eip $T0 4 + ^ = $ebp $T0 ^ = $esp $T0 8 + =  $20 $T0 16 - ^ = 
STACK WIN 4 15c3 ac 1 0 0 8 c 0 1 $T0 $ebp = $eip $T0 4 + ^ = $ebp $T0 ^ = $esp $T0 8 + =  $20 $T0 16 - ^ =  $23 $T0 20 - ^ = 
STACK WIN 4 15c4 aa 0 0 0 c c 0 1 $T0 $ebp = $eip $T0 4 + ^ = $ebp $T0 ^ = $esp $T0 8 + =  $20 $T0 16 - ^ =  $23 $T0 20 - ^ =  $24 $T0 24 - ^ = 
STACK WIN 4 220c 97 a 0 0 0 c 0 1 $T0 $ebp = $eip $T0 4 + ^ = $ebp $T0 ^ = $esp $T0 8 + = 
STACK WIN 4 2215 8c 1 0 0 4 c 0 1 $T0 $ebp = $eip $T0 4 + ^ = $ebp $T0 ^ = $esp $T0 8 + =  $20 $T0 16 - ^ = 
STACK WIN 4 2216 8a 0 0 0 8 c 0 1 $T0 $ebp = $eip $T0 4 + ^ = $ebp $T0 ^ = $esp $T0 8 + =  $20 $T0 16 - ^ =  $23 $T0 20 - ^ = 
STACK WIN 4 223e 61 0 0 0 c c 0 1 $T0 $ebp = $eip $T0 4 + ^ = $ebp $T0 ^ = $esp $T0 8 + =  $20 $T0 16 - ^ =  $23 $T0 20 - ^ =  $24 $T0 24 - ^ = 
STACK WIN 4 1cf7 245 9 0 0 0 4c 0 1 $T0 $ebp = $eip $T0 4 + ^ = $ebp $T0 ^ = $esp $T0 8 + = 
STACK WIN 4 1d00 235 0 0 0 4 4c 0 1 $T0 $ebp = $eip $T0 4 + ^ = $ebp $T0 ^ = $esp $T0 8 + =  $23 $T0 80 - ^ = 
STACK WIN 4 1d71 1c3 0 0 0 8 4c 0 1 $T0 $ebp = $eip $T0 4 + ^ = $ebp $T0 ^ = $esp $T0 8 + =  $23 $T0 80 - ^ =  $20 $T0 84 - ^ = 
STACK WIN 4 1d72 1c1 0 0 0 c 4c 0 1 $T0 $ebp = $eip $T0 4 + ^ = $ebp $T0 ^ = $esp $T0 8 + =  $23 $T0 80 - ^ =  $20 $T0 84 - ^ =  $24 $T0 88 - ^ = 
STACK WIN 4 137a 26 e 0 0 0 0 0 1 $T0 .raSearch = $eip $T0 ^ = $esp $T0 4 + = 
STACK WIN 4 137d 22 b 0 0 4 0 0 1 $T0 .raSearch = $eip $T0 ^ = $esp $T0 4 + =  $23 $T0 4 - ^ = 
STACK WIN 4 1388 16 0 0 0 8 0 0 1 $T0 .raSearch = $eip $T0 ^ = $esp $T0 4 + =  $23 $T0 4 - ^ =  $24 $T0 8 - ^ = 
STACK WIN 4 2034 26 e 0 0 0 0 0 1 $T0 .raSearch = $eip $T0 ^ = $esp $T0 4 + = 
STACK WIN 4 2037 22 b 0 0 4 0 0 1 $T0 .raSearch = $eip $T0 ^ = $esp $T0 4 + =  $23 $T0 4 - ^ = 
STACK WIN 4 2042 16 0 0 0 8 0 0 1 $T0 .raSearch = $eip $T0 ^ = $esp $T0 4 + =  $23 $T0 4 - ^ =  $24 $T0 8 - ^ = 
STACK WIN 4 3d7a 9 0 0 0 0 0 0 1 $T0 .raSearch = $eip $T0 ^ = $esp $T0 4 + = 
STACK WIN 4 156e 9 0 0 4 0 0 0 1 $T0 .raSearch = $eip $T0 ^ = $esp $T0 4 + = 
STACK WIN 4 380c 34 3 0 0 0 0 0 1 $T0 .raSearch = $eip $T0 ^ = $esp $T0 4 + = 
STACK WIN 4 380f 30 0 0 0 4 0 0 1 $T0 .raSearch = $eip $T0 ^ = $esp $T0 4 + =  $23 $T0 4 - ^ = 
STACK WIN 4 4021 3d 0 0 0 0 0 0 1 $T0 .raSearch = $eip $T0 ^ = $esp $T0 4 + = 
STACK WIN 4 53a0 b4 c 0 8 10 18 0 1 $T0 $ebp = $eip $T0 4 + ^ = $ebp $T0 ^ = $esp $T0 8 + =  $20 $T0 28 - ^ =  $23 $T0 32 - ^ =  $24 $T0 36 - ^ = 
STACK WIN 4 543c e 0 0 8 10 18 0 1 $T0 $ebp = $T2 $esp = $T1 .raSearchStart = $eip $T1 ^ = $ebp $T0 = $esp $T1 4 + = 
STACK WIN 4 544b 8 0 0 8 10 18 0 1 $T0 $ebp = $T2 $esp = $T1 .raSearchStart = $eip $T1 ^ = $ebp $T0 = $esp $T1 4 + = 
STACK WIN 4 13cc 79 4 0 0 0 0 0 1 $T0 .raSearch = $eip $T0 ^ = $esp $T0 4 + = 
STACK WIN 4 13cf 75 1 0 0 4 0 0 1 $T0 .raSearch = $eip $T0 ^ = $esp $T0 4 + =  $23 $T0 4 - ^ = 
STACK WIN 4 13d0 71 0 0 0 8 0 0 1 $T0 .raSearch = $eip $T0 ^ = $esp $T0 4 + =  $23 $T0 4 - ^ =  $24 $T0 8 - ^ = 
STACK WIN 4 2848 1a 3 0 0 0 0 0 1 $T0 .raSearch = $eip $T0 ^ = $esp $T0 4 + = 
STACK WIN 4 284b 16 0 0 0 4 0 0 1 $T0 .raSearch = $eip $T0 ^ = $esp $T0 4 + =  $23 $T0 4 - ^ = 
STACK WIN 4 4272 12f c 0 4 10 18 0 1 $T0 $ebp = $eip $T0 4 + ^ = $ebp $T0 ^ = $esp $T0 8 + =  $20 $T0 28 - ^ =  $23 $T0 32 - ^ =  $24 $T0 36 - ^ = 
STACK WIN 4 4389 b 0 0 4 10 18 0 1 $T0 $ebp = $T2 $esp = $T1 .raSearchStart = $eip $T1 ^ = $ebp $T0 = $esp $T1 4 + = 
STACK WIN 4 4395 b 0 0 4 10 18 0 1 $T0 $ebp = $T2 $esp = $T1 .raSearchStart = $eip $T1 ^ = $ebp $T0 = $esp $T1 4 + = 
STACK WIN 4 4980 17b 3 0 0 0 0 0 1 $T0 .raSearch = $eip $T0 ^ = $esp $T0 4 + = 
STACK WIN 4 4983 177 0 0 0 4 0 0 1 $T0 .raSearch = $eip $T0 ^ = $esp $T0 4 + =  $24 $T0 4 - ^ = 
STACK WIN 4 499e 15b 0 0 0 8 0 0 1 $T0 .raSearch = $eip $T0 ^ = $esp $T0 4 + =  $24 $T0 4 - ^ =  $23 $T0 8 - ^ = 
STACK WIN 4 252f 1e 0 0 0 0 0 0 1 $T0 .raSearch = $eip $T0 ^ = $esp $T0 4 + = 
STACK WIN 4 1aeb 18f 17 0 10 0 18 0 1 $T0 $ebp = $eip $T0 4 + ^ = $ebp $T0 ^ = $esp $T0 8 + = 
STACK WIN 4 1af4 c9 e 0 10 4 18 0 1 $T0 $ebp = $eip $T0 4 + ^ = $ebp $T0 ^ = $esp $T0 8 + =  $20 $T0 28 - ^ = 
STACK WIN 4 1af8 c4 a 0 10 8 18 0 1 $T0 $ebp = $eip $T0 4 + ^ = $ebp $T0 ^ = $esp $T0 8 + =  $20 $T0 28 - ^ =  $23 $T0 32 - ^ = 
STACK WIN 4 1b02 b9 0 0 10 c 18 0 1 $T0 $ebp = $eip $T0 4 + ^ = $ebp $T0 ^ = $esp $T0 8 + =  $20 $T0 28 - ^ =  $23 $T0 32 - ^ =  $24 $T0 36 - ^ = 
STACK WIN 4 2ff3 9b 17 0 0 0 10 0 1 $T0 $ebp = $eip $T0 4 + ^ = $ebp $T0 ^ = $esp $T0 8 + = 
STACK WIN 4 3009 83 1 0 0 4 10 0 1 $T0 $ebp = $eip $T0 4 + ^ = $ebp $T0 ^ = $esp $T0 8 + =  $20 $T0 20 - ^ = 
STACK WIN 4 300a 81 0 0 0 8 10 0 1 $T0 $ebp = $eip $T0 4 + ^ = $ebp $T0 ^ = $esp $T0 8 + =  $20 $T0 20 - ^ =  $24 $T0 24 - ^ = 
STACK WIN 4 3026 64 0 0 0 c 10 0 1 $T0 $ebp = $eip $T0 4 + ^ = $ebp $T0 ^ = $esp $T0 8 + =  $20 $T0 20 - ^ =  $24 $T0 24 - ^ =  $23 $T0 28 - ^ = 
STACK WIN 4 1214 f 5 0 4 0 0 0 1 $T0 $ebp = $eip $T0 4 + ^ = $ebp $T0 ^ = $esp $T0 8 + = 
STACK WIN 4 4afb 129 1a 0 c 8 328 0 1 $T0 $ebp = $eip $T0 4 + ^ = $ebp $T0 ^ = $esp $T0 8 + =  $20 $T0 812 - ^ =  $24 $T0 816 - ^ = 
STACK WIN 4 5150 25 3 0 14 0 0 0 1 $T0 .raSearch = $eip $T0 ^ = $esp $T0 4 + = 
STACK WIN 4 5153 21 0 0 14 4 0 0 1 $T0 .raSearch = $eip $T0 ^ = $esp $T0 4 + =  $23 $T0 4 - ^ = 
STACK WIN 4 3261 2d 5 0 14 0 0 0 1 $T0 $ebp = $eip $T0 4 + ^ = $ebp $T0 ^ = $esp $T0 8 + = 
STACK WIN 4 146f 10 0 0 0 0 0 0 1 $T0 .raSearch = $eip $T0 ^ = $esp $T0 4 + = 
STACK WIN 4 2af4 4a 4 0 0 0 0 0 1 $T0 .raSearch = $eip $T0 ^ = $esp $T0 4 + = 
STACK WIN 4 2af7 3a 1 0 0 4 0 0 1 $T0 .raSearch = $eip $T0 ^ = $esp $T0 4 + =  $23 $T0 4 - ^ = 
STACK WIN 4 2af8 38 0 0 0 8 0 0 1 $T0 .raSearch = $eip $T0 ^ = $esp $T0 4 + =  $23 $T0 4 - ^ =  $24 $T0 8 - ^ = 
STACK WIN 4 4d69 57 a 0 0 0 0 0 1 $T0 .raSearch = $eip $T0 ^ = $esp $T0 4 + = 
STACK WIN 4 4d6c 53 7 0 0 4 0 0 1 $T0 .raSearch = $eip $T0 ^ = $esp $T0 4 + =  $20 $T0 4 - ^ = 
STACK WIN 4 4d73 4b 0 0 0 8 0 0 1 $T0 .raSearch = $eip $T0 ^ = $esp $T0 4 + =  $20 $T0 4 - ^ =  $23 $T0 8 - ^ = 
STACK WIN 4 4d79 2a 0 0 0 c 0 0 1 $T0 .raSearch = $eip $T0 ^ = $esp $T0 4 + =  $20 $T0 4 - ^ =  $23 $T0 8 - ^ =  $24 $T0 12 - ^ = 
STACK WIN 4 2add 17 5 0 4 0 0 0 1 $T0 $ebp = $eip $T0 4 + ^ = $ebp $T0 ^ = $esp $T0 8 + = 
STACK WIN 4 12b8 c2 c 0 4 10 1c 0 1 $T0 $ebp = $eip $T0 4 + ^ = $ebp $T0 ^ = $esp $T0 8 + =  $20 $T0 32 - ^ =  $23 $T0 36 - ^ =  $24 $T0 40 - ^ = 
STACK WIN 4 1371 8 0 0 4 10 1c 0 1 $T0 $ebp = $T2 $esp = $T1 .raSearchStart = $eip $T1 ^ = $ebp $T0 = $esp $T1 4 + = 
STACK WIN 4 31f6 33 9 0 4 0 0 0 1 $T0 $ebp = $eip $T0 4 + ^ = $ebp $T0 ^ = $esp $T0 8 + = 
STACK WIN 4 31ff 28 0 0 4 4 0 0 1 $T0 $ebp = $eip $T0 4 + ^ = $ebp $T0 ^ = $esp $T0 8 + =  $23 $T0 4 - ^ = 
STACK WIN 4 2a1e 5f a 0 c 0 0 0 1 $T0 $ebp = $eip $T0 4 + ^ = $ebp $T0 ^ = $esp $T0 8 + = 
STACK WIN 4 2a27 54 1 0 c 4 0 0 1 $T0 $ebp = $eip $T0 4 + ^ = $ebp $T0 ^ = $esp $T0 8 + =  $23 $T0 4 - ^ = 
STACK WIN 4 2a28 52 0 0 c 8 0 0 1 $T0 $ebp = $eip $T0 4 + ^ = $ebp $T0 ^ = $esp $T0 8 + =  $23 $T0 4 - ^ =  $24 $T0 8 - ^ = 
STACK WIN 4 2312 94 6 0 4 0 0 0 1 $T0 $ebp = $eip $T0 4 + ^ = $ebp $T0 ^ = $esp $T0 8 + = 
STACK WIN 4 2318 8c 0 0 4 4 0 0 1 $T0 $ebp = $eip $T0 4 + ^ = $ebp $T0 ^ = $esp $T0 8 + =  $20 $T0 4 - ^ = 
STACK WIN 4 2321 6c 0 0 4 8 0 0 1 $T0 $ebp = $eip $T0 4 + ^ = $ebp $T0 ^ = $esp $T0 8 + =  $20 $T0 4 - ^ =  $23 $T0 8 - ^ = 
STACK WIN 4 2322 6a 0 0 4 c 0 0 1 $T0 $ebp = $eip $T0 4 + ^ = $ebp $T0 ^ = $esp $T0 8 + =  $20 $T0 4 - ^ =  $23 $T0 8 - ^ =  $24 $T0 12 - ^ = 
STACK WIN 4 2a7d 42 5 0 4 0 0 0 1 $T0 $ebp = $eip $T0 4 + ^ = $ebp $T0 ^ = $esp $T0 8 + = 
STACK WIN 4 3095 13 0 0 0 0 0 0 1 $T0 .raSearch = $eip $T0 ^ = $esp $T0 4 + = 
STACK WIN 4 31bd 39 c 0 0 10 18 0 1 $T0 $ebp = $eip $T0 4 + ^ = $ebp $T0 ^ = $esp $T0 8 + =  $20 $T0 28 - ^ =  $23 $T0 32 - ^ =  $24 $T0 36 - ^ = 
STACK WIN 4 31dd 4 0 0 0 10 18 0 1 $T0 $ebp = $T2 $esp = $T1 .raSearchStart = $eip $T1 ^ = $ebp $T0 = $esp $T1 4 + = 
STACK WIN 4 43a1 11 0 0 4 0 0 0 1 $T0 .raSearch = $eip $T0 ^ = $esp $T0 4 + = 
STACK WIN 4 215a 1e 5 0 4 0 0 0 1 $T0 $ebp = $eip $T0 4 + ^ = $ebp $T0 ^ = $esp $T0 8 + = 
STACK WIN 4 24f8 37 5 0 4 0 0 0 1 $T0 $ebp = $eip $T0 4 + ^ = $ebp $T0 ^ = $esp $T0 8 + = 
STACK WIN 4 2507 1b 0 0 4 4 0 0 1 $T0 $ebp = $eip $T0 4 + ^ = $ebp $T0 ^ = $esp $T0 8 + =  $23 $T0 4 - ^ = 
STACK WIN 4 48e3 d 0 0 0 0 0 0 1 $T0 .raSearch = $eip $T0 ^ = $esp $T0 4 + = 
STACK WIN 4 518d 1a3 c 0 4 10 30 0 1 $T0 $ebp = $eip $T0 4 + ^ = $ebp $T0 ^ = $esp $T0 8 + =  $20 $T0 52 - ^ =  $23 $T0 56 - ^ =  $24 $T0 60 - ^ = 
STACK WIN 4 52ee 14 0 0 4 10 30 0 1 $T0 $ebp = $T2 $esp = $T1 .raSearchStart = $eip $T1 ^ = $ebp $T0 = $esp $T1 4 + = 
STACK WIN 4 254d f 5 0 4 0 0 0 1 $T0 $ebp = $eip $T0 4 + ^ = $ebp $T0 ^ = $esp $T0 8 + = 
STACK WIN 4 37b7 f 5 0 4 0 0 0 1 $T0 $ebp = $eip $T0 4 + ^ = $ebp $T0 ^ = $esp $T0 8 + = 
STACK WIN 4 24e9 f 5 0 4 0 0 0 1 $T0 $ebp = $eip $T0 4 + ^ = $ebp $T0 ^ = $esp $T0 8 + = 
STACK WIN 4 4644 28 5 0 4 0 0 0 1 $T0 $ebp = $eip $T0 4 + ^ = $ebp $T0 ^ = $esp $T0 8 + = 
STACK WIN 4 4c24 b6 f 0 4 0 4 0 1 $T0 $ebp = $eip $T0 4 + ^ = $ebp $T0 ^ = $esp $T0 8 + = 
STACK WIN 4 4c2b ad 8 0 4 4 4 0 1 $T0 $ebp = $eip $T0 4 + ^ = $ebp $T0 ^ = $esp $T0 8 + =  $20 $T0 8 - ^ = 
STACK WIN 4 4c2c ab 7 0 4 8 4 0 1 $T0 $ebp = $eip $T0 4 + ^ = $ebp $T0 ^ = $esp $T0 8 + =  $20 $T0 8 - ^ =  $23 $T0 12 - ^ = 
STACK WIN 4 4c33 a3 0 0 4 c 4 0 1 $T0 $ebp = $eip $T0 4 + ^ = $ebp $T0 ^ = $esp $T0 8 + =  $20 $T0 8 - ^ =  $23 $T0 12 - ^ =  $24 $T0 16 - ^ = 
STACK WIN 4 11e3 31 3 0 0 0 0 0 1 $T0 .raSearch = $eip $T0 ^ = $esp $T0 4 + = 
STACK WIN 4 11e6 2d 0 0 0 4 0 0 1 $T0 .raSearch = $eip $T0 ^ = $esp $T0 4 + =  $23 $T0 4 - ^ = 
STACK WIN 4 5114 3c c 0 4 10 1c 0 1 $T0 $ebp = $eip $T0 4 + ^ = $ebp $T0 ^ = $esp $T0 8 + =  $20 $T0 32 - ^ =  $23 $T0 36 - ^ =  $24 $T0 40 - ^ = 
STACK WIN 4 514a 5 0 0 4 10 1c 0 1 $T0 $ebp = $T2 $esp = $T1 .raSearchStart = $eip $T1 ^ = $ebp $T0 = $esp $T1 4 + = 
STACK WIN 4 3ec0 17 5 0 4 0 0 0 1 $T0 $ebp = $eip $T0 4 + ^ = $ebp $T0 ^ = $esp $T0 8 + = 
STACK WIN 4 28a5 23 4 0 0 0 0 0 1 $T0 .raSearch = $eip $T0 ^ = $esp $T0 4 + = 
STACK WIN 4 28a8 1f 1 0 0 4 0 0 1 $T0 .raSearch = $eip $T0 ^ = $esp $T0 4 + =  $23 $T0 4 - ^ = 
STACK WIN 4 28a9 1d 0 0 0 8 0 0 1 $T0 .raSearch = $eip $T0 ^ = $esp $T0 4 + =  $23 $T0 4 - ^ =  $24 $T0 8 - ^ = 
STACK WIN 4 30a8 35 5 0 4 0 0 0 1 $T0 $ebp = $eip $T0 4 + ^ = $ebp $T0 ^ = $esp $T0 8 + = 
STACK WIN 4 32a9 44 1a 0 8 0 0 0 1 $T0 $ebp = $eip $T0 4 + ^ = $ebp $T0 ^ = $esp $T0 8 + = 
STACK WIN 4 32bb 30 8 0 8 4 0 0 1 $T0 $ebp = $eip $T0 4 + ^ = $ebp $T0 ^ = $esp $T0 8 + =  $20 $T0 4 - ^ = 
STACK WIN 4 32bc 2e 7 0 8 8 0 0 1 $T0 $ebp = $eip $T0 4 + ^ = $ebp $T0 ^ = $esp $T0 8 + =  $20 $T0 4 - ^ =  $23 $T0 8 - ^ = 
STACK WIN 4 32c3 26 0 0 8 c 0 0 1 $T0 $ebp = $eip $T0 4 + ^ = $ebp $T0 ^ = $esp $T0 8 + =  $20 $T0 4 - ^ =  $23 $T0 8 - ^ =  $24 $T0 12 - ^ = 
STACK WIN 4 5651 bc 35 0 4 10 18 0 1 $T0 $ebp = $eip $T0 4 + ^ = $ebp $T0 ^ = $esp $T0 8 + =  $20 $T0 28 - ^ =  $23 $T0 32 - ^ =  $24 $T0 36 - ^ = 
STACK WIN 4 56dc 13 0 0 4 10 18 0 1 $T0 $ebp = $T2 $esp = $T1 .raSearchStart = $eip $T1 ^ = $ebp $T0 = $esp $T1 4 + = 
STACK WIN 4 4076 16c 1e 0 c 0 24 0 1 $T0 $ebp = $eip $T0 4 + ^ = $ebp $T0 ^ = $esp $T0 8 + = 
STACK WIN 4 408c 14f 8 0 c 4 24 0 1 $T0 $ebp = $eip $T0 4 + ^ = $ebp $T0 ^ = $esp $T0 8 + =  $20 $T0 40 - ^ = 
STACK WIN 4 4093 145 1 0 c 8 24 0 1 $T0 $ebp = $eip $T0 4 + ^ = $ebp $T0 ^ = $esp $T0 8 + =  $20 $T0 40 - ^ =  $23 $T0 44 - ^ = 
STACK WIN 4 4094 143 0 0 c c 24 0 1 $T0 $ebp = $eip $T0 4 + ^ = $ebp $T0 ^ = $esp $T0 8 + =  $20 $T0 40 - ^ =  $23 $T0 44 - ^ =  $24 $T0 48 - ^ = 
STACK WIN 4 3943 75 a 0 c 0 0 0 1 $T0 $ebp = $eip $T0 4 + ^ = $ebp $T0 ^ = $esp $T0 8 + = 
STACK WIN 4 3949 22 4 0 c 4 0 0 1 $T0 $ebp = $eip $T0 4 + ^ = $ebp $T0 ^ = $esp $T0 8 + =  $23 $T0 4 - ^ = 
STACK WIN 4 394d 1d 0 0 c 8 0 0 1 $T0 $ebp = $eip $T0 4 + ^ = $ebp $T0 ^ = $esp $T0 8 + =  $23 $T0 4 - ^ =  $24 $T0 8 - ^ = 
STACK WIN 4 241c cd e 0 10 0 0 0 1 $T0 $ebp = $eip $T0 4 + ^ = $ebp $T0 ^ = $esp $T0 8 + = 
STACK WIN 4 2425 17 5 0 10 4 0 0 1 $T0 $ebp = $eip $T0 4 + ^ = $ebp $T0 ^ = $esp $T0 8 + =  $20 $T0 4 - ^ = 
STACK WIN 4 2429 28 1 0 10 8 0 0 1 $T0 $ebp = $eip $T0 4 + ^ = $ebp $T0 ^ = $esp $T0 8 + =  $20 $T0 4 - ^ =  $23 $T0 8 - ^ = 
STACK WIN 4 242a 10 0 0 10 c 0 0 1 $T0 $ebp = $eip $T0 4 + ^ = $ebp $T0 ^ = $esp $T0 8 + =  $20 $T0 4 - ^ =  $23 $T0 8 - ^ =  $24 $T0 12 - ^ = 
STACK WIN 4 328e 1b 5 0 4 0 0 0 1 $T0 $ebp = $eip $T0 4 + ^ = $ebp $T0 ^ = $esp $T0 8 + = 
STACK WIN 4 5454 63 a 0 c 0 0 0 1 $T0 $ebp = $eip $T0 4 + ^ = $ebp $T0 ^ = $esp $T0 8 + = 
STACK WIN 4 545a 22 4 0 c 4 0 0 1 $T0 $ebp = $eip $T0 4 + ^ = $ebp $T0 ^ = $esp $T0 8 + =  $23 $T0 4 - ^ = 
STACK WIN 4 545e 1d 0 0 c 8 0 0 1 $T0 $ebp = $eip $T0 4 + ^ = $ebp $T0 ^ = $esp $T0 8 + =  $23 $T0 4 - ^ =  $24 $T0 8 - ^ = 
STACK WIN 4 3d3b 3f 5 0 4 0 0 0 1 $T0 $ebp = $eip $T0 4 + ^ = $ebp $T0 ^ = $esp $T0 8 + = 
STACK WIN 4 28c8 f 0 0 0 0 0 0 1 $T0 .raSearch = $eip $T0 ^ = $esp $T0 4 + = 
STACK WIN 4 2178 45 7 0 4 0 0 0 1 $T0 $ebp = $eip $T0 4 + ^ = $ebp $T0 ^ = $esp $T0 8 + = 
STACK WIN 4 217e 3d 1 0 4 4 0 0 1 $T0 $ebp = $eip $T0 4 + ^ = $ebp $T0 ^ = $esp $T0 8 + =  $23 $T0 4 - ^ = 
STACK WIN 4 217f 3b 0 0 4 8 0 0 1 $T0 $ebp = $eip $T0 4 + ^ = $ebp $T0 ^ = $esp $T0 8 + =  $23 $T0 4 - ^ =  $24 $T0 8 - ^ = 
STACK WIN 4 210e 4c 7 0 8 0 0 0 1 $T0 $ebp = $eip $T0 4 + ^ = $ebp $T0 ^ = $esp $T0 8 + = 
STACK WIN 4 2114 44 1 0 8 4 0 0 1 $T0 $ebp = $eip $T0 4 + ^ = $ebp $T0 ^ = $esp $T0 8 + =  $23 $T0 4 - ^ = 
STACK WIN 4 2115 42 0 0 8 8 0 0 1 $T0 $ebp = $eip $T0 4 + ^ = $ebp $T0 ^ = $esp $T0 8 + =  $23 $T0 4 - ^ =  $24 $T0 8 - ^ = 
STACK WIN 4 4e39 4e 7 0 8 0 0 0 1 $T0 $ebp = $eip $T0 4 + ^ = $ebp $T0 ^ = $esp $T0 8 + = 
STACK WIN 4 4e3f 46 1 0 8 4 0 0 1 $T0 $ebp = $eip $T0 4 + ^ = $ebp $T0 ^ = $esp $T0 8 + =  $23 $T0 4 - ^ = 
STACK WIN 4 4e40 44 0 0 8 8 0 0 1 $T0 $ebp = $eip $T0 4 + ^ = $ebp $T0 ^ = $esp $T0 8 + =  $23 $T0 4 - ^ =  $24 $T0 8 - ^ = 
STACK WIN 4 2bc5 2f 0 0 0 0 0 0 1 $T0 .raSearch = $eip $T0 ^ = $esp $T0 4 + = 
STACK WIN 4 1f3c 64 6 0 0 0 0 0 1 $T0 .raSearch = $eip $T0 ^ = $esp $T0 4 + = 
STACK WIN 4 1f3f 60 3 0 0 4 0 0 1 $T0 .raSearch = $eip $T0 ^ = $esp $T0 4 + =  $23 $T0 4 - ^ = 
STACK WIN 4 1f40 5e 2 0 0 8 0 0 1 $T0 .raSearch = $eip $T0 ^ = $esp $T0 4 + =  $23 $T0 4 - ^ =  $24 $T0 8 - ^ = 
STACK WIN 4 466c 190 17 0 0 0 51c 0 1 $T0 $ebp = $eip $T0 4 + ^ = $ebp $T0 ^ = $esp $T0 8 + = 
STACK WIN 4 4682 173 1 0 0 4 51c 0 1 $T0 $ebp = $eip $T0 4 + ^ = $ebp $T0 ^ = $esp $T0 8 + =  $20 $T0 1312 - ^ = 
STACK WIN 4 4683 16f 0 0 0 8 51c 0 1 $T0 $ebp = $eip $T0 4 + ^ = $ebp $T0 ^ = $esp $T0 8 + =  $20 $T0 1312 - ^ =  $24 $T0 1316 - ^ = 
STACK WIN 4 3d83 a4 c 0 0 10 1c 0 1 $T0 $ebp = $eip $T0 4 + ^ = $ebp $T0 ^ = $esp $T0 8 + =  $20 $T0 32 - ^ =  $23 $T0 36 - ^ =  $24 $T0 40 - ^ = 
STACK WIN 4 3e1b b 0 0 0 10 1c 0 1 $T0 $ebp = $T2 $esp = $T1 .raSearchStart = $eip $T1 ^ = $ebp $T0 = $esp $T1 4 + = 
STACK WIN 4 48f9 87 b 0 4 0 0 0 1 $T0 $ebp = $eip $T0 4 + ^ = $ebp $T0 ^ = $esp $T0 8 + = 
STACK WIN 4 4902 7a 2 0 4 4 0 0 1 $T0 $ebp = $eip $T0 4 + ^ = $ebp $T0 ^ = $esp $T0 8 + =  $23 $T0 4 - ^ = 
STACK WIN 4 10e5 7c 9 0 0 0 10 0 1 $T0 $ebp = $eip $T0 4 + ^ = $ebp $T0 ^ = $esp $T0 8 + = 
STACK WIN 4 10ee 71 0 0 0 4 10 0 1 $T0 $ebp = $eip $T0 4 + ^ = $ebp $T0 ^ = $esp $T0 8 + =  $20 $T0 20 - ^ = 
STACK WIN 4 3b52 1e9 1b 0 8 0 20 0 1 $T0 $ebp = $eip $T0 4 + ^ = $ebp $T0 ^ = $esp $T0 8 + = 
STACK WIN 4 3b65 1cf 8 0 8 4 20 0 1 $T0 $ebp = $eip $T0 4 + ^ = $ebp $T0 ^ = $esp $T0 8 + =  $20 $T0 36 - ^ = 
STACK WIN 4 3b69 1c8 4 0 8 8 20 0 1 $T0 $ebp = $eip $T0 4 + ^ = $ebp $T0 ^ = $esp $T0 8 + =  $20 $T0 36 - ^ =  $23 $T0 40 - ^ = 
STACK WIN 4 3b6d 1c3 0 0 8 c 20 0 1 $T0 $ebp = $eip $T0 4 + ^ = $ebp $T0 ^ = $esp $T0 8 + =  $20 $T0 36 - ^ =  $23 $T0 40 - ^ =  $24 $T0 44 - ^ = 
STACK WIN 4 39b8 19a c 0 4 10 24 0 1 $T0 $ebp = $eip $T0 4 + ^ = $ebp $T0 ^ = $esp $T0 8 + =  $20 $T0 40 - ^ =  $23 $T0 44 - ^ =  $24 $T0 48 - ^ = 
STACK WIN 4 3b19 8 0 0 4 10 24 0 1 $T0 $ebp = $T2 $esp = $T1 .raSearchStart = $eip $T1 ^ = $ebp $T0 = $esp $T1 4 + = 
STACK WIN 4 1cd3 1e 0 0 0 0 0 0 1 $T0 .raSearch = $eip $T0 ^ = $esp $T0 4 + = 
STACK WIN 4 2638 53 8 0 10 0 10 0 1 $T0 $ebp = $eip $T0 4 + ^ = $ebp $T0 ^ = $esp $T0 8 + = 
STACK WIN 4 1516 18 5 0 4 0 0 0 1 $T0 $ebp = $eip $T0 4 + ^ = $ebp $T0 ^ = $esp $T0 8 + = 
STACK WIN 4 4cda 8f e 0 4 0 0 0 1 $T0 $ebp = $eip $T0 4 + ^ = $ebp $T0 ^ = $esp $T0 8 + = 
STACK WIN 4 4ce0 87 8 0 4 4 0 0 1 $T0 $ebp = $eip $T0 4 + ^ = $ebp $T0 ^ = $esp $T0 8 + =  $20 $T0 4 - ^ = 
STACK WIN 4 4ce1 85 7 0 4 8 0 0 1 $T0 $ebp = $eip $T0 4 + ^ = $ebp $T0 ^ = $esp $T0 8 + =  $20 $T0 4 - ^ =  $23 $T0 8 - ^ = 
STACK WIN 4 4ce8 7d 0 0 4 c 0 0 1 $T0 $ebp = $eip $T0 4 + ^ = $ebp $T0 ^ = $esp $T0 8 + =  $20 $T0 4 - ^ =  $23 $T0 8 - ^ =  $24 $T0 12 - ^ = 
STACK WIN 4 3e27 99 6 0 4 0 0 0 1 $T0 $ebp = $eip $T0 4 + ^ = $ebp $T0 ^ = $esp $T0 8 + = 
STACK WIN 4 3e2d 91 0 0 4 4 0 0 1 $T0 $ebp = $eip $T0 4 + ^ = $ebp $T0 ^ = $esp $T0 8 + =  $24 $T0 4 - ^ = 
STACK WIN 4 3e39 82 0 0 4 8 0 0 1 $T0 $ebp = $eip $T0 4 + ^ = $ebp $T0 ^ = $esp $T0 8 + =  $24 $T0 4 - ^ =  $20 $T0 8 - ^ = 
STACK WIN 4 3e3a 80 0 0 4 c 0 0 1 $T0 $ebp = $eip $T0 4 + ^ = $ebp $T0 ^ = $esp $T0 8 + =  $24 $T0 4 - ^ =  $20 $T0 8 - ^ =  $23 $T0 12 - ^ = 
STACK WIN 4 178e 14b 13 0 4 0 0 0 1 $T0 $ebp = $eip $T0 4 + ^ = $ebp $T0 ^ = $esp $T0 8 + = 
STACK WIN 4 1794 143 d 0 4 4 0 0 1 $T0 $ebp = $eip $T0 4 + ^ = $ebp $T0 ^ = $esp $T0 8 + =  $20 $T0 4 - ^ = 
STACK WIN 4 1795 141 c 0 4 8 0 0 1 $T0 $ebp = $eip $T0 4 + ^ = $ebp $T0 ^ = $esp $T0 8 + =  $20 $T0 4 - ^ =  $23 $T0 8 - ^ = 
STACK WIN 4 17a1 134 0 0 4 c 0 0 1 $T0 $ebp = $eip $T0 4 + ^ = $ebp $T0 ^ = $esp $T0 8 + =  $20 $T0 4 - ^ =  $23 $T0 8 - ^ =  $24 $T0 12 - ^ = 
STACK WIN 4 3170 4d 6 0 8 0 0 0 1 $T0 $ebp = $eip $T0 4 + ^ = $ebp $T0 ^ = $esp $T0 8 + = 
STACK WIN 4 3176 45 0 0 8 4 0 0 1 $T0 $ebp = $eip $T0 4 + ^ = $ebp $T0 ^ = $esp $T0 8 + =  $24 $T0 4 - ^ = 
STACK WIN 4 3185 31 0 0 8 8 0 0 1 $T0 $ebp = $eip $T0 4 + ^ = $ebp $T0 ^ = $esp $T0 8 + =  $24 $T0 4 - ^ =  $23 $T0 8 - ^ = 
STACK WIN 4 4dc0 79 c 0 0 10 1c 0 1 $T0 $ebp = $eip $T0 4 + ^ = $ebp $T0 ^ = $esp $T0 8 + =  $20 $T0 32 - ^ =  $23 $T0 36 - ^ =  $24 $T0 40 - ^ = 
STACK WIN 4 4e2d 8 0 0 0 10 1c 0 1 $T0 $ebp = $T2 $esp = $T1 .raSearchStart = $eip $T1 ^ = $ebp $T0 = $esp $T1 4 + = 
STACK WIN 4 344e 8 0 0 4 0 0 0 1 $T0 .raSearch = $eip $T0 ^ = $esp $T0 4 + = 
STACK WIN 4 2862 33 0 0 0 0 0 0 1 $T0 .raSearch = $eip $T0 ^ = $esp $T0 4 + = 
STACK WIN 4 206a 20 5 0 4 0 0 0 1 $T0 $ebp = $eip $T0 4 + ^ = $ebp $T0 ^ = $esp $T0 8 + = 
STACK WIN 4 4e87 33 5 0 4 0 0 0 1 $T0 $ebp = $eip $T0 4 + ^ = $ebp $T0 ^ = $esp $T0 8 + = 
STACK WIN 4 1466 9 0 0 0 0 0 0 1 $T0 .raSearch = $eip $T0 ^ = $esp $T0 4 + = 
STACK WIN 4 1672 106 b 0 0 0 328 0 1 $T0 $ebp = $eip $T0 4 + ^ = $ebp $T0 ^ = $esp $T0 8 + = 
STACK WIN 4 1161 82 5 0 c 0 0 0 1 $T0 $ebp = $eip $T0 4 + ^ = $ebp $T0 ^ = $esp $T0 8 + = 
STACK WIN 4 118d 54 0 0 c 4 0 0 1 $T0 $ebp = $eip $T0 4 + ^ = $ebp $T0 ^ = $esp $T0 8 + =  $23 $T0 4 - ^ = 
STACK WIN 4 5067 ad 5 0 8 0 0 0 1 $T0 $ebp = $eip $T0 4 + ^ = $ebp $T0 ^ = $esp $T0 8 + = 
STACK WIN 4 507e 62 0 0 8 4 0 0 1 $T0 $ebp = $eip $T0 4 + ^ = $ebp $T0 ^ = $esp $T0 8 + =  $23 $T0 4 - ^ = 
STACK WIN 4 5093 4c 0 0 8 8 0 0 1 $T0 $ebp = $eip $T0 4 + ^ = $ebp $T0 ^ = $esp $T0 8 + =  $23 $T0 4 - ^ =  $24 $T0 8 - ^ = 
STACK WIN 4 1904 1e7 1a 0 24 c 10 0 1 $T0 $ebp = $eip $T0 4 + ^ = $ebp $T0 ^ = $esp $T0 8 + =  $20 $T0 20 - ^ =  $23 $T0 24 - ^ =  $24 $T0 28 - ^ = 
STACK WIN 4 22a3 46 8 0 24 0 10 0 1 $T0 $ebp = $eip $T0 4 + ^ = $ebp $T0 ^ = $esp $T0 8 + = 
STACK WIN 4 47fc e7 16 0 1c c 8 0 1 $T0 $ebp = $eip $T0 4 + ^ = $ebp $T0 ^ = $esp $T0 8 + =  $20 $T0 12 - ^ =  $23 $T0 16 - ^ =  $24 $T0 20 - ^ = 
STACK WIN 4 152e 40 8 0 20 0 10 0 1 $T0 $ebp = $eip $T0 4 + ^ = $ebp $T0 ^ = $esp $T0 8 + = 
STACK WIN 4 2bf4 377 6 0 4 0 0 0 1 $T0 $ebp = $eip $T0 4 + ^ = $ebp $T0 ^ = $esp $T0 8 + = 
STACK WIN 4 2bfa 36f 0 0 4 4 0 0 1 $T0 $ebp = $eip $T0 4 + ^ = $ebp $T0 ^ = $esp $T0 8 + =  $23 $T0 4 - ^ = 
STACK WIN 4 30f1 69 6 0 4 0 0 0 1 $T0 $ebp = $eip $T0 4 + ^ = $ebp $T0 ^ = $esp $T0 8 + = 
STACK WIN 4 30f7 61 0 0 4 4 0 0 1 $T0 $ebp = $eip $T0 4 + ^ = $ebp $T0 ^ = $esp $T0 8 + =  $23 $T0 4 - ^ = 
STACK WIN 4 4f45 fe 6 0 4 0 0 0 1 $T0 $ebp = $eip $T0 4 + ^ = $ebp $T0 ^ = $esp $T0 8 + = 
STACK WIN 4 4f4b f6 0 0 4 4 0 0 1 $T0 $ebp = $eip $T0 4 + ^ = $ebp $T0 ^ = $esp $T0 8 + =  $23 $T0 4 - ^ = 
STACK WIN 4 1000 ba 0 0 c 0 0 0 1 $T0 .raSearch = $eip $T0 ^ = $esp $T0 4 + = 
STACK WIN 4 2a0e 10 0 0 0 0 0 0 1 $T0 .raSearch = $eip $T0 ^ = $esp $T0 4 + = 
STACK WIN 4 3840 103 0 0 c 0 0 0 1 $T0 .raSearch = $eip $T0 ^ = $esp $T0 4 + = 
STACK WIN 0 3410 14 0 0 0 0 0 0 0 0
STACK WIN 0 5397 9 0 0 0 0 0 0 0 0
STACK WIN 0 2f6b 88 0 0 8 0 0 0 0 0
STACK WIN 0 462f f 0 0 0 0 0 0 0 0
STACK WIN 0 543c f 0 0 0 0 0 0 0 0
STACK WIN 0 544b 9 0 0 0 0 0 0 0 0
STACK WIN 0 4389 c 0 0 0 0 0 0 0 0
STACK WIN 0 4395 c 0 0 0 0 0 0 0 0
STACK WIN 0 1371 9 0 0 0 0 0 0 0 0
STACK WIN 0 4eba 8b 0 0 4 0 0 0 0 0
STACK WIN 0 43b2 90 3 0 c c 0 0 0 0
STACK WIN 0 4442 46 0 0 10 4 0 0 0 1
STACK WIN 0 44a4 17 4 0 0 10 0 0 0 1
STACK WIN 0 44bb 19 0 0 0 0 0 0 0 0
STACK WIN 0 44ed 17 1 0 8 4 0 0 0 1
STACK WIN 0 31dd 4 0 0 0 0 0 0 0 0
STACK WIN 0 52ee 15 0 0 0 0 0 0 0 0
STACK WIN 0 514a 6 0 0 0 0 0 0 0 0
STACK WIN 0 56dc 13 0 0 0 0 0 0 0 0
STACK WIN 0 3e1b c 0 0 0 0 0 0 0 0
STACK WIN 0 3b19 9 0 0 0 0 0 0 0 0
STACK WIN 0 4e2d 9 0 0 0 0 0 0 0 0
STACK WIN 0 208a 7a 0 0 c 0 0 0 0 0
STACK WIN 0 1223 95 0 0 10 0 4 0 0 0
STACK WIN 0 293c 84 3 0 8 c 0 0 0 0
STACK WIN 0 29c0 23 0 0 0 0 0 0 0 0
STACK WIN 0 2a0b 3 0 0 0 0 0 0 0 0
STACK WIN 0 23a6 1a 0 0 10 0 0 0 0 0
STACK WIN 0 23c0 1a 0 0 10 0 4 0 0 0
