__ZN3WTF10fastMallocEm
__ZN3WTF20TCMalloc_ThreadCache10InitModuleEv
__ZN3WTFL15InitSizeClassesEv
__Z20TCMalloc_SystemAllocmPmm
__ZN3WTFL13MetaDataAllocEm
__ZN3WTF17TCMalloc_PageHeap19initializeScavengerEv
__ZN3WTF20TCMalloc_ThreadCache22CreateCacheIfNecessaryEv
__ZN3WTF25TCMalloc_Central_FreeList11RemoveRangeEPPvS2_Pi
__ZN3WTF25TCMalloc_Central_FreeList18FetchFromSpansSafeEv
__ZN3WTF17TCMalloc_PageHeap10AllocLargeEm
__ZN3WTF17TCMalloc_PageHeap8GrowHeapEm
__ZN3WTF17TCMalloc_PageHeap6DeleteEPNS_4SpanE
__ZN3WTF8fastFreeEPv
__ZN3WTF19initializeThreadingEv
__ZN3WTF36lockAtomicallyInitializedStaticMutexEv
__ZN3WTF38unlockAtomicallyInitializedStaticMutexEv
__ZN3JSC19initializeThreadingEv
__ZN3JSCL23initializeThreadingOnceEv
__ZN3WTF13WTFThreadDataC1Ev
__ZN3JSC17initializeUStringEv
__ZN7WebCore10StringImpl5emptyEv
__ZN3JSC12JSGlobalData10storeVPtrsEv
__ZN3JSC9StructureC1ENS_7JSValueERKNS_8TypeInfoEj
__ZN3JSC7JSArrayC1EN3WTF17NonNullPassRefPtrINS_9StructureEEE
__ZN3WTF16fastZeroedMallocEm
__ZN3JSC7JSArrayD1Ev
__ZN3JSC7JSArrayD2Ev
__ZN3JSC9StructureD1Ev
__ZN3JSC9StructureD2Ev
__ZN3JSC11JSByteArray15createStructureENS_7JSValueE
__ZN3JSC11JSByteArrayD1Ev
__ZN3JSC8JSStringD1Ev
__ZN3JSC10JSFunctionC1EN3WTF17NonNullPassRefPtrINS_9StructureEEE
__ZN3JSC10JSFunctionC2EN3WTF17NonNullPassRefPtrINS_9StructureEEE
__ZN3JSC10JSFunctionD1Ev
__ZN3JSC10JSFunctionD2Ev
__ZN3JSC18VPtrHackExecutableD0Ev
__ZN3WTF5MutexC1Ev
__ZN3WTF15initializeDatesEv
__ZN3WTF11currentTimeEv
__ZN3WTF8msToYearEd
__ZN3WTF39initializeMainThreadToProcessMainThreadEv
__ZN3WTFL43initializeMainThreadToProcessMainThreadOnceEv
__ZN3WTF47initializeMainThreadToProcessMainThreadPlatformEv
__ZN3WTF20initializeMainThreadEv
__ZN3WTF15ThreadConditionC1Ev
__ZN7WebCore10StringImpl6createEPKtj
__ZN7WebCore10StringImpl19createUninitializedEjRPt
__ZN3WTF5Mutex4lockEv
__ZN3WTF5Mutex6unlockEv
__ZNK7WebCore6String17crossThreadStringEv
__ZN7WebCore10StringImpl17crossThreadStringEv
__ZN7WebCore10StringImpl12sharedBufferEv
__ZN7WebCore6StringC1EPKc
__ZN7WebCore10StringImpl6createEPKc
__ZN7WebCore10StringImpl6createEPKcj
__ZNK7WebCore6String14threadsafeCopyEv
__ZNK7WebCore10StringImpl14threadsafeCopyEv
__ZN7WebCore10StringImpl8endsWithEPS0_b
__ZN7WebCore10StringImpl4findEPS0_ib
__ZN7WebCore10StringImplD1Ev
__ZN7WebCore10StringImplD2Ev
__ZN7WebCoreplERKNS_6StringEPKc
__ZN7WebCore6String6appendERKS0_
__ZN7WebCoreplERKNS_6StringES2_
__ZN3WTF12createThreadEPFPvS0_ES0_PKc
__ZN3WTF20createThreadInternalEPFPvS0_ES0_PKc
__ZN3WTFL35establishIdentifierForPthreadHandleERKP17_opaque_pthread_t
__ZN3WTF9HashTableIjSt4pairIjP17_opaque_pthread_tENS_18PairFirstExtractorIS4_EENS_7IntHashIjEENS_14PairHashTraitsINS_10HashTrai
__ZN3WTFL16threadEntryPointEPv
__ZN3WTF31initializeCurrentThreadInternalEPKc
__ZN3WTF20ThreadIdentifierData10initializeEj
__ZN3WTF20ThreadIdentifierData23initializeKeyOnceHelperEv
__ZN3WTF5MutexD1Ev
__ZN3WTF12isMainThreadEv
__ZN3WTF7CString16newUninitializedEmRPc
__ZNK3WTF7CString4dataEv
__ZN3WTF14FastMallocZone4sizeEP14_malloc_zone_tPKv
__ZN7WebCore6String29charactersWithNullTerminationEv
__ZN7WebCore10StringImpl34createWithTerminatingNullCharacterERKS0_
__ZN3WTF13currentThreadEv
__ZN3WTF20ThreadIdentifierData10identifierEv
__ZNK7WebCore6String15stripWhiteSpaceEv
__ZN7WebCore10StringImpl15stripWhiteSpaceEv
__ZN7WebCore5equalEPKNS_10StringImplES2_
__ZN7WebCoreplEPKcRKNS_6StringE
__ZN7WebCore6StringC1EPKt
__ZN7WebCore6StringC2EPKt
__ZNK7WebCore6String7isEmptyEv
__ZN3WTF16callOnMainThreadEPFvPvES0_
__ZN3WTF5DequeINS_19FunctionWithContextEE14expandCapacityEv
__ZN3WTF37scheduleDispatchFunctionsOnMainThreadEv
__ZN3WTF15ThreadCondition4waitERNS_5MutexE
__ZN3WTF17TCMalloc_PageHeap3NewEm
__ZN7WebCore12AtomicString4initEv
__ZN3WTF7HashSetIPN7WebCore10StringImplENS1_10StringHashENS_10HashTraitsIS3_EEE3addIPKcNS1_17CStringTranslatorEEESt4pairINS_24H
__ZN3WTF9HashTableIPN7WebCore10StringImplES3_NS_17IdentityExtractorIS3_EENS1_10StringHashENS_10HashTraitsIS3_EES8_E6rehashEi
__ZN7WebCore12AtomicString3addEPKc
__ZN7WebCore12AtomicString3addEPNS_10StringImplE
__ZN7WebCore6StringC1EPKcj
__ZN7WebCore5equalEPKNS_10StringImplEPKc
__ZNK7WebCore6String6lengthEv
__ZNK7WebCore6StringixEj
__ZNK7WebCore6String9substringEjj
__ZN7WebCore10StringImpl9substringEjj
__ZNK7WebCore6String5lowerEv
__ZN7WebCore10StringImpl5lowerEv
__ZN7WebCore10StringImpl4findEti
__ZNK7WebCore6String10charactersEv
__ZN7WebCore17equalIgnoringCaseEPNS_10StringImplES1_
__ZN7WebCore17equalIgnoringCaseEPNS_10StringImplEPKc
__ZN7WebCore12AtomicString3addEPKtj
__ZN3WTF7HashSetIPN7WebCore10StringImplENS1_10StringHashENS_10HashTraitsIS3_EEE3addINS1_11UCharBufferENS1_21UCharBufferTranslat
__ZN7WebCore18charactersToDoubleEPKtmPb
__ZN3WTF6strtodEPKcPPc
__ZN3WTF15ThreadCondition9broadcastEv
__ZN3WTF15ThreadCondition6signalEv
__ZN7WebCore12AtomicString6removeEPNS_10StringImplE
__ZN3JSC12JSGlobalData12createLeakedENS_15ThreadStackTypeE
__ZN3JSC9Structure18startIgnoringLeaksEv
__ZN3JSC12JSGlobalDataC2ENS0_14GlobalDataTypeENS_15ThreadStackTypeE
__ZN3JSC17CommonIdentifiersC1EPNS_12JSGlobalDataE
__ZN3JSC17CommonIdentifiersC2EPNS_12JSGlobalDataE
__ZN3JSC10Identifier3addEPNS_12JSGlobalDataEPKc
__ZN3WTF7HashSetIPN7WebCore10StringImplENS1_10StringHashENS_10HashTraitsIS3_EEE3addIPKcN3JSC27IdentifierCStringTranslatorEEESt4
__ZN3WTF9HashTableIPN7WebCore10StringImplES3_NS_17IdentityExtractorIS3_EENS1_10StringHashENS_10HashTraitsIS3_EES8_E6expandEv
__ZN3WTF9HashTableIPKcSt4pairIS2_NS_6RefPtrIN7WebCore10StringImplEEEENS_18PairFirstExtractorIS8_EENS_7PtrHashIS2_EENS_14PairHas
__ZN3JSC10IdentifierC1EPNS_12JSGlobalDataEPKc
__ZN3JSC12SmallStringsC1Ev
__ZN3JSC19ExecutableAllocator17intializePageSizeEv
__ZN3JSC14ExecutablePool11systemAllocEm
__ZN3JSC5LexerC1EPNS_12JSGlobalDataE
__ZN3JSC11ParserArenaC1Ev
__ZN3JSC11ParserArenaC2Ev
__ZN3JSC11InterpreterC1Ev
__ZN3JSC11InterpreterC2Ev
__ZN3JSC9JITThunksC1EPNS_12JSGlobalDataE
__ZN3JSC3JITC1EPNS_12JSGlobalDataEPNS_9CodeBlockE
__ZN3JSC3JITC2EPNS_12JSGlobalDataEPNS_9CodeBlockE
__ZN3JSC3JIT35privateCompileCTIMachineTrampolinesEPN3WTF6RefPtrINS_14ExecutablePoolEEEPNS_12JSGlobalDataEPNS_19TrampolineStruct
__ZN3JSC20MacroAssemblerX86_6413branchTestPtrENS_23MacroAssemblerX86Common9ConditionENS_12X86Registers10RegisterIDES4_
__ZN3JSC12X86Assembler23X86InstructionFormatter11oneByteOp64ENS0_15OneByteOpcodeIDEiNS_12X86Registers10RegisterIDE
__ZN3JSC12X86Assembler3jCCENS0_9ConditionE
__ZN3JSC12X86Assembler23X86InstructionFormatter11oneByteOp64ENS0_15OneByteOpcodeIDEiNS_12X86Registers10RegisterIDEi
__ZN3JSC12X86Assembler23X86InstructionFormatter9oneByteOpENS0_15OneByteOpcodeIDEiNS_12X86Registers10RegisterIDEi
__ZN3JSC12X86Assembler23X86InstructionFormatter11memoryModRMEiNS_12X86Registers10RegisterIDEi
__ZN3JSC12X86Assembler23X86InstructionFormatter9oneByteOpENS0_15OneByteOpcodeIDEiNS_12X86Registers10RegisterIDE
__ZN3JSC15AssemblerBuffer11ensureSpaceEi
__ZN3JSC20MacroAssemblerX86_644callEv
__ZN3JSC20MacroAssemblerX86_647loadPtrENS_22AbstractMacroAssemblerINS_12X86AssemblerEE15ImplicitAddressENS_12X86Registers10Regi
__ZN3JSC12X86Assembler23X86InstructionFormatter9oneByteOpENS0_15OneByteOpcodeIDENS_12X86Registers10RegisterIDE
__ZN3JSC3JIT32compileOpCallInitializeCallFrameEv
__ZN3JSC15AssemblerBuffer4growEi
__ZN3WTF11fastReallocEPvm
__ZN3WTF11fastReallocILb1EEEPvS1_m
__ZN3WTF10RefCountedIN3JSC14ExecutablePoolEE5derefEv
__ZN3JSC14TimeoutCheckerC1Ev
__ZN3JSC4HeapC1EPNS_12JSGlobalDataE
__ZN3JSC4Heap13allocateBlockEv
__ZN3JSC9MarkStack18initializePagesizeEv
__ZN3JSC9MarkStack13allocateStackEm
__ZN3JSC27startProfilerServerIfNeededEv
+[ProfilerServer sharedProfileServer]
-[ProfilerServer init]
__ZN3JSC9Structure17stopIgnoringLeaksEv
__ZNK7WebCore6String6latin1Ev
__ZNK3WTF7CString6lengthEv
__ZN7WebCore10StringImpl22containsOnlyWhitespaceEv
__ZN7WebCore12AtomicString3addEPKt
__ZN7WebCore10StringImpl11reverseFindEPS0_ib
__ZN7WebCore10StringImpl5adoptERNS_12StringBufferE
__ZNK7WebCore6String5splitEtRN3WTF6VectorIS0_Lm0EEE
__ZNK7WebCore6String5splitERKS0_bRN3WTF6VectorIS0_Lm0EEE
-[WTFMainThreadCaller call]
__ZN3WTF31dispatchFunctionsFromMainThreadEv
__ZN3WTF15ThreadCondition9timedWaitERNS_5MutexEd
__ZN3WTF14FastMallocZone9forceLockEP14_malloc_zone_t
__ZN3WTF14FastMallocZone11forceUnlockEP14_malloc_zone_t
__ZN3WTF20TCMalloc_ThreadCache18DestroyThreadCacheEPv
__ZN3WTF20TCMalloc_ThreadCache11DeleteCacheEPS0_
__ZN3WTF25TCMalloc_Central_FreeList11InsertRangeEPvS1_i
__ZN3WTF25TCMalloc_Central_FreeList18ReleaseListToSpansEPv
__ZN3WTF20ThreadIdentifierData8destructEPv
__ZN3WTF31clearPthreadHandleForIdentifierEj
__ZN3WTF12detachThreadEj
__ZN3WTFL26pthreadHandleForIdentifierEj
__ZN7WebCore6StringC1EPKtj
__ZL30calculateCompiledPatternLengthPKti24JSRegExpIgnoreCaseOptionR11CompileDataR9ErrorCode
__ZL11checkEscapePPKtS0_P9ErrorCodeib
__ZL13compileBranchiPiPPhPPKtS3_P9ErrorCodeS_S_R11CompileData
__ZL5matchPKtPKhiR9MatchData
__ZN7WebCore6String6formatEPKcz
__ZNK7WebCore6String19characterStartingAtEj
__ZN7WebCore10StringImpl19characterStartingAtEj
__ZN3WTF25TCMalloc_Central_FreeList11ShrinkCacheEib
__ZNK7WebCore6String16removeCharactersEPFbtE
__ZN7WebCore10StringImpl16removeCharactersEPFbtE
__ZN7WebCore10StringImpl7replaceEtt
__ZNK7WebCore6String4utf8Ev
__ZN3WTF7Unicode18convertUTF16ToUTF8EPPKtS2_PPcS4_b
__ZN3WTF7CStringC1EPKcj
__ZN3WTF7CString4initEPKcj
__ZN7WebCore10StringImpl4findEPFbtEi
__ZN3JSC4Heap8allocateEm
__ZN3JSC6JSCellD1Ev
__ZN3JSC4Heap7protectENS_7JSValueE
__ZN3WTF9HashTableIPN3JSC6JSCellESt4pairIS3_jENS_18PairFirstExtractorIS5_EENS_7PtrHashIS3_EENS_14PairHashTraitsINS_10HashTraits
__ZN3JSC14JSGlobalObjectnwEmPNS_12JSGlobalDataE
__ZN3JSC14JSGlobalObject4initEPNS_8JSObjectE
__ZN3JSC14JSGlobalObject5resetENS_7JSValueE
__ZN3JSC17FunctionPrototypeC1EPNS_9ExecStateEN3WTF17NonNullPassRefPtrINS_9StructureEEE
__ZN3JSC17FunctionPrototypeC2EPNS_9ExecStateEN3WTF17NonNullPassRefPtrINS_9StructureEEE
__ZN3JSC16InternalFunctionC2EPNS_12JSGlobalDataEN3WTF17NonNullPassRefPtrINS_9StructureEEERKNS_10IdentifierE
__ZN3JSC7UStringC1EPKc
__ZN3JSC12SmallStrings17createEmptyStringEPNS_12JSGlobalDataE
__ZN3JSC8JSObject17putDirectInternalERKNS_10IdentifierENS_7JSValueEjbRNS_15PutPropertySlotEPNS_6JSCellE
__ZN3JSC9Structure40addPropertyTransitionToExistingStructureEPS0_RKNS_10IdentifierEjPNS_6JSCellERm
__ZN3JSC9Structure3getEPKN7WebCore10StringImplERjRPNS_6JSCellE
__ZN3JSC9Structure21addPropertyTransitionEPS0_RKNS_10IdentifierEjPNS_6JSCellERm
__ZN3JSC9Structure3putERKNS_10IdentifierEjPNS_6JSCellE
__ZN3JSC9Structure28addPropertyWithoutTransitionERKNS_10IdentifierEjPNS_6JSCellE
__ZN3JSC17FunctionPrototype21addFunctionPropertiesEPNS_9ExecStateEPNS_9StructureEPPNS_10JSFunctionES7_
__ZN3JSC10JSFunctionC1EPNS_9ExecStateEN3WTF17NonNullPassRefPtrINS_9StructureEEEiRKNS_10IdentifierEPFNS_7JSValueES2_PNS_8JSObjec
__ZN3JSC10JSFunctionC2EPNS_9ExecStateEN3WTF17NonNullPassRefPtrINS_9StructureEEEiRKNS_10IdentifierEPFNS_7JSValueES2_PNS_8JSObjec
__ZN3JSC8JSObject34putDirectFunctionWithoutTransitionEPNS_9ExecStateEPNS_16InternalFunctionEj
__ZN3JSC16InternalFunction4nameEPNS_9ExecStateE
__ZN3JSC15ObjectPrototypeC1EPNS_9ExecStateEN3WTF17NonNullPassRefPtrINS_9StructureEEEPS5_
__ZN3JSC15ObjectPrototypeC2EPNS_9ExecStateEN3WTF17NonNullPassRefPtrINS_9StructureEEEPS5_
__ZN3JSC9Structure26rehashPropertyMapHashTableEj
__ZN3JSC8JSObject17createInheritorIDEv
__ZN3JSC14ArrayPrototypeC1EN3WTF17NonNullPassRefPtrINS_9StructureEEE
__ZN3JSC7JSArrayC2EN3WTF17NonNullPassRefPtrINS_9StructureEEE
__ZN3JSC15StringPrototypeC1EPNS_9ExecStateEN3WTF17NonNullPassRefPtrINS_9StructureEEE
__ZN3JSC15StringPrototypeC2EPNS_9ExecStateEN3WTF17NonNullPassRefPtrINS_9StructureEEE
__ZN3JSC12StringObjectC2EPNS_9ExecStateEN3WTF17NonNullPassRefPtrINS_9StructureEEE
__ZN3JSC16BooleanPrototypeC1EPNS_9ExecStateEN3WTF17NonNullPassRefPtrINS_9StructureEEEPS5_
__ZN3JSC16BooleanPrototypeC2EPNS_9ExecStateEN3WTF17NonNullPassRefPtrINS_9StructureEEEPS5_
__ZN3JSC13BooleanObjectC2EN3WTF17NonNullPassRefPtrINS_9StructureEEE
__ZN3JSC15NumberPrototypeC1EPNS_9ExecStateEN3WTF17NonNullPassRefPtrINS_9StructureEEEPS5_
__ZN3JSC15NumberPrototypeC2EPNS_9ExecStateEN3WTF17NonNullPassRefPtrINS_9StructureEEEPS5_
__ZN3JSC12NumberObjectC2EN3WTF17NonNullPassRefPtrINS_9StructureEEE
__ZN3JSC13DatePrototypeC1EPNS_9ExecStateEN3WTF17NonNullPassRefPtrINS_9StructureEEE
__ZN3JSC12DateInstanceC2EPNS_9ExecStateEN3WTF17NonNullPassRefPtrINS_9StructureEEE
__ZN3JSC15RegExpPrototypeC1EPNS_9ExecStateEN3WTF17NonNullPassRefPtrINS_9StructureEEEPS5_
__ZN3JSC15RegExpPrototypeC2EPNS_9ExecStateEN3WTF17NonNullPassRefPtrINS_9StructureEEEPS5_
__ZN3JSC14ErrorPrototypeC1EPNS_9ExecStateEN3WTF17NonNullPassRefPtrINS_9StructureEEEPS5_
__ZN3JSC14ErrorPrototypeC2EPNS_9ExecStateEN3WTF17NonNullPassRefPtrINS_9StructureEEEPS5_
__ZN3JSC13ErrorInstanceC2EN3WTF17NonNullPassRefPtrINS_9StructureEEE
__ZN3JSC20NativeErrorPrototypeC1EPNS_9ExecStateEN3WTF17NonNullPassRefPtrINS_9StructureEEERKNS_7UStringES9_
__ZN3JSC20NativeErrorPrototypeC2EPNS_9ExecStateEN3WTF17NonNullPassRefPtrINS_9StructureEEERKNS_7UStringES9_
__ZN3JSC17ObjectConstructorC1EPNS_9ExecStateEN3WTF17NonNullPassRefPtrINS_9StructureEEEPNS_15ObjectPrototypeEPS5_
__ZN3JSC17ObjectConstructorC2EPNS_9ExecStateEN3WTF17NonNullPassRefPtrINS_9StructureEEEPNS_15ObjectPrototypeEPS5_
__ZN3JSC10Identifier3addEPNS_9ExecStateEPKc
__ZN3JSC19FunctionConstructorC1EPNS_9ExecStateEN3WTF17NonNullPassRefPtrINS_9StructureEEEPNS_17FunctionPrototypeE
__ZN3JSC19FunctionConstructorC2EPNS_9ExecStateEN3WTF17NonNullPassRefPtrINS_9StructureEEEPNS_17FunctionPrototypeE
__ZNK3JSC16InternalFunction9classInfoEv
__ZN3JSC16ArrayConstructorC1EPNS_9ExecStateEN3WTF17NonNullPassRefPtrINS_9StructureEEEPNS_14ArrayPrototypeEPS5_
__ZN3JSC16ArrayConstructorC2EPNS_9ExecStateEN3WTF17NonNullPassRefPtrINS_9StructureEEEPNS_14ArrayPrototypeEPS5_
__ZNK3JSC14ArrayPrototype9classInfoEv
__ZN3JSC17StringConstructorC1EPNS_9ExecStateEN3WTF17NonNullPassRefPtrINS_9StructureEEEPS5_PNS_15StringPrototypeE
__ZN3JSC17StringConstructorC2EPNS_9ExecStateEN3WTF17NonNullPassRefPtrINS_9StructureEEEPS5_PNS_15StringPrototypeE
__ZNK3JSC15StringPrototype9classInfoEv
__ZN3JSC9JITThunks16specializedThunkEPNS_12JSGlobalDataEPFN3WTF10PassRefPtrINS_16NativeExecutableEEES2_PNS_14ExecutablePoolEE
__ZN3JSC26fromCharCodeThunkGeneratorEPNS_12JSGlobalDataEPNS_14ExecutablePoolE
__ZN3JSC22AbstractMacroAssemblerINS_12X86AssemblerEE8JumpList6appendENS2_4JumpE
__ZN3JSCL12charToStringERNS_19SpecializedThunkJITEPNS_12JSGlobalDataENS_12X86Registers10RegisterIDES5_S5_
__ZN3JSC19SpecializedThunkJIT8finalizeEv
__ZN3JSC10JSFunctionC1EPNS_9ExecStateEN3WTF17NonNullPassRefPtrINS_9StructureEEEiRKNS_10IdentifierEPNS_16NativeExecutableEPFNS_7
__ZN3JSC10JSFunctionC2EPNS_9ExecStateEN3WTF17NonNullPassRefPtrINS_9StructureEEEiRKNS_10IdentifierEPNS_16NativeExecutableEPFNS_7
__ZN3JSC8JSObject23allocatePropertyStorageEmm
__ZN3JSC18BooleanConstructorC1EPNS_9ExecStateEN3WTF17NonNullPassRefPtrINS_9StructureEEEPNS_16BooleanPrototypeE
__ZN3JSC18BooleanConstructorC2EPNS_9ExecStateEN3WTF17NonNullPassRefPtrINS_9StructureEEEPNS_16BooleanPrototypeE
__ZNK3JSC13BooleanObject9classInfoEv
__ZN3JSC17NumberConstructorC1EPNS_9ExecStateEN3WTF17NonNullPassRefPtrINS_9StructureEEEPNS_15NumberPrototypeE
__ZN3JSC17NumberConstructorC2EPNS_9ExecStateEN3WTF17NonNullPassRefPtrINS_9StructureEEEPNS_15NumberPrototypeE
__ZN3JSC15DateConstructorC1EPNS_9ExecStateEN3WTF17NonNullPassRefPtrINS_9StructureEEEPS5_PNS_13DatePrototypeE
__ZN3JSC15DateConstructorC2EPNS_9ExecStateEN3WTF17NonNullPassRefPtrINS_9StructureEEEPS5_PNS_13DatePrototypeE
__ZNK3JSC13DatePrototype9classInfoEv
__ZN3JSC17RegExpConstructorC1EPNS_9ExecStateEN3WTF17NonNullPassRefPtrINS_9StructureEEEPNS_15RegExpPrototypeE
__ZN3JSC17RegExpConstructorC2EPNS_9ExecStateEN3WTF17NonNullPassRefPtrINS_9StructureEEEPNS_15RegExpPrototypeE
__ZN3JSC16ErrorConstructorC1EPNS_9ExecStateEN3WTF17NonNullPassRefPtrINS_9StructureEEEPNS_14ErrorPrototypeE
__ZN3JSC16ErrorConstructorC2EPNS_9ExecStateEN3WTF17NonNullPassRefPtrINS_9StructureEEEPNS_14ErrorPrototypeE
__ZNK3JSC13ErrorInstance9classInfoEv
__ZN3JSC22NativeErrorConstructorC1EPNS_9ExecStateEN3WTF17NonNullPassRefPtrINS_9StructureEEEPNS_20NativeErrorPrototypeE
__ZN3JSC22NativeErrorConstructorC2EPNS_9ExecStateEN3WTF17NonNullPassRefPtrINS_9StructureEEEPNS_20NativeErrorPrototypeE
__ZNK3JSC6JSCell9getStringEPNS_9ExecStateE
__ZN3JSC10Identifier11addSlowCaseEPNS_9ExecStateEPN7WebCore10StringImplE
__ZN3WTF7HashSetIPN7WebCore10StringImplENS1_10StringHashENS_10HashTraitsIS3_EEE3addERKS3_
__ZN3JSC10MathObjectC1EPNS_9ExecStateEN3WTF17NonNullPassRefPtrINS_9StructureEEE
__ZN3JSC10MathObjectC2EPNS_9ExecStateEN3WTF17NonNullPassRefPtrINS_9StructureEEE
__ZN3JSC12SmallStrings24singleCharacterStringRepEh
__ZN3JSC19SmallStringsStorageC2Ev
__ZN3JSC18GlobalEvalFunctionC1EPNS_9ExecStateEN3WTF17NonNullPassRefPtrINS_9StructureEEEiRKNS_10IdentifierEPFNS_7JSValueES2_PNS_
__ZN3JSC17PrototypeFunctionC2EPNS_9ExecStateEN3WTF17NonNullPassRefPtrINS_9StructureEEEiRKNS_10IdentifierEPFNS_7JSValueES2_PNS_8
__ZN3JSC9Structure25changePrototypeTransitionEPS0_NS_7JSValueE
__ZN3JSC9Structure17copyPropertyTableEv
__ZN3WTF10RefCountedIN3JSC9StructureEE5derefEv
__ZN3JSC14JSGlobalObject10globalExecEv
__ZN3JSC4Heap9unprotectENS_7JSValueE
__ZN3JSC14TimeoutChecker5resetEv
__ZN3JSC8evaluateEPNS_9ExecStateERNS_10ScopeChainERKNS_10SourceCodeENS_7JSValueE
__ZN3JSC6JSLockC1EPNS_9ExecStateE
__ZN3JSC6JSLock4lockENS_14JSLockBehaviorE
__ZN3JSC17ProgramExecutable7compileEPNS_9ExecStateEPNS_14ScopeChainNodeE
__ZN3JSC6Parser5parseINS_11ProgramNodeEEEN3WTF10PassRefPtrIT_EEPNS_12JSGlobalDataEPNS_8DebuggerEPNS_9ExecStateERKNS_10SourceCod
__ZN3JSC6Parser5parseEPNS_12JSGlobalDataEPiPNS_7UStringE
__ZN3JSC5Lexer7setCodeERKNS_10SourceCodeERNS_11ParserArenaE
__Z10jscyyparsePv
__ZN3JSC5Lexer3lexEPvS1_
__ZN3JSC10Identifier3addEPNS_12JSGlobalDataEPKti
__ZN3WTF7HashSetIPN7WebCore10StringImplENS1_10StringHashENS_10HashTraitsIS3_EEE3addIN3JSC11UCharBufferENS9_31IdentifierUCharBuf
__ZNK3JSC9HashTable11createTableEPNS_12JSGlobalDataE
__ZN3JSC11ParserArena20allocateFreeablePoolEv
__ZL20makeFunctionCallNodePN3JSC12JSGlobalDataENS_8NodeInfoIPNS_14ExpressionNodeEEENS2_IPNS_13ArgumentsNodeEEEiii
__ZNK3JSC15DotAccessorNode10isLocationEv
__ZNK3JSC14ExpressionNode13isResolveNodeEv
__ZNK3JSC14ExpressionNode21isBracketAccessorNodeEv
__ZL14makeAssignNodePN3JSC12JSGlobalDataEPNS_14ExpressionNodeENS_8OperatorES3_bbiii
__ZNK3JSC11ResolveNode10isLocationEv
__ZNK3JSC11ResolveNode13isResolveNodeEv
__ZN3JSC13StatementNode6setLocEii
__ZN3WTF6VectorIPN3JSC20ParserArenaDeletableELm0EE14expandCapacityEm
__ZN3JSC14SourceElements6appendEPNS_13StatementNodeE
__ZNK3JSC13StatementNode16isEmptyStatementEv
__ZN3WTF6VectorIPN3JSC13StatementNodeELm0EE14expandCapacityEm
__ZN3JSC6Parser16didFinishParsingEPNS_14SourceElementsEPNS_15ParserArenaDataIN3WTF6VectorISt4pairIPKNS_10IdentifierEjELm0EEEEEP
__ZN3JSC5Lexer5clearEv
__ZN3JSC11ProgramNode6createEPNS_12JSGlobalDataEPNS_14SourceElementsEPN3WTF6VectorISt4pairIPKNS_10IdentifierEjELm0EEEPNS6_IPNS_
__ZN3JSC9ScopeNodeC2EPNS_12JSGlobalDataERKNS_10SourceCodeEPNS_14SourceElementsEPN3WTF6VectorISt4pairIPKNS_10IdentifierEjELm0EEE
__ZN3JSC11ParserArena14derefWithArenaEN3WTF10PassRefPtrINS_21ParserArenaRefCountedEEE
__ZN3JSC11ParserArena10removeLastEv
__ZN3JSC11ParserArena5resetEv
__ZN3WTF6VectorIN3JSC10IdentifierELm64EE14shrinkCapacityEm
__ZN3JSC9CodeBlockC2EPNS_16ScriptExecutableENS_8CodeTypeEN3WTF10PassRefPtrINS_14SourceProviderEEEjPNS4_7HashMapINS4_6RefPtrIN7W
__ZN3WTF7HashSetIPN3JSC15GlobalCodeBlockENS_7PtrHashIS3_EENS_10HashTraitsIS3_EEE3addERKS3_
__ZN3WTF9HashTableIPN3JSC15GlobalCodeBlockES3_NS_17IdentityExtractorIS3_EENS_7PtrHashIS3_EENS_10HashTraitsIS3_EES9_E6rehashEi
__ZN3JSC17BytecodeGeneratorC1EPNS_11ProgramNodeEPKNS_8DebuggerERKNS_10ScopeChainEPN3WTF7HashMapINS9_6RefPtrIN7WebCore10StringIm
__ZN3JSC17BytecodeGeneratorC2EPNS_11ProgramNodeEPKNS_8DebuggerERKNS_10ScopeChainEPN3WTF7HashMapINS9_6RefPtrIN7WebCore10StringIm
__ZN3WTF6VectorIN3JSC11InstructionELm0EE15reserveCapacityEm
__ZN3JSC9Structure31toCacheableDictionaryTransitionEPS0_
__ZN3JSC9Structure22toDictionaryTransitionEPS0_NS0_14DictionaryKindE
__ZN3JSC9Structure26flattenDictionaryStructureEPNS_8JSObjectE
__ZN3JSC17BytecodeGenerator8generateEv
__ZN3JSC11ProgramNode12emitBytecodeERNS_17BytecodeGeneratorEPNS_10RegisterIDE
__ZN3JSC17BytecodeGenerator13emitDebugHookENS_11DebugHookIDEii
__ZN3JSC17BytecodeGenerator12newTemporaryEv
__ZN3JSC17BytecodeGenerator11newRegisterEv
__ZN3JSC17BytecodeGenerator8emitLoadEPNS_10RegisterIDENS_7JSValueE
__ZN3JSC17BytecodeGenerator16addConstantValueENS_7JSValueE
__ZN3WTF9HashTableIPvSt4pairIS1_jENS_18PairFirstExtractorIS3_EENS_7PtrHashIS1_EENS_14PairHashTraitsIN3JSC24EncodedJSValueHashTr
__ZN3WTF6VectorIN3JSC8RegisterELm0EE15reserveCapacityEm
__ZN3WTF6VectorIN3JSC8LineInfoELm0EE14expandCapacityEm
__ZN3JSC17ExprStatementNode12emitBytecodeERNS_17BytecodeGeneratorEPNS_10RegisterIDE
__ZN3JSC17AssignResolveNode12emitBytecodeERNS_17BytecodeGeneratorEPNS_10RegisterIDE
__ZN3JSC17BytecodeGenerator11registerForERKNS_10IdentifierE
__ZN3JSC17BytecodeGenerator18findScopedPropertyERKNS_10IdentifierERiRmbRbRPNS_8JSObjectE
__ZN3JSC17BytecodeGenerator15emitResolveBaseEPNS_10RegisterIDERKNS_10IdentifierE
__ZN3JSC19FunctionCallDotNode12emitBytecodeERNS_17BytecodeGeneratorEPNS_10RegisterIDE
__ZN3JSC11NewExprNode12emitBytecodeERNS_17BytecodeGeneratorEPNS_10RegisterIDE
__ZN3JSC11ResolveNode12emitBytecodeERNS_17BytecodeGeneratorEPNS_10RegisterIDE
__ZN3WTF6VectorIN3JSC19ExpressionRangeInfoELm0EE14expandCapacityEm
__ZN3JSC17BytecodeGenerator11emitResolveEPNS_10RegisterIDERKNS_10IdentifierE
__ZN3WTF6VectorIN3JSC17GlobalResolveInfoELm0EE14expandCapacityEm
__ZN3JSC17BytecodeGenerator11addConstantERKNS_10IdentifierE
__ZN3WTF9HashTableINS_6RefPtrIN7WebCore10StringImplEEESt4pairIS4_iENS_18PairFirstExtractorIS6_EEN3JSC17IdentifierRepHashENS_14P
__ZN3WTF6VectorIN3JSC10IdentifierELm0EE14expandCapacityEmPKS2_
__ZN3WTF6VectorIN3JSC10IdentifierELm0EE15reserveCapacityEm
__ZN3JSC17BytecodeGenerator13emitConstructEPNS_10RegisterIDES2_PNS_13ArgumentsNodeEjjj
__ZN3WTF6VectorIN3JSC20GetByIdExceptionInfoELm0EE14expandCapacityEm
__ZN3JSC17BytecodeGenerator11emitGetByIdEPNS_10RegisterIDES2_RKNS_10IdentifierE
__ZN3WTF6VectorIN3JSC17StructureStubInfoELm0EE14expandCapacityEm
__ZN3WTF6VectorIN3JSC12CallLinkInfoELm0EE15reserveCapacityEm
__ZN3JSC17BytecodeGenerator15emitMethodCheckEv
__ZN3JSC17BytecodeGenerator8emitCallEPNS_10RegisterIDES2_S2_PNS_13ArgumentsNodeEjjj
__ZN3JSC17BytecodeGenerator8emitCallENS_8OpcodeIDEPNS_10RegisterIDES3_S3_PNS_13ArgumentsNodeEjjj
__ZN3JSC17BytecodeGenerator11emitPutByIdEPNS_10RegisterIDERKNS_10IdentifierES2_
__ZN3JSC17BytecodeGenerator16emitUnaryNoDstOpENS_8OpcodeIDEPNS_10RegisterIDE
__ZN3JSC12JSGlobalData22numericCompareFunctionEPNS_9ExecStateE
__ZNK3JSC21UStringSourceProvider6lengthEv
__ZN3JSC18FunctionExecutable14fromGlobalCodeERKNS_10IdentifierEPNS_9ExecStateEPNS_8DebuggerERKNS_10SourceCodeEPiPNS_7UStringE
__ZNK3JSC21UStringSourceProvider4dataEv
__ZN3JSC16FunctionBodyNode6createEPNS_12JSGlobalDataE
__ZN3JSC5Lexer10sourceCodeEiii
__ZN3JSC16FunctionBodyNode13finishParsingERKNS_10SourceCodeEPNS_13ParameterNodeERKNS_10IdentifierE
__ZN3WTF6VectorIN3JSC10IdentifierELm0EE14expandCapacityEm
__ZN3JSC16FunctionBodyNode13finishParsingEN3WTF10PassRefPtrINS_18FunctionParametersEEERKNS_10IdentifierE
__ZNK3JSC9ScopeNode15singleStatementEv
__ZNK3JSC17ExprStatementNode15isExprStatementEv
__ZNK3JSC12FuncExprNode14isFuncExprNodeEv
__ZThn16_N3JSC11ProgramNodeD0Ev
__ZN3JSC11ProgramNodeD0Ev
__ZN3JSC11ParserArenaD1Ev
__ZN3JSC14SourceElementsD1Ev
__ZThn16_N3JSC16FunctionBodyNodeD0Ev
__ZN3JSC16FunctionBodyNodeD0Ev
__ZN3JSC18FunctionExecutable7compileEPNS_9ExecStateEPNS_14ScopeChainNodeE
__ZN3JSC6Parser5parseINS_16FunctionBodyNodeEEEN3WTF10PassRefPtrIT_EEPNS_12JSGlobalDataEPNS_8DebuggerEPNS_9ExecStateERKNS_10Sour
__ZL11makeSubNodePN3JSC12JSGlobalDataEPNS_14ExpressionNodeES3_b
__ZN3JSC14ExpressionNode14stripUnaryPlusEv
__ZNK3JSC14ExpressionNode8isNumberEv
__ZN3JSC16FunctionBodyNode6createEPNS_12JSGlobalDataEPNS_14SourceElementsEPN3WTF6VectorISt4pairIPKNS_10IdentifierEjELm0EEEPNS6_
__ZN3JSC17BytecodeGeneratorC1EPNS_16FunctionBodyNodeEPKNS_8DebuggerERKNS_10ScopeChainEPN3WTF7HashMapINS9_6RefPtrIN7WebCore10Str
__ZN3JSC17BytecodeGeneratorC2EPNS_16FunctionBodyNodeEPKNS_8DebuggerERKNS_10ScopeChainEPN3WTF7HashMapINS9_6RefPtrIN7WebCore10Str
__ZN3JSC17BytecodeGenerator12addParameterERKNS_10IdentifierE
__ZN3JSC16FunctionBodyNode12emitBytecodeERNS_17BytecodeGeneratorEPNS_10RegisterIDE
__ZN3JSC9BlockNode12emitBytecodeERNS_17BytecodeGeneratorEPNS_10RegisterIDE
__ZN3JSC10ReturnNode12emitBytecodeERNS_17BytecodeGeneratorEPNS_10RegisterIDE
__ZN3JSC12BinaryOpNode12emitBytecodeERNS_17BytecodeGeneratorEPNS_10RegisterIDE
__ZNK3JSC11ResolveNode6isPureERNS_17BytecodeGeneratorE
__ZN3JSC17BytecodeGenerator7isLocalERKNS_10IdentifierE
__ZN3JSC17BytecodeGenerator12emitBinaryOpENS_8OpcodeIDEPNS_10RegisterIDES3_S3_NS_12OperandTypesE
__ZN3JSC17BytecodeGenerator10emitReturnEPNS_10RegisterIDE
__ZNK3JSC9BlockNode7isBlockEv
__ZNK3JSC10ReturnNode12isReturnNodeEv
__ZN3JSC9CodeBlock11shrinkToFitEv
__ZN3WTF6VectorIN3JSC11InstructionELm0EE14shrinkCapacityEm
__ZN3WTF6VectorIPN3JSC12CallLinkInfoELm0EE14shrinkCapacityEm
__ZN3WTF6VectorIN3JSC10IdentifierELm0EE14shrinkCapacityEm
__ZN3JSC17BytecodeGeneratorD2Ev
__ZN3WTF6VectorIN3JSC11InstructionELm0EEaSERKS3_
__ZN3JSC18FunctionExecutableD0Ev
__ZN3JSC17FunctionCodeBlockD0Ev
__ZN3JSC9CodeBlockD2Ev
__ZN3JSC21UStringSourceProviderD0Ev
__ZNK3JSC8JSObject8toObjectEPNS_9ExecStateE
__ZN3JSC11Interpreter7executeEPNS_17ProgramExecutableEPNS_9ExecStateEPNS_14ScopeChainNodeEPNS_8JSObjectEPNS_7JSValueE
__ZN3JSC12JSGlobalData14resetDateCacheEv
__ZN3JSC12RegisterFile12globalObjectEv
__ZN3JSC14JSGlobalObject13copyGlobalsToERNS_12RegisterFileE
__ZN3JSC12RegisterFile15setGlobalObjectEPNS_14JSGlobalObjectE
__ZN3JSC17ProgramExecutable15generateJITCodeEPNS_9ExecStateEPNS_14ScopeChainNodeE
__ZN3JSC3JIT14privateCompileEv
__ZN3JSC3JIT22privateCompileMainPassEv
__ZN3JSC3JIT13emit_op_enterEPNS_11InstructionE
__ZN3JSC3JIT11emit_op_movEPNS_11InstructionE
__ZN3JSC3JIT22emit_op_resolve_globalEPNS_11InstructionEb
__ZN3JSC23MacroAssemblerX86Common4moveENS_12X86Registers10RegisterIDES2_
__ZN3WTF6VectorIN3JSC13SlowCaseEntryELm0EE14expandCapacityEmPKS2_
__ZN3WTF6VectorIN3JSC13SlowCaseEntryELm0EE14expandCapacityEm
__ZN3JSC3JIT17emit_op_get_by_idEPNS_11InstructionE
__ZN3JSC3JIT21compileGetByIdHotPathEiiPNS_10IdentifierEj
__ZN3JSC3JIT17emit_op_constructEPNS_11InstructionE
__ZN3JSC3JIT13compileOpCallENS_8OpcodeIDEPNS_11InstructionEj
__ZN3JSC11JITStubCall4callEv
__ZN3WTF6VectorIN3JSC10CallRecordELm0EE14expandCapacityEm
__ZN3JSC3JIT24emit_op_construct_verifyEPNS_11InstructionE
__ZN3JSC3JIT20emit_op_method_checkEPNS_11InstructionE
__ZN3WTF6VectorIN3JSC25MethodCallCompilationInfoELm0EE14expandCapacityEm
__ZN3JSC3JIT12emit_op_callEPNS_11InstructionE
__ZN3JSC3JIT17emit_op_put_by_idEPNS_11InstructionE
__ZN3JSC3JIT11emit_op_endEPNS_11InstructionE
__ZN3WTF6VectorIN3JSC9JumpTableELm0EE14shrinkCapacityEm
__ZN3JSC3JIT23privateCompileSlowCasesEv
__ZN3JSC3JIT26emitSlow_op_resolve_globalEPNS_11InstructionERPNS_13SlowCaseEntryE
__ZN3JSC20MacroAssemblerX86_648storePtrENS_22AbstractMacroAssemblerINS_12X86AssemblerEE6ImmPtrENS3_15ImplicitAddressE
__ZN3JSC11JITStubCall4callEj
__ZN3JSC3JIT21emitSlow_op_get_by_idEPNS_11InstructionERPNS_13SlowCaseEntryE
__ZN3JSC3JIT22compileGetByIdSlowCaseEiiPNS_10IdentifierERPNS_13SlowCaseEntryEb
__ZN3JSC3JIT21emitSlow_op_constructEPNS_11InstructionERPNS_13SlowCaseEntryE
__ZN3JSC3JIT21compileOpCallSlowCaseEPNS_11InstructionERPNS_13SlowCaseEntryEjNS_8OpcodeIDE
__ZN3JSC3JIT27compileOpConstructSetupArgsEPNS_11InstructionE
__ZN3JSC3JIT28emitSlow_op_construct_verifyEPNS_11InstructionERPNS_13SlowCaseEntryE
__ZN3JSC3JIT24emitSlow_op_method_checkEPNS_11InstructionERPNS_13SlowCaseEntryE
__ZN3JSC3JIT16emitSlow_op_callEPNS_11InstructionERPNS_13SlowCaseEntryE
__ZN3JSC3JIT22compileOpCallSetupArgsEPNS_11InstructionE
__ZN3JSC3JIT21emitSlow_op_put_by_idEPNS_11InstructionERPNS_13SlowCaseEntryE
__ZN3WTF6VectorIN3JSC18MethodCallLinkInfoELm0EE14expandCapacityEm
__ZN3JSC17BytecodeGenerator18dumpsGeneratedCodeEv
_ctiTrampoline
_cti_op_resolve_global
_cti_op_get_by_id
__ZNK3JSC7JSValue3getEPNS_9ExecStateERKNS_10IdentifierERNS_12PropertySlotE
_cti_op_construct_NotJSConstruct
__ZN3JSC15DateConstructor16getConstructDataERNS_13ConstructDataE
__ZN3JSCL28constructWithDateConstructorEPNS_9ExecStateEPNS_8JSObjectERKNS_7ArgListE
__ZN3JSC13constructDateEPNS_9ExecStateERKNS_7ArgListE
__ZN3JSC12DateInstanceC1EPNS_9ExecStateEd
__ZN3JSC12DateInstanceC2EPNS_9ExecStateEd
__ZN3WTF8timeClipEd
_cti_op_get_by_id_method_check
__ZN3JSC13DatePrototype18getOwnPropertySlotEPNS_9ExecStateERKNS_10IdentifierERNS_12PropertySlotE
__ZN3JSC23setUpStaticFunctionSlotEPNS_9ExecStateEPKNS_9HashEntryEPNS_8JSObjectERKNS_10IdentifierERNS_12PropertySlotE
__ZN3JSC9Structure13hasTransitionEPN7WebCore10StringImplEj
_cti_vm_lazyLinkCall
__ZN3JSCL20dateProtoFuncGetTimeEPNS_9ExecStateEPNS_8JSObjectENS_7JSValueERKNS_7ArgListE
__ZNK3JSC12DateInstance9classInfoEv
_cti_op_put_by_id
__ZN3JSC14JSGlobalObject3putEPNS_9ExecStateERKNS_10IdentifierENS_7JSValueERNS_15PutPropertySlotE
__ZN3JSC8JSObject3putEPNS_9ExecStateERKNS_10IdentifierENS_7JSValueERNS_15PutPropertySlotE
__ZN3JSC17ProgramExecutableD0Ev
__ZN3JSC16ProgramCodeBlockD0Ev
__ZN3WTF9HashTableIPN3JSC15GlobalCodeBlockES3_NS_17IdentityExtractorIS3_EENS_7PtrHashIS3_EENS_10HashTraitsIS3_EES9_E4findIS3_NS
__ZN3JSC17StructureStubInfo5derefEv
__ZN7WebCore6String8truncateEj
__ZN3JSC5Lexer10skipRegExpEv
__ZNK3JSC14ExpressionNode10isLocationEv
__ZN3WTF6VectorIPN3JSC16FunctionBodyNodeELm0EE14expandCapacityEm
__ZNK3JSC18EmptyStatementNode16isEmptyStatementEv
__ZN3WTF6VectorISt4pairIPKN3JSC10IdentifierEjELm0EE14expandCapacityEm
__ZN3JSC8JSObject12removeDirectERKNS_10IdentifierE
__ZN3JSC9Structure24removePropertyTransitionEPS0_RKNS_10IdentifierERm
__ZN3JSC9Structure6removeERKNS_10IdentifierE
__ZN3JSC17BytecodeGenerator12addGlobalVarERKNS_10IdentifierEbRPNS_10RegisterIDE
__ZN3JSC17BytecodeGenerator15emitNewFunctionEPNS_10RegisterIDEPNS_16FunctionBodyNodeE
__ZN3WTF6VectorINS_6RefPtrIN3JSC18FunctionExecutableEEELm0EE14expandCapacityEm
__ZN3JSC9Structure31removePropertyWithoutTransitionERKNS_10IdentifierE
__ZNK3JSC8JSObject11hasPropertyEPNS_9ExecStateERKNS_10IdentifierE
__ZNK3JSC7UString14toStrictUInt32EPb
__ZN7WebCore12AtomicString4findEPKtjj
__ZN3WTF9HashTableINS_6RefPtrIN7WebCore10StringImplEEESt4pairIS4_N3JSC16SymbolTableEntryEENS_18PairFirstExtractorIS8_EENS6_17Id
__ZN3JSCL30comparePropertyMapEntryIndicesEPKvS1_
__ZN3JSC13AssignDotNode12emitBytecodeERNS_17BytecodeGeneratorEPNS_10RegisterIDE
__ZNK3JSC14ExpressionNode6isPureERNS_17BytecodeGeneratorE
__ZN3JSC17BytecodeGenerator8emitMoveEPNS_10RegisterIDES2_
__ZN3JSC17ObjectLiteralNode12emitBytecodeERNS_17BytecodeGeneratorEPNS_10RegisterIDE
__ZN3JSC17BytecodeGenerator13emitNewObjectEPNS_10RegisterIDE
__ZN3JSC21FunctionCallValueNode12emitBytecodeERNS_17BytecodeGeneratorEPNS_10RegisterIDE
__ZN3JSC12FuncExprNode12emitBytecodeERNS_17BytecodeGeneratorEPNS_10RegisterIDE
__ZN3JSC17BytecodeGenerator25emitNewFunctionExpressionEPNS_10RegisterIDEPNS_12FuncExprNodeE
__ZN3JSC12FuncDeclNode12emitBytecodeERNS_17BytecodeGeneratorEPNS_10RegisterIDE
__ZN3JSC15DotAccessorNode12emitBytecodeERNS_17BytecodeGeneratorEPNS_10RegisterIDE
__ZN3JSC16VarStatementNode12emitBytecodeERNS_17BytecodeGeneratorEPNS_10RegisterIDE
__ZN3JSC17BytecodeGenerator15isLocalConstantERKNS_10IdentifierE
__ZN3JSC16ArgumentListNode12emitBytecodeERNS_17BytecodeGeneratorEPNS_10RegisterIDE
__ZN3JSC11BooleanNode12emitBytecodeERNS_17BytecodeGeneratorEPNS_10RegisterIDE
__ZN3JSC17BytecodeGenerator8emitLoadEPNS_10RegisterIDEb
__ZN3JSC9ArrayNode12emitBytecodeERNS_17BytecodeGeneratorEPNS_10RegisterIDE
__ZN3JSC17BytecodeGenerator12emitNewArrayEPNS_10RegisterIDEPNS_11ElementNodeE
__ZN3JSC23FunctionCallResolveNode12emitBytecodeERNS_17BytecodeGeneratorEPNS_10RegisterIDE
__ZN3JSC17BytecodeGenerator19emitResolveWithBaseEPNS_10RegisterIDES2_RKNS_10IdentifierE
__ZN3JSC10NumberNode12emitBytecodeERNS_17BytecodeGeneratorEPNS_10RegisterIDE
__ZN3JSC17BytecodeGenerator8emitLoadEPNS_10RegisterIDEd
__ZN3WTF9HashTableIdSt4pairIdN3JSC7JSValueEENS_18PairFirstExtractorIS4_EENS_9FloatHashIdEENS_14PairHashTraitsINS_10HashTraitsId
__ZN3JSC10StringNode12emitBytecodeERNS_17BytecodeGeneratorEPNS_10RegisterIDE
__ZN3JSC17BytecodeGenerator8emitLoadEPNS_10RegisterIDERKNS_10IdentifierE
__ZN3WTF9HashTableIPN7WebCore10StringImplESt4pairIS3_PN3JSC8JSStringEENS_18PairFirstExtractorIS8_EENS5_17IdentifierRepHashENS_1
__ZN3JSC12SmallStrings27createSingleCharacterStringEPNS_12JSGlobalDataEh
__ZN3JSC8NullNode12emitBytecodeERNS_17BytecodeGeneratorEPNS_10RegisterIDE
__ZN3JSC15ParserArenaDataIN3WTF6VectorIPNS_16FunctionBodyNodeELm0EEEED1Ev
__ZN3JSC15ParserArenaDataIN3WTF6VectorISt4pairIPKNS_10IdentifierEjELm0EEEED1Ev
__ZN3JSC3JIT16emit_op_new_funcEPNS_11InstructionE
__ZN3JSC3JIT18emit_op_new_objectEPNS_11InstructionE
__ZN3JSC3JIT20emit_op_new_func_expEPNS_11InstructionE
__ZN3JSC3JIT17emit_op_new_arrayEPNS_11InstructionE
__ZN3JSC3JIT25emit_op_resolve_with_baseEPNS_11InstructionE
_cti_op_new_func
__ZN3JSC10JSFunctionC1EPNS_9ExecStateEN3WTF17NonNullPassRefPtrINS_18FunctionExecutableEEEPNS_14ScopeChainNodeE
_cti_op_new_object
_cti_op_new_func_exp
_cti_op_call_JSFunction
__ZN3JSC18FunctionExecutable15generateJITCodeEPNS_9ExecStateEPNS_14ScopeChainNodeE
__ZN3WTF7HashSetINS_6RefPtrIN7WebCore10StringImplEEEN3JSC17IdentifierRepHashENS_10HashTraitsIS4_EEE3addERKS4_
__ZN3WTF9HashTableINS_6RefPtrIN7WebCore10StringImplEEES4_NS_17IdentityExtractorIS4_EEN3JSC17IdentifierRepHashENS_10HashTraitsIS
__ZN3JSC17BytecodeGenerator6addVarERKNS_10IdentifierEbRPNS_10RegisterIDE
__ZNK3JSC16JSVariableObject16isVariableObjectEv
__ZN3JSC17BytecodeGenerator16emitGetScopedVarEPNS_10RegisterIDEmiNS_7JSValueE
__ZNK3JSC13StatementNode12isReturnNodeEv
__ZN3JSC3JIT29emit_op_enter_with_activationEPNS_11InstructionE
__ZN3JSC3JIT22emit_op_get_global_varEPNS_11InstructionE
__ZN3JSC3JIT29emitGetVariableObjectRegisterENS_12X86Registers10RegisterIDEiS2_
__ZN3JSC3JIT27emit_op_tear_off_activationEPNS_11InstructionE
__ZN3JSC11JITStubCall11addArgumentEjNS_12X86Registers10RegisterIDE
__ZN3JSC3JIT11emit_op_retEPNS_11InstructionE
_cti_register_file_check
_cti_op_push_activation
__ZN3JSC12JSActivationC1EPNS_9ExecStateEN3WTF17NonNullPassRefPtrINS_18FunctionExecutableEEE
__ZN3JSC12JSActivationC2EPNS_9ExecStateEN3WTF17NonNullPassRefPtrINS_18FunctionExecutableEEE
_cti_op_tear_off_activation
_cti_op_ret_scopeChain
__ZN3JSC10JSFunction18getOwnPropertySlotEPNS_9ExecStateERKNS_10IdentifierERNS_12PropertySlotE
__ZN3JSC9Structure18transitionTableAddERKSt4pairIN3WTF6RefPtrIN7WebCore10StringImplEEEjEPS0_PNS_6JSCellE
__ZN3WTF7HashMapISt4pairINS_6RefPtrIN7WebCore10StringImplEEEjES1_IPN3JSC9StructureES9_ENS7_28StructureTransitionTableHashENS7_3
__ZN3WTF9HashTableISt4pairINS_6RefPtrIN7WebCore10StringImplEEEjES1_IS6_S1_IPN3JSC9StructureES9_EENS_18PairFirstExtractorISB_EEN
_cti_op_new_array
__ZN3JSC7JSArrayC1EN3WTF17NonNullPassRefPtrINS_9StructureEEERKNS_7ArgListE
_cti_op_construct_JSConstruct
__ZNK3JSC10NumberNode6isPureERNS_17BytecodeGeneratorE
__ZN3JSC8ThisNode12emitBytecodeERNS_17BytecodeGeneratorEPNS_10RegisterIDE
__ZN3JSC3JIT20emit_op_convert_thisEPNS_11InstructionE
__ZN3JSC3JIT24emitSlow_op_convert_thisEPNS_11InstructionERPNS_13SlowCaseEntryE
_cti_op_resolve_with_base
__ZN3JSC10JSFunction11getCallDataERNS_8CallDataE
__ZNK3JSC7ArgList8getSliceEiRS0_
__ZN3JSC9Structure22materializePropertyMapEv
_cti_op_end
__ZNK7WebCore6String7toFloatEPb
__ZN7WebCore10StringImpl7toFloatEPb
__ZN7WebCore17charactersToFloatEPKtmPb
__ZN7WebCoreeqERKNS_12AtomicStringEPKc
__ZNK7WebCore6String5toIntEPb
__ZN7WebCore10StringImpl5toIntEPb
__ZN7WebCore15charactersToIntEPKtmPb
__ZN7WebCore6String6numberEi
__ZNK7WebCore6String11toIntStrictEPbi
__ZN7WebCore10StringImpl11toIntStrictEPbi
__ZN7WebCore21charactersToIntStrictEPKtmPbi
__ZN7WebCore10StringImpl7replaceEPS0_S1_
__ZN7WebCore6String6numberEt
__ZL11makeDivNodePN3JSC12JSGlobalDataEPNS_14ExpressionNodeES3_b
__ZNK3JSC10NumberNode8isNumberEv
__ZN3WTF6VectorIPvLm0EE14expandCapacityEm
__ZN3WTF6VectorIjLm16EE6resizeEm
__ZN3WTFL7multaddERNS_6BigIntEii
__ZN3WTF6VectorIjLm16EEaSERKS1_
__ZN3WTFL4multERNS_6BigIntERKS0_
__ZL11makeAddNodePN3JSC12JSGlobalDataEPNS_14ExpressionNodeES3_b
__ZN3WTF6VectorIPNS0_IN3JSC10IdentifierELm64EEELm32EE15reserveCapacityEm
__ZL14makePrefixNodePN3JSC12JSGlobalDataEPNS_14ExpressionNodeENS_8OperatorEiii
__ZN3WTF6VectorIPN3JSC10RegisterIDELm32EE15reserveCapacityEm
__ZN3JSC16PropertyListNode12emitBytecodeERNS_17BytecodeGeneratorEPNS_10RegisterIDE
__ZN3JSC15ConditionalNode12emitBytecodeERNS_17BytecodeGeneratorEPNS_10RegisterIDE
__ZN3JSC17BytecodeGenerator8newLabelEv
__ZNK3JSC14ExpressionNode26hasConditionContextCodegenEv
__ZN3JSC17BytecodeGenerator15emitJumpIfFalseEPNS_10RegisterIDEPNS_5LabelE
__ZN3JSC17BytecodeGenerator8emitJumpEPNS_5LabelE
__ZN3JSC17BytecodeGenerator9emitLabelEPNS_5LabelE
__ZN3WTF6VectorIjLm0EE14expandCapacityEm
__ZN3JSC17BytecodeGenerator14emitPutByIndexEPNS_10RegisterIDEjS2_
__ZN3JSC6IfNode12emitBytecodeERNS_17BytecodeGeneratorEPNS_10RegisterIDE
__ZNK3JSC14LogicalNotNode26hasConditionContextCodegenEv
__ZN3JSC11UnaryOpNode12emitBytecodeERNS_17BytecodeGeneratorEPNS_10RegisterIDE
__ZN3JSC17BytecodeGenerator11emitUnaryOpENS_8OpcodeIDEPNS_10RegisterIDES3_
__ZNK3JSC10StringNode6isPureERNS_17BytecodeGeneratorE
__ZNK3JSC14ExpressionNode5isAddEv
__ZN3JSC7ForNode12emitBytecodeERNS_17BytecodeGeneratorEPNS_10RegisterIDE
__ZN3JSC17BytecodeGenerator13newLabelScopeENS_10LabelScope4TypeEPKNS_10IdentifierE
__ZN3JSC19BracketAccessorNode12emitBytecodeERNS_17BytecodeGeneratorEPNS_10RegisterIDE
__ZN3JSC17BytecodeGenerator12emitGetByValEPNS_10RegisterIDES2_S2_
__ZN3JSC17PrefixResolveNode12emitBytecodeERNS_17BytecodeGeneratorEPNS_10RegisterIDE
__ZN3JSC17BytecodeGenerator10emitPreIncEPNS_10RegisterIDE
__ZN3JSC17BytecodeGenerator14emitJumpIfTrueEPNS_10RegisterIDEPNS_5LabelE
__ZN3JSC3JIT11emit_op_divEPNS_11InstructionE
__ZN3JSC20MacroAssemblerX86_649branchPtrENS_23MacroAssemblerX86Common9ConditionENS_12X86Registers10RegisterIDES4_
__ZN3JSC12X86Assembler11cvtsi2sd_rrENS_12X86Registers10RegisterIDENS1_13XMMRegisterIDE
__ZN3JSC12X86Assembler23X86InstructionFormatter9twoByteOpENS0_15TwoByteOpcodeIDEiNS_12X86Registers10RegisterIDE
__ZN3JSC12X86Assembler7movq_rrENS_12X86Registers10RegisterIDENS1_13XMMRegisterIDE
__ZN3JSC23MacroAssemblerX86Common4moveENS_22AbstractMacroAssemblerINS_12X86AssemblerEE5Imm32ENS_12X86Registers10RegisterIDE
__ZN3JSC15AssemblerBuffer7putByteEi
__ZN3JSC3JIT14emit_op_jfalseEPNS_11InstructionE
__ZN3JSC20MacroAssemblerX86_649branchPtrENS_23MacroAssemblerX86Common9ConditionENS_12X86Registers10RegisterIDENS_22AbstractMacr
__ZN3WTF6VectorIN3JSC9JumpTableELm0EE14expandCapacityEmPKS2_
__ZN3WTF6VectorIN3JSC9JumpTableELm0EE14expandCapacityEm
__ZN3JSC3JIT11emit_op_jmpEPNS_11InstructionE
__ZN3JSC3JIT20emit_op_put_by_indexEPNS_11InstructionE
__ZN3JSC3JIT13emit_op_jtrueEPNS_11InstructionE
__ZN3JSC3JIT11emit_op_addEPNS_11InstructionE
__ZN3JSC3JIT18emit_op_get_by_valEPNS_11InstructionE
__ZN3JSC20MacroAssemblerX86_649branchPtrENS_23MacroAssemblerX86Common9ConditionENS_22AbstractMacroAssemblerINS_12X86AssemblerEE
__ZN3JSC12X86Assembler23X86InstructionFormatter11oneByteOp64ENS0_15OneByteOpcodeIDEiNS_12X86Registers10RegisterIDES4_ii
__ZN3JSC3JIT15emit_op_pre_incEPNS_11InstructionE
__ZN3JSC3JIT16emitTimeoutCheckEv
__ZN3JSC3JIT13emit_op_jlessEPNS_11InstructionE
__ZN3JSC3JIT15emitSlow_op_divEPNS_11InstructionERPNS_13SlowCaseEntryE
__ZN3JSC3JIT18emitSlow_op_jfalseEPNS_11InstructionERPNS_13SlowCaseEntryE
__ZN3JSC23MacroAssemblerX86Common12branchTest32ENS0_9ConditionENS_12X86Registers10RegisterIDENS_22AbstractMacroAssemblerINS_12X
__ZN3JSC3JIT17emitSlow_op_jtrueEPNS_11InstructionERPNS_13SlowCaseEntryE
__ZN3JSC3JIT22emitSlow_op_get_by_valEPNS_11InstructionERPNS_13SlowCaseEntryE
__ZN3JSC3JIT27stringGetByValStubGeneratorEPNS_12JSGlobalDataEPNS_14ExecutablePoolE
__ZN3JSC15AssemblerBuffer14executableCopyEPNS_14ExecutablePoolE
__ZN3JSC3JIT19emitSlow_op_pre_incEPNS_11InstructionERPNS_13SlowCaseEntryE
__ZN3JSC11JITStubCall11addArgumentENS_12X86Registers10RegisterIDE
__ZN3JSC3JIT17emitSlow_op_jlessEPNS_11InstructionERPNS_13SlowCaseEntryE
__ZN3JSC23MacroAssemblerX86Common12branchDoubleENS0_15DoubleConditionENS_12X86Registers13XMMRegisterIDES3_
__ZNK3JSC13LogicalOpNode26hasConditionContextCodegenEv
__ZN3JSC13LogicalOpNode30emitBytecodeInConditionContextERNS_17BytecodeGeneratorEPNS_5LabelES4_b
__ZN3JSC21ReadModifyResolveNode12emitBytecodeERNS_17BytecodeGeneratorEPNS_10RegisterIDE
__ZN3JSC3JIT11emit_op_subEPNS_11InstructionE
__ZN3JSC3JIT20compileBinaryArithOpENS_8OpcodeIDEjjjNS_12OperandTypesE
__ZN3JSC3JIT15emitSlow_op_subEPNS_11InstructionERPNS_13SlowCaseEntryE
__ZN3JSC3JIT28compileBinaryArithOpSlowCaseENS_8OpcodeIDERPNS_13SlowCaseEntryEjjjNS_12OperandTypesEbb
__ZN3JSC3JIT15emitSlow_op_addEPNS_11InstructionERPNS_13SlowCaseEntryE
__ZNK3JSC14JSGlobalObject14isDynamicScopeERb
_cti_op_jtrue
__ZNK3JSC8JSObject9toBooleanEPNS_9ExecStateE
__ZNK3JSC8JSObject24getPropertySpecificValueEPNS_9ExecStateERKNS_10IdentifierERPNS_6JSCellE
__ZN3JSC27ctiPatchCallByReturnAddressEPNS_9CodeBlockENS_16ReturnAddressPtrENS_11FunctionPtrE
__ZN3JSC3JIT8linkCallEPNS_10JSFunctionEPNS_9CodeBlockES4_RNS_7JITCodeEPNS_12CallLinkInfoEiPNS_12JSGlobalDataE
_cti_op_add
__ZN3JSC13jsAddSlowCaseEPNS_9ExecStateENS_7JSValueES2_
__ZNK3JSC8JSString11toPrimitiveEPNS_9ExecStateENS_22PreferredPrimitiveTypeE
__ZNK3JSC7JSValue8toStringEPNS_9ExecStateE
__ZN3JSC7UString4fromEi
__ZNK3JSC8JSString11resolveRopeEPNS_9ExecStateE
__ZN3WTF13tryFastMallocEm
__ZN7WebCore10StringImpl4findEPKcib
__ZN3JSC13LogicalOpNode12emitBytecodeERNS_17BytecodeGeneratorEPNS_10RegisterIDE
__ZNK3JSC14ExpressionNode6isNullEv
__ZN3JSC3JIT11emit_op_neqEPNS_11InstructionE
__ZN3JSC12X86Assembler8shll_i8rEiNS_12X86Registers10RegisterIDE
__ZN3JSC12X86Assembler6orl_irEiNS_12X86Registers10RegisterIDE
__ZN3JSC3JIT15emitSlow_op_neqEPNS_11InstructionERPNS_13SlowCaseEntryE
_cti_op_call_arityCheck
_cti_op_eq
__ZN3JSC9JITThunks15tryCacheGetByIDEPNS_9ExecStateEPNS_9CodeBlockENS_16ReturnAddressPtrENS_7JSValueERKNS_10IdentifierERKNS_12Pr
__ZN3JSC14StructureChainC1EPNS_9StructureE
__ZN3JSC14StructureChainC2EPNS_9StructureE
__ZN3JSC3JIT26privateCompileGetByIdChainEPNS_17StructureStubInfoEPNS_9StructureEPNS_14StructureChainEmRKNS_10IdentifierERKNS_12
__ZN3JSC3JIT22compileGetDirectOffsetEPNS_8JSObjectENS_12X86Registers10RegisterIDES4_m
_cti_op_get_by_id_self_fail
__ZN3JSC3JIT29privateCompileGetByIdSelfListEPNS_17StructureStubInfoEPNS_30PolymorphicAccessStructureListEiPNS_9StructureERKNS_1
_cti_op_get_by_id_custom_stub
__ZN3JSC10MathObject18getOwnPropertySlotEPNS_9ExecStateERKNS_10IdentifierERNS_12PropertySlotE
__ZN3JSCL16mathProtoFuncMaxEPNS_9ExecStateEPNS_8JSObjectENS_7JSValueERKNS_7ArgListE
__ZL17combineCommaNodesPN3JSC12JSGlobalDataEPNS_14ExpressionNodeES3_
__ZNK3JSC14ExpressionNode11isCommaNodeEv
__ZNK3JSC9CommaNode11isCommaNodeEv
__ZN3JSC9CommaNode12emitBytecodeERNS_17BytecodeGeneratorEPNS_10RegisterIDE
__ZN3JSC19ReverseBinaryOpNode12emitBytecodeERNS_17BytecodeGeneratorEPNS_10RegisterIDE
__ZN3JSC9BreakNode12emitBytecodeERNS_17BytecodeGeneratorEPNS_10RegisterIDE
__ZN3JSC17BytecodeGenerator11breakTargetERKNS_10IdentifierE
__ZN3JSC17BytecodeGenerator14emitJumpScopesEPNS_5LabelEi
__ZN3JSC9CommaNodeD1Ev
__ZN3JSC3JIT14emit_op_jnlessEPNS_11InstructionE
__ZN3JSC3JIT18emitSlow_op_jnlessEPNS_11InstructionERPNS_13SlowCaseEntryE
__ZN3JSC7JSArray18getOwnPropertySlotEPNS_9ExecStateERKNS_10IdentifierERNS_12PropertySlotE
_cti_op_jless
__ZN3JSC3JIT33privateCompilePatchGetArrayLengthENS_16ReturnAddressPtrE
__ZN3JSC3JIT16patchGetByIdSelfEPNS_9CodeBlockEPNS_17StructureStubInfoEPNS_9StructureEmNS_16ReturnAddressPtrE
__ZNK3JSC7AddNode5isAddEv
__ZN3JSC9JITThunks15tryCachePutByIDEPNS_9ExecStateEPNS_9CodeBlockENS_16ReturnAddressPtrENS_7JSValueERKNS_15PutPropertySlotEPNS_
_cti_op_negate
__ZN3JSC7UString4fromEj
__ZL12makeMultNodePN3JSC12JSGlobalDataEPNS_14ExpressionNodeES3_b
__ZN3JSC9EqualNode12emitBytecodeERNS_17BytecodeGeneratorEPNS_10RegisterIDE
__ZN3JSC17BytecodeGenerator14emitEqualityOpENS_8OpcodeIDEPNS_10RegisterIDES3_S3_
__ZN3JSC3JIT11emit_op_notEPNS_11InstructionE
__ZN3JSC3JIT11emit_op_mulEPNS_11InstructionE
__ZN3JSC3JIT10emit_op_eqEPNS_11InstructionE
__ZN3JSC3JIT15emitSlow_op_notEPNS_11InstructionERPNS_13SlowCaseEntryE
__ZN3JSC3JIT15emitSlow_op_mulEPNS_11InstructionERPNS_13SlowCaseEntryE
__ZN3JSC3JIT14emitSlow_op_eqEPNS_11InstructionERPNS_13SlowCaseEntryE
_cti_op_not
__ZN3JSC17ReadModifyDotNode12emitBytecodeERNS_17BytecodeGeneratorEPNS_10RegisterIDE
__ZN3JSC17BytecodeGenerator10emitPreDecEPNS_10RegisterIDE
__ZN3JSC3JIT16emit_op_jnlesseqEPNS_11InstructionE
__ZN3JSC3JIT15emit_op_jlesseqEPNS_11InstructionEb
__ZN3JSC3JIT15emit_op_pre_decEPNS_11InstructionE
__ZN3JSC3JIT22emit_op_loop_if_lesseqEPNS_11InstructionE
__ZN3JSC3JIT20emitSlow_op_jnlesseqEPNS_11InstructionERPNS_13SlowCaseEntryE
__ZN3JSC3JIT19emitSlow_op_jlesseqEPNS_11InstructionERPNS_13SlowCaseEntryEb
__ZN3JSC3JIT19emitSlow_op_pre_decEPNS_11InstructionERPNS_13SlowCaseEntryE
__ZN3JSC3JIT26emitSlow_op_loop_if_lesseqEPNS_11InstructionERPNS_13SlowCaseEntryE
__ZN3JSC17powThunkGeneratorEPNS_12JSGlobalDataEPNS_14ExecutablePoolE
__ZN3JSC19SpecializedThunkJIT12returnDoubleENS_12X86Registers13XMMRegisterIDE
__ZN3JSC19SpecializedThunkJITD1Ev
__ZN3JSCL16mathProtoFuncSinEPNS_9ExecStateEPNS_8JSObjectENS_7JSValueERKNS_7ArgListE
__ZN3JSCL16mathProtoFuncMinEPNS_9ExecStateEPNS_8JSObjectENS_7JSValueERKNS_7ArgListE
__ZN3JSCL18mathProtoFuncRoundEPNS_9ExecStateEPNS_8JSObjectENS_7JSValueERKNS_7ArgListE
__ZN3JSCL16mathProtoFuncLogEPNS_9ExecStateEPNS_8JSObjectENS_7JSValueERKNS_7ArgListE
__ZN3JSC3JIT20patchMethodCallProtoEPNS_9CodeBlockERNS_18MethodCallLinkInfoEPNS_10JSFunctionEPNS_9StructureEPNS_8JSObjectENS_16R
__ZN3JSC3JIT31privateCompilePutByIdTransitionEPNS_17StructureStubInfoEPNS_9StructureES4_mPNS_14StructureChainENS_16ReturnAddres
__ZN3JSC3JIT13testPrototypeEPNS_9StructureERNS_22AbstractMacroAssemblerINS_12X86AssemblerEE8JumpListE
__ZN3JSCL16mathProtoFuncAbsEPNS_9ExecStateEPNS_8JSObjectENS_7JSValueERKNS_7ArgListE
_cti_op_jlesseq
__ZN3WTF6VectorIPN3JSC12CallLinkInfoELm0EE15reserveCapacityEm
__ZN3JSC10IfElseNode12emitBytecodeERNS_17BytecodeGeneratorEPNS_10RegisterIDE
__ZN3JSC17TypeOfResolveNode12emitBytecodeERNS_17BytecodeGeneratorEPNS_10RegisterIDE
__ZN3JSC7TryNode12emitBytecodeERNS_17BytecodeGeneratorEPNS_10RegisterIDE
__ZN3JSC17BytecodeGenerator9emitCatchEPNS_10RegisterIDEPNS_5LabelES4_
__ZN3JSC9CodeBlock25createRareDataIfNecessaryEv
__ZN3WTF6VectorIN3JSC11HandlerInfoELm0EE14expandCapacityEm
__ZN3JSC17BytecodeGenerator16emitPushNewScopeEPNS_10RegisterIDERKNS_10IdentifierES2_
__ZN3WTF6VectorIN3JSC18ControlFlowContextELm0EE14expandCapacityEm
__ZN3JSC15TypeOfValueNode12emitBytecodeERNS_17BytecodeGeneratorEPNS_10RegisterIDE
__ZN3JSCeqERKNS_7UStringEPKc
__ZN3JSC17BytecodeGenerator12emitPopScopeEv
__ZN3WTF6VectorIN3JSC15SimpleJumpTableELm0EE14shrinkCapacityEm
__ZN3WTF6VectorIN3JSC15StringJumpTableELm0EE14shrinkCapacityEm
__ZN3JSC3JIT13emit_op_catchEPNS_11InstructionE
__ZN3JSC3JIT22emit_op_push_new_scopeEPNS_11InstructionE
__ZN3JSC3JIT15emit_op_resolveEPNS_11InstructionE
__ZN3JSC3JIT20emit_op_resolve_baseEPNS_11InstructionE
__ZN3JSC3JIT17emit_op_pop_scopeEPNS_11InstructionE
__ZL15makePostfixNodePN3JSC12JSGlobalDataEPNS_14ExpressionNodeENS_8OperatorEiii
__ZN3JSC12BinaryOpNode10emitStrcatERNS_17BytecodeGeneratorEPNS_10RegisterIDES4_PNS_21ReadModifyResolveNodeE
__ZNK3JSC10StringNode8isStringEv
__ZNK3JSC14ExpressionNode8isStringEv
__ZN3JSC17BytecodeGenerator15emitToPrimitiveEPNS_10RegisterIDES2_
__ZN3JSC17BytecodeGenerator10emitStrcatEPNS_10RegisterIDES2_i
__ZN3JSC18PostfixResolveNode12emitBytecodeERNS_17BytecodeGeneratorEPNS_10RegisterIDE
__ZN3JSC3JIT11emit_op_modEPNS_11InstructionE
__ZN3JSC23MacroAssemblerX86Common8branch32ENS0_9ConditionENS_12X86Registers10RegisterIDENS_22AbstractMacroAssemblerINS_12X86Ass
__ZN3JSC3JIT20emit_op_to_primitiveEPNS_11InstructionE
__ZN3JSC23MacroAssemblerX86Common4moveENS_22AbstractMacroAssemblerINS_12X86AssemblerEE6ImmPtrENS_12X86Registers10RegisterIDE
__ZN3JSC3JIT14emit_op_strcatEPNS_11InstructionE
__ZN3JSC3JIT15emitSlow_op_modEPNS_11InstructionERPNS_13SlowCaseEntryE
__ZN3JSC3JIT24emitSlow_op_to_primitiveEPNS_11InstructionERPNS_13SlowCaseEntryE
__ZN3JSCL18mathProtoFuncFloorEPNS_9ExecStateEPNS_8JSObjectENS_7JSValueERKNS_7ArgListE
__ZN3JSCL17mathProtoFuncCeilEPNS_9ExecStateEPNS_8JSObjectENS_7JSValueERKNS_7ArgListE
_cti_op_strcat
__ZNK3JSC19BracketAccessorNode10isLocationEv
__ZNK3JSC19BracketAccessorNode21isBracketAccessorNodeEv
__ZN3JSC17AssignBracketNode12emitBytecodeERNS_17BytecodeGeneratorEPNS_10RegisterIDE
__ZN3JSC17BytecodeGenerator12emitPutByValEPNS_10RegisterIDES2_S2_
__ZN3JSC3JIT18emit_op_put_by_valEPNS_11InstructionE
__ZN3JSC3JIT22emitSlow_op_put_by_valEPNS_11InstructionERPNS_13SlowCaseEntryE
__ZN3JSC14ArrayPrototype18getOwnPropertySlotEPNS_9ExecStateERKNS_10IdentifierERNS_12PropertySlotE
__ZN3JSC14LogicalNotNode30emitBytecodeInConditionContextERNS_17BytecodeGeneratorEPNS_5LabelES4_b
__ZN3JSC8JSString18getOwnPropertySlotEPNS_9ExecStateERKNS_10IdentifierERNS_12PropertySlotE
__ZN3JSC15StringPrototype18getOwnPropertySlotEPNS_9ExecStateERKNS_10IdentifierERNS_12PropertySlotE
__ZN3JSC12StringObject18getOwnPropertySlotEPNS_9ExecStateERKNS_10IdentifierERNS_12PropertySlotE
__ZN3JSCL21stringProtoFuncSubstrEPNS_9ExecStateEPNS_8JSObjectENS_7JSValueERKNS_7ArgListE
__ZNK3JSC7JSValue9toIntegerEPNS_9ExecStateE
__ZN7WebCore10StringImpl6createEN3WTF10PassRefPtrIS0_EEjj
__ZN3WTF6RefPtrIN7WebCore10StringImplEED1Ev
__ZN3JSCL18arrayProtoFuncJoinEPNS_9ExecStateEPNS_8JSObjectENS_7JSValueERKNS_7ArgListE
__ZNK3JSC8JSObject12toThisObjectEPNS_9ExecStateE
__ZN3WTF7HashSetIPN3JSC8JSObjectENS_7PtrHashIS3_EENS_10HashTraitsIS3_EEE3addERKS3_
__ZN3WTF9HashTableIPN3JSC8JSObjectES3_NS_17IdentityExtractorIS3_EENS_7PtrHashIS3_EENS_10HashTraitsIS3_EES9_E6rehashEi
__ZNK3JSC8JSObject3getEPNS_9ExecStateERKNS_10IdentifierE
__ZN3JSC15JSStringBuilder5buildEPNS_9ExecStateE
__ZN3WTF6VectorItLm64EE17tryExpandCapacityEm
__ZN3JSCL18arrayProtoFuncPushEPNS_9ExecStateEPNS_8JSObjectENS_7JSValueERKNS_7ArgListE
__ZN3JSC7JSArray4pushEPNS_9ExecStateENS_7JSValueE
__ZN3WTF14tryFastReallocEPvm
__ZN3JSC4Heap15recordExtraCostEm
__ZN3JSC17BytecodeGenerator16emitPutScopedVarEmiPNS_10RegisterIDENS_7JSValueE
__ZN3JSC3JIT22emit_op_put_scoped_varEPNS_11InstructionE
__ZN3JSC3JIT29emitPutVariableObjectRegisterENS_12X86Registers10RegisterIDES2_i
__ZN3JSC3JIT22emit_op_put_global_varEPNS_11InstructionE
_cti_op_put_by_index
__ZN3JSC7JSArray3putEPNS_9ExecStateEjNS_7JSValueE
__ZN3JSC7JSArray11putSlowCaseEPNS_9ExecStateEjNS_7JSValueE
__ZNK3JSC11BooleanNode6isPureERNS_17BytecodeGeneratorE
__ZN3JSC10JSFunction3putEPNS_9ExecStateERKNS_10IdentifierENS_7JSValueERNS_15PutPropertySlotE
__ZNK7WebCore12AtomicString5lowerEv
_cti_op_get_by_id_proto_list
__ZN3JSC3JIT30privateCompileGetByIdChainListEPNS_17StructureStubInfoEPNS_30PolymorphicAccessStructureListEiPNS_9StructureEPNS_1
__ZN3JSC3JIT22emit_op_get_scoped_varEPNS_11InstructionE
_cti_op_put_by_val
__ZNK3JSC12JSActivation14isDynamicScopeERb
__ZN3JSC24ApplyFunctionCallDotNode12emitBytecodeERNS_17BytecodeGeneratorEPNS_10RegisterIDE
__ZNK3JSC14ExpressionNode13isSimpleArrayEv
__ZN3JSC17BytecodeGenerator26emitJumpIfNotFunctionApplyEPNS_10RegisterIDEPNS_5LabelE
__ZN3JSC17BytecodeGenerator22willResolveToArgumentsERKNS_10IdentifierE
__ZN3JSC17BytecodeGenerator15emitLoadVarargsEPNS_10RegisterIDES2_
__ZN3JSC17BytecodeGenerator15emitCallVarargsEPNS_10RegisterIDES2_S2_S2_jjj
__ZN3JSC3JIT16emit_op_jneq_ptrEPNS_11InstructionE
__ZN3JSC3JIT20emit_op_load_varargsEPNS_11InstructionE
__ZN3JSC3JIT20emit_op_call_varargsEPNS_11InstructionE
__ZN3JSC3JIT20compileOpCallVarargsEPNS_11InstructionE
__ZN3JSC3JIT29compileOpCallVarargsSetupArgsEPNS_11InstructionE
__ZN3JSC3JIT24emitSlow_op_call_varargsEPNS_11InstructionERPNS_13SlowCaseEntryE
__ZN3JSC3JIT28compileOpCallVarargsSlowCaseEPNS_11InstructionERPNS_13SlowCaseEntryE
__ZN3JSC14ExecutablePool13systemReleaseERKNS0_10AllocationE
_JSStringCreateWithCFString
_JSStringRetain
_JSStringRelease
_JSEvaluateScript
__ZN3JSC4Heap14registerThreadEv
__ZNK14OpaqueJSString7ustringEv
__ZN3JSC7UStringC1EPKtj
__ZN3JSC5Lexer10scanRegExpERPKNS_10IdentifierES4_t
__ZN3JSC18ConstStatementNode12emitBytecodeERNS_17BytecodeGeneratorEPNS_10RegisterIDE
__ZN3JSC13ConstDeclNode12emitBytecodeERNS_17BytecodeGeneratorEPNS_10RegisterIDE
__ZN3JSC13ConstDeclNode14emitCodeSingleERNS_17BytecodeGeneratorE
__ZN3JSC17BytecodeGenerator16constRegisterForERKNS_10IdentifierE
__ZN3JSC10RegExpNode12emitBytecodeERNS_17BytecodeGeneratorEPNS_10RegisterIDE
__ZN3JSC6RegExp6createEPNS_12JSGlobalDataERKNS_7UStringES5_
__ZNK3JSC7UString4findEtj
__ZN3JSC4Yarr15jitCompileRegexEPNS_12JSGlobalDataERNS0_14RegexCodeBlockERKNS_7UStringERjRPKcbb
__ZN3JSC4Yarr12compileRegexERKNS_7UStringERNS0_12RegexPatternE
__ZN3JSC4Yarr6ParserINS0_23RegexPatternConstructorEE5parseEv
__ZN3JSC4Yarr18PatternDisjunction17addNewAlternativeEv
__ZN3WTF6VectorIPN3JSC4Yarr18PatternAlternativeELm0EE15reserveCapacityEm
__ZN3JSC4Yarr23RegexPatternConstructor20atomPatternCharacterEt
__ZN3WTF6VectorIN3JSC4Yarr11PatternTermELm0EE14expandCapacityEmPKS3_
__ZN3WTF6VectorIN3JSC4Yarr11PatternTermELm0EE14expandCapacityEm
__ZN3JSC4Yarr6ParserINS0_23RegexPatternConstructorEE11parseEscapeILb0ES2_EEbRT0_
__ZN3JSC4Yarr14RegexGenerator19generateDisjunctionEPNS0_18PatternDisjunctionE
__ZN3JSC12X86Assembler7addl_irEiNS_12X86Registers10RegisterIDE
__ZN3JSC23MacroAssemblerX86Common8branch32ENS0_9ConditionENS_12X86Registers10RegisterIDES3_
__ZN3JSC4Yarr14RegexGenerator12generateTermERNS1_19TermGenerationStateE
__ZN3JSC12X86Assembler23X86InstructionFormatter9oneByteOpENS0_15OneByteOpcodeIDEiNS_12X86Registers10RegisterIDES4_ii
__ZN3JSC4Yarr14RegexGenerator19TermGenerationState15jumpToBacktrackENS_22AbstractMacroAssemblerINS_12X86AssemblerEE4JumpEPNS_14
__ZN3JSC4Yarr14RegexGenerator19jumpIfCharNotEqualsEti
__ZN3JSC12X86Assembler7subl_irEiNS_12X86Registers10RegisterIDE
__ZN3JSC22AbstractMacroAssemblerINS_12X86AssemblerEE8JumpList4linkEPS2_
__ZN3WTF15deleteAllValuesIPN3JSC4Yarr18PatternDisjunctionELm4EEEvRKNS_6VectorIT_XT0_EEE
__ZN3WTF15deleteAllValuesIPN3JSC4Yarr14CharacterClassELm0EEEvRKNS_6VectorIT_XT0_EEE
__ZN3JSC17BytecodeGenerator8emitLoadEPNS_10RegisterIDEPNS_6RegExpE
__ZN3JSC12RegExpObjectC1EN3WTF17NonNullPassRefPtrINS_9StructureEEENS2_INS_6RegExpEEE
__ZN3JSC12RegExpObjectC2EN3WTF17NonNullPassRefPtrINS_9StructureEEENS2_INS_6RegExpEEE
__ZN3JSC4Yarr23RegexPatternConstructor30atomParenthesesSubpatternBeginEb
__ZN3JSC4Yarr25CharacterClassConstructor7putCharEt
__ZN3JSC4Yarr25CharacterClassConstructor9addSortedERN3WTF6VectorItLm0EEEt
__ZN3WTF6VectorItLm0EE14expandCapacityEm
__ZN3JSC4Yarr23RegexPatternConstructor21atomCharacterClassEndEv
__ZN3WTF6VectorIPN3JSC4Yarr14CharacterClassELm0EE14expandCapacityEmPKS4_
__ZN3WTF6VectorIPN3JSC4Yarr14CharacterClassELm0EE14expandCapacityEm
__ZN3WTF6VectorIPN3JSC4Yarr18PatternDisjunctionELm4EE14expandCapacityEm
__ZN3JSC4Yarr23RegexPatternConstructor23setupDisjunctionOffsetsEPNS0_18PatternDisjunctionEjj
__ZN3JSC4Yarr14RegexGenerator25generateParenthesesSingleERNS1_19TermGenerationStateE
__ZN3JSC4Yarr14RegexGenerator30generateParenthesesDisjunctionERNS0_11PatternTermERNS1_19TermGenerationStateEj
__ZN3WTF6VectorIN3JSC4Yarr14RegexGenerator26AlternativeBacktrackRecordELm0EE14expandCapacityEm
__ZN3JSC4Yarr14RegexGenerator28generateCharacterClassGreedyERNS1_19TermGenerationStateE
__ZN3JSC4Yarr14RegexGenerator19matchCharacterClassENS_12X86Registers10RegisterIDERNS_22AbstractMacroAssemblerINS_12X86Assembler
__ZN3JSC23MacroAssemblerX86Common4jumpEv
__ZN3JSC4Yarr14RegexGenerator13readCharacterEiNS_12X86Registers10RegisterIDE
__ZN3JSC12StringObject3putEPNS_9ExecStateERKNS_10IdentifierENS_7JSValueERNS_15PutPropertySlotE
_JSContextGetGlobalObject
__ZN3WTF13wtfThreadDataEv
_JSClassCreate
__ZN13OpaqueJSClass6createEPK17JSClassDefinition
__ZN13OpaqueJSClassC2EPK17JSClassDefinitionPS_
__ZN3WTF7Unicode18convertUTF8ToUTF16EPPKcS2_PPtS4_b
_JSClassRetain
_JSObjectMake
__ZN3JSC16JSCallbackObjectINS_8JSObjectEE4initEPNS_9ExecStateE
__ZN13OpaqueJSClass9prototypeEPN3JSC9ExecStateE
__ZN13OpaqueJSClass11contextDataEPN3JSC9ExecStateE
__ZN3WTF9HashTableIP13OpaqueJSClassSt4pairIS2_P24OpaqueJSClassContextDataENS_18PairFirstExtractorIS6_EENS_7PtrHashIS2_EENS_14Pa
__ZN24OpaqueJSClassContextDataC2EP13OpaqueJSClass
_JSStringCreateWithUTF8CString
_JSObjectSetProperty
__ZN3JSC12APIEntryShimC1EPNS_9ExecStateEb
__ZNK14OpaqueJSString10identifierEPN3JSC12JSGlobalDataE
_JSClassRelease
_JSContextGetGlobalContext
_JSGlobalContextRetain
_JSObjectGetProperty
_JSValueToObject
_JSValueProtect
_JSObjectIsFunction
_JSObjectCallAsFunction
__ZN3JSC4callEPNS_9ExecStateENS_7JSValueENS_8CallTypeERKNS_8CallDataES2_RKNS_7ArgListE
__ZN3JSC10JSFunction4callEPNS_9ExecStateENS_7JSValueERKNS_7ArgListE
__ZN3JSC11Interpreter7executeEPNS_18FunctionExecutableEPNS_9ExecStateEPNS_10JSFunctionEPNS_8JSObjectERKNS_7ArgListEPNS_14ScopeC
__ZNK3JSC8NullNode6isNullEv
__ZN3JSC3JIT16emit_op_neq_nullEPNS_11InstructionE
__ZNK3JSC19JSStaticScopeObject14isDynamicScopeERb
__ZN3JSC12RegExpObject18getOwnPropertySlotEPNS_9ExecStateERKNS_10IdentifierERNS_12PropertySlotE
__ZN3JSCL19regExpProtoFuncTestEPNS_9ExecStateEPNS_8JSObjectENS_7JSValueERKNS_7ArgListE
__ZNK3JSC12RegExpObject9classInfoEv
__ZN3JSC12RegExpObject4testEPNS_9ExecStateERKNS_7ArgListE
__ZN3JSC12RegExpObject5matchEPNS_9ExecStateERKNS_7ArgListE
__ZN3JSC6RegExp5matchERKNS_7UStringEiPN3WTF6VectorIiLm32EEE
__ZN3JSC9WhileNode12emitBytecodeERNS_17BytecodeGeneratorEPNS_10RegisterIDE
__ZN3JSC15StrictEqualNode12emitBytecodeERNS_17BytecodeGeneratorEPNS_10RegisterIDE
__ZN3JSC3JIT16emit_op_stricteqEPNS_11InstructionE
__ZN3JSC3JIT17compileOpStrictEqEPNS_11InstructionENS0_21CompileOpStrictEqTypeE
__ZN3JSC3JIT17emit_op_nstricteqEPNS_11InstructionE
__ZN3JSC3JIT20emitSlow_op_stricteqEPNS_11InstructionERPNS_13SlowCaseEntryE
__ZN3JSC3JIT21emitSlow_op_nstricteqEPNS_11InstructionERPNS_13SlowCaseEntryE
__ZN3JSC12ContinueNode12emitBytecodeERNS_17BytecodeGeneratorEPNS_10RegisterIDE
__ZN3JSC17BytecodeGenerator14continueTargetERKNS_10IdentifierE
__ZN3JSCL7dateNowEPNS_9ExecStateEPNS_8JSObjectENS_7JSValueERKNS_7ArgListE
_cti_op_get_by_val
__ZN7WebCore10StringImpl5upperEv
_cti_op_get_by_id_generic
_cti_op_put_by_id_fail
__ZNK3JSC7UString8toUInt32EPbb
__ZNK3JSC7UString8toDoubleEbb
__ZNK3JSC7UString10UTF8StringEb
__ZN3JSC18globalFuncParseIntEPNS_9ExecStateEPNS_8JSObjectENS_7JSValueERKNS_7ArgListE
__ZN3JSC12nonInlineNaNEv
__ZN3JSC15toInt32SlowCaseEdRb
__ZN3JSCL8parseIntERKNS_7UStringEi
__ZN3JSC15globalFuncIsNaNEPNS_9ExecStateEPNS_8JSObjectENS_7JSValueERKNS_7ArgListE
__ZNK7WebCore6String8toDoubleEPb
__ZN7WebCore10StringImpl8toDoubleEPb
__ZN3JSC4Yarr6ParserINS0_23RegexPatternConstructorEE11parseEscapeILb1ENS3_28CharacterClassParserDelegateEEEbRT0_
__ZN3JSC4Yarr12spacesCreateEv
__ZN3WTF6VectorIN3JSC4Yarr14CharacterRangeELm0EE14expandCapacityEmPKS3_
__ZN3WTF6VectorIN3JSC4Yarr14CharacterRangeELm0EE14expandCapacityEm
__ZN3JSC4Yarr25CharacterClassConstructor6appendEPKNS0_14CharacterClassE
__ZN3JSC4Yarr25CharacterClassConstructor14addSortedRangeERN3WTF6VectorINS0_14CharacterRangeELm0EEEtt
__ZN3JSC4Yarr6ParserINS0_23RegexPatternConstructorEE28CharacterClassParserDelegate20atomPatternCharacterEt
__ZN3JSC4Yarr14RegexGenerator24matchCharacterClassRangeENS_12X86Registers10RegisterIDERNS_22AbstractMacroAssemblerINS_12X86Asse
__ZN3WTF6VectorIN3JSC22AbstractMacroAssemblerINS1_12X86AssemblerEE4JumpELm16EED1Ev
_cti_op_nstricteq
__ZN3JSC27ctiPatchCallByReturnAddressEPNS_9CodeBlockENS_16ReturnAddressPtrENS_21MacroAssemblerCodePtrE
__ZNK3JSC8JSString9toBooleanEPNS_9ExecStateE
_cti_op_is_string
__ZN3JSCL16mathProtoFuncPowEPNS_9ExecStateEPNS_8JSObjectENS_7JSValueERKNS_7ArgListE
_cti_op_get_by_id_proto_list_full
_cti_op_put_by_id_transition_realloc
_cti_timeout_check
__ZN3JSC14TimeoutChecker10didTimeOutEPNS_9ExecStateE
_cti_op_mul
__ZN3JSC4Yarr23RegexPatternConstructor25atomBuiltInCharacterClassENS0_23BuiltInCharacterClassIDEb
_cti_op_convert_this
__ZNK3JSC8JSString12toThisObjectEPNS_9ExecStateE
__ZN3JSC12StringObjectC1EN3WTF17NonNullPassRefPtrINS_9StructureEEEPNS_8JSStringE
__ZN3JSCL22stringProtoFuncReplaceEPNS_9ExecStateEPNS_8JSObjectENS_7JSValueERKNS_7ArgListE
__ZNK3JSC7JSValue12toThisObjectEPNS_9ExecStateE
__ZNK3JSC8JSObject8toStringEPNS_9ExecStateE
__ZNK3JSC8JSObject11toPrimitiveEPNS_9ExecStateENS_22PreferredPrimitiveTypeE
__ZNK3JSC8JSObject12defaultValueEPNS_9ExecStateENS_22PreferredPrimitiveTypeE
__ZN3JSCL23stringProtoFuncToStringEPNS_9ExecStateEPNS_8JSObjectENS_7JSValueERKNS_7ArgListE
__ZNK3JSC12StringObject9classInfoEv
__ZN7WebCore10StringImpl4costEv
__ZN3JSC6JSCell11getCallDataERNS_8CallDataE
__ZN3JSC24charCodeAtThunkGeneratorEPNS_12JSGlobalDataEPNS_14ExecutablePoolE
__ZN3JSCL14stringCharLoadERNS_19SpecializedThunkJITE
_cti_op_get_by_val_string
_JSValueToBoolean
_JSValueUnprotect
_JSGlobalContextRelease
__ZN3JSC4Heap17collectAllGarbageEv
__ZN3JSC4Heap9markRootsEv
__ZN3JSC4Heap30markStackObjectsConservativelyERNS_9MarkStackE
__ZN3JSC4Heap31markCurrentThreadConservativelyERNS_9MarkStackE
__ZN3JSC4Heap39markCurrentThreadConservativelyInternalERNS_9MarkStackE
__ZN3JSC4Heap18markConservativelyERNS_9MarkStackEPvS3_
__ZN3JSC9MarkStack12markChildrenEPNS_6JSCellE
__ZN3JSC8JSObject12markChildrenERNS_9MarkStackE
__ZN3JSC14JSGlobalObject12markChildrenERNS_9MarkStackE
__ZN3JSCL12markIfNeededERNS_9MarkStackENS_7JSValueE
__ZN3JSC10JSFunction12markChildrenERNS_9MarkStackE
__ZN3JSC18FunctionExecutable13markAggregateERNS_9MarkStackE
__ZN3JSC12JSActivation12markChildrenERNS_9MarkStackE
__ZN3JSC15JSWrapperObject12markChildrenERNS_9MarkStackE
__ZN3JSC7JSArray12markChildrenERNS_9MarkStackE
__ZN3JSC18GlobalEvalFunction12markChildrenERNS_9MarkStackE
__ZN3JSC9CodeBlock13markAggregateERNS_9MarkStackE
__ZN3JSC16JSCallbackObjectINS_8JSObjectEE12markChildrenERNS_9MarkStackE
__ZN3JSC19JSStaticScopeObject12markChildrenERNS_9MarkStackE
__ZN3JSC9MarkStack12releaseStackEPvm
__ZN3JSC4Heap20markProtectedObjectsERNS_9MarkStackE
__ZN3JSC12SmallStrings12markChildrenERNS_9MarkStackE
__ZN3JSC9MarkStack7compactEv
__ZN3JSC4Heap5sweepEv
__ZN3JSC12DateInstanceD1Ev
__ZN3JSC9CodeBlock13unlinkCallersEv
__ZN3JSC8JSObjectD1Ev
__ZN3JSC12JSActivationD1Ev
__ZN3JSC12JSActivationD2Ev
__ZN3JSC12StringObjectD1Ev
__ZN3JSC4Heap12resizeBlocksEv
__ZN3WTF6VectorIPN3JSC14ExpressionNodeELm8EE14expandCapacityEm
__ZN3WTF6VectorIPNS0_IN3JSC10RegisterIDELm32EEELm32EE14expandCapacityEmPKS4_
__ZN3WTF6VectorIPNS0_IN3JSC10RegisterIDELm32EEELm32EE15reserveCapacityEm
__ZN3JSC8VoidNode12emitBytecodeERNS_17BytecodeGeneratorEPNS_10RegisterIDE
__ZN3JSC4Yarr6ParserINS0_23RegexPatternConstructorEE15parseQuantifierEbjj
__ZN3JSC4Yarr14RegexGenerator19TermGenerationState15jumpToBacktrackERNS_22AbstractMacroAssemblerINS_12X86AssemblerEE8JumpListEP
__ZN3JSC4Yarr14wordcharCreateEv
__ZN3JSC4Yarr12digitsCreateEv
__ZN3JSC4Yarr14RegexGenerator30generatePatternCharacterGreedyERNS1_19TermGenerationStateE
__ZN3WTF6VectorINS_6RefPtrIN3JSC10RegisterIDEEELm16EE14expandCapacityEm
___initializeScavenger_block_invoke_1
__Z22TCMalloc_SystemReleasePvm
__Z21TCMalloc_SystemCommitPvm
__ZNK3JSC7JSValue20toThisObjectSlowCaseEPNS_9ExecStateE
__ZN3JSCL19mathProtoFuncRandomEPNS_9ExecStateEPNS_8JSObjectENS_7JSValueERKNS_7ArgListE
__ZNK3JSC7JSValue19synthesizePrototypeEPNS_9ExecStateE
__ZN3JSCL23numberProtoFuncToStringEPNS_9ExecStateEPNS_8JSObjectENS_7JSValueERKNS_7ArgListE
__ZN3JSC17NumberConstructor18getOwnPropertySlotEPNS_9ExecStateERKNS_10IdentifierERNS_12PropertySlotE
__ZN3JSCL25numberConstructorMaxValueEPNS_9ExecStateENS_7JSValueERKNS_10IdentifierE
__ZN3JSC18sqrtThunkGeneratorEPNS_12JSGlobalDataEPNS_14ExecutablePoolE
__ZN3JSC3JIT26privateCompileGetByIdProtoEPNS_17StructureStubInfoEPNS_9StructureES4_RKNS_10IdentifierERKNS_12PropertySlotEmNS_16
__ZN3JSC8JSObject3putEPNS_9ExecStateEjNS_7JSValueE
__ZN3JSC10Identifier4fromEPNS_9ExecStateEj
__ZN3JSC4Yarr13newlineCreateEv
__ZN3JSC4Yarr14RegexGenerator29generateAssertionWordBoundaryERNS1_19TermGenerationStateE
__ZN3JSC4Yarr14RegexGenerator22matchAssertionWordcharERNS1_19TermGenerationStateERNS_22AbstractMacroAssemblerINS_12X86Assembler
__ZN3JSCL26stringProtoFuncToLowerCaseEPNS_9ExecStateEPNS_8JSObjectENS_7JSValueERKNS_7ArgListE
__ZN3JSCL22stringProtoFuncIndexOfEPNS_9ExecStateEPNS_8JSObjectENS_7JSValueERKNS_7ArgListE
__ZNK3JSC7UString4findERKS0_j
__ZN3JSC17RegExpConstructor18getOwnPropertySlotEPNS_9ExecStateERKNS_10IdentifierERNS_12PropertySlotE
__ZN3JSC17RegExpConstructor16getConstructDataERNS_13ConstructDataE
__ZN3JSCL30constructWithRegExpConstructorEPNS_9ExecStateEPNS_8JSObjectERKNS_7ArgListE
__ZN3JSC15constructRegExpEPNS_9ExecStateERKNS_7ArgListE
__ZNK3JSC6JSCell9classInfoEv
__ZN3JSCL19regExpProtoFuncExecEPNS_9ExecStateEPNS_8JSObjectENS_7JSValueERKNS_7ArgListE
__ZN3JSC12RegExpObject4execEPNS_9ExecStateERKNS_7ArgListE
__ZNK3JSC17RegExpConstructor14arrayOfMatchesEPNS_9ExecStateE
__ZN3JSC18RegExpMatchesArrayC2EPNS_9ExecStateEPNS_24RegExpConstructorPrivateE
__ZN3JSC7JSArrayC2EN3WTF17NonNullPassRefPtrINS_9StructureEEEj
__ZN3JSC7JSArray15setSubclassDataEPv
__ZN3JSCL24regExpConstructorDollar1EPNS_9ExecStateENS_7JSValueERKNS_10IdentifierE
__ZNK3JSC17RegExpConstructor10getBackrefEPNS_9ExecStateEj
__ZN3JSC20globalFuncParseFloatEPNS_9ExecStateEPNS_8JSObjectENS_7JSValueERKNS_7ArgListE
_cti_op_put_by_id_generic
__ZN3JSC17BytecodeGenerator29uncheckedRegisterForArgumentsEv
__ZN3JSC3JIT22emit_op_init_argumentsEPNS_11InstructionE
__ZN3JSC3JIT24emit_op_create_argumentsEPNS_11InstructionE
__ZN3JSC20MacroAssemblerX86_6413branchTestPtrENS_23MacroAssemblerX86Common9ConditionENS_22AbstractMacroAssemblerINS_12X86Assemb
_cti_op_load_varargs
__ZN3JSC3JIT19patchPutByIdReplaceEPNS_9CodeBlockEPNS_17StructureStubInfoEPNS_9StructureEmNS_16ReturnAddressPtrE
__ZN3JSC21ThrowableBinaryOpNode12emitBytecodeERNS_17BytecodeGeneratorEPNS_10RegisterIDE
__ZN3JSCL20stringProtoFuncSplitEPNS_9ExecStateEPNS_8JSObjectENS_7JSValueERKNS_7ArgListE
_cti_op_in
__ZN3JSCL19arrayProtoFuncShiftEPNS_9ExecStateEPNS_8JSObjectENS_7JSValueERKNS_7ArgListE
__ZNK3JSC7JSValue8toUInt32EPNS_9ExecStateE
__ZN3JSC7JSArray18getOwnPropertySlotEPNS_9ExecStateEjRNS_12PropertySlotE
__ZN3JSC7JSArray14deletePropertyEPNS_9ExecStateEj
__ZN3JSC7JSArray3putEPNS_9ExecStateERKNS_10IdentifierENS_7JSValueERNS_15PutPropertySlotE
__ZN3JSC7JSArray9setLengthEj
__ZN3JSC23CallFunctionCallDotNode12emitBytecodeERNS_17BytecodeGeneratorEPNS_10RegisterIDE
__ZN3JSC17BytecodeGenerator25emitJumpIfNotFunctionCallEPNS_10RegisterIDEPNS_5LabelE
_cti_op_create_arguments
__ZN3JSC9Arguments18getOwnPropertySlotEPNS_9ExecStateERKNS_10IdentifierERNS_12PropertySlotE
__ZN3JSC3JIT30privateCompileGetByIdProtoListEPNS_17StructureStubInfoEPNS_30PolymorphicAccessStructureListEiPNS_9StructureES6_RK
__ZN3JSC9ForInNode12emitBytecodeERNS_17BytecodeGeneratorEPNS_10RegisterIDE
__ZN3JSC17BytecodeGenerator20emitGetPropertyNamesEPNS_10RegisterIDES2_S2_S2_PNS_5LabelE
__ZN3WTF6VectorIN3JSC12ForInContextELm0EE15reserveCapacityEm
__ZN3JSC17BytecodeGenerator20emitNextPropertyNameEPNS_10RegisterIDES2_S2_S2_S2_PNS_5LabelE
__ZN3JSC3JIT18emit_op_get_pnamesEPNS_11InstructionE
__ZN3JSC3JIT20emit_op_get_by_pnameEPNS_11InstructionE
__ZN3JSC3JIT22compileGetDirectOffsetENS_12X86Registers10RegisterIDES2_S2_S2_S2_
__ZN3JSC3JIT18emit_op_next_pnameEPNS_11InstructionE
__ZN3JSC3JIT24emitSlow_op_get_by_pnameEPNS_11InstructionERPNS_13SlowCaseEntryE
_cti_op_get_pnames
__ZN3JSC22JSPropertyNameIterator6createEPNS_9ExecStateEPNS_8JSObjectE
__ZN3JSC8JSObject16getPropertyNamesEPNS_9ExecStateERNS_17PropertyNameArrayENS_15EnumerationModeE
__ZN3JSC8JSObject19getOwnPropertyNamesEPNS_9ExecStateERNS_17PropertyNameArrayENS_15EnumerationModeE
__ZN3JSC9Structure16getPropertyNamesERNS_17PropertyNameArrayENS_15EnumerationModeE
__ZN3JSCL29objectProtoFuncHasOwnPropertyEPNS_9ExecStateEPNS_8JSObjectENS_7JSValueERKNS_7ArgListE
__ZNK3JSC8JSObject14hasOwnPropertyEPNS_9ExecStateERKNS_10IdentifierE
__ZN3JSC8JSObject18getOwnPropertySlotEPNS_9ExecStateERKNS_10IdentifierERNS_12PropertySlotE
_cti_op_typeof
__ZN3JSC20jsTypeStringForValueEPNS_9ExecStateENS_7JSValueE
__ZN3JSC9Structure27despecifyFunctionTransitionEPS0_RKNS_10IdentifierE
_cti_has_property
__ZN3JSC3JIT26emit_op_tear_off_argumentsEPNS_11InstructionE
__ZN3JSCL19arrayProtoFuncSliceEPNS_9ExecStateEPNS_8JSObjectENS_7JSValueERKNS_7ArgListE
__ZN3JSCL11getPropertyEPNS_9ExecStateEPNS_8JSObjectEj
__ZN3JSC9Arguments18getOwnPropertySlotEPNS_9ExecStateEjRNS_12PropertySlotE
_cti_op_tear_off_arguments
__ZN3JSC10JSFunction19getOwnPropertyNamesEPNS_9ExecStateERNS_17PropertyNameArrayENS_15EnumerationModeE
__ZNK3JSC10JSFunction9classInfoEv
__ZN3JSC17DeleteBracketNode12emitBytecodeERNS_17BytecodeGeneratorEPNS_10RegisterIDE
__ZN3JSC17BytecodeGenerator15emitDeleteByValEPNS_10RegisterIDES2_S2_
__ZN3JSC8JSObject18getOwnPropertySlotEPNS_9ExecStateEjRNS_12PropertySlotE
_cti_op_del_by_val
__ZN3JSC8JSObject14deletePropertyEPNS_9ExecStateERKNS_10IdentifierE
_cti_op_is_boolean
__ZN3JSC10SwitchNode12emitBytecodeERNS_17BytecodeGeneratorEPNS_10RegisterIDE
__ZN3JSC13CaseBlockNode20emitBytecodeForBlockERNS_17BytecodeGeneratorEPNS_10RegisterIDES4_
__ZN3JSC13CaseBlockNode18tryOptimizedSwitchERN3WTF6VectorIPNS_14ExpressionNodeELm8EEERiS7_
__ZN3JSCL17processClauseListEPNS_14ClauseListNodeERN3WTF6VectorIPNS_14ExpressionNodeELm8EEERNS_10SwitchKindERbRiSB_
__ZN3JSC17BytecodeGenerator11beginSwitchEPNS_10RegisterIDENS_10SwitchInfo10SwitchTypeE
__ZN3WTF6VectorIN3JSC10SwitchInfoELm0EE14expandCapacityEm
__ZN3JSC17BytecodeGenerator9endSwitchEjPN3WTF6RefPtrINS_5LabelEEEPPNS_14ExpressionNodeEPS3_ii
__ZN3WTF6VectorIN3JSC15SimpleJumpTableELm0EE14expandCapacityEm
__ZNK3JSC5Label4bindEii
__ZN3JSC3JIT18emit_op_switch_immEPNS_11InstructionE
__ZN3WTF6VectorIN3JSC12SwitchRecordELm0EE14expandCapacityEm
__ZN3WTF6VectorIN3JSC17CodeLocationLabelELm0EE4growEm
_cti_op_switch_imm
__ZN3JSC4Yarr23RegexPatternConstructor8copyTermERNS0_11PatternTermE
__ZL14compileBracketiPiPPhPPKtS3_P9ErrorCodeiS_S_R11CompileData
__ZL32branchFindFirstAssertedCharacterPKhb
__ZL20branchNeedsLineStartPKhjj
__ZL17bracketIsAnchoredPKh
_cti_op_get_by_id_array_fail
__ZN3JSC17PropertyNameArray3addEPN7WebCore10StringImplE
__ZN3WTF7HashSetIPN7WebCore10StringImplENS_7PtrHashIS3_EENS_10HashTraitsIS3_EEE3addERKS3_
__ZN3WTF9HashTableIPN7WebCore10StringImplES3_NS_17IdentityExtractorIS3_EENS_7PtrHashIS3_EENS_10HashTraitsIS3_EES9_E6rehashEi
__ZN3WTF6VectorIN3JSC10IdentifierELm20EE14expandCapacityEm
__ZN3JSCL28numberConstructorPosInfinityEPNS_9ExecStateENS_7JSValueERKNS_10IdentifierE
__ZN3JSCL28numberConstructorNegInfinityEPNS_9ExecStateENS_7JSValueERKNS_10IdentifierE
__ZN3JSC4Heap5resetEv
__ZN3JSC9Arguments12markChildrenERNS_9MarkStackE
__ZN3JSC22JSPropertyNameIterator12markChildrenERNS_9MarkStackE
__ZN3JSC3JIT10unlinkCallEPNS_12CallLinkInfoE
__ZN3JSC9LabelNode12emitBytecodeERNS_17BytecodeGeneratorEPNS_10RegisterIDE
__ZN3JSC12RegExpObjectD1Ev
__ZN3JSC18RegExpMatchesArrayD1Ev
__ZNK3JSC7JSArray12subclassDataEv
__ZN3JSC15ObjectPrototype18getOwnPropertySlotEPNS_9ExecStateEjRNS_12PropertySlotE
__ZN3JSC22JSPropertyNameIteratorD1Ev
__ZN3JSC22JSPropertyNameIteratorD2Ev
__ZNK3JSC7JSArray9classInfoEv
__ZN3JSC7JSArray15copyToRegistersEPNS_9ExecStateEPNS_8RegisterEj
__ZN3JSC9ArgumentsD1Ev
__ZN3JSC9ArgumentsD2Ev
__ZN3JSC7UString4fromEd
__ZN3WTF32doubleToStringInJavaScriptFormatEdPcPj
__ZN3WTF4dtoaEPcdiPiS1_PS0_
__ZN3JSC10Identifier11addSlowCaseEPNS_12JSGlobalDataEPN7WebCore10StringImplE
__ZN3WTF6VectorIPN3JSC9StructureELm8EE14expandCapacityEm
_cti_op_resolve_base
__ZN3JSC12JSActivation18getOwnPropertySlotEPNS_9ExecStateERKNS_10IdentifierERNS_12PropertySlotE
__ZN3JSC20charAtThunkGeneratorEPNS_12JSGlobalDataEPNS_14ExecutablePoolE
__ZN3JSCL21stringProtoFuncCharAtEPNS_9ExecStateEPNS_8JSObjectENS_7JSValueERKNS_7ArgListE
__ZN3JSC17PrefixBracketNode12emitBytecodeERNS_17BytecodeGeneratorEPNS_10RegisterIDE
__ZN3JSC14PostfixDotNode12emitBytecodeERNS_17BytecodeGeneratorEPNS_10RegisterIDE
__ZN3JSC17BytecodeGenerator11emitPostIncEPNS_10RegisterIDES2_
__ZN3JSC3JIT16emit_op_post_incEPNS_11InstructionE
__ZN3JSC3JIT20emitSlow_op_post_incEPNS_11InstructionERPNS_13SlowCaseEntryE
__ZN3JSC18PostfixBracketNode12emitBytecodeERNS_17BytecodeGeneratorEPNS_10RegisterIDE
__ZN3JSC17BytecodeGenerator18pushFinallyContextEPNS_5LabelEPNS_10RegisterIDE
__ZN3JSC17BytecodeGenerator17popFinallyContextEv
__ZN3JSC17BytecodeGenerator19highestUsedRegisterEv
__ZN3JSC17BytecodeGenerator18emitJumpSubroutineEPNS_10RegisterIDEPNS_5LabelE
__ZN3JSC17BytecodeGenerator20emitSubroutineReturnEPNS_10RegisterIDE
__ZN3JSC3JIT11emit_op_jsrEPNS_11InstructionE
__ZN3WTF6VectorIN3JSC3JIT7JSRInfoELm0EE14expandCapacityEm
__ZN3JSC3JIT13emit_op_throwEPNS_11InstructionE
__ZN3JSC3JIT12emit_op_sretEPNS_11InstructionE
__ZN3JSC21ReadModifyBracketNode12emitBytecodeERNS_17BytecodeGeneratorEPNS_10RegisterIDE
_cti_op_lesseq
__ZN3JSCL20stringProtoFuncMatchEPNS_9ExecStateEPNS_8JSObjectENS_7JSValueERKNS_7ArgListE
__ZN3JSC18RegExpMatchesArray18getOwnPropertySlotEPNS_9ExecStateEjRNS_12PropertySlotE
__ZN3JSC18RegExpMatchesArray17fillArrayInstanceEPNS_9ExecStateE
__ZN3JSC14jsReplaceRangeEPNS_9ExecStateERKNS_7UStringEiiS4_
__ZN3JSC18RegExpMatchesArray18getOwnPropertySlotEPNS_9ExecStateERKNS_10IdentifierERNS_12PropertySlotE
__ZNK3JSC8JSObject11hasPropertyEPNS_9ExecStateEj
__ZN3JSCL24stringProtoFuncSubstringEPNS_9ExecStateEPNS_8JSObjectENS_7JSValueERKNS_7ArgListE
_cti_op_create_arguments_no_params
__ZN3JSCL21arrayProtoFuncUnShiftEPNS_9ExecStateEPNS_8JSObjectENS_7JSValueERKNS_7ArgListE
_cti_op_pre_dec
_cti_op_is_undefined
__ZN3JSC13DeleteDotNode12emitBytecodeERNS_17BytecodeGeneratorEPNS_10RegisterIDE
__ZN3JSC17BytecodeGenerator14emitDeleteByIdEPNS_10RegisterIDES2_RKNS_10IdentifierE
__ZN3JSC23FunctionCallBracketNode12emitBytecodeERNS_17BytecodeGeneratorEPNS_10RegisterIDE
__ZN3JSC3JIT17emit_op_del_by_idEPNS_11InstructionE
_cti_op_del_by_id
__ZN3WTF37parseDateFromNullTerminatedCharactersEPKc
__ZN3WTFL37parseDateFromNullTerminatedCharactersEPKcRbRi
_cti_op_get_by_id_proto_fail
__ZN3JSC17constructFunctionEPNS_9ExecStateERKNS_7ArgListERKNS_10IdentifierERKNS_7UStringEi
__ZN3WTF6VectorItLm64EE15reserveCapacityEm
__ZN3JSC20EvalFunctionCallNode12emitBytecodeERNS_17BytecodeGeneratorEPNS_10RegisterIDE
__ZN3JSC17BytecodeGenerator12emitCallEvalEPNS_10RegisterIDES2_S2_PNS_13ArgumentsNodeEjjj
__ZN3JSC3JIT17emit_op_call_evalEPNS_11InstructionE
__ZN3JSC3JIT21emitSlow_op_call_evalEPNS_11InstructionERPNS_13SlowCaseEntryE
_cti_op_resolve
_cti_op_call_eval
__ZN3JSC11Interpreter8callEvalEPNS_9ExecStateEPNS_12RegisterFileEPNS_8RegisterEiiRNS_7JSValueE
__ZN3JSC13LiteralParser5Lexer3lexERNS1_18LiteralParserTokenE
__ZN3JSC13LiteralParser5parseENS0_11ParserStateE
__ZN3JSC14EvalExecutable7compileEPNS_9ExecStateEPNS_14ScopeChainNodeE
__ZN3JSC6Parser5parseINS_8EvalNodeEEEN3WTF10PassRefPtrIT_EEPNS_12JSGlobalDataEPNS_8DebuggerEPNS_9ExecStateERKNS_10SourceCodeEPi
__ZN3JSC8EvalNode6createEPNS_12JSGlobalDataEPNS_14SourceElementsEPN3WTF6VectorISt4pairIPKNS_10IdentifierEjELm0EEEPNS6_IPNS_16Fu
__ZNK3JSC10ScopeChain10localDepthEv
__ZNK3JSC12JSActivation9classInfoEv
__ZN3JSC17BytecodeGeneratorC1EPNS_8EvalNodeEPKNS_8DebuggerERKNS_10ScopeChainEPN3WTF7HashMapINS9_6RefPtrIN7WebCore10StringImplEE
__ZN3JSC17BytecodeGeneratorC2EPNS_8EvalNodeEPKNS_8DebuggerERKNS_10ScopeChainEPN3WTF7HashMapINS9_6RefPtrIN7WebCore10StringImplEE
__ZN3JSC8EvalNode12emitBytecodeERNS_17BytecodeGeneratorEPNS_10RegisterIDE
__ZThn16_N3JSC8EvalNodeD0Ev
__ZN3JSC8EvalNodeD0Ev
__ZN3WTF9HashTableINS_6RefPtrIN7WebCore10StringImplEEESt4pairIS4_NS1_IN3JSC14EvalExecutableEEEENS_18PairFirstExtractorIS9_EENS2
__ZN3JSC9ExecState9thisValueEv
__ZN3JSC11Interpreter7executeEPNS_14EvalExecutableEPNS_9ExecStateEPNS_8JSObjectEiPNS_14ScopeChainNodeEPNS_7JSValueE
__ZN3JSC14EvalExecutable15generateJITCodeEPNS_9ExecStateEPNS_14ScopeChainNodeE
__ZN3JSC9ThrowNode12emitBytecodeERNS_17BytecodeGeneratorEPNS_10RegisterIDE
_cti_op_throw
__ZN3JSC9CodeBlock34reparseForExceptionInfoIfNecessaryEPNS_9ExecStateE
__ZN3JSC18FunctionExecutable20reparseExceptionInfoEPNS_12JSGlobalDataEPNS_14ScopeChainNodeEPNS_9CodeBlockE
__ZN3JSC11Interpreter14throwExceptionERPNS_9ExecStateERNS_7JSValueEjb
__ZN3JSC9CodeBlock24handlerForBytecodeOffsetEj
__ZN3JSC11Interpreter15unwindCallFrameERPNS_9ExecStateENS_7JSValueERjRPNS_9CodeBlockE
__ZN3JSC9CodeBlock36hasGlobalResolveInfoAtBytecodeOffsetEj
_cti_op_push_new_scope
__ZN3WTF7HashMapINS_6RefPtrIN7WebCore10StringImplEEEN3JSC16SymbolTableEntryENS5_17IdentifierRepHashENS_10HashTraitsIS4_EENS5_26
__ZN3JSC19JSStaticScopeObject18getOwnPropertySlotEPNS_9ExecStateERKNS_10IdentifierERNS_12PropertySlotE
__ZN3JSC12JSActivation3putEPNS_9ExecStateERKNS_10IdentifierENS_7JSValueERNS_15PutPropertySlotE
_cti_op_pop_scope
_cti_op_is_number
__ZN3JSCL20arrayProtoFuncConcatEPNS_9ExecStateEPNS_8JSObjectENS_7JSValueERKNS_7ArgListE
_cti_op_stricteq
__ZN3JSCL20arrayProtoFuncSpliceEPNS_9ExecStateEPNS_8JSObjectENS_7JSValueERKNS_7ArgListE
__ZNK3JSC11Interpreter18retrieveLastCallerEPNS_9ExecStateERiRlRNS_7UStringERNS_7JSValueE
__ZN3JSC9CodeBlock27lineNumberForBytecodeOffsetEPNS_9ExecStateEj
__ZN3JSC8RopeImpl20destructNonRecursiveEv
__ZN3JSC8RopeImpl23derefFibersNonRecursiveERN3WTF6VectorIPS0_Lm32EEE
__ZN3JSCL17arrayProtoFuncPopEPNS_9ExecStateEPNS_8JSObjectENS_7JSValueERKNS_7ArgListE
__ZN3JSC7JSArray3popEv
__ZN7WebCore6String6numberEd
__ZN3JSC10Identifier5equalEPKN7WebCore10StringImplEPKc
__ZNK3JSC9Arguments9classInfoEv
__ZN3JSC9Arguments15copyToRegistersEPNS_9ExecStateEPNS_8RegisterEj
__ZN3JSC14InstanceOfNode12emitBytecodeERNS_17BytecodeGeneratorEPNS_10RegisterIDE
__ZN3JSC17BytecodeGenerator14emitInstanceOfEPNS_10RegisterIDES2_S2_S2_
__ZN3JSC3JIT18emit_op_instanceofEPNS_11InstructionE
__ZN3JSC3JIT22emitSlow_op_instanceofEPNS_11InstructionERPNS_13SlowCaseEntryE
__ZN3JSC17BytecodeGenerator11emitPostDecEPNS_10RegisterIDES2_
__ZN3JSC3JIT16emit_op_post_decEPNS_11InstructionE
__ZN3JSC3JIT20emitSlow_op_post_decEPNS_11InstructionERPNS_13SlowCaseEntryE
_cti_op_less
__ZN3JSC13PrefixDotNode12emitBytecodeERNS_17BytecodeGeneratorEPNS_10RegisterIDE
_cti_op_call_NotJSFunction
__ZN3JSC17StringConstructor11getCallDataERNS_8CallDataE
__ZN3JSCL21callStringConstructorEPNS_9ExecStateEPNS_8JSObjectENS_7JSValueERKNS_7ArgListE
__ZNK3JSC8JSString8toNumberEPNS_9ExecStateE
__ZNK3JSC7UString8toDoubleEv
__ZN3JSC18BooleanConstructor11getCallDataERNS_8CallDataE
__ZN3JSCL22callBooleanConstructorEPNS_9ExecStateEPNS_8JSObjectENS_7JSValueERKNS_7ArgListE
__ZN3JSC7JSArray19getOwnPropertyNamesEPNS_9ExecStateERNS_17PropertyNameArrayENS_15EnumerationModeE
__ZN3JSC9ExecState10arrayTableEPS0_
__ZN3JSC17DeleteResolveNode12emitBytecodeERNS_17BytecodeGeneratorEPNS_10RegisterIDE
__ZN3JSCL18arrayProtoFuncSortEPNS_9ExecStateEPNS_8JSObjectENS_7JSValueERKNS_7ArgListE
__ZN3JSC7JSArray4sortEPNS_9ExecStateENS_7JSValueENS_8CallTypeERKNS_8CallDataE
__ZN3WTF6VectorIN3JSC26AVLTreeNodeForArrayCompareELm0EE14expandCapacityEm
__ZN3JSC11Interpreter20prepareForRepeatCallEPNS_18FunctionExecutableEPNS_9ExecStateEPNS_10JSFunctionEiPNS_14ScopeChainNodeEPNS_
__ZN3WTF7AVLTreeIN3JSC32AVLTreeAbstractorForArrayCompareELj44ENS_18AVLTreeDefaultBSetILj44EEEE6insertEi
__ZN3JSC11Interpreter7executeERNS_16CallFrameClosureEPNS_7JSValueE
__ZN3WTF7AVLTreeIN3JSC32AVLTreeAbstractorForArrayCompareELj44ENS_18AVLTreeDefaultBSetILj44EEEE7balanceEi
__ZN3JSC11Interpreter13endRepeatCallERNS_16CallFrameClosureE
__ZN3JSCL16mathProtoFuncExpEPNS_9ExecStateEPNS_8JSObjectENS_7JSValueERKNS_7ArgListE
__ZN3JSCL17mathProtoFuncATanEPNS_9ExecStateEPNS_8JSObjectENS_7JSValueERKNS_7ArgListE
__ZL17makeLeftShiftNodePN3JSC12JSGlobalDataEPNS_14ExpressionNodeES3_b
__ZN3JSC3JIT14emit_op_lshiftEPNS_11InstructionE
__ZN3JSC3JIT14emit_op_bitandEPNS_11InstructionE
__ZN3JSC3JIT14emit_op_rshiftEPNS_11InstructionE
__ZN3JSC3JIT18emitSlow_op_lshiftEPNS_11InstructionERPNS_13SlowCaseEntryE
__ZN3JSC3JIT18emitSlow_op_bitandEPNS_11InstructionERPNS_13SlowCaseEntryE
__ZN3JSC3JIT18emitSlow_op_rshiftEPNS_11InstructionERPNS_13SlowCaseEntryE
__ZN3JSC32jsSpliceSubstringsWithSeparatorsEPNS_9ExecStateEPNS_8JSStringERKNS_7UStringEPKNS_11StringRangeEiPS5_i
__ZN3JSCL26stringProtoFuncLastIndexOfEPNS_9ExecStateEPNS_8JSObjectENS_7JSValueERKNS_7ArgListE
__ZNK3JSC7JSValue20toIntegerPreserveNaNEPNS_9ExecStateE
__ZNK3JSC7UString5rfindERKS0_j
__ZN3WTF6VectorIiLm0EE15reserveCapacityEm
__ZN3WTF6VectorINS_6RefPtrIN3JSC5LabelEEELm8EE15reserveCapacityEm
__ZN3WTF6VectorISt4pairIiiELm8EE14expandCapacityEm
__ZN3JSC11DoWhileNode12emitBytecodeERNS_17BytecodeGeneratorEPNS_10RegisterIDE
__ZN3JSC3JIT19emit_op_switch_charEPNS_11InstructionE
_cti_op_switch_char
__ZN3JSCL21stringProtoFuncSearchEPNS_9ExecStateEPNS_8JSObjectENS_7JSValueERKNS_7ArgListE
__ZN3WTF10RefCountedIN3JSC6RegExpEE5derefEv
__ZN3JSC14JSGlobalObjectD2Ev
__ZN3JSC12RegisterFile17clearGlobalObjectEPNS_14JSGlobalObjectE
__ZN3JSC17FunctionPrototypeD1Ev
__ZN3JSC15ObjectPrototypeD1Ev
__ZN3JSC14ArrayPrototypeD1Ev
__ZN3JSC15StringPrototypeD1Ev
__ZN3JSC16BooleanPrototypeD1Ev
__ZN3JSC15NumberPrototypeD1Ev
__ZN3JSC13DatePrototypeD1Ev
__ZN3JSC15RegExpPrototypeD1Ev
__ZN3JSC14ErrorPrototypeD1Ev
__ZN3JSC20NativeErrorPrototypeD1Ev
__ZN3JSC17ObjectConstructorD1Ev
__ZN3JSC19FunctionConstructorD1Ev
__ZN3JSC16ArrayConstructorD1Ev
__ZN3JSC17StringConstructorD1Ev
__ZN3JSC18BooleanConstructorD1Ev
__ZN3JSC17NumberConstructorD1Ev
__ZN3JSC15DateConstructorD1Ev
__ZN3JSC17RegExpConstructorD1Ev
__ZN3JSC16ErrorConstructorD1Ev
__ZN3JSC22NativeErrorConstructorD1Ev
__ZN3JSC10MathObjectD1Ev
__ZN3JSC10JSONObjectD1Ev
__ZN3JSC18GlobalEvalFunctionD1Ev
__ZN3JSC19JSStaticScopeObjectD1Ev
__ZN3JSC19JSStaticScopeObjectD2Ev
__ZN3WTF6VectorIPvLm0EE14expandCapacityEmPKS1_
__ZN3WTF6VectorIPvLm0EE15reserveCapacityEm
__ZN3JSC16JSCallbackObjectINS_8JSObjectEED1Ev
__ZL25clearReferenceToPrototypeP13OpaqueJSValue
_JSObjectGetPrivate
__ZNK3JSC16JSCallbackObjectINS_8JSObjectEE9classInfoEv
__ZN3JSC28globalFuncEncodeURIComponentEPNS_9ExecStateEPNS_8JSObjectENS_7JSValueERKNS_7ArgListE
__ZN3JSCL6encodeEPNS_9ExecStateERKNS_7ArgListEPKc
__ZN3WTF6VectorItLm64EE9tryAppendItEEbPKT_m
__ZN3WTF6VectorItLm64EE18tryReserveCapacityEm
__ZN3JSC28globalFuncDecodeURIComponentEPNS_9ExecStateEPNS_8JSObjectENS_7JSValueERKNS_7ArgListE
__ZN3JSCL6decodeEPNS_9ExecStateERKNS_7ArgListEPKcb
__ZN3WTF7Unicode18UTF8SequenceLengthEc
__ZN3WTF7Unicode18decodeUTF8SequenceEPKc
__ZN3JSC18EmptyStatementNode12emitBytecodeERNS_17BytecodeGeneratorEPNS_10RegisterIDE
__ZN3JSCltERKNS_7UStringES2_
__ZN3WTF6VectorItLm0EE14expandCapacityEmPKt
__ZN3WTF6VectorItLm0EE15reserveCapacityEm
__ZN3JSC18RegExpMatchesArray3putEPNS_9ExecStateEjNS_7JSValueE
__ZN3JSC18RegExpMatchesArray14deletePropertyEPNS_9ExecStateEj
__ZN3JSC18RegExpMatchesArray3putEPNS_9ExecStateERKNS_10IdentifierENS_7JSValueERNS_15PutPropertySlotE
__ZN3JSC14EvalExecutableD0Ev
__ZN3JSC13EvalCodeBlockD0Ev
__ZN3JSC3JIT30emit_op_resolve_global_dynamicEPNS_11InstructionE
__ZN3JSC3JIT34emitSlow_op_resolve_global_dynamicEPNS_11InstructionERPNS_13SlowCaseEntryE
__ZN3JSC19FunctionConstructor16getConstructDataERNS_13ConstructDataE
__ZN3JSCL32constructWithFunctionConstructorEPNS_9ExecStateEPNS_8JSObjectERKNS_7ArgListE
__ZN3JSC17constructFunctionEPNS_9ExecStateERKNS_7ArgListE
__ZN3JSC3JIT18emit_op_jmp_scopesEPNS_11InstructionE
__ZN3JSC8WithNode12emitBytecodeERNS_17BytecodeGeneratorEPNS_10RegisterIDE
__ZN3JSC17BytecodeGenerator13emitPushScopeEPNS_10RegisterIDE
__ZN3JSC3JIT18emit_op_push_scopeEPNS_11InstructionE
_cti_op_push_scope
_cti_op_jmp_scopes
__ZN3WTF6VectorIN3JSC14ExecutablePool10AllocationELm2EE14expandCapacityEm
__ZN3JSCL26stringProtoFuncToUpperCaseEPNS_9ExecStateEPNS_8JSObjectENS_7JSValueERKNS_7ArgListE
__ZN3JSCL21arrayProtoFuncIndexOfEPNS_9ExecStateEPNS_8JSObjectENS_7JSValueERKNS_7ArgListE
__ZN3JSCL16mathProtoFuncCosEPNS_9ExecStateEPNS_8JSObjectENS_7JSValueERKNS_7ArgListE
__ZN3JSCL17mathProtoFuncASinEPNS_9ExecStateEPNS_8JSObjectENS_7JSValueERKNS_7ArgListE
_cti_op_loop_if_lesseq
__ZN3JSC7JSArray4sortEPNS_9ExecStateE
__ZN3JSC7JSArray17compactForSortingEv
__ZL18makeRightShiftNodePN3JSC12JSGlobalDataEPNS_14ExpressionNodeES3_b
__ZN3JSC3JIT13emit_op_bitorEPNS_11InstructionE
__ZN3JSC3JIT17emitSlow_op_bitorEPNS_11InstructionERPNS_13SlowCaseEntryE
__ZN3WTF6VectorIN3JSC11StringRangeELm16EE14expandCapacityEm
__ZN3WTF6VectorIN3JSC7UStringELm16EE14expandCapacityEmPKS2_
__ZN3WTF6VectorIN3JSC7UStringELm16EE15reserveCapacityEm
__ZNK3JSC8JSString8toObjectEPNS_9ExecStateE
__ZN3JSC12StringObject14deletePropertyEPNS_9ExecStateERKNS_10IdentifierE
_cti_op_post_dec
__ZN3JSC3JIT14emit_op_bitxorEPNS_11InstructionE
__ZN3JSC3JIT18emitSlow_op_bitxorEPNS_11InstructionERPNS_13SlowCaseEntryE
_cti_op_bitand
_cti_op_bitor
__ZN7WebCore10StringImpl18simplifyWhiteSpaceEv
_cti_op_is_object
__ZN3JSC14jsIsObjectTypeENS_7JSValueE
__ZN3JSC17PrototypeFunction11getCallDataERNS_8CallDataE
__ZN3JSC14globalFuncEvalEPNS_9ExecStateEPNS_8JSObjectENS_7JSValueERKNS_7ArgListE
__ZN3JSCL19isNonASCIIIdentPartEi
__ZN3JSC11Interpreter7executeEPNS_14EvalExecutableEPNS_9ExecStateEPNS_8JSObjectEPNS_14ScopeChainNodeEPNS_7JSValueE
_cti_op_mod
__ZN7WebCore6String6appendEc
__ZN7WebCore6String6appendEPKtj
__ZN3JSC16globalFuncEscapeEPNS_9ExecStateEPNS_8JSObjectENS_7JSValueERKNS_7ArgListE
__ZNK7WebCore6String8foldCaseEv
__ZN7WebCore10StringImpl8foldCaseEv
__ZN3JSC10JSFunction15argumentsGetterEPNS_9ExecStateENS_7JSValueERKNS_10IdentifierE
__ZNK3JSC11Interpreter17retrieveArgumentsEPNS_9ExecStateEPNS_10JSFunctionE
__ZN3WTF6VectorIPN3JSC14ExpressionNodeELm16EE14expandCapacityEm
__ZN3WTF6VectorINS_6RefPtrIN3JSC10RegisterIDEEELm16EE15reserveCapacityEm
__ZN3WTF6VectorIN7WebCore6StringELm0EE14expandCapacityEm
__ZN3JSC8JSObject14deletePropertyEPNS_9ExecStateEj
__ZN3JSC18globalFuncUnescapeEPNS_9ExecStateEPNS_8JSObjectENS_7JSValueERKNS_7ArgListE
__ZN3WTF6VectorItLm64EE14expandCapacityEm
__ZN3JSC3JIT16emit_op_jeq_nullEPNS_11InstructionE
__ZN3WTF7CStringC1EPKc
__ZN3WTFeqERKNS_7CStringES2_
__ZN7WebCore17equalIgnoringCaseEPKtPKcj
__ZNK7WebCore6String6toUIntEPb
__ZN7WebCore10StringImpl6toUIntEPb
__ZN7WebCore16charactersToUIntEPKtmPb
__ZN7WebCore10StringImpl11reverseFindEti
__ZN3WTF23waitForThreadCompletionEjPPv
__ZN3WTF14FastMallocZone10statisticsEP14_malloc_zone_tP19malloc_statistics_t
__ZNK7WebCore6String18simplifyWhiteSpaceEv
__ZN3WTF10StringImpl23defaultWritingDirectionEPb
__ZN3JSCL20dateProtoFuncSetTimeEPNS_9ExecStateEPNS_8JSObjectENS_7JSValueERKNS_7ArgListE
__ZN3JSCL21dateProtoFuncGetMonthEPNS_9ExecStateEPNS_8JSObjectENS_7JSValueERKNS_7ArgListE
__ZNK3JSC12DateInstance26calculateGregorianDateTimeEPNS_9ExecStateE
__ZN3JSC21msToGregorianDateTimeEPNS_9ExecStateEdbRNS_17GregorianDateTimeE
__ZN3WTFL18calculateDSTOffsetEdd
__ZN3JSCL20dateProtoFuncGetDateEPNS_9ExecStateEPNS_8JSObjectENS_7JSValueERKNS_7ArgListE
__ZNK3JSC7JSValue8inheritsEPKNS_9ClassInfoE
__ZN3JSCL20dateProtoFuncGetYearEPNS_9ExecStateEPNS_8JSObjectENS_7JSValueERKNS_7ArgListE
__ZN3JSCL21dateProtoFuncGetHoursEPNS_9ExecStateEPNS_8JSObjectENS_7JSValueERKNS_7ArgListE
__ZN3JSCL23dateProtoFuncGetMinutesEPNS_9ExecStateEPNS_8JSObjectENS_7JSValueERKNS_7ArgListE
__ZN3JSC3JIT17emit_op_jneq_nullEPNS_11InstructionE
__ZN3JSCL20dateProtoFuncSetYearEPNS_9ExecStateEPNS_8JSObjectENS_7JSValueERKNS_7ArgListE
__ZNK3JSC7JSValue7toInt32EPNS_9ExecStateERb
__ZN3JSC21gregorianDateTimeToMSEPNS_9ExecStateERKNS_17GregorianDateTimeEdb
__ZN3WTF18dateToDaysFrom1970Eiii
__ZN3JSCL21dateProtoFuncSetMonthEPNS_9ExecStateEPNS_8JSObjectENS_7JSValueERKNS_7ArgListE
__ZN3JSCL23setNewValueFromDateArgsEPNS_9ExecStateENS_7JSValueERKNS_7ArgListEib
__ZN3JSCL20dateProtoFuncSetDateEPNS_9ExecStateEPNS_8JSObjectENS_7JSValueERKNS_7ArgListE
__ZN3JSCL24dateProtoFuncToGMTStringEPNS_9ExecStateEPNS_8JSObjectENS_7JSValueERKNS_7ArgListE
__ZNK3JSC12DateInstance29calculateGregorianDateTimeUTCEPNS_9ExecStateE
__ZN3JSC20formatDateUTCVariantERKNS_17GregorianDateTimeERA100_c
__ZN3JSC13formatTimeUTCERKNS_17GregorianDateTimeERA100_c
__ZN3JSC13tryMakeStringIPcPKcS1_EEN3WTF10PassRefPtrIN7WebCore10StringImplEEET_T0_T1_
__ZN3JSC9parseDateEPNS_9ExecStateERKNS_7UStringE
__ZN3JSC37parseDateFromNullTerminatedCharactersEPNS_9ExecStateEPKc
__ZN3JSC16ArrayConstructor16getConstructDataERNS_13ConstructDataE
__ZN3JSCL29constructWithArrayConstructorEPNS_9ExecStateEPNS_8JSObjectERKNS_7ArgListE
__ZN3JSCL27constructArrayWithSizeQuirkEPNS_9ExecStateERKNS_7ArgListE
__ZN3JSC7JSArrayC1EN3WTF17NonNullPassRefPtrINS_9StructureEEEj
__ZN3JSC17StringConstructor16getConstructDataERNS_13ConstructDataE
__ZN3JSCL30constructWithStringConstructorEPNS_9ExecStateEPNS_8JSObjectERKNS_7ArgListE
__ZN3JSC12StringObjectC1EPNS_9ExecStateEN3WTF17NonNullPassRefPtrINS_9StructureEEERKNS_7UStringE
__ZN3JSC12StringObjectC2EPNS_9ExecStateEN3WTF17NonNullPassRefPtrINS_9StructureEEERKNS_7UStringE
_cti_op_pre_inc
__ZN3JSCL23dateProtoFuncGetSecondsEPNS_9ExecStateEPNS_8JSObjectENS_7JSValueERKNS_7ArgListE
__ZN7WebCore6String6removeEji
__ZN3JSC23MacroAssemblerX86Common12branchTest32ENS0_9ConditionENS_22AbstractMacroAssemblerINS_12X86AssemblerEE7AddressENS4_5Imm
__ZN3JSC23MacroAssemblerX86Common8branch32ENS0_9ConditionENS_22AbstractMacroAssemblerINS_12X86AssemblerEE7AddressENS4_5Imm32E
__ZN3JSC12X86Assembler23X86InstructionFormatter9twoByteOpENS0_15TwoByteOpcodeIDEiNS_12X86Registers10RegisterIDEi
__ZNK3JSC7UStringixEj
__ZN3JSC3JIT19emit_op_to_jsnumberEPNS_11InstructionE
__ZN3JSC3JIT23emitSlow_op_to_jsnumberEPNS_11InstructionERPNS_13SlowCaseEntryE
_cti_op_to_jsnumber
__ZN3JSCL30dateProtoFuncGetTimezoneOffsetEPNS_9ExecStateEPNS_8JSObjectENS_7JSValueERKNS_7ArgListE
__ZN3JSC5Error6createEPNS_9ExecStateENS_9ErrorTypeERKNS_7UStringEilS6_
__ZN3JSC22NativeErrorConstructor16getConstructDataERNS_13ConstructDataE
__ZN3JSC9constructEPNS_9ExecStateENS_7JSValueENS_13ConstructTypeERKNS_13ConstructDataERKNS_7ArgListE
__ZN3JSCL35constructWithNativeErrorConstructorEPNS_9ExecStateEPNS_8JSObjectERKNS_7ArgListE
__ZN3JSC22NativeErrorConstructor9constructEPNS_9ExecStateERKNS_7ArgListE
__ZN3JSC13ErrorInstanceC1EN3WTF17NonNullPassRefPtrINS_9StructureEEE
__ZN3JSC8JSObject17putWithAttributesEPNS_9ExecStateERKNS_10IdentifierENS_7JSValueEj
__ZNK3JSC8JSObject13exceptionTypeEv
__ZN3JSCL22errorProtoFuncToStringEPNS_9ExecStateEPNS_8JSObjectENS_7JSValueERKNS_7ArgListE
__ZN3JSC13tryMakeStringINS_7UStringEPKcS1_EEN3WTF10PassRefPtrIN7WebCore10StringImplEEET_T0_T1_
__ZN3JSC13ErrorInstanceD1Ev
__ZN3JSC4Heap9freeBlockEm
__ZN3JSC4Heap12freeBlockPtrEPNS_14CollectorBlockE
__ZN3JSC28createUndefinedVariableErrorEPNS_9ExecStateERKNS_10IdentifierEjPNS_9CodeBlockE
__ZN3JSC9CodeBlock32expressionRangeForBytecodeOffsetEPNS_9ExecStateEjRiS3_S3_
__ZN3JSC10makeStringIPKcNS_7UStringEEES3_T_T0_
__ZN3JSC13tryMakeStringIPKcNS_7UStringEEEN3WTF10PassRefPtrIN7WebCore10StringImplEEET_T0_
__ZN3JSCL23returnToThrowTrampolineEPNS_12JSGlobalDataENS_16ReturnAddressPtrERS2_
_ctiVMThrowTrampoline
_cti_vm_throw
__ZNK3JSC8JSObject22isNotAnObjectErrorStubEv
__ZNK3JSC7UString5asciiEv
__ZN3JSC6JSLock12DropAllLocksC1ENS_14JSLockBehaviorE
__ZN3JSCL17createJSLockCountEv
__ZN3JSC6JSLock12DropAllLocksD1Ev
__ZNK7WebCore6String5upperEv
__ZN3JSC4Yarr23RegexPatternConstructor31atomParentheticalAssertionBeginEb
__ZN3JSC4Yarr14RegexGenerator30generateParentheticalAssertionERNS1_19TermGenerationStateE
__ZNK3JSC8JSObject8toNumberEPNS_9ExecStateE
__ZN3WTF6VectorIPN3JSC4Yarr18PatternDisjunctionELm4EE14expandCapacityEmPKS4_
__ZN3JSCL18regExpObjectSourceEPNS_9ExecStateENS_7JSValueERKNS_10IdentifierE
__ZN3JSC17RegExpConstructor11getCallDataERNS_8CallDataE
__ZN3JSCL21callRegExpConstructorEPNS_9ExecStateEPNS_8JSObjectENS_7JSValueERKNS_7ArgListE
__ZN3JSC23objectProtoFuncToStringEPNS_9ExecStateEPNS_8JSObjectENS_7JSValueERKNS_7ArgListE
__ZNK3JSC8JSObject9classNameEv
__ZN3JSC13tryMakeStringIPKcNS_7UStringES2_EEN3WTF10PassRefPtrIN7WebCore10StringImplEEET_T0_T1_
__ZN3JSC16JSVariableObject14deletePropertyEPNS_9ExecStateERKNS_10IdentifierE
__ZN3JSC9Structure27despecifyDictionaryFunctionERKNS_10IdentifierE
__ZN3JSC36constructBooleanFromImmediateBooleanEPNS_9ExecStateENS_7JSValueE
__ZN3JSC13BooleanObjectC1EN3WTF17NonNullPassRefPtrINS_9StructureEEE
__ZN3JSC17ObjectConstructor16getConstructDataERNS_13ConstructDataE
__ZN3JSCL30constructWithObjectConstructorEPNS_9ExecStateEPNS_8JSObjectERKNS_7ArgListE
__ZNK3JSC9ArrayNode13isSimpleArrayEv
__ZN3JSC7JSArray14deletePropertyEPNS_9ExecStateERKNS_10IdentifierE
__ZN3JSCL27compareByStringPairForQSortEPKvS1_
__ZN3JSC7compareERKNS_7UStringES2_
__ZN3JSCL24dateProtoFuncToUTCStringEPNS_9ExecStateEPNS_8JSObjectENS_7JSValueERKNS_7ArgListE
__ZN3JSC17NumberConstructor16getConstructDataERNS_13ConstructDataE
__ZN3JSCL30constructWithNumberConstructorEPNS_9ExecStateEPNS_8JSObjectERKNS_7ArgListE
__ZN3JSC12NumberObjectC1EN3WTF17NonNullPassRefPtrINS_9StructureEEE
__ZN3JSCL20isNonASCIIIdentStartEi
__ZN3JSC9Arguments3putEPNS_9ExecStateERKNS_10IdentifierENS_7JSValueERNS_15PutPropertySlotE
__ZN3JSC14MacroAssembler4peekENS_12X86Registers10RegisterIDEi
__ZN3JSC4Yarr14RegexGenerator12atEndOfInputEv
__ZN3JSC14MacroAssembler8branch32ENS_23MacroAssemblerX86Common9ConditionENS_12X86Registers10RegisterIDENS_22AbstractMacroAssemb
__ZN3JSC22AbstractMacroAssemblerINS_12X86AssemblerEE8JumpList6linkToENS2_5LabelEPS2_
__ZN3JSC14MacroAssembler4pokeENS_12X86Registers10RegisterIDEi
__ZN3JSCL28substituteBackreferencesSlowERKNS_7UStringES2_PKiPNS_6RegExpEj
__ZN3WTF6VectorItLm0EE6appendItEEvPKT_m
_cti_op_to_primitive
__ZN3JSC15constructNumberEPNS_9ExecStateENS_7JSValueE
__ZNK3JSC12NumberObject9classInfoEv
__ZN3JSC13BooleanObjectD1Ev
__ZN3JSCL18stringFromCharCodeEPNS_9ExecStateEPNS_8JSObjectENS_7JSValueERKNS_7ArgListE
__ZN3JSC10makeStringIPKcNS_7UStringES2_EES3_T_T0_T1_
__ZN3JSCL19dateProtoFuncGetDayEPNS_9ExecStateEPNS_8JSObjectENS_7JSValueERKNS_7ArgListE
__ZN3JSC14EvalExecutable20reparseExceptionInfoEPNS_12JSGlobalDataEPNS_14ScopeChainNodeEPNS_9CodeBlockE
__ZN3JSCL22objectProtoFuncValueOfEPNS_9ExecStateEPNS_8JSObjectENS_7JSValueERKNS_7ArgListE
__ZN3JSC8JSObject18getPrimitiveNumberEPNS_9ExecStateERdRNS_7JSValueE
__ZN3JSCL24dateProtoFuncGetFullYearEPNS_9ExecStateEPNS_8JSObjectENS_7JSValueERKNS_7ArgListE
__ZN3JSC12RegExpObject3putEPNS_9ExecStateERKNS_10IdentifierENS_7JSValueERNS_15PutPropertySlotE
__ZN3JSCL24setRegExpObjectLastIndexEPNS_9ExecStateEPNS_8JSObjectENS_7JSValueE
__ZN3JSCL28regExpConstructorLeftContextEPNS_9ExecStateENS_7JSValueERKNS_10IdentifierE
__ZNK3JSC17RegExpConstructor14getLeftContextEPNS_9ExecStateE
_cti_to_object
__ZNK3JSC7JSValue16toObjectSlowCaseEPNS_9ExecStateE
_cti_op_sub
__ZN3JSC17NumberConstructor11getCallDataERNS_8CallDataE
__ZN3JSCL21callNumberConstructorEPNS_9ExecStateEPNS_8JSObjectENS_7JSValueERKNS_7ArgListE
_cti_op_bitxor
_cti_op_is_function
__ZN3JSC16jsIsFunctionTypeENS_7JSValueE
__ZN3JSC12NumberObjectD1Ev
__ZN3WTF6VectorIN3JSC22AbstractMacroAssemblerINS1_12X86AssemblerEE4JumpELm16EE14expandCapacityEm
__ZN3JSC8JSString18getPrimitiveNumberEPNS_9ExecStateERdRNS_7JSValueE
__ZN7WebCore6String26fromUTF8WithLatin1FallbackEPKcm
__ZN7WebCore6String8fromUTF8EPKcm
__ZN3WTF10fastStrDupEPKc
__ZN3JSC10throwErrorEPNS_9ExecStateENS_9ErrorTypeE
__ZN3WTF6VectorIN3JSC15StringJumpTableELm0EE14expandCapacityEm
__ZN3WTF9HashTableINS_6RefPtrIN7WebCore10StringImplEEESt4pairIS4_N3JSC14OffsetLocationEENS_18PairFirstExtractorIS8_EENS2_10Stri
__ZN3JSC3JIT21emit_op_switch_stringEPNS_11InstructionE
__ZN3JSC13LiteralParser5Lexer9lexNumberERNS1_18LiteralParserTokenE
__ZN3WTF6VectorIPNS_14StringImplBaseELm32EE14expandCapacityEm
__ZN3JSC4Yarr17nonwordcharCreateEv
__ZN3JSC3JIT15emit_op_eq_nullEPNS_11InstructionE
_cti_op_switch_string
__ZN3JSC12X86Assembler23X86InstructionFormatter15emitRexIfNeededEiii
__ZN3JSC12X86Assembler23X86InstructionFormatter11memoryModRMEiNS_12X86Registers10RegisterIDES3_ii
__ZN3JSC4Yarr6ParserINS0_23RegexPatternConstructorEE28CharacterClassParserDelegate25atomBuiltInCharacterClassENS0_23BuiltInChar
__ZN3JSC4Yarr15nonspacesCreateEv
__ZN3JSCL25functionProtoFuncToStringEPNS_9ExecStateEPNS_8JSObjectENS_7JSValueERKNS_7ArgListE
__ZNK3JSC21UStringSourceProvider8getRangeEii
__ZNK3JSC7UString6substrEjj
__ZN3JSC10makeStringINS_7UStringEPKcS1_EES1_T_T0_T1_
__ZNK3JSC18FunctionExecutable11paramStringEv
__ZN3WTF6VectorItLm64EE6appendItEEvPKT_m
__ZN3JSC13tryMakeStringIPKcNS_7UStringES2_S3_S2_S3_EEN3WTF10PassRefPtrIN7WebCore10StringImplEEET_T0_T1_T2_T3_T4_
__ZN3JSC17RegExpConstructor3putEPNS_9ExecStateERKNS_10IdentifierENS_7JSValueERNS_15PutPropertySlotE
__ZN3JSCL21arrayProtoFuncForEachEPNS_9ExecStateEPNS_8JSObjectENS_7JSValueERKNS_7ArgListE
__ZN3JSC10JSFunction14deletePropertyEPNS_9ExecStateERKNS_10IdentifierE
__ZN3JSCL22arrayProtoFuncToStringEPNS_9ExecStateEPNS_8JSObjectENS_7JSValueERKNS_7ArgListE
__ZN3JSC16ErrorConstructor16getConstructDataERNS_13ConstructDataE
__ZN3JSCL29constructWithErrorConstructorEPNS_9ExecStateEPNS_8JSObjectERKNS_7ArgListE
__ZN3JSC14constructErrorEPNS_9ExecStateERKNS_7ArgListE
_cti_op_instanceof
__ZN3JSC6RegExp6createEPNS_12JSGlobalDataERKNS_7UStringE
__ZN3WTF9HashTableIPN7WebCore10StringImplES3_NS_17IdentityExtractorIS3_EENS_7PtrHashIS3_EENS_10HashTraitsIS3_EES9_E4findIS3_NS_
_cti_op_get_by_id_string_fail
__ZN3JSCL20stringProtoFuncSliceEPNS_9ExecStateEPNS_8JSObjectENS_7JSValueERKNS_7ArgListE
__ZN3JSC14MacroAssembler4jumpENS_22AbstractMacroAssemblerINS_12X86AssemblerEE5LabelE
__ZN3JSCL23regExpProtoFuncToStringEPNS_9ExecStateEPNS_8JSObjectENS_7JSValueERKNS_7ArgListE
__ZN3JSCL18regExpObjectGlobalEPNS_9ExecStateENS_7JSValueERKNS_10IdentifierE
__ZN3JSCL22regExpObjectIgnoreCaseEPNS_9ExecStateENS_7JSValueERKNS_10IdentifierE
__ZN3JSCL21regExpObjectMultilineEPNS_9ExecStateENS_7JSValueERKNS_10IdentifierE
__ZN3JSC13tryMakeStringIPKcNS_7UStringEPcEEN3WTF10PassRefPtrIN7WebCore10StringImplEEET_T0_T1_
__ZN3JSC12JSActivation14deletePropertyEPNS_9ExecStateERKNS_10IdentifierE
__ZN3WTFL10timerFiredEP16__CFRunLoopTimerPv
__ZN7WebCore22charactersToUIntStrictEPKtmPbi
__ZN3WTF9HashTableIjSt4pairIjN3JSC7JSValueEENS_18PairFirstExtractorIS4_EENS_7IntHashIjEENS_14PairHashTraitsINS_10HashTraitsIjEE
__ZN3JSCL23dateProtoFuncSetMinutesEPNS_9ExecStateEPNS_8JSObjectENS_7JSValueERKNS_7ArgListE
__ZN3JSCL23setNewValueFromTimeArgsEPNS_9ExecStateENS_7JSValueERKNS_7ArgListEib
__ZN3JSCL23dateProtoFuncSetSecondsEPNS_9ExecStateEPNS_8JSObjectENS_7JSValueERKNS_7ArgListE
__ZN3JSCL28dateProtoFuncSetMilliSecondsEPNS_9ExecStateEPNS_8JSObjectENS_7JSValueERKNS_7ArgListE
__ZN3JSCL9dateParseEPNS_9ExecStateEPNS_8JSObjectENS_7JSValueERKNS_7ArgListE
__ZN3JSCL21dateProtoFuncToStringEPNS_9ExecStateEPNS_8JSObjectENS_7JSValueERKNS_7ArgListE
__ZN3JSC10formatDateERKNS_17GregorianDateTimeERA100_c
__ZN3JSC10formatTimeERKNS_17GregorianDateTimeERA100_c
__ZN3JSC19globalFuncEncodeURIEPNS_9ExecStateEPNS_8JSObjectENS_7JSValueERKNS_7ArgListE
__ZN3JSC13UnaryPlusNode14stripUnaryPlusEv
__ZN3JSCL20arrayProtoFuncFilterEPNS_9ExecStateEPNS_8JSObjectENS_7JSValueERKNS_7ArgListE
__ZN3JSCL27objectProtoFuncLookupGetterEPNS_9ExecStateEPNS_8JSObjectENS_7JSValueERKNS_7ArgListE
__ZN3JSC8JSObject12lookupGetterEPNS_9ExecStateERKNS_10IdentifierE
__ZNK3JSC6JSCell14isGetterSetterEv
__ZN3JSCL27objectProtoFuncDefineSetterEPNS_9ExecStateEPNS_8JSObjectENS_7JSValueERKNS_7ArgListE
__ZN3JSC8JSObject12defineSetterEPNS_9ExecStateERKNS_10IdentifierEPS0_j
__ZN3JSCL27objectProtoFuncDefineGetterEPNS_9ExecStateEPNS_8JSObjectENS_7JSValueERKNS_7ArgListE
__ZN3JSC8JSObject12defineGetterEPNS_9ExecStateERKNS_10IdentifierEPS0_j
__ZNK3JSC12GetterSetter14isGetterSetterEv
__ZN3JSC8JSObject15unwrappedObjectEv
__ZN3JSC10JSFunction12callerGetterEPNS_9ExecStateENS_7JSValueERKNS_10IdentifierE
__ZNK3JSC11Interpreter14retrieveCallerEPNS_9ExecStateEPNS_16InternalFunctionE
__ZN3JSC16toUInt32SlowCaseEdRb
__ZN3JSC8JSObject22fillGetterPropertySlotERNS_12PropertySlotEPNS_7JSValueE
__ZNK3JSC12PropertySlot14functionGetterEPNS_9ExecStateE
_cti_op_get_by_id_getter_stub
__ZN3JSC12GetterSetter12markChildrenERNS_9MarkStackE
__ZN3JSCL17mathProtoFuncACosEPNS_9ExecStateEPNS_8JSObjectENS_7JSValueERKNS_7ArgListE
__ZN3WTF13tryFastCallocEmm
__ZN3JSC3JIT20emit_op_resolve_skipEPNS_11InstructionE
_cti_op_resolve_skip
__ZN3JSC3JIT15emit_op_urshiftEPNS_11InstructionE
__ZN3JSC3JIT19emitSlow_op_urshiftEPNS_11InstructionERPNS_13SlowCaseEntryE
__ZN3JSCL25stringProtoFuncCharCodeAtEPNS_9ExecStateEPNS_8JSObjectENS_7JSValueERKNS_7ArgListE
__ZN3WTF6VectorIcLm0EE14expandCapacityEm
__ZN3JSC15AssignErrorNode12emitBytecodeERNS_17BytecodeGeneratorEPNS_10RegisterIDE
__ZN3JSC23ThrowableExpressionData14emitThrowErrorERNS_17BytecodeGeneratorENS_9ErrorTypeEPKc
__ZN3JSC17BytecodeGenerator12emitNewErrorEPNS_10RegisterIDENS_9ErrorTypeENS_7JSValueE
__ZN3JSC3JIT17emit_op_new_errorEPNS_11InstructionE
__ZN3JSCL27objectProtoFuncLookupSetterEPNS_9ExecStateEPNS_8JSObjectENS_7JSValueERKNS_7ArgListE
__ZN3JSC8JSObject12lookupSetterEPNS_9ExecStateERKNS_10IdentifierE
__ZN3JSC26createNotAnObjectErrorStubEPNS_9ExecStateEb
__ZN3JSC13JSNotAnObject18getOwnPropertySlotEPNS_9ExecStateERKNS_10IdentifierERNS_12PropertySlotE
__ZNK3JSC22JSNotAnObjectErrorStub22isNotAnObjectErrorStubEv
__ZN3JSC22createNotAnObjectErrorEPNS_9ExecStateEPNS_22JSNotAnObjectErrorStubEjPNS_9CodeBlockE
__ZN3JSC9CodeBlock37getByIdExceptionInfoForBytecodeOffsetEPNS_9ExecStateEjRNS_8OpcodeIDE
__ZN3JSCL18createErrorMessageEPNS_9ExecStateEPNS_9CodeBlockEiiiNS_7JSValueENS_7UStringE
__ZN3JSC10makeStringIPKcNS_7UStringES2_S3_S2_S3_S2_EES3_T_T0_T1_T2_T3_T4_T5_
__ZN3JSC13tryMakeStringIPKcNS_7UStringES2_S3_S2_S3_S2_EEN3WTF10PassRefPtrIN7WebCore10StringImplEEET_T0_T1_T2_T3_T4_T5_
__ZN3JSC22JSNotAnObjectErrorStubD1Ev
__ZN3JSC13JSNotAnObjectD1Ev
__ZN3JSC12GetterSetterD1Ev
__ZN3JSC20FixedVMPoolAllocator17coalesceFreeSpaceEv
__ZN3WTF6VectorIPN3JSC13FreeListEntryELm0EE15reserveCapacityEm
__ZN3JSCL35reverseSortFreeListEntriesByPointerEPKvS1_
__ZN3JSCL33reverseSortCommonSizedAllocationsEPKvS1_
__ZN7WebCore20equalIgnoringNullityEPNS_10StringImplES1_
__ZN3JSC19globalFuncDecodeURIEPNS_9ExecStateEPNS_8JSObjectENS_7JSValueERKNS_7ArgListE
__ZN3JSC16ErrorConstructor11getCallDataERNS_8CallDataE
__ZN3JSCL20callErrorConstructorEPNS_9ExecStateEPNS_8JSObjectENS_7JSValueERKNS_7ArgListE
__ZN3JSCL22functionProtoFuncApplyEPNS_9ExecStateEPNS_8JSObjectENS_7JSValueERKNS_7ArgListE
__ZN3JSC9Arguments11fillArgListEPNS_9ExecStateERNS_20MarkedArgumentBufferE
__ZN3JSCL21functionProtoFuncCallEPNS_9ExecStateEPNS_8JSObjectENS_7JSValueERKNS_7ArgListE
__ZN3JSC10JSONObject18getOwnPropertySlotEPNS_9ExecStateERKNS_10IdentifierERNS_12PropertySlotE
_cti_op_lshift
__ZN3JSCL29regExpConstructorRightContextEPNS_9ExecStateENS_7JSValueERKNS_10IdentifierE
__ZNK3JSC17RegExpConstructor15getRightContextEPNS_9ExecStateE
__ZN3JSC20MarkedArgumentBuffer10slowAppendENS_7JSValueE
__ZN3WTF9HashTableIPN3JSC20MarkedArgumentBufferES3_NS_17IdentityExtractorIS3_EENS_7PtrHashIS3_EENS_10HashTraitsIS3_EES9_E6expan
__ZN3WTF6VectorIN3JSC8RegisterELm8EE15reserveCapacityEm
__ZN3WTF9HashTableIPN3JSC20MarkedArgumentBufferES3_NS_17IdentityExtractorIS3_EENS_7PtrHashIS3_EENS_10HashTraitsIS3_EES9_E4findI
__ZN3JSCL26stringFromCharCodeSlowCaseEPNS_9ExecStateERKNS_7ArgListE
__ZN3JSC4Yarr12RegexPattern21newlineCharacterClassEv
__ZN3JSC10JSFunction12lengthGetterEPNS_9ExecStateENS_7JSValueERKNS_10IdentifierE
__ZN3JSC18globalFuncIsFiniteEPNS_9ExecStateEPNS_8JSObjectENS_7JSValueERKNS_7ArgListE
__ZN3JSC16ArrayConstructor11getCallDataERNS_8CallDataE
__ZN3JSCL20callArrayConstructorEPNS_9ExecStateEPNS_8JSObjectENS_7JSValueERKNS_7ArgListE
__ZN3JSCL19stringProtoFuncTrimEPNS_9ExecStateEPNS_8JSObjectENS_7JSValueERKNS_7ArgListE
__ZN3JSC15isStrWhiteSpaceEt
__ZN3JSC6JSCell9getObjectEv
_ctiOpThrowNotCaught
__ZN3JSCL22numberProtoFuncValueOfEPNS_9ExecStateEPNS_8JSObjectENS_7JSValueERKNS_7ArgListE
__ZN3JSC12NumberObject11getJSNumberEv
__ZN7WebCore10StringImpl6secureEt
__ZN3JSC23createNotAFunctionErrorEPNS_9ExecStateENS_7JSValueEjPNS_9CodeBlockE
_cti_op_rshift
__ZN3JSC13JSNotAnObject18getOwnPropertySlotEPNS_9ExecStateEjRNS_12PropertySlotE
__ZN3WTF6VectorIN3JSC22AbstractMacroAssemblerINS1_12X86AssemblerEE4JumpELm16EEC2ERKS6_
__ZN3JSCL21arrayProtoFuncReverseEPNS_9ExecStateEPNS_8JSObjectENS_7JSValueERKNS_7ArgListE
__ZN3WTF21CrossThreadRefCountedINS_16OwnFastMallocPtrIKtEEE5derefEv
_cti_op_post_inc
__ZN3JSCL21regExpObjectLastIndexEPNS_9ExecStateENS_7JSValueERKNS_10IdentifierE
__ZN3JSC3JIT14emit_op_bitnotEPNS_11InstructionE
__ZN3JSC3JIT18emitSlow_op_bitnotEPNS_11InstructionERPNS_13SlowCaseEntryE
_cti_op_bitnot
__ZNK3JSC10JSONObject9classInfoEv
_JSGlobalContextCreate
_JSGlobalContextCreateInGroup
__ZN3JSC12JSGlobalData18createContextGroupENS_15ThreadStackTypeE
__ZN3JSC21createIdentifierTableEv
__ZN3JSC4Heap29makeUsableFromMultipleThreadsEv
__ZN3JSC6JSLock6unlockENS_14JSLockBehaviorE
_JSValueMakeFromJSONString
_JSValueIsNull
_JSValueIsUndefined
_JSValueIsBoolean
_JSValueIsNumber
_JSValueIsString
__ZN3JSC14JSGlobalObject18getOwnPropertySlotEPNS_9ExecStateERKNS_10IdentifierERNS_12PropertySlotE
_JSValueIsInstanceOfConstructor
__ZN3JSC8JSObject11hasInstanceEPNS_9ExecStateENS_7JSValueES3_
_JSValueToNumber
_JSObjectGetPropertyAtIndex
_JSValueToStringCopy
__ZN14OpaqueJSString6createERKN3JSC7UStringE
_JSStringCopyCFString
__ZN3JSC4Heap7destroyEv
__ZN3JSC4Heap10freeBlocksEv
__ZN3JSC14JSGlobalObjectD1Ev
__ZN3JSC14JSGlobalObject25destroyJSGlobalObjectDataEPv
__ZN3JSC12JSGlobalDataD1Ev
__ZN3JSC12JSGlobalDataD2Ev
__ZN3JSC12RegisterFileD1Ev
__ZNK3JSC9HashTable11deleteTableEv
__ZN3JSC5LexerD1Ev
__ZN3WTF20deleteAllPairSecondsIP24OpaqueJSClassContextDataKNS_7HashMapIP13OpaqueJSClassS2_NS_7PtrHashIS5_EENS_10HashTraitsIS5_E
__ZN3JSC17CommonIdentifiersD2Ev
__ZN3JSC21deleteIdentifierTableEPNS_15IdentifierTableE
__ZN3JSC15IdentifierTableD2Ev
__ZN3JSC4HeapD1Ev
__ZN3JSC9JITThunksD1Ev
__ZN3JSC16NativeExecutableD0Ev
__ZN3JSC12SmallStringsD1Ev
__ZN3JSC14JSGlobalObject17putWithAttributesEPNS_9ExecStateERKNS_10IdentifierENS_7JSValueEj
__ZN3JSC17ObjectConstructor11getCallDataERNS_8CallDataE
__ZN3JSCL21callObjectConstructorEPNS_9ExecStateEPNS_8JSObjectENS_7JSValueERKNS_7ArgListE
__ZN3JSC9Arguments14deletePropertyEPNS_9ExecStateEj
__ZN3JSCL18JSONProtoFuncParseEPNS_9ExecStateEPNS_8JSObjectENS_7JSValueERKNS_7ArgListE
__ZN3JSC7JSArray11fillArgListEPNS_9ExecStateERNS_20MarkedArgumentBufferE
__ZN3JSCL17arrayProtoFuncMapEPNS_9ExecStateEPNS_8JSObjectENS_7JSValueERKNS_7ArgListE
__ZN3JSC12StringObjectC1EPNS_9ExecStateEN3WTF17NonNullPassRefPtrINS_9StructureEEE
__ZN3JSC23MacroAssemblerX86Common9urshift32ENS_12X86Registers10RegisterIDES2_
_cti_op_urshift
__ZN3JSC15ObjectPrototype3putEPNS_9ExecStateERKNS_10IdentifierENS_7JSValueERNS_15PutPropertySlotE
__ZN3JSCL21stringProtoFuncConcatEPNS_9ExecStateEPNS_8JSObjectENS_7JSValueERKNS_7ArgListE
__ZN3JSCL24regExpConstructorDollar2EPNS_9ExecStateENS_7JSValueERKNS_10IdentifierE
__ZN3JSCL24regExpConstructorDollar3EPNS_9ExecStateENS_7JSValueERKNS_10IdentifierE
__ZN3JSCL24regExpConstructorDollar4EPNS_9ExecStateENS_7JSValueERKNS_10IdentifierE
__ZN3JSC20MarkedArgumentBuffer9markListsERNS_9MarkStackERN3WTF7HashSetIPS0_NS3_7PtrHashIS5_EENS3_10HashTraitsIS5_EEEE
__ZN3JSCL22numberProtoFuncToFixedEPNS_9ExecStateEPNS_8JSObjectENS_7JSValueERKNS_7ArgListE
__ZN3JSCL16integerPartNoExpEd
__ZN3JSC10makeStringINS_7UStringES1_PKcS1_EES1_T_T0_T1_T2_
__ZN3JSC13tryMakeStringINS_7UStringES1_PKcS1_EEN3WTF10PassRefPtrIN7WebCore10StringImplEEET_T0_T1_T2_
__ZN3JSCL26numberProtoFuncToPrecisionEPNS_9ExecStateEPNS_8JSObjectENS_7JSValueERKNS_7ArgListE
__ZN3JSCL12charSequenceEci
__ZN3JSC13tryMakeStringINS_7UStringEPKcS1_S1_EEN3WTF10PassRefPtrIN7WebCore10StringImplEEET_T0_T1_T2_
__ZN3JSCL24booleanProtoFuncToStringEPNS_9ExecStateEPNS_8JSObjectENS_7JSValueERKNS_7ArgListE
__ZNK3JSC12JSActivation12toThisObjectEPNS_9ExecStateE
_cti_op_div
__ZN3JSC17BytecodeGenerator21emitComplexJumpScopesEPNS_5LabelEPNS_18ControlFlowContextES4_
__ZN7WebCore10StringImpl7replaceEjjPS0_
__ZN3JSC12RegExpObject11getCallDataERNS_8CallDataE
__ZN3JSC12StringObject19getOwnPropertyNamesEPNS_9ExecStateERNS_17PropertyNameArrayENS_15EnumerationModeE
__ZN3JSC9ExecState11stringTableEPS0_
__ZNK3JSC7JSValue16synthesizeObjectEPNS_9ExecStateE
__ZN3JSC13JSNotAnObject3putEPNS_9ExecStateERKNS_10IdentifierENS_7JSValueERNS_15PutPropertySlotE
__ZN3JSCL35objectProtoFuncPropertyIsEnumerableEPNS_9ExecStateEPNS_8JSObjectENS_7JSValueERKNS_7ArgListE
__ZNK3JSC8JSObject20propertyIsEnumerableEPNS_9ExecStateERKNS_10IdentifierE
__ZN3JSC7JSArray24getOwnPropertyDescriptorEPNS_9ExecStateERKNS_10IdentifierERNS_18PropertyDescriptorE
__ZN3JSC18PropertyDescriptor13setDescriptorENS_7JSValueEj
__ZNK3JSC18PropertyDescriptor10enumerableEv
__ZN3JSCL22JSONProtoFuncStringifyEPNS_9ExecStateEPNS_8JSObjectENS_7JSValueERKNS_7ArgListE
__ZN3JSC11StringifierC2EPNS_9ExecStateENS_7JSValueES3_
__ZN3JSC11Stringifier9stringifyENS_7JSValueE
__ZN3JSC11Stringifier22appendStringifiedValueERNS_13StringBuilderENS_7JSValueEPNS_8JSObjectERKNS_27PropertyNameForFunctionCallE
__ZNK3JSC6JSCell9getStringEPNS_9ExecStateERNS_7UStringE
__ZN3JSC11Stringifier6Holder18appendNextPropertyERS0_RNS_13StringBuilderE
__ZN3JSC11Stringifier18appendQuotedStringERNS_13StringBuilderERKNS_7UStringE
__ZN3JSC11StringifierD2Ev
__ZN3JSC5Lexer19copyCodeWithoutBOMsEv
__ZN3JSCL21dateProtoFuncSetHoursEPNS_9ExecStateEPNS_8JSObjectENS_7JSValueERKNS_7ArgListE
__ZN3JSC17FunctionPrototype11getCallDataERNS_8CallDataE
__ZN3JSCL28dateProtoFuncGetMilliSecondsEPNS_9ExecStateEPNS_8JSObjectENS_7JSValueERKNS_7ArgListE
__ZN3JSC10makeStringINS_7UStringES1_EES1_T_T0_
__ZN3JSC13tryMakeStringINS_7UStringES1_EEN3WTF10PassRefPtrIN7WebCore10StringImplEEET_T0_
__ZN3JSC23MacroAssemblerX86Common8branch16ENS0_9ConditionENS_22AbstractMacroAssemblerINS_12X86AssemblerEE9BaseIndexENS4_5Imm32E
__ZN3JSC8JSString18getOwnPropertySlotEPNS_9ExecStateEjRNS_12PropertySlotE
__ZN3JSCL24dateProtoFuncSetUTCHoursEPNS_9ExecStateEPNS_8JSObjectENS_7JSValueERKNS_7ArgListE
__ZN3JSCL26dateProtoFuncSetUTCMinutesEPNS_9ExecStateEPNS_8JSObjectENS_7JSValueERKNS_7ArgListE
__ZN3JSCL26dateProtoFuncSetUTCSecondsEPNS_9ExecStateEPNS_8JSObjectENS_7JSValueERKNS_7ArgListE
__ZN3JSCL23dateProtoFuncGetUTCDateEPNS_9ExecStateEPNS_8JSObjectENS_7JSValueERKNS_7ArgListE
__ZN3JSCL23dateProtoFuncSetUTCDateEPNS_9ExecStateEPNS_8JSObjectENS_7JSValueERKNS_7ArgListE
__ZN3JSCL24dateProtoFuncGetUTCHoursEPNS_9ExecStateEPNS_8JSObjectENS_7JSValueERKNS_7ArgListE
__ZN3JSCL26dateProtoFuncGetUTCMinutesEPNS_9ExecStateEPNS_8JSObjectENS_7JSValueERKNS_7ArgListE
__ZN3JSCL26dateProtoFuncGetUTCSecondsEPNS_9ExecStateEPNS_8JSObjectENS_7JSValueERKNS_7ArgListE
__ZN3JSCL24dateProtoFuncSetFullYearEPNS_9ExecStateEPNS_8JSObjectENS_7JSValueERKNS_7ArgListE
__ZN3WTF6VectorIiLm32EE15reserveCapacityEm
__ZN3JSCL22regExpProtoFuncCompileEPNS_9ExecStateEPNS_8JSObjectENS_7JSValueERKNS_7ArgListE
__ZNK3JSC27PropertyNameForFunctionCall5valueEPNS_9ExecStateE
_cti_op_new_error
__ZN7WebCore6String6numberEj
__ZN3JSCL27dateProtoFuncGetUTCFullYearEPNS_9ExecStateEPNS_8JSObjectENS_7JSValueERKNS_7ArgListE
__ZN3JSCL24dateProtoFuncGetUTCMonthEPNS_9ExecStateEPNS_8JSObjectENS_7JSValueERKNS_7ArgListE
__ZN3JSCL31dateProtoFuncToLocaleDateStringEPNS_9ExecStateEPNS_8JSObjectENS_7JSValueERKNS_7ArgListE
__ZN3JSCL16formatLocaleDateEPNS_9ExecStateEPNS_12DateInstanceEdNS_20LocaleDateTimeFormatERKNS_7ArgListE
__ZN3JSC10throwErrorEPNS_9ExecStateENS_9ErrorTypeEPKc
__ZN3JSCL23throwStackOverflowErrorEPNS_9ExecStateEPNS_12JSGlobalDataENS_16ReturnAddressPtrERS4_
__ZN3JSC24createStackOverflowErrorEPNS_9ExecStateE
__ZN3JSC12RegisterFile21releaseExcessCapacityEv
__ZN3JSC12StringObject18getOwnPropertySlotEPNS_9ExecStateEjRNS_12PropertySlotE
__ZN3JSC19FunctionConstructor11getCallDataERNS_8CallDataE
__ZN7WebCore6String8fromUTF8EPKc
__ZN3JSCL27dateProtoFuncToLocaleStringEPNS_9ExecStateEPNS_8JSObjectENS_7JSValueERKNS_7ArgListE
__ZN3JSC18BooleanConstructor16getConstructDataERNS_13ConstructDataE
__ZN3JSCL31constructWithBooleanConstructorEPNS_9ExecStateEPNS_8JSObjectERKNS_7ArgListE
__ZN3JSC16constructBooleanEPNS_9ExecStateERKNS_7ArgListE
__ZN3JSC7JSArray11sortNumericEPNS_9ExecStateENS_7JSValueENS_8CallTypeERKNS_8CallDataE
__ZN3JSCL22compareNumbersForQSortEPKvS1_
__ZN3WTF6VectorIjLm16EE15reserveCapacityEm
__ZN3JSC8JSString16getIndexSlowCaseEPNS_9ExecStateEj
__ZN3JSCL25numberConstructorNaNValueEPNS_9ExecStateENS_7JSValueERKNS_10IdentifierE
__ZN3JSC6JSCell3putEPNS_9ExecStateERKNS_10IdentifierENS_7JSValueERNS_15PutPropertySlotE
__ZN3JSC4Yarr15nondigitsCreateEv
__ZN3JSCL7dateUTCEPNS_9ExecStateEPNS_8JSObjectENS_7JSValueERKNS_7ArgListE
__ZNK3JSC7ArgList2atEm
__ZN3JSCL16mathProtoFuncTanEPNS_9ExecStateEPNS_8JSObjectENS_7JSValueERKNS_7ArgListE
__ZNK3JSC8JSObject16isVariableObjectEv
__ZN7WebCore6String6insertERKS0_j
__ZN7WebCore6String6insertEPKtjj
__ZN7WebCore10StringImpl37createStrippingNullCharactersSlowCaseEPKtj
__ZN3JSCL31dateProtoFuncToLocaleTimeStringEPNS_9ExecStateEPNS_8JSObjectENS_7JSValueERKNS_7ArgListE
__ZN3WTF7CString11mutableDataEv
__ZN3WTF7CString18copyBufferIfNeededEv
__ZN3JSCL18arrayProtoFuncSomeEPNS_9ExecStateEPNS_8JSObjectENS_7JSValueERKNS_7ArgListE
__ZN3JSC21DebuggerStatementNode12emitBytecodeERNS_17BytecodeGeneratorEPNS_10RegisterIDE
__ZN3JSCL31dateProtoFuncGetUTCMillisecondsEPNS_9ExecStateEPNS_8JSObjectENS_7JSValueERKNS_7ArgListE
__ZN3WTF15ThreadConditionD1Ev
__ZN3JSC18RegExpMatchesArray19getOwnPropertyNamesEPNS_9ExecStateERNS_17PropertyNameArrayENS_15EnumerationModeE
__ZN3WTF6VectorIPNS0_IN3JSC10IdentifierELm64EEELm32EE14expandCapacityEm
__ZN3JSC15DateConstructor11getCallDataERNS_8CallDataE
__ZN3JSCL8callDateEPNS_9ExecStateEPNS_8JSObjectENS_7JSValueERKNS_7ArgListE
__ZN3JSCL22dateProtoFuncGetUTCDayEPNS_9ExecStateEPNS_8JSObjectENS_7JSValueERKNS_7ArgListE
__ZN3JSCL25arrayProtoFuncLastIndexOfEPNS_9ExecStateEPNS_8JSObjectENS_7JSValueERKNS_7ArgListE
__ZN3JSCL19arrayProtoFuncEveryEPNS_9ExecStateEPNS_8JSObjectENS_7JSValueERKNS_7ArgListE
__ZN3JSCL23callFunctionConstructorEPNS_9ExecStateEPNS_8JSObjectENS_7JSValueERKNS_7ArgListE
__ZN3JSCL19stringProtoFuncLinkEPNS_9ExecStateEPNS_8JSObjectENS_7JSValueERKNS_7ArgListE
__ZN3JSCL25dateProtoFuncToDateStringEPNS_9ExecStateEPNS_8JSObjectENS_7JSValueERKNS_7ArgListE
__ZN3JSC10throwErrorEPNS_9ExecStateEPNS_8JSObjectE
__ZN3JSCL27dateProtoFuncSetUTCFullYearEPNS_9ExecStateEPNS_8JSObjectENS_7JSValueERKNS_7ArgListE
__ZN3JSCL24dateProtoFuncSetUTCMonthEPNS_9ExecStateEPNS_8JSObjectENS_7JSValueERKNS_7ArgListE
__ZN3JSCL31dateProtoFuncSetUTCMillisecondsEPNS_9ExecStateEPNS_8JSObjectENS_7JSValueERKNS_7ArgListE
__ZN7WebCore6String6numberEx
__ZNK3JSC17NumberConstructor9classInfoEv
__ZNK3JSC17RegExpConstructor9classInfoEv
__ZN3WTF9HashTableINS_6RefPtrIN7WebCore10StringImplEEESt4pairIS4_P19StaticFunctionEntryENS_18PairFirstExtractorIS8_EENS2_10Stri
__ZN3WTF9HashTableINS_6RefPtrIN7WebCore10StringImplEEESt4pairIS4_P16StaticValueEntryENS_18PairFirstExtractorIS8_EENS2_10StringH
__ZN3JSC16JSCallbackObjectINS_8JSObjectEE18getOwnPropertySlotEPNS_9ExecStateERKNS_10IdentifierERNS_12PropertySlotE
__ZN3JSC16JSCallbackObjectINS_8JSObjectEE20staticFunctionGetterEPNS_9ExecStateENS_7JSValueERKNS_10IdentifierE
__ZN3JSC18JSCallbackFunctionC1EPNS_9ExecStateEPFPK13OpaqueJSValuePK15OpaqueJSContextPS3_S9_mPKS5_PS5_ERKNS_10IdentifierE
__ZN3JSC18JSCallbackFunction11getCallDataERNS_8CallDataE
__ZN3JSC18JSCallbackFunction4callEPNS_9ExecStateEPNS_8JSObjectENS_7JSValueERKNS_7ArgListE
__ZN3JSC6JSLock12DropAllLocksC1EPNS_9ExecStateE
_JSValueMakeUndefined
__ZN3JSC16JSCallbackObjectINS_8JSObjectEE17staticValueGetterEPNS_9ExecStateENS_7JSValueERKNS_10IdentifierE
_JSValueMakeString
__ZN3JSC18JSCallbackFunctionD1Ev
_JSValueMakeBoolean
_JSStringCreateWithCharacters
_JSValueMakeNumber
__ZN3JSC4Heap6isBusyEv
__ZN7WebCore10StringImpl7replaceEtPS0_
__ZNK3JSC8JSObject14isGlobalObjectEv
__ZNK7WebCore6String5splitEtbRN3WTF6VectorIS0_Lm0EEE
__ZN7WebCore6String6appendEt
__ZNK3JSC7UString8toUInt32EPb
__ZN3WTF9ByteArray6createEm
__ZN3JSC11JSByteArrayC1EPNS_9ExecStateEN3WTF17NonNullPassRefPtrINS_9StructureEEEPNS3_9ByteArrayEPKNS_9ClassInfoE
__ZN3JSC11JSByteArrayC2EPNS_9ExecStateEN3WTF17NonNullPassRefPtrINS_9StructureEEEPNS3_9ByteArrayEPKNS_9ClassInfoE
__ZN3JSC11JSByteArray18getOwnPropertySlotEPNS_9ExecStateERKNS_10IdentifierERNS_12PropertySlotE
__ZN3JSC11JSByteArray3putEPNS_9ExecStateEjNS_7JSValueE
__ZN3JSC11JSByteArray3putEPNS_9ExecStateERKNS_10IdentifierENS_7JSValueERNS_15PutPropertySlotE
__ZN3JSC11JSByteArray18getOwnPropertySlotEPNS_9ExecStateEjRNS_12PropertySlotE
_cti_op_get_by_val_byte_array
_cti_op_put_by_val_byte_array
_JSStringGetUTF8CString
__ZN3JSC16JSVariableObject19getOwnPropertyNamesEPNS_9ExecStateERNS_17PropertyNameArrayENS_15EnumerationModeE
__ZNK3JSC22NativeErrorConstructor9classInfoEv
__ZNK3JSC16JSCallbackObjectINS_8JSObjectEE9classNameEv
__ZN3JSC6JSCell16getConstructDataERNS_13ConstructDataE
__ZN3JSC26createNotAConstructorErrorEPNS_9ExecStateENS_7JSValueEjPNS_9CodeBlockE
__ZNK3JSC4Heap11objectCountEv
__ZN3JSC14JSGlobalObject12defineGetterEPNS_9ExecStateERKNS_10IdentifierEPNS_8JSObjectEj
__ZN3JSC14JSGlobalObject12defineSetterEPNS_9ExecStateERKNS_10IdentifierEPNS_8JSObjectEj
__ZN3JSC9Structure22getterSetterTransitionEPS0_
__ZN3JSCL28objectProtoFuncIsPrototypeOfEPNS_9ExecStateEPNS_8JSObjectENS_7JSValueERKNS_7ArgListE
__ZN3JSC16JSCallbackObjectINS_8JSObjectEE11getCallDataERNS_8CallDataE
__ZN3JSCL23arrayConstructorIsArrayEPNS_9ExecStateEPNS_8JSObjectENS_7JSValueERKNS_7ArgListE
__ZN3JSCL21objectConstructorKeysEPNS_9ExecStateEPNS_8JSObjectENS_7JSValueERKNS_7ArgListE
__ZN3JSC12DateInstanceC1EPNS_9ExecStateEN3WTF17NonNullPassRefPtrINS_9StructureEEEd
__ZN3JSC12DateInstanceC2EPNS_9ExecStateEN3WTF17NonNullPassRefPtrINS_9StructureEEEd
__ZN3JSCL24dateProtoFuncToISOStringEPNS_9ExecStateEPNS_8JSObjectENS_7JSValueERKNS_7ArgListE
__ZN3JSC15createTypeErrorEPNS_9ExecStateEPKc
__ZNK3JSC11JSByteArray9classInfoEv
__ZN3JSC11JSByteArray19getOwnPropertyNamesEPNS_9ExecStateERNS_17PropertyNameArrayENS_15EnumerationModeE
__ZN3JSC22NativeErrorConstructor11getCallDataERNS_8CallDataE
__ZN3JSCL36objectConstructorGetOwnPropertyNamesEPNS_9ExecStateEPNS_8JSObjectENS_7JSValueERKNS_7ArgListE
__ZN3JSCL41objectConstructorGetOwnPropertyDescriptorEPNS_9ExecStateEPNS_8JSObjectENS_7JSValueERKNS_7ArgListE
__ZN3JSC16JSVariableObject14symbolTableGetERKNS_10IdentifierERNS_18PropertyDescriptorE
__ZN3JSC8JSObject24getOwnPropertyDescriptorEPNS_9ExecStateERKNS_10IdentifierERNS_18PropertyDescriptorE
__ZNK3JSC18PropertyDescriptor20isAccessorDescriptorEv
__ZNK3JSC18PropertyDescriptor8writableEv
__ZNK3JSC18PropertyDescriptor12configurableEv
__ZN3JSC12JSGlobalData6createENS_15ThreadStackTypeE
__ZN3JSC12JSGlobalData10ClientDataD2Ev
__ZN3WTF14ThreadSpecificINS_13WTFThreadDataEE7destroyEPv
__ZN3WTF13WTFThreadDataD1Ev
__ZN7WebCore17AtomicStringTable7destroyEPS0_
__ZN3JSC15IdentifierTableD1Ev
__ZN3WTF9dayInYearEdi
__ZN3WTF18monthFromDayInYearEib
__ZN3WTF23dayInMonthFromDayInYearEib
__ZN3JSC6Walker4walkENS_7JSValueE
__ZN3WTF9HashTableIPN7WebCore10StringImplES3_NS_17IdentityExtractorIS3_EENS_7PtrHashIS3_EENS_10HashTraitsIS3_EES9_EC2ERKSA_
__ZN3WTF6VectorIPN3JSC7JSArrayELm16EE14expandCapacityEm
__ZN3WTF6VectorIjLm16EE14expandCapacityEm
__ZN3WTF6VectorIN3JSC11WalkerStateELm16EE14expandCapacityEm
__ZL30makeGetterOrSetterPropertyNodePN3JSC12JSGlobalDataERKNS_10IdentifierES4_PNS_13ParameterNodeEPNS_16FunctionBodyNodeERKNS_1
__ZN3JSC17BytecodeGenerator13emitPutGetterEPNS_10RegisterIDERKNS_10IdentifierES2_
__ZN3JSC3JIT18emit_op_put_getterEPNS_11InstructionE
_cti_op_put_getter
__ZN3JSCL23booleanProtoFuncValueOfEPNS_9ExecStateEPNS_8JSObjectENS_7JSValueERKNS_7ArgListE
__ZN3JSCL19dateProtoFuncToJSONEPNS_9ExecStateEPNS_8JSObjectENS_7JSValueERKNS_7ArgListE
__ZN3JSC9ExecState9dateTableEPS0_
__ZN3JSC10Identifier4fromEPNS_9ExecStateEd
__ZN3JSC13StringBuilder6appendEt
__ZN3JSC17BytecodeGenerator13emitPutSetterEPNS_10RegisterIDERKNS_10IdentifierES2_
__ZN3JSC3JIT18emit_op_put_setterEPNS_11InstructionE
_cti_op_put_setter
__ZN3JSCL23objectConstructorCreateEPNS_9ExecStateEPNS_8JSObjectENS_7JSValueERKNS_7ArgListE
__ZN3JSCL16definePropertiesEPNS_9ExecStateEPNS_8JSObjectES3_
__ZN3JSCL20toPropertyDescriptorEPNS_9ExecStateENS_7JSValueERNS_18PropertyDescriptorE
__ZN3JSC18PropertyDescriptor13setEnumerableEb
__ZN3WTF6VectorIN3JSC18PropertyDescriptorELm0EE14expandCapacityEm
__ZNK3JSC18PropertyDescriptor16isDataDescriptorEv
__ZN3JSC8JSObject17defineOwnPropertyEPNS_9ExecStateERKNS_10IdentifierERNS_18PropertyDescriptorEb
__ZN3JSCL13putDescriptorEPNS_9ExecStateEPNS_8JSObjectERKNS_10IdentifierERNS_18PropertyDescriptorEjNS_7JSValueE
__ZNK3JSC18PropertyDescriptor19isGenericDescriptorEv
__ZN3JSCL31objectConstructorGetPrototypeOfEPNS_9ExecStateEPNS_8JSObjectENS_7JSValueERKNS_7ArgListE
__ZN3JSC18PropertyDescriptor9setGetterENS_7JSValueE
__ZNK3JSC18PropertyDescriptor6getterEv
__ZNK3JSC18PropertyDescriptor6setterEv
__ZN3JSC18PropertyDescriptor15setConfigurableEb
__ZN3JSC18PropertyDescriptor11setWritableEb
__ZN3JSC18PropertyDescriptor9setSetterENS_7JSValueE
__ZN3JSCL33objectConstructorDefinePropertiesEPNS_9ExecStateEPNS_8JSObjectENS_7JSValueERKNS_7ArgListE
__ZNK3JSC18PropertyDescriptor7equalToEPNS_9ExecStateERKS0_
__ZNK3JSC18PropertyDescriptor15attributesEqualERKS0_
__ZNK3JSC18PropertyDescriptor22attributesWithOverrideERKS0_
__ZN3JSCL31objectConstructorDefinePropertyEPNS_9ExecStateEPNS_8JSObjectENS_7JSValueERKNS_7ArgListE
__ZN3JSC9ExecState11regExpTableEPS0_
__ZN3JSC9Arguments19getOwnPropertyNamesEPNS_9ExecStateERNS_17PropertyNameArrayENS_15EnumerationModeE
__ZN3JSC9ExecState11numberTableEPS0_
__ZN3JSC9ExecState22regExpConstructorTableEPS0_
__ZNK3JSC15RegExpPrototype9classInfoEv
__ZNK3JSC10MathObject9classInfoEv
__ZN3JSC9ExecState9mathTableEPS0_
__ZN3JSC9ExecState9jsonTableEPS0_
__ZN3JSCL20arrayProtoFuncReduceEPNS_9ExecStateEPNS_8JSObjectENS_7JSValueERKNS_7ArgListE
__ZN3JSCL25arrayProtoFuncReduceRightEPNS_9ExecStateEPNS_8JSObjectENS_7JSValueERKNS_7ArgListE
__ZN3JSCL28arrayProtoFuncToLocaleStringEPNS_9ExecStateEPNS_8JSObjectENS_7JSValueERKNS_7ArgListE
__ZN3JSC19JSStaticScopeObject3putEPNS_9ExecStateERKNS_10IdentifierENS_7JSValueERNS_15PutPropertySlotE
__ZN3JSCL25dateProtoFuncToTimeStringEPNS_9ExecStateEPNS_8JSObjectENS_7JSValueERKNS_7ArgListE
__ZN3JSC7JSValueC1EPNS_9ExecStateEd
__ZN3JSC15DeleteValueNode12emitBytecodeERNS_17BytecodeGeneratorEPNS_10RegisterIDE
__ZN3JSC16PostfixErrorNode12emitBytecodeERNS_17BytecodeGeneratorEPNS_10RegisterIDE
__ZN3JSC23ThrowableExpressionData14emitThrowErrorERNS_17BytecodeGeneratorENS_9ErrorTypeEPKcRKNS_7UStringE
__ZN3JSC10makeStringINS_7UStringES1_S1_EES1_T_T0_T1_
__ZN3JSC13tryMakeStringINS_7UStringES1_S1_EEN3WTF10PassRefPtrIN7WebCore10StringImplEEET_T0_T1_
__ZN3JSC15PrefixErrorNode12emitBytecodeERNS_17BytecodeGeneratorEPNS_10RegisterIDE
__ZN3JSC23createInvalidParamErrorEPNS_9ExecStateEPKcNS_7JSValueEjPNS_9CodeBlockE
__ZN3JSC10makeStringIPKcS2_S2_EENS_7UStringET_T0_T1_
__ZN3JSC13tryMakeStringIPKcS2_S2_EEN3WTF10PassRefPtrIN7WebCore10StringImplEEET_T0_T1_
__ZNK3JSC15DotAccessorNode17isDotAccessorNodeEv
__ZNK3JSC14ExpressionNode17isDotAccessorNodeEv
__ZN3JSC13JSNotAnObject3putEPNS_9ExecStateEjNS_7JSValueE
__ZN3JSC14ArrayPrototype24getOwnPropertyDescriptorEPNS_9ExecStateERKNS_10IdentifierERNS_18PropertyDescriptorE
__ZN3JSC13DatePrototype24getOwnPropertyDescriptorEPNS_9ExecStateERKNS_10IdentifierERNS_18PropertyDescriptorE
__ZN3JSC15StringPrototype24getOwnPropertyDescriptorEPNS_9ExecStateERKNS_10IdentifierERNS_18PropertyDescriptorE
__ZN3JSC12StringObject24getOwnPropertyDescriptorEPNS_9ExecStateERKNS_10IdentifierERNS_18PropertyDescriptorE
__ZN3JSC8JSString27getStringPropertyDescriptorEPNS_9ExecStateERKNS_10IdentifierERNS_18PropertyDescriptorE
__ZN3JSC17NumberConstructor24getOwnPropertyDescriptorEPNS_9ExecStateERKNS_10IdentifierERNS_18PropertyDescriptorE
__ZN3JSC17RegExpConstructor24getOwnPropertyDescriptorEPNS_9ExecStateERKNS_10IdentifierERNS_18PropertyDescriptorE
__ZN3JSCL22regExpConstructorInputEPNS_9ExecStateENS_7JSValueERKNS_10IdentifierE
__ZN3JSC12RegExpObject24getOwnPropertyDescriptorEPNS_9ExecStateERKNS_10IdentifierERNS_18PropertyDescriptorE
__ZN3JSC10MathObject24getOwnPropertyDescriptorEPNS_9ExecStateERKNS_10IdentifierERNS_18PropertyDescriptorE
__ZN3JSC18RegExpMatchesArray24getOwnPropertyDescriptorEPNS_9ExecStateERKNS_10IdentifierERNS_18PropertyDescriptorE
__ZN3JSC10JSFunction24getOwnPropertyDescriptorEPNS_9ExecStateERKNS_10IdentifierERNS_18PropertyDescriptorE
__ZN3JSC11JSByteArray24getOwnPropertyDescriptorEPNS_9ExecStateERKNS_10IdentifierERNS_18PropertyDescriptorE
__ZNK3JSC16JSCallbackObjectINS_8JSObjectEE8toStringEPNS_9ExecStateE
__ZN3JSC10throwErrorEPNS_9ExecStateENS_9ErrorTypeERKNS_7UStringEilS5_
__ZN3JSC17BytecodeGenerator35emitThrowExpressionTooDeepExceptionEv
__ZN3JSCL25numberConstructorMinValueEPNS_9ExecStateENS_7JSValueERKNS_10IdentifierE
__ZN3JSCL18mathProtoFuncATan2EPNS_9ExecStateEPNS_8JSObjectENS_7JSValueERKNS_7ArgListE
__ZN3JSCL28numberProtoFuncToExponentialEPNS_9ExecStateEPNS_8JSObjectENS_7JSValueERKNS_7ArgListE
__ZN3JSC16parseIntOverflowEPKcii
__ZN3JSCL29objectProtoFuncToLocaleStringEPNS_9ExecStateEPNS_8JSObjectENS_7JSValueERKNS_7ArgListE
__ZN3JSCL24regExpConstructorDollar5EPNS_9ExecStateENS_7JSValueERKNS_10IdentifierE
__ZN3JSCL24regExpConstructorDollar6EPNS_9ExecStateENS_7JSValueERKNS_10IdentifierE
__ZN3JSCL24regExpConstructorDollar7EPNS_9ExecStateENS_7JSValueERKNS_10IdentifierE
__ZN3JSCL24regExpConstructorDollar8EPNS_9ExecStateENS_7JSValueERKNS_10IdentifierE
__ZN3JSCL24regExpConstructorDollar9EPNS_9ExecStateENS_7JSValueERKNS_10IdentifierE
__ZN3JSCL25setRegExpConstructorInputEPNS_9ExecStateEPNS_8JSObjectENS_7JSValueE
__ZN3JSCL26regExpConstructorLastMatchEPNS_9ExecStateENS_7JSValueERKNS_10IdentifierE
__ZN3JSCL26regExpConstructorLastParenEPNS_9ExecStateENS_7JSValueERKNS_10IdentifierE
__ZNK3JSC17RegExpConstructor12getLastParenEPNS_9ExecStateE
__ZN3JSCL26regExpConstructorMultilineEPNS_9ExecStateENS_7JSValueERKNS_10IdentifierE
__ZN3JSCL29setRegExpConstructorMultilineEPNS_9ExecStateEPNS_8JSObjectENS_7JSValueE
__ZNK3JSC17RegExpConstructor5inputEv
__ZN3JSC10makeStringIPKcS2_EENS_7UStringET_T0_
__ZN3JSC13tryMakeStringIPKcS2_EEN3WTF10PassRefPtrIN7WebCore10StringImplEEET_T0_
__ZN3JSC10throwErrorEPNS_9ExecStateENS_9ErrorTypeERKNS_7UStringE
__ZNK3JSC19JSStaticScopeObject12toThisObjectEPNS_9ExecStateE
__ZN3JSCL23stringProtoFuncTrimLeftEPNS_9ExecStateEPNS_8JSObjectENS_7JSValueERKNS_7ArgListE
__ZN3JSCL24stringProtoFuncTrimRightEPNS_9ExecStateEPNS_8JSObjectENS_7JSValueERKNS_7ArgListE
__ZN3JSC12JSActivation18getArgumentsGetterEv
__ZN3JSC12JSActivation15argumentsGetterEPNS_9ExecStateENS_7JSValueERKNS_10IdentifierE
__ZN3JSCL28stringProtoFuncLocaleCompareEPNS_9ExecStateEPNS_8JSObjectENS_7JSValueERKNS_7ArgListE
__ZN3WTF8Collator11userDefaultEv
__ZNK3WTF8Collator7collateEPKtmS2_m
__ZNK3WTF8Collator14createCollatorEv
__ZN3WTF8CollatorD1Ev
__ZN3WTF8Collator15releaseCollatorEv
__ZN3JSC9Arguments14deletePropertyEPNS_9ExecStateERKNS_10IdentifierE
__ZN3JSCL26callNativeErrorConstructorEPNS_9ExecStateEPNS_8JSObjectENS_7JSValueERKNS_7ArgListE
__ZN3JSCL21callFunctionPrototypeEPNS_9ExecStateEPNS_8JSObjectENS_7JSValueERKNS_7ArgListE
__ZN3JSC6JSCell11getJSNumberEv
__ZN3JSCL16callRegExpObjectEPNS_9ExecStateEPNS_8JSObjectENS_7JSValueERKNS_7ArgListE
__ZN3WTF6VectorIN3JSC20FunctionRegisterInfoELm0EE14expandCapacityEm
__ZN3JSC3JIT25emit_op_profile_will_callEPNS_11InstructionE
__ZN3JSC3JIT24emit_op_profile_did_callEPNS_11InstructionE
__ZN3JSC8Profiler8profilerEv
__ZN3JSC8Profiler14startProfilingEPNS_9ExecStateERKNS_7UStringE
__ZN3JSC16ProfileGenerator6createERKNS_7UStringEPNS_9ExecStateEj
__ZN3JSC16ProfileGeneratorC2ERKNS_7UStringEPNS_9ExecStateEj
__ZN3JSC7Profile6createERKNS_7UStringEj
__ZN3JSC7ProfileC2ERKNS_7UStringEj
__ZN3JSC11ProfileNodeC1ERKNS_14CallIdentifierEPS0_S4_
__ZN3JSC16ProfileGenerator24addParentForConsoleStartEPNS_9ExecStateE
__ZN3JSC8Profiler20createCallIdentifierEPNS_9ExecStateENS_7JSValueERKNS_7UStringEi
__ZN3JSC16InternalFunction21calculatedDisplayNameEPNS_9ExecStateE
__ZN3JSC16InternalFunction11displayNameEPNS_9ExecStateE
__ZN3JSC11ProfileNode10insertNodeEN3WTF10PassRefPtrIS0_EE
__ZN3WTF6VectorINS_6RefPtrIN3JSC11ProfileNodeEEELm0EE14expandCapacityEm
__ZN3WTF6VectorINS_6RefPtrIN3JSC16ProfileGeneratorEEELm0EE15reserveCapacityEm
_cti_op_profile_did_call
__ZN3JSC8Profiler10didExecuteEPNS_9ExecStateENS_7JSValueE
__ZN3JSC16ProfileGenerator10didExecuteERKNS_14CallIdentifierE
__ZN3JSC11ProfileNode10didExecuteEv
_cti_op_profile_will_call
__ZN3JSC8Profiler11willExecuteEPNS_9ExecStateENS_7JSValueE
__ZN3JSC16ProfileGenerator11willExecuteERKNS_14CallIdentifierE
__ZN3JSC11ProfileNode11willExecuteERKNS_14CallIdentifierE
__ZN3JSC8Profiler13stopProfilingEPNS_9ExecStateERKNS_7UStringE
__ZN3JSC16ProfileGenerator13stopProfilingEv
__ZN3JSC7Profile7forEachEMNS_11ProfileNodeEFvvE
__ZNK3JSC11ProfileNode25traverseNextNodePostOrderEv
__ZN3JSC11ProfileNode13stopProfilingEv
__ZN3JSC11ProfileNode11removeChildEPS0_
__ZN3JSC11ProfileNode8addChildEN3WTF10PassRefPtrIS0_EE
__ZN3JSC8Debugger23recompileAllJSFunctionsEPNS_12JSGlobalDataE
__ZN3JSC4Heap16primaryHeapBeginEv
__ZN3JSC4Heap14primaryHeapEndEv
__ZNK3JSC18JSCallbackFunction9classInfoEv
__ZN3WTF7HashSetIPN3JSC18FunctionExecutableENS_7PtrHashIS3_EENS_10HashTraitsIS3_EEE3addERKS3_
__ZN3WTF9HashTableIPN3JSC18FunctionExecutableES3_NS_17IdentityExtractorIS3_EENS_7PtrHashIS3_EENS_10HashTraitsIS3_EES9_E6expandE
__ZN3JSC18FunctionExecutable9recompileEPNS_9ExecStateE
__ZN3JSC8Profiler11willExecuteEPNS_9ExecStateERKNS_7UStringEi
__ZN3JSC8Profiler10didExecuteEPNS_9ExecStateERKNS_7UStringEi
__ZNK3JSC16ProfileGenerator5titleEv
__ZN3JSC9CodeBlock33functionRegisterForBytecodeOffsetEjRi
__ZN3JSC7ProfileD0Ev
__ZN3WTF10RefCountedIN3JSC11ProfileNodeEE5derefEv
__ZN3JSC34createTerminatedExecutionExceptionEPNS_12JSGlobalDataE
__ZNK3JSC24TerminatedExecutionError13exceptionTypeEv
__ZN3JSC24TerminatedExecutionErrorD1Ev
__ZN3WTF8CollatorC1EPKc
__ZN3WTF8Collator18setOrderLowerFirstEb
_JSValueIsEqual
__ZN3JSC7JSValue13equalSlowCaseEPNS_9ExecStateES0_S0_
__ZNK3JSC14JSGlobalObject17supportsProfilingEv
__ZNK7WebCore6String12toUIntStrictEPbi
__ZN7WebCore10StringImpl12toUIntStrictEPbi
__ZN3WTF12randomNumberEv
__ZNK7WebCore6String8toUInt64EPb
__ZN7WebCore10StringImpl8toUInt64EPb
__ZN7WebCore18charactersToUInt64EPKtmPb
_JSStringGetMaximumUTF8CStringSize
__ZN3JSC16JSCallbackObjectINS_8JSObjectEE3putEPNS_9ExecStateERKNS_10IdentifierENS_7JSValueERNS_15PutPropertySlotE
__ZN7WebCore6String6numberEm
__ZN3JSC4Heap17globalObjectCountEv
__ZN3JSC4Heap20protectedObjectCountEv
__ZN3JSC4Heap25protectedObjectTypeCountsEv
__ZN3WTF9HashTableIPKcSt4pairIS2_jENS_18PairFirstExtractorIS4_EENS_7PtrHashIS2_EENS_14PairHashTraitsINS_10HashTraitsIS2_EENSA_I
__ZNK3JSC6JSCell17isAPIValueWrapperEv
__ZNK3JSC6JSCell22isPropertyNameIteratorEv
__ZN3JSC4Heap16objectTypeCountsEv
__ZNK3JSC22JSPropertyNameIterator22isPropertyNameIteratorEv
__ZN3WTF20fastMallocStatisticsEv
__ZNK3JSC4Heap10statisticsEv
__ZN3WTF27releaseFastMallocFreeMemoryEv
_JSStringIsEqualToUTF8CString
__ZN3JSC16JSCallbackObjectINS_8JSObjectEE14callbackGetterEPNS_9ExecStateENS_7JSValueERKNS_10IdentifierE
_JSObjectSetPrivate
__ZN3JSC8Debugger6attachEPNS_14JSGlobalObjectE
__ZN3WTF9HashTableIPN3JSC14JSGlobalObjectES3_NS_17IdentityExtractorIS3_EENS_7PtrHashIS3_EENS_10HashTraitsIS3_EES9_E6rehashEi
__ZN3WTF9HashTableIPN3JSC14SourceProviderESt4pairIS3_PNS1_9ExecStateEENS_18PairFirstExtractorIS7_EENS_7PtrHashIS3_EENS_14PairHa
__ZN3JSC7UString4fromEl
__ZN3JSC3JIT13emit_op_debugEPNS_11InstructionE
_cti_op_debug
__ZN3JSC11Interpreter5debugEPNS_9ExecStateENS_11DebugHookIDEii
__ZNK3JSC17DebuggerCallFrame4typeEv
__ZNK3JSC17DebuggerCallFrame22calculatedFunctionNameEv
__ZNK3JSC12JSActivation18isActivationObjectEv
__ZNK3JSC17DebuggerCallFrame10thisObjectEv
__ZN3WTF28setMainThreadCallbacksPausedEb
__ZNK3JSC17DebuggerCallFrame8evaluateERKNS_7UStringERNS_7JSValueE
__ZN3JSC8Debugger6detachEPNS_14JSGlobalObjectE
_JSValueIsObjectOfClass
