__ZN7WebCore19ResourceRequestBase25setDefaultTimeoutIntervalEd
__ZN7WebCore11memoryCacheEv
__ZN7WebCore11MemoryCache13setCapacitiesEjjj
__ZN7WebCore11MemoryCache5pruneEv
__ZN7WebCore9pageCacheEv
__ZN7WebCore9TimerBaseC2Ev
__ZN7WebCore9PageCache11setCapacityEi
_WebCoreObjCFinalizeOnMainThread
__ZN7WebCore16MIMETypeRegistry29getSupportedNonImageMIMETypesEv
__ZN7WebCoreL26initializeMIMETypeRegistryEv
__ZN3WTF9HashTableINS_6StringES1_NS_17IdentityExtractorIS1_EENS_10StringHashENS_10HashTraitsIS1_EES6_E3addIS1_S1_NS_22IdentityHashTranslatorIS1_S1_S4_EEEESt4pairINS_17HashTableIteratorIS1_S1_S3_S4_S6_S6_EEbERKT_RKT0_
__ZN3WTF9HashTableINS_6StringES1_NS_17IdentityExtractorIS1_EENS_10StringHashENS_10HashTraitsIS1_EES6_E6rehashEi
__ZNK3WTF10StringImpl4hashEv
__ZN3WTF9HashTableINS_6StringES1_NS_17IdentityExtractorIS1_EENS_10StringHashENS_10HashTraitsIS1_EES6_EC2ERKS7_
__ZN7WebCore14ArchiveFactory29registerKnownArchiveMIMETypesEv
__ZN7WebCoreL16archiveMIMETypesEv
__ZN3WTF12StringHasher11computeHashItXadL_ZNS_15CaseFoldingHash8foldCaseItEEtT_EEEEjPKS4_j
__ZN3WTF6StringC1EPK10__CFString
__ZN3WTF6StringC2EPK10__CFString
__ZN7WebCore26MIMETypeForImageSourceTypeERKN3WTF6StringE
__ZNK3WTF6String14createCFStringEv
__ZN3WTF10StringImpl14createCFStringEv
__ZN3WTF24StringWrapperCFAllocatorL6retainEPKv
__ZN3WTF24StringWrapperCFAllocatorL8allocateElmPv
__ZN3WTF24StringWrapperCFAllocatorL10deallocateEPvS1_
__ZN3WTF9HashTableINS_6StringES1_NS_17IdentityExtractorIS1_EENS_10StringHashENS_10HashTraitsIS1_EES6_E6lookupIS1_NS_22IdentityHashTranslatorIS1_S1_S4_EEEEPS1_RKT_
__ZN3WTF10StringImplcvP8NSStringEv
__ZN7WebCore21memoryPressureHandlerEv
__ZN7WebCore21MemoryPressureHandler7installEv
_stringIsCaseInsensitiveEqualToString
__ZN7WebCore25addLanguageChangeObserverEPvPFvS0_E
__ZN7WebCore36InitializeLoggingChannelsIfNecessaryEv
__ZN7WebCoreL25initializeWithUserDefaultER13WTFLogChannel
__ZN7WebCore12IconDatabaseC1Ev
__ZN7WebCore12IconDatabaseC2Ev
__ZN7WebCore14SQLiteDatabaseC1Ev
__ZN7WebCore12IconDatabase9setClientEPNS_18IconDatabaseClientE
__ZN7WebCore12IconDatabase20delayDatabaseCleanupEv
__ZN7WebCore12IconDatabase10setEnabledEb
__ZN7WebCore15pathGetFileNameERKN3WTF6StringE
__ZN7WebCore13directoryNameERKN3WTF6StringE
__ZN7WebCore24fileSystemRepresentationERKN3WTF6StringE
__ZN7WebCore12IconDatabase4openERKN3WTF6StringES4_
__ZNK7WebCore12IconDatabase6isOpenEv
__ZN7WebCore24pathByAppendingComponentERKN3WTF6StringES3_
__ZNK3WTF12StringAppendINS_6StringEPKcEcvS1_Ev
__ZN3WTF13tryMakeStringINS_6StringEPKcEENS_10PassRefPtrINS_10StringImplEEET_T0_
__ZN3WTFplINS_6StringEEENS_12StringAppendIS1_T_EERKS1_S3_
__ZNK3WTF12StringAppendINS_6StringES1_EcvS1_Ev
__ZN3WTF13tryMakeStringINS_6StringES1_EENS_10PassRefPtrINS_10StringImplEEET_T0_
__ZN7WebCore21setGlobalIconDatabaseEPNS_16IconDatabaseBaseE
__ZN7WebCore12IconDatabase27iconDatabaseSyncThreadStartEPv
__ZN7WebCore12IconDatabase22iconDatabaseSyncThreadEv
__ZN7WebCore18makeAllDirectoriesERKN3WTF6StringE
__ZN7WebCore15AutodrainedPoolC1Ei
__ZN7WebCore10fileExistsERKN3WTF6StringE
__ZN7WebCore15AutodrainedPoolD1Ev
__ZN7WebCore14SQLiteDatabase4openERKN3WTF6StringEb
__ZN7WebCore16SQLiteFileSystem12openDatabaseERKN3WTF6StringEPP7sqlite3b
__ZN7WebCore15SQLiteStatementC1ERNS_14SQLiteDatabaseERKN3WTF6StringE
__ZN7WebCore15SQLiteStatement14executeCommandEv
__ZN7WebCore15SQLiteStatement7prepareEv
__ZN7WebCore14SQLiteDatabase13isInterruptedEv
__ZN7WebCore15SQLiteStatementD1Ev
__ZNK7WebCore12IconDatabase24shouldStopThreadActivityEv
__ZN7WebCore12IconDatabase25performOpenInitializationEv
__ZN7WebCoreL21databaseVersionNumberERNS_14SQLiteDatabaseE
__ZN7WebCore15SQLiteStatement12getColumnIntEi
__ZN7WebCore15SQLiteStatement14prepareAndStepEv
__ZN7WebCore14SQLiteDatabase11tableExistsERKN3WTF6StringE
__ZNK3WTF12StringAppendIPKcNS_6StringEEcvS3_Ev
__ZN3WTF13tryMakeStringIPKcNS_6StringEEENS_10PassRefPtrINS_10StringImplEEET_T0_
__ZN7WebCore15SQLiteStatement4stepEv
__ZN3WTF6StringC1EP8NSString
__ZN3WTF6StringC2EP8NSString
__ZN7WebCore20canExcludeFromBackupEv
__ZN7WebCore12IconDatabase21wasExcludedFromBackupEv
__ZN7WebCore12IconDatabase8importedEv
__ZN7WebCore12IconDatabase16performURLImportEv
__ZN7WebCore15SQLiteStatement13getColumnTextEi
__ZN7WebCore13PageURLRecordC1ERKN3WTF6StringE
__ZN7WebCore12IconDatabase21getOrCreateIconRecordERKN3WTF6StringE
__ZN7WebCore10IconRecordC1ERKN3WTF6StringE
__ZN7WebCore13PageURLRecord13setIconRecordEN3WTF10PassRefPtrINS_10IconRecordEEE
__ZN3WTF6VectorINS_6StringELm0EE11appendRangeINS_29HashTableConstIteratorAdapterINS_9HashTableIS1_S1_NS_17IdentityExtractorIS1_EENS_10StringHashENS_10HashTraitsIS1_EESA_EES1_EEEEvT_SD_
__ZN7WebCore12IconDatabase18syncThreadMainLoopEv
__ZN7WebCore12IconDatabase15writeToDatabaseEv
__ZN3WTF6VectorIN7WebCore12IconSnapshotELm0EE11appendRangeINS_23HashTableValuesIteratorINS_9HashTableINS_6StringESt4pairIS7_S2_ENS_18PairFirstExtractorIS9_EENS_10StringHashENS_14PairHashTraitsINS_10HashTraitsIS7_EENSE_IS2_EEEESF_EES7_S2_EEEEvT_SK_
__ZN3WTF9HashTableINS_6StringESt4pairIS1_N7WebCore12IconSnapshotEENS_18PairFirstExtractorIS5_EENS_10StringHashENS_14PairHashTraitsINS_10HashTraitsIS1_EENSA_IS4_EEEESB_E15deallocateTableEPS5_i
__ZN3WTF9HashTableINS_6StringESt4pairIS1_N7WebCore12IconSnapshotEENS_18PairFirstExtractorIS5_EENS_10StringHashENS_14PairHashTraitsINS_10HashTraitsIS1_EENSA_IS4_EEEESB_E16lookupForWritingIS1_NS_22IdentityHashTranslatorIS1_S5_S8_EEEES2_IPS5_bERKT_
__ZN3WTF9HashTableINS_6StringESt4pairIS1_N7WebCore12IconSnapshotEENS_18PairFirstExtractorIS5_EENS_10StringHashENS_14PairHashTraitsINS_10HashTraitsIS1_EENSA_IS4_EEEESB_E3addIS1_S4_NS_17HashMapTranslatorIS5_SD_S8_EEEES2_INS_17HashTableIteratorIS1_S5_S7_S8_SD_SB_EEbERKT_RKT0_
__ZN3WTF9HashTableINS_6StringESt4pairIS1_N7WebCore12IconSnapshotEENS_18PairFirstExtractorIS5_EENS_10StringHashENS_14PairHashTraitsINS_10HashTraitsIS1_EENSA_IS4_EEEESB_E6lookupIS1_NS_22IdentityHashTranslatorIS1_S5_S8_EEEEPS5_RKT_
__ZN3WTF9HashTableINS_6StringESt4pairIS1_N7WebCore12IconSnapshotEENS_18PairFirstExtractorIS5_EENS_10StringHashENS_14PairHashTraitsINS_10HashTraitsIS1_EENSA_IS4_EEEESB_E6rehashEi
__ZN3WTF6VectorIN7WebCore15PageURLSnapshotELm0EE11appendRangeINS_23HashTableValuesIteratorINS_9HashTableINS_6StringESt4pairIS7_S2_ENS_18PairFirstExtractorIS9_EENS_10StringHashENS_14PairHashTraitsINS_10HashTraitsIS7_EENSE_IS2_EEEESF_EES7_S2_EEEEvT_SK_
__ZN3WTF9HashTableINS_6StringESt4pairIS1_N7WebCore15PageURLSnapshotEENS_18PairFirstExtractorIS5_EENS_10StringHashENS_14PairHashTraitsINS_10HashTraitsIS1_EENSA_IS4_EEEESB_E15deallocateTableEPS5_i
__ZN3WTF9HashTableINS_6StringESt4pairIS1_N7WebCore15PageURLSnapshotEENS_18PairFirstExtractorIS5_EENS_10StringHashENS_14PairHashTraitsINS_10HashTraitsIS1_EENSA_IS4_EEEESB_E16lookupForWritingIS1_NS_22IdentityHashTranslatorIS1_S5_S8_EEEES2_IPS5_bERKT_
__ZN3WTF9HashTableINS_6StringESt4pairIS1_N7WebCore15PageURLSnapshotEENS_18PairFirstExtractorIS5_EENS_10StringHashENS_14PairHashTraitsINS_10HashTraitsIS1_EENSA_IS4_EEEESB_E3addIS1_S4_NS_17HashMapTranslatorIS5_SD_S8_EEEES2_INS_17HashTableIteratorIS1_S5_S7_S8_SD_SB_EEbERKT_RKT0_
__ZN3WTF9HashTableINS_6StringESt4pairIS1_N7WebCore15PageURLSnapshotEENS_18PairFirstExtractorIS5_EENS_10StringHashENS_14PairHashTraitsINS_10HashTraitsIS1_EENSA_IS4_EEEESB_E6lookupIS1_NS_22IdentityHashTranslatorIS1_S5_S8_EEEEPS5_RKT_
__ZN3WTF9HashTableINS_6StringESt4pairIS1_N7WebCore15PageURLSnapshotEENS_18PairFirstExtractorIS5_EENS_10StringHashENS_14PairHashTraitsINS_10HashTraitsIS1_EENSA_IS4_EEEESB_E6rehashEi
__ZN7WebCore17SQLiteTransactionC1ERNS_14SQLiteDatabaseEb
__ZN7WebCore17SQLiteTransaction5beginEv
__ZN7WebCore14SQLiteDatabase14executeCommandERKN3WTF6StringE
__ZN7WebCore17SQLiteTransaction6commitEv
__ZN7WebCore17SQLiteTransactionD1Ev
__ZN7WebCore12IconDatabase16readFromDatabaseEv
__ZN3WTF6VectorIPN7WebCore10IconRecordELm0EE11appendRangeINS_29HashTableConstIteratorAdapterINS_9HashTableIS3_S3_NS_17IdentityExtractorIS3_EENS_7PtrHashIS3_EENS_10HashTraitsIS3_EESD_EES3_EEEEvT_SG_
__ZN7WebCore12IconDatabase20retainIconForPageURLERKN3WTF6StringE
__ZNK7WebCore12IconDatabase9isEnabledEv
__ZN3WTF9HashTableINS_6StringESt4pairIS1_PN7WebCore13PageURLRecordEENS_18PairFirstExtractorIS6_EENS_10StringHashENS_14PairHashTraitsINS_10HashTraitsIS1_EENSB_IS5_EEEESC_E16lookupForWritingIS1_NS_22IdentityHashTranslatorIS1_S6_S9_EEEES2_IPS6_bERKT_
__ZN3WTF9HashTableINS_6StringESt4pairIS1_PN7WebCore13PageURLRecordEENS_18PairFirstExtractorIS6_EENS_10StringHashENS_14PairHashTraitsINS_10HashTraitsIS1_EENSB_IS5_EEEESC_E3addIS1_S5_NS_17HashMapTranslatorIS6_SE_S9_EEEES2_INS_17HashTableIteratorIS1_S6_S8_S9_SE_SC_EEbERKT_RKT0_
__ZN3WTF9HashTableINS_6StringESt4pairIS1_PN7WebCore13PageURLRecordEENS_18PairFirstExtractorIS6_EENS_10StringHashENS_14PairHashTraitsINS_10HashTraitsIS1_EENSB_IS5_EEEESC_E6lookupIS1_NS_22IdentityHashTranslatorIS1_S6_S9_EEEEPS6_RKT_
__ZN3WTF9HashTableINS_6StringESt4pairIS1_PN7WebCore13PageURLRecordEENS_18PairFirstExtractorIS6_EENS_10StringHashENS_14PairHashTraitsINS_10HashTraitsIS1_EENSB_IS5_EEEESC_E6rehashEi
__ZN3WTF9HashTableINS_6StringESt4pairIS1_PN7WebCore13PageURLRecordEENS_18PairFirstExtractorIS6_EENS_10StringHashENS_14PairHashTraitsINS_10HashTraitsIS1_EENSB_IS5_EEEESC_E6removeEPS6_
__ZN7WebCore12IconDatabase25synchronousIconForPageURLERKN3WTF6StringERKNS_7IntSizeE
__ZN7WebCore10IconRecord15imageDataStatusEv
__ZN3WTF9HashTableIPN7WebCore10IconRecordES3_NS_17IdentityExtractorIS3_EENS_7PtrHashIS3_EENS_10HashTraitsIS3_EES9_E3addIS3_S3_NS_22IdentityHashTranslatorIS3_S3_S7_EEEESt4pairINS_17HashTableIteratorIS3_S3_S5_S7_S9_S9_EEbERKT_RKT0_
__ZN3WTF9HashTableIPN7WebCore10IconRecordES3_NS_17IdentityExtractorIS3_EENS_7PtrHashIS3_EENS_10HashTraitsIS3_EES9_E6expandEv
__ZN7WebCore24disableSuddenTerminationEv
__ZN3WTF6VectorIPN7WebCore10IconRecordELm0EE14expandCapacityEm
__ZN7WebCore12IconDatabase37getImageDataForIconURLFromSQLDatabaseERKN3WTF6StringE
__ZN7WebCore20readySQLiteStatementERN3WTF6OwnPtrINS_15SQLiteStatementEEERNS_14SQLiteDatabaseERKNS0_6StringE
__ZN7WebCore15SQLiteStatement8bindTextEiRKN3WTF6StringE
__ZN7WebCore15SQLiteStatement21getColumnBlobAsVectorEiRN3WTF6VectorIcLm0EEE
__ZN7WebCore12SharedBufferC1EPKci
__ZN7WebCore12SharedBuffer6appendEPKcj
__ZN7WebCore12SharedBuffer25maybeTransferPlatformDataEv
__ZN3WTF6VectorIcLm0EE14expandCapacityEmPKc
__ZN7WebCore15SQLiteStatement5resetEv
__ZNK3WTF9HashTableIPN7WebCore10IconRecordES3_NS_17IdentityExtractorIS3_EENS_7PtrHashIS3_EENS_10HashTraitsIS3_EES9_E8containsIS3_NS_22IdentityHashTranslatorIS3_S3_S7_EEEEbRKT_
__ZN7WebCore10IconRecord12setImageDataEN3WTF10PassRefPtrINS_12SharedBufferEEE
__ZN7WebCore11BitmapImageC1EPNS_13ImageObserverE
__ZN7WebCore5ImageC2EPNS_13ImageObserverE
__ZN7WebCore11ImageSourceC1ENS0_11AlphaOptionENS0_26GammaAndColorProfileOptionE
__ZN7WebCore11BitmapImage16initPlatformDataEv
__ZN7WebCore5Image7setDataEN3WTF10PassRefPtrINS_12SharedBufferEEEb
__ZNK7WebCore12SharedBuffer4sizeEv
__ZNK7WebCore12SharedBuffer15hasPlatformDataEv
__ZN7WebCore11BitmapImage11dataChangedEb
__ZN7WebCore11BitmapImage22invalidatePlatformDataEv
__ZN7WebCore11ImageSource7setDataEPNS_12SharedBufferEb
__ZN7WebCore12SharedBuffer12createCFDataEv
+[WebCoreSharedBufferData initialize]
-[WebCoreSharedBufferData .cxx_construct]
-[WebCoreSharedBufferData initWithSharedBuffer:]
-[WebCoreSharedBufferData length]
__ZN7WebCore11BitmapImage15isSizeAvailableEv
__ZN7WebCore11ImageSource15isSizeAvailableEv
-[WebCoreSharedBufferData bytes]
__ZNK7WebCore12SharedBuffer4dataEv
__ZNK7WebCore12SharedBuffer6bufferEv
__ZNK7WebCore11ImageSource33bytesDecodedToDeterminePropertiesEv
__ZNK3WTF9HashTableIPN7WebCore10IconRecordES3_NS_17IdentityExtractorIS3_EENS_7PtrHashIS3_EENS_10HashTraitsIS3_EES9_E4findIS3_NS_22IdentityHashTranslatorIS3_S3_S7_EEEENS_22HashTableConstIteratorIS3_S3_S5_S7_S9_S9_EERKT_
__ZN3WTF9HashTableIPN7WebCore10IconRecordES3_NS_17IdentityExtractorIS3_EENS_7PtrHashIS3_EENS_10HashTraitsIS3_EES9_E6removeEPS3_
__ZN7WebCore15AutodrainedPool5cycleEv
__ZN7WebCore23enableSuddenTerminationEv
__ZN7WebCore14SchemeRegistry25registerURLSchemeAsSecureERKN3WTF6StringE
__ZN7WebCoreL13secureSchemesEv
__ZN3WTF9HashTableINS_6StringES1_NS_17IdentityExtractorIS1_EENS_15CaseFoldingHashENS_10HashTraitsIS1_EES6_E3addIS1_S1_NS_22IdentityHashTranslatorIS1_S1_S4_EEEESt4pairINS_17HashTableIteratorIS1_S1_S3_S4_S6_S6_EEbERKT_RKT0_
__ZN3WTF9HashTableINS_6StringES1_NS_17IdentityExtractorIS1_EENS_15CaseFoldingHashENS_10HashTraitsIS1_EES6_E6rehashEi
__ZN7WebCore14SecurityOrigin40setDomainRelaxationForbiddenForURLSchemeEbRKN3WTF6StringE
__ZN7WebCore15defaultLanguageEv
__ZN7WebCore23platformDefaultLanguageEv
__ZN7WebCore19ResourceRequestBase22defaultTimeoutIntervalEv
__ZN7WebCore7IntSizeC1ERK6CGSize
__ZN7WebCore9fontCacheEv
__ZN7WebCore16FontPlatformDataC1EP6NSFontfbbNS_15FontOrientationENS_15TextOrientationENS_16FontWidthVariantE
__ZN7WebCore16FontPlatformDataC2EP6NSFontfbbNS_15FontOrientationENS_15TextOrientationENS_16FontWidthVariantE
__ZN7WebCore4FontC1ERKNS_16FontPlatformDataEbNS_17FontSmoothingModeE
__ZN7WebCore16FontFallbackListC1Ev
__ZN7WebCore9FontCache10generationEv
__ZN7WebCore14fontTranscoderEv
__ZN7WebCore14FontTranscoderC2Ev
__ZNK7WebCore14FontTranscoder16needsTranscodingERKNS_15FontDescriptionEPKNS_12TextEncodingE
__ZNK7WebCore14FontTranscoder13converterTypeERKNS_15FontDescriptionEPKNS_12TextEncodingE
__ZN7WebCore16FontFallbackList15setPlatformFontERKNS_16FontPlatformDataE
__ZN7WebCore9FontCache17getCachedFontDataEPKNS_16FontPlatformDataENS0_12ShouldRetainE
__ZN7WebCore14SimpleFontDataC1ERKNS_16FontPlatformDataEbbb
__ZN7WebCore16FontPlatformDataC1ERKS0_
__ZN7WebCore16FontPlatformData16platformDataInitERKS0_
__ZN7WebCore14SimpleFontData12platformInitEv
__ZN7WebCore17GlyphPageTreeNode7getRootEj
__ZN7WebCore17GlyphPageTreeNode8getChildEPKNS_8FontDataEj
__ZNK7WebCore14SimpleFontData12isCustomFontEv
__ZN7WebCore17GlyphPageTreeNode14initializePageEPKNS_8FontDataEj
__ZNK7WebCore14SimpleFontData11isSegmentedEv
__ZN7WebCore9GlyphPage4fillEjjPtjPKNS_14SimpleFontDataE
__ZNK7WebCore14SimpleFontData22platformBoundsForGlyphEt
__ZNK7WebCore16FontPlatformData6ctFontEv
__ZN7WebCore9FloatRectC1ERK6CGRect
__ZN7WebCore10FloatPointC1ERK7CGPoint
__ZN7WebCore9FloatSizeC1ERK6CGSize
__ZNK7WebCore9FloatRectcv6CGRectEv
__ZN7WebCore14SimpleFontData17platformGlyphInitEv
__ZN7WebCore15GlyphMetricsMapIfE18locatePageSlowCaseEj
__ZNK7WebCore14SimpleFontData21platformWidthForGlyphEt
__ZN7WebCore14SimpleFontData14determinePitchEv
__ZN7WebCore14SimpleFontData21platformCharWidthInitEv
__ZN7WebCore14SimpleFontData14initCharWidthsEv
__ZNK7WebCore16FontPlatformData4hashEv
__ZN3WTF9HashTableIN7WebCore16FontPlatformDataESt4pairIS2_S3_IPNS1_14SimpleFontDataEjEENS_18PairFirstExtractorIS7_EENS1_20FontDataCacheKeyHashENS_14PairHashTraitsINS1_22FontDataCacheKeyTraitsENS_10HashTraitsIS6_EEEESC_E13isEmptyBucketERKS7_
__ZN3WTF9HashTableIN7WebCore16FontPlatformDataESt4pairIS2_S3_IPNS1_14SimpleFontDataEjEENS_18PairFirstExtractorIS7_EENS1_20FontDataCacheKeyHashENS_14PairHashTraitsINS1_22FontDataCacheKeyTraitsENS_10HashTraitsIS6_EEEESC_E16lookupForWritingIS2_NS_22IdentityHashTranslatorIS2_S7_SA_EEEES3_IPS7_bERKT_
__ZN3WTF9HashTableIN7WebCore16FontPlatformDataESt4pairIS2_S3_IPNS1_14SimpleFontDataEjEENS_18PairFirstExtractorIS7_EENS1_20FontDataCacheKeyHashENS_14PairHashTraitsINS1_22FontDataCacheKeyTraitsENS_10HashTraitsIS6_EEEESC_E3addIS2_S6_NS_17HashMapTranslatorIS7_SF_SA_EEEES3_INS_17HashTableIteratorIS2_S7_S9_SA_SF_SC_EEbERKT_RKT0_
__ZN3WTF9HashTableIN7WebCore16FontPlatformDataESt4pairIS2_S3_IPNS1_14SimpleFontDataEjEENS_18PairFirstExtractorIS7_EENS1_20FontDataCacheKeyHashENS_14PairHashTraitsINS1_22FontDataCacheKeyTraitsENS_10HashTraitsIS6_EEEESC_E6lookupIS2_NS_22IdentityHashTranslatorIS2_S7_SA_EEEEPS7_RKT_
__ZN3WTF9HashTableIN7WebCore16FontPlatformDataESt4pairIS2_S3_IPNS1_14SimpleFontDataEjEENS_18PairFirstExtractorIS7_EENS1_20FontDataCacheKeyHashENS_14PairHashTraitsINS1_22FontDataCacheKeyTraitsENS_10HashTraitsIS6_EEEESC_E6rehashEi
__ZNK7WebCore16FontPlatformData15platformIsEqualERKS0_
__ZN7WebCore16FontPlatformDataaSERKS0_
__ZN7WebCore16FontPlatformData18platformDataAssignERKS0_
__ZN7WebCore16FontPlatformDataD1Ev
__ZNK7WebCore4Font5widthERKNS_7TextRunEPN3WTF7HashSetIPKNS_14SimpleFontDataENS4_7PtrHashIS8_EENS4_10HashTraitsIS8_EEEEPNS_13GlyphOverflowE
__ZNK7WebCore16FontFallbackList10fontDataAtEPKNS_4FontEj
__ZNK7WebCore14SimpleFontData20fontDataForCharacterEi
__ZNK7WebCore4Font8codePathERKNS_7TextRunE
__ZN7WebCore4Font36canReturnFallbackFontsForComplexTextEv
__ZNK7WebCore4Font23floatWidthForSimpleTextERKNS_7TextRunEPNS_11GlyphBufferEPN3WTF7HashSetIPKNS_14SimpleFontDataENS6_7PtrHashISA_EENS6_10HashTraitsISA_EEEEPNS_13GlyphOverflowE
__ZN7WebCore13WidthIteratorC1EPKNS_4FontERKNS_7TextRunEPN3WTF7HashSetIPKNS_14SimpleFontDataENS7_7PtrHashISB_EENS7_10HashTraitsISB_EEEEbb
__ZN7WebCore13WidthIteratorC2EPKNS_4FontERKNS_7TextRunEPN3WTF7HashSetIPKNS_14SimpleFontDataENS7_7PtrHashISB_EENS7_10HashTraitsISB_EEEEbb
__ZN7WebCore13WidthIterator7advanceEiPNS_11GlyphBufferE
__ZNK7WebCore4Font21glyphDataForCharacterEibNS_15FontDataVariantE
__ZN7WebCore16FontFallbackList15releaseFontDataEv
__ZN7WebCore9FontCache15releaseFontDataEPKNS_14SimpleFontDataE
__ZN7WebCore9FontCache29purgeInactiveFontDataIfNeededEv
__ZN3WTF11ListHashSetIPKN7WebCore14SimpleFontDataELm256ENS_7PtrHashIS4_EEE6removeERKS4_
__ZN7WebCore4FontC1Ev
__ZN7WebCore4FontaSERKS0_
__ZN7WebCore15FontDescriptionaSERKS0_
__ZN7WebCore10FontFamilyaSERKS0_
__ZN7WebCore15StringTruncator14centerTruncateERKN3WTF6StringEfRKNS_4FontE
__ZN7WebCore8IntPointC1ERK7CGPoint
__ZN7WebCore16enclosingIntRectERK6CGRect
__ZN7WebCoreL11stringWidthERKNS_4FontEPKtj
__ZNK3WTF7HashMapIiPN7WebCore17GlyphPageTreeNodeENS_7IntHashIjEENS_10HashTraitsIiEENS6_IS3_EEE3getERKi
__ZN7WebCore16FontFallbackListD1Ev
__ZN7WebCore12IconDatabase20allowDatabaseCleanupEv
__ZN7WebCore9PageGroup26setShouldTrackVisitedLinksEb
__ZN7WebCore9PageGroup21removeAllVisitedLinksEv
__ZN7WebCore4Page21removeAllVisitedLinksEv
__ZN7WebCore9PageCache33markPagesForVistedLinkStyleRecalcEv
__ZN7WebCore4KURL10invalidateEv
__ZN7WebCore4KURLC1ERKS0_RKN3WTF6StringE
__ZN7WebCore12UTF8EncodingEv
__ZN7WebCore31atomicCanonicalTextEncodingNameEPKc
__ZN7WebCore15TextCodecLatin121registerEncodingNamesEPFvPKcS2_E
__ZN7WebCoreL24addToTextEncodingNameMapEPKcS1_
__ZN7WebCore15TextCodecLatin114registerCodecsEPFvPKcPFN3WTF10PassOwnPtrINS_9TextCodecEEERKNS_12TextEncodingEPKvESB_E
__ZN7WebCoreL17addToTextCodecMapEPKcPFN3WTF10PassOwnPtrINS_9TextCodecEEERKNS_12TextEncodingEPKvESA_
__ZN7WebCore13TextCodecUTF821registerEncodingNamesEPFvPKcS2_E
__ZN7WebCore13TextCodecUTF814registerCodecsEPFvPKcPFN3WTF10PassOwnPtrINS_9TextCodecEEERKNS_12TextEncodingEPKvESB_E
__ZN7WebCore14TextCodecUTF1621registerEncodingNamesEPFvPKcS2_E
__ZN3WTF9HashTableIPKcSt4pairIS2_S2_ENS_18PairFirstExtractorIS4_EEN7WebCore20TextEncodingNameHashENS_14PairHashTraitsINS_10HashTraitsIS2_EESB_EESB_E16lookupForWritingIS2_NS_22IdentityHashTranslatorIS2_S4_S8_EEEES3_IPS4_bERKT_
__ZN3WTF9HashTableIPKcSt4pairIS2_S2_ENS_18PairFirstExtractorIS4_EEN7WebCore20TextEncodingNameHashENS_14PairHashTraitsINS_10HashTraitsIS2_EESB_EESB_E3addIS2_S2_NS_17HashMapTranslatorIS4_SC_S8_EEEES3_INS_17HashTableIteratorIS2_S4_S6_S8_SC_SB_EEbERKT_RKT0_
__ZN3WTF9HashTableIPKcSt4pairIS2_S2_ENS_18PairFirstExtractorIS4_EEN7WebCore20TextEncodingNameHashENS_14PairHashTraitsINS_10HashTraitsIS2_EESB_EESB_E6lookupIS2_NS_22IdentityHashTranslatorIS2_S4_S8_EEEEPS4_RKT_
__ZN3WTF9HashTableIPKcSt4pairIS2_S2_ENS_18PairFirstExtractorIS4_EEN7WebCore20TextEncodingNameHashENS_14PairHashTraitsINS_10HashTraitsIS2_EESB_EESB_E6rehashEi
__ZN7WebCore14TextCodecUTF1614registerCodecsEPFvPKcPFN3WTF10PassOwnPtrINS_9TextCodecEEERKNS_12TextEncodingEPKvESB_E
__ZN7WebCore20TextCodecUserDefined21registerEncodingNamesEPFvPKcS2_E
__ZN7WebCore20TextCodecUserDefined14registerCodecsEPFvPKcPFN3WTF10PassOwnPtrINS_9TextCodecEEERKNS_12TextEncodingEPKvESB_E
__ZN7WebCore37shouldShowBackslashAsCurrencySymbolInEPKc
__ZN7WebCore4KURL4initERKS0_RKN3WTF6StringERKNS_12TextEncodingE
__ZN7WebCore4KURL5parseEPKcPKN3WTF6StringE
__ZNK7WebCore4KURL11isLocalFileEv
__ZNK7WebCore7IntRectcv6CGRectEv
__ZN7WebCore15visitedLinkHashEPKtj
__ZN7WebCore13HTTPHeaderMapC1Ev
__ZN7WebCore13HTTPHeaderMapD1Ev
__ZNK7WebCore15ResourceRequest12nsURLRequestEv
__ZNK7WebCore19ResourceRequestBase21updatePlatformRequestEv
__ZN7WebCore20ResourceResponseBaseC2Ev
__ZNK7WebCore7IntSizecv6CGSizeEv
__ZN7WebCore15GraphicsContextC1EP9CGContext
__ZN7WebCore15GraphicsContext12platformInitEP9CGContext
__ZN7WebCore15GraphicsContext19setPaintingDisabledEb
__ZNK7WebCore15GraphicsContext14fillColorSpaceEv
__ZNK7WebCore15GraphicsContext9fillColorEv
__ZNK7WebCore15GraphicsContext16paintingDisabledEv
__ZN7WebCore13cachedCGColorERKNS_5ColorENS_10ColorSpaceE
__ZNK7WebCore5Color7getRGBAERdS1_S1_S1_
__ZN7WebCore22deviceRGBColorSpaceRefEv
__ZNK7WebCore15GraphicsContext16strokeColorSpaceEv
__ZNK7WebCore15GraphicsContext11strokeColorEv
__ZNK7WebCore8IntPointcv7CGPointEv
__ZNK7WebCore15GraphicsContext15platformContextEv
__ZN7WebCore15GraphicsContextD1Ev
__ZN7WebCore15GraphicsContext15platformDestroyEv
__ZN7WebCore20GraphicsContextStateD1Ev
__ZN7WebCore13ResourceErrorC1EP7NSError
__ZNK7WebCore17ResourceErrorBase8lazyInitEv
__ZN7WebCore13ResourceError16platformLazyInitEv
__ZNK7WebCore16ResourceResponse13nsURLResponseEv
__ZN7WebCoreL15performWorkItemEPv
__ZN7WebCore17FinishedURLImport11performWorkEv
__ZN7WebCore17FinishedURLImportD0Ev
__ZN7WebCore12IconDatabase38notifyPendingLoadDecisionsOnMainThreadEPv
__ZN7WebCore12IconDatabase26notifyPendingLoadDecisionsEv
__ZN7WebCore34ImportedIconDataForPageURLWorkItem11performWorkEv
__ZN7WebCore34ImportedIconDataForPageURLWorkItemD0Ev
__ZN7WebCore12IconDatabase21releaseIconForPageURLERKN3WTF6StringE
___install_block_invoke_1
__ZN7WebCore12IconDatabase11defaultIconERKNS_7IntSizeE
__ZN7WebCore12SharedBufferC1EPKhi
__ZN7WebCore10IconRecord5imageERKNS_7IntSizeE
__ZN7WebCore11BitmapImage24getFirstCGImageRefOfSizeERKNS_7IntSizeE
__ZN7WebCore11BitmapImage10frameCountEv
__ZNK7WebCore11ImageSource10frameCountEv
__ZN7WebCore11BitmapImage12frameAtIndexEm
__ZN7WebCore11BitmapImage10cacheFrameEm
__ZN3WTF6VectorIN7WebCore9FrameDataELm0EE14expandCapacityEm
__ZN7WebCore11ImageSource18createFrameAtIndexEm
__ZN7WebCore11BitmapImage18checkForSolidColorEv
__ZN7WebCore11ImageSource22frameIsCompleteAtIndexEm
__ZN7WebCore11BitmapImage15repetitionCountEb
__ZN7WebCore11ImageSource15repetitionCountEv
__ZN7WebCore11ImageSource20frameHasAlphaAtIndexEm
__ZN7WebCore6Cursor8fromTypeENS0_4TypeE
__ZN7WebCore6CursoraSERKS0_
__ZNK7WebCore6Cursor14platformCursorEv
__ZNK7WebCore6Cursor20ensurePlatformCursorEv
__ZN7WebCore6CursorD1Ev
__ZN7WebCore15SQLiteStatement9isExpiredEv
__ZN7WebCore15StringTruncator13rightTruncateERKN3WTF6StringEfRKNS_4FontE
__ZN7WebCore8makeRGBAEiiii
__ZN7WebCore15GraphicsContext12setFillColorERKNS_5ColorENS_10ColorSpaceE
__ZN7WebCore15GraphicsContext20setPlatformFillColorERKNS_5ColorENS_10ColorSpaceE
__ZNK7WebCore4Font8drawTextEPNS_15GraphicsContextERKNS_7TextRunERKNS_10FloatPointEiiNS0_24CustomFontNotReadyActionE
__ZNK7WebCore4Font14drawSimpleTextEPNS_15GraphicsContextERKNS_7TextRunERKNS_10FloatPointEii
__ZNK7WebCore4Font33getGlyphsAndAdvancesForSimpleTextERKNS_7TextRunEiiRNS_11GlyphBufferENS0_20ForTextEmphasisOrNotE
__ZN7WebCore11GlyphBuffer3addEtPKNS_14SimpleFontDataEfPKNS_9FloatSizeE
__ZNK7WebCore4Font15drawGlyphBufferEPNS_15GraphicsContextERKNS_11GlyphBufferERKNS_10FloatPointE
__ZNK7WebCore4Font10drawGlyphsEPNS_15GraphicsContextEPKNS_14SimpleFontDataERKNS_11GlyphBufferEiiRKNS_10FloatPointE
__ZN7WebCore4Font18shouldUseSmoothingEv
__ZNK7WebCore15GraphicsContext9getShadowERNS_9FloatSizeERfRNS_5ColorERNS_10ColorSpaceE
__ZNK7WebCore15GraphicsContext15textDrawingModeEv
__ZN7WebCoreL22showGlyphsWithAdvancesERKNS_10FloatPointEPKNS_14SimpleFontDataEP9CGContextPKtPK6CGSizem
__ZN3WTF6VectorIPcLm0EE14expandCapacityEm
__ZNK7WebCore11ImageSource16frameSizeAtIndexEm
__ZN7WebCore15ResourceRequest23doUpdatePlatformRequestEv
__ZNK7WebCore19ResourceRequestBase6isNullEv
__ZNK7WebCore19ResourceRequestBase3urlEv
__ZNK7WebCore4KURLcvP5NSURLEv
__ZNK7WebCore4KURL11createCFURLEv
__ZNK7WebCore4KURL12copyToBufferERN3WTF6VectorIcLm512EEE
__ZN7WebCore15ResourceRequest21httpPipeliningEnabledEv
__ZNK7WebCore19ResourceRequestBase11cachePolicyEv
__ZNK7WebCore19ResourceRequestBase15timeoutIntervalEv
__ZNK7WebCore19ResourceRequestBase20firstPartyForCookiesEv
__ZNK7WebCore19ResourceRequestBase10httpMethodEv
__ZNK7WebCore19ResourceRequestBase12allowCookiesEv
__ZNK7WebCore19ResourceRequestBase16httpHeaderFieldsEv
__ZNK7WebCore19ResourceRequestBase8httpBodyEv
__ZN7WebCore12IconDatabase24getOrCreatePageURLRecordERKN3WTF6StringE
__ZN7WebCore12IconDatabase33synchronousLoadDecisionForIconURLERKN3WTF6StringEPNS_14DocumentLoaderE
__ZN7WebCore12IconDatabase20setIconURLForPageURLERKN3WTF6StringES4_
__ZNK7WebCore13PageURLRecord8snapshotEb
__ZN7WebCore15PageURLSnapshotaSERKS0_
__ZN7WebCore9TimerBase5startEdd
__ZN7WebCore9TimerBase15setNextFireTimeEd
__ZN7WebCore9TimerBase10heapInsertEv
__ZN7WebCore16threadGlobalDataEv
__ZN7WebCore16ThreadGlobalDataC1Ev
__ZN7WebCore10EventNamesC1Ev
__ZN7WebCore10EventNamesC2Ev
__ZN7WebCore12ThreadTimersC1Ev
__ZN7WebCore12ThreadTimers14setSharedTimerEPNS_11SharedTimerE
__ZN7WebCore21MainThreadSharedTimer16setFiredFunctionEPFvvE
__ZN7WebCore27setSharedTimerFiredFunctionEPFvvE
__ZN7WebCore21MainThreadSharedTimer4stopEv
__ZN7WebCore15stopSharedTimerEv
__ZN3WTF13wtfThreadDataEv
__ZN3WTF6VectorIPN7WebCore9TimerBaseELm0EE14expandCapacityEm
__ZSt11__push_heapIN7WebCore17TimerHeapIteratorEiNS0_16TimerHeapElementEEvT_T0_S4_T1_
__ZN7WebCore12ThreadTimers17updateSharedTimerEv
__ZN7WebCore21MainThreadSharedTimer11setFireTimeEd
__ZN7WebCore22setSharedTimerFireTimeEd
__ZN7WebCore13PowerObserver6createEv
__ZN3WTF10PassOwnPtrIN7WebCore13PowerObserverEED1Ev
__ZN7WebCore12IconDatabase21setIconDataForIconURLEN3WTF10PassRefPtrINS_12SharedBufferEEERKNS1_6StringE
__ZNK7WebCore12SharedBuffer4copyEv
__ZN7WebCore11BitmapImageD0Ev
__ZN7WebCore9FrameData5clearEb
__ZN7WebCore11ImageSourceD1Ev
-[WebCoreSharedBufferData dealloc]
_WebCoreObjCScheduleDeallocateOnMainThread
-[WebCoreSharedBufferData .cxx_destruct]
__ZN7WebCore5ImageD2Ev
__ZN7WebCore12SharedBufferD1Ev
__ZN7WebCore12SharedBufferD2Ev
__ZN7WebCore12SharedBuffer5clearEv
__ZN7WebCore12SharedBuffer17clearPlatformDataEv
__ZN3WTF6VectorINS_6StringELm0EE14expandCapacityEm
__ZNK7WebCore10IconRecord8snapshotEb
__ZN7WebCore12IconSnapshotD1Ev
__ZN7WebCore12IconSnapshotaSERKS0_
__ZN7WebCore9TimerBase10heapPopMinEv
__ZSt13__adjust_heapIN7WebCore17TimerHeapIteratorEiNS0_16TimerHeapElementEEvT_T0_S4_T1_
__ZN7WebCoreL15leakNamedCursorEPKcii
__ZN7WebCore15ResourceRequest23doUpdateResourceRequestEv
__ZN7WebCore4KURLC1EP5NSURL
__ZN7WebCore4KURLC2EP5NSURL
__ZN7WebCore4KURLaSERKS0_
__ZN3WTF12AtomicStringC2EP8NSString
__ZN3WTF17HashMapTranslatorISt4pairINS_12AtomicStringENS_6StringEENS_14PairHashTraitsINS_10HashTraitsIS2_EENS6_IS3_EEEENS_15CaseFoldingHashEE9translateERS4_RKS2_RKS3_
__ZN3WTF6VectorINS_6StringELm0EE14shrinkCapacityEm
__ZN7WebCore16MIMETypeRegistry27isSupportedNonImageMIMETypeERKN3WTF6StringE
__ZNSt4pairIN3WTF12AtomicStringENS0_6StringEED1Ev
__ZN3WTF9HashTableINS_6StringES1_NS_17IdentityExtractorIS1_EENS_10StringHashENS_10HashTraitsIS1_EES6_E6removeEPS1_
__ZN7WebCore13PageURLRecordD1Ev
__ZN7WebCoreL10timerFiredEP16__CFRunLoopTimerPv
__ZN7WebCore12ThreadTimers16sharedTimerFiredEv
__ZN7WebCore12ThreadTimers24sharedTimerFiredInternalEv
__ZN7WebCore9TimerBase13heapDeleteMinEv
__ZN7WebCore5TimerINS_12IconDatabaseEE5firedEv
__ZN7WebCore12IconDatabase14syncTimerFiredEPNS_5TimerIS0_EE
__ZN3WTF6VectorIN7WebCore12IconSnapshotELm0EE15reserveCapacityEm
__ZN3WTF6VectorIN7WebCore15PageURLSnapshotELm0EE15reserveCapacityEm
__ZN7WebCore15PageURLSnapshotD1Ev
__ZN7WebCore12IconDatabase30writeIconSnapshotToSQLDatabaseERKNS_12IconSnapshotE
__ZN7WebCore12IconDatabase34getIconIDForIconURLFromSQLDatabaseERKN3WTF6StringE
__ZN7WebCore15SQLiteStatement14getColumnInt64Ei
__ZN7WebCore15SQLiteStatement9bindInt64Eix
__ZN7WebCore15SQLiteStatement8bindBlobEiPKvi
__ZN7WebCore12IconDatabase32setIconIDForPageURLInSQLDatabaseExRKN3WTF6StringE
__ZN7WebCore12IconDatabase28removePageURLFromSQLDatabaseERKN3WTF6StringE
__ZN7WebCore12IconDatabase24checkForDanglingPageURLsEb
__ZN7WebCore15SQLiteStatement23returnsAtLeastOneResultEv
__ZN7WebCore12IconDatabase20pruneUnretainedIconsEv
__ZN7WebCore15SQLiteStatement8finalizeEv
__ZN7WebCore5Image12supportsTypeERKN3WTF6StringE
__ZN7WebCore16MIMETypeRegistry32isSupportedImageResourceMIMETypeERKN3WTF6StringE
__ZNK3WTF7HashMapIiPN7WebCore15GlyphMetricsMapIfE16GlyphMetricsPageENS_7IntHashIjEENS_10HashTraitsIiEENS8_IS5_EEE3getERKi
__ZN3WTF9HashTableINS_6StringES1_NS_17IdentityExtractorIS1_EENS_10StringHashENS_10HashTraitsIS1_EES6_E16lookupForWritingIS1_NS_22IdentityHashTranslatorIS1_S1_S4_EEEESt4pairIPS1_bERKT_
__ZN7WebCore21resourceLoadSchedulerEv
__ZN7WebCore43initializeMaximumHTTPConnectionCountPerHostEv
__ZN7WebCore16MIMETypeRegistry26getSupportedImageMIMETypesEv
__ZN7WebCore21reportThreadViolationEPKcNS_20ThreadViolationRoundE
__ZN7WebCoreL43readThreadViolationBehaviorFromUserDefaultsEv
+[WebCoreViewFactory sharedFactory]
-[WebCoreViewFactory init]
__ZN7WebCore15DatabaseTracker17initializeTrackerERKN3WTF6StringE
__ZN7WebCore15DatabaseTracker24setDatabaseDirectoryPathERKN3WTF6StringE
__ZN7WebCore16SQLiteFileSystem17registerSQLiteVFSEv
__ZN7WebCore15DatabaseTracker15populateOriginsEv
__ZN3WTF10PassOwnPtrINS_7HashMapINS_6RefPtrIN7WebCore14SecurityOriginEEEyNS3_18SecurityOriginHashENS_10HashTraitsIS5_EENS7_IyEEEEED1Ev
__ZN7WebCore15DatabaseTracker19openTrackerDatabaseEb
__ZN7WebCore16SQLiteFileSystem28appendDatabaseFileNameToPathERKN3WTF6StringES4_
__ZN7WebCore16SQLiteFileSystem24ensureDatabaseFileExistsERKN3WTF6StringEb
__ZN7WebCore15DatabaseTracker7trackerEv
__ZN7WebCore15DatabaseTracker9setClientEPNS_21DatabaseManagerClientE
__ZN7WebCore14StorageTracker17initializeTrackerERKN3WTF6StringE
__ZN7WebCore13StorageThread6createEv
__ZN7WebCore14StorageTracker23setStorageDirectoryPathERKN3WTF6StringE
__ZN7WebCore13StorageThread5startEv
__ZN7WebCore14StorageTracker23importOriginIdentifiersEv
__ZN7WebCore11StorageTaskC1ENS0_4TypeE
__ZN7WebCore13StorageThread12scheduleTaskEN3WTF10PassOwnPtrINS_11StorageTaskEEE
__ZN3WTF5DequeIPN7WebCore11StorageTaskELm0EE14expandCapacityEv
__ZN7WebCore14StorageTracker7trackerEv
__ZN7WebCore14StorageTracker9setClientEPNS_20StorageTrackerClientE
__ZN7WebCore12cacheStorageEv
__ZN7WebCore13StorageThread24threadEntryPointCallbackEPv
__ZN7WebCore23ApplicationCacheStorage17setCacheDirectoryERKN3WTF6StringE
__ZN7WebCore13StorageThread16threadEntryPointEv
__ZN3WTF12MessageQueueIN7WebCore11StorageTaskEE14waitForMessageEv
__ZN3WTF12MessageQueueIN7WebCore11StorageTaskEE19alwaysTruePredicateEPS2_
__ZN7WebCore21setPlatformStrategiesEPNS_18PlatformStrategiesE
__ZN7WebCore11StorageTask11performTaskEv
__ZN7WebCore8Settings29setDefaultMinDOMTimerIntervalEd
__ZN7WebCore14StorageTracker27syncImportOriginIdentifiersEv
__ZN7WebCore4Page11PageClientsC1Ev
__ZN7WebCore14StorageTracker19openTrackerDatabaseEb
__ZN7WebCore14StorageTracker32syncFileSystemAndTrackerDatabaseEv
__ZN7WebCore13listDirectoryERKN3WTF6StringES3_
__ZN7WebCore4PageC1ERNS0_11PageClientsE
__ZN3WTF6VectorINS_6StringELm0EEaSERKS2_
__ZN7WebCore4PageC2ERNS0_11PageClientsE
__ZN7WebCore11StorageTaskD1Ev
__ZN7WebCore6ChromeC1EPNS_4PageEPNS_12ChromeClientE
__ZN7WebCore19DragCaretControllerC1Ev
__ZN7WebCore14DragControllerC1EPNS_4PageEPNS_10DragClientE
__ZN7WebCore15FocusControllerC1EPNS_4PageE
__ZN7WebCore21ContextMenuControllerC1EPNS_4PageEPNS_17ContextMenuClientE
__ZN7WebCore13HitTestResultC1Ev
__ZN7WebCore19InspectorControllerC1EPNS_4PageEPNS_15InspectorClientE
__ZN7WebCore19InspectorControllerC2EPNS_4PageEPNS_15InspectorClientE
__ZN7WebCore21InjectedScriptManager13createForPageEv
__ZN7WebCore18InjectedScriptHost6createEv
__ZN7WebCore14InspectorStateC1EPNS_15InspectorClientE
__ZN7WebCore15InspectorObjectC1Ev
__ZN7WebCore14InspectorAgentC1EPNS_4PageEPNS_21InjectedScriptManagerEPNS_19InstrumentingAgentsE
__ZN7WebCore18InspectorPageAgent6createEPNS_19InstrumentingAgentsEPNS_4PageEPNS_21InjectedScriptManagerE
__ZN3WTF10PassOwnPtrIN7WebCore18InspectorPageAgentEED1Ev
__ZN7WebCore17InspectorDOMAgentC1EPNS_19InstrumentingAgentsEPNS_18InspectorPageAgentEPNS_15InspectorClientEPNS_14InspectorStateEPNS_21InjectedScriptManagerE
__ZN7WebCore17InspectorCSSAgentC1EPNS_19InstrumentingAgentsEPNS_17InspectorDOMAgentE
__ZN7WebCore17InspectorDOMAgent14setDOMListenerEPNS0_11DOMListenerE
__ZN7WebCore22InspectorDatabaseAgentC1EPNS_19InstrumentingAgentsEPNS_14InspectorStateE
__ZN7WebCore22InspectorTimelineAgentC1EPNS_19InstrumentingAgentsEPNS_14InspectorStateE
__ZN7WebCore30InspectorApplicationCacheAgentC1EPNS_19InstrumentingAgentsEPNS_4PageE
__ZN7WebCore22InspectorResourceAgentC1EPNS_19InstrumentingAgentsEPNS_18InspectorPageAgentEPNS_14InspectorStateE
__ZN7WebCore21InspectorRuntimeAgentC2EPNS_21InjectedScriptManagerE
__ZN7WebCore21InspectorConsoleAgentC1EPNS_19InstrumentingAgentsEPNS_14InspectorAgentEPNS_14InspectorStateEPNS_21InjectedScriptManagerEPNS_17InspectorDOMAgentE
__ZN7WebCore17PageDebuggerAgent6createEPNS_19InstrumentingAgentsEPNS_14InspectorStateEPNS_4PageEPNS_21InjectedScriptManagerE
__ZN7WebCore22InspectorDebuggerAgentC2EPNS_19InstrumentingAgentsEPNS_14InspectorStateEPNS_21InjectedScriptManagerE
__ZN7WebCore25InspectorDOMDebuggerAgent6createEPNS_19InstrumentingAgentsEPNS_14InspectorStateEPNS_17InspectorDOMAgentEPNS_22InspectorDebuggerAgentEPNS_14InspectorAgentE
__ZN7WebCore22InspectorProfilerAgent6createEPNS_19InstrumentingAgentsEPNS_21InspectorConsoleAgentEPNS_4PageEPNS_14InspectorStateE
__ZN7WebCore20InspectorWorkerAgent6createEPNS_19InstrumentingAgentsE
__ZN7WebCore21InjectedScriptManager18injectedScriptHostEv
__ZN7WebCore24InspectorInstrumentation19instrumentingAgentsEv
__ZN7WebCore21GeolocationControllerC1EPNS_4PageEPNS_17GeolocationClientE
__ZN7WebCore8SettingsC1EPNS_4PageE
__ZN7WebCore15ProgressTrackerC1Ev
__ZN7WebCore21BackForwardControllerC1EPNS_4PageEN3WTF10PassRefPtrINS_15BackForwardListEEE
__ZN7WebCore19BackForwardListImplC1EPNS_4PageE
__ZN7WebCore11RenderTheme12themeForPageEPNS_4PageE
__ZN7WebCore14RenderThemeMacC2Ev
__ZN7WebCore11RenderThemeC2Ev
__ZN7WebCore13platformThemeEv
-[WebCoreRenderThemeNotificationObserver initWithTheme:]
__ZN7WebCore8Settings26defaultMinDOMTimerIntervalEv
__ZN7WebCore20networkStateNotifierEv
__ZN7WebCore20NetworkStateNotifierC1Ev
__ZN7WebCore20NetworkStateNotifierC2Ev
__ZN7WebCore20NetworkStateNotifier11updateStateEv
__ZN7WebCore20NetworkStateNotifier30setNetworkStateChangedFunctionEPFvvE
__ZN3WTF9HashTableIPN7WebCore4PageES3_NS_17IdentityExtractorIS3_EENS_7PtrHashIS3_EENS_10HashTraitsIS3_EES9_E3addIS3_S3_NS_22IdentityHashTranslatorIS3_S3_S7_EEEESt4pairINS_17HashTableIteratorIS3_S3_S5_S7_S9_S9_EEbERKT_RKT0_
__ZN3WTF9HashTableIPN7WebCore4PageES3_NS_17IdentityExtractorIS3_EENS_7PtrHashIS3_EENS_10HashTraitsIS3_EES9_E6expandEv
__ZN7WebCore12PluginHalterC1EN3WTF10PassOwnPtrINS_18PluginHalterClientEEE
__ZN7WebCore4Page16setCanStartMediaEb
__ZN7WebCore5Frame6createEPNS_4PageEPNS_21HTMLFrameOwnerElementEPNS_17FrameLoaderClientE
__ZN7WebCore5FrameC2EPNS_4PageEPNS_21HTMLFrameOwnerElementEPNS_17FrameLoaderClientE
__ZN7WebCore11FrameLoaderC1EPNS_5FrameEPNS_17FrameLoaderClientE
__ZN7WebCore11FrameLoaderC2EPNS_5FrameEPNS_17FrameLoaderClientE
__ZN7WebCore13PolicyCheckerC1EPNS_5FrameE
__ZN7WebCore14PolicyCallbackC1Ev
__ZN7WebCore14PolicyCallbackC2Ev
__ZN7WebCore19ResourceRequestBaseC2ERKNS_4KURLENS_26ResourceRequestCachePolicyE
__ZN7WebCore16NavigationActionC1Ev
__ZN7WebCore17HistoryControllerC1EPNS_5FrameE
__ZN7WebCore20ResourceLoadNotifierC1EPNS_5FrameE
__ZN7WebCore14SubframeLoaderC1EPNS_5FrameE
__ZN7WebCore23FrameLoaderStateMachineC1Ev
__ZN7WebCore19NavigationSchedulerC1EPNS_5FrameE
__ZN7WebCore16ScriptControllerC1EPNS_5FrameE
__ZN7WebCore16ScriptController18initJavaJSBindingsEv
__ZN3JSC8Bindings12JavaJSObject22initializeJNIThreadingEv
__ZN3JSC8Bindings8Instance21setDidExecuteFunctionEPFvPNS_9ExecStateEPNS_8JSObjectEE
__ZN7WebCore6EditorC1EPNS_5FrameE
__ZN7WebCore6EditorC2EPNS_5FrameE
__ZN7WebCore22DeleteButtonControllerC1EPNS_5FrameE
__ZN7WebCore12SpellCheckerC1EPNS_5FrameE
__ZN7WebCore28SpellingCorrectionControllerC1EPNS_5FrameE
__ZN7WebCore16VisibleSelectionC1Ev
__ZN7WebCore14FrameSelectionC1EPNS_5FrameE
__ZN7WebCore14FrameSelectionC2EPNS_5FrameE
__ZNK7WebCore6Editor8behaviorEv
__ZNK7WebCore5Frame8settingsEv
__ZN7WebCore12EventHandlerC1EPNS_5FrameE
__ZN7WebCore12EventHandlerC2EPNS_5FrameE
__ZN7WebCore19AnimationControllerC1EPNS_5FrameE
__ZNK7WebCore9FrameTree6parentEb
__ZN7WebCore9HTMLNames4initEv
__ZN7WebCore13QualifiedNameC1ERKN3WTF12AtomicStringEPKcS4_
__ZN7WebCore13QualifiedName4initERKN3WTF12AtomicStringES4_S4_
__ZN7WebCore25QNameComponentsTranslator9translateERPNS_13QualifiedName17QualifiedNameImplERKNS_23QualifiedNameComponentsEj
__ZN3WTF9HashTableIPN7WebCore13QualifiedName17QualifiedNameImplES4_NS_17IdentityExtractorIS4_EENS1_17QualifiedNameHashENS_10HashTraitsIS4_EES9_E16lookupForWritingIS4_NS_22IdentityHashTranslatorIS4_S4_S7_EEEESt4pairIPS4_bERKT_
__ZN3WTF9HashTableIPN7WebCore13QualifiedName17QualifiedNameImplES4_NS_17IdentityExtractorIS4_EENS1_17QualifiedNameHashENS_10HashTraitsIS4_EES9_E18addPassingHashCodeINS1_23QualifiedNameComponentsESC_NS_24HashSetTranslatorAdapterIS4_S9_SC_NS1_25QNameComponentsTranslatorEEEEESt4pairINS_17HashTableIteratorIS4_S4_S6_S7_S9_S9_EEbERKT_RKT0_
__ZN3WTF9HashTableIPN7WebCore13QualifiedName17QualifiedNameImplES4_NS_17IdentityExtractorIS4_EENS1_17QualifiedNameHashENS_10HashTraitsIS4_EES9_E20fullLookupForWritingINS1_23QualifiedNameComponentsENS_24HashSetTranslatorAdapterIS4_S9_SC_NS1_25QNameComponentsTranslatorEEEEESt4pairISG_IPS4_bEjERKT_
__ZN3WTF9HashTableIPN7WebCore13QualifiedName17QualifiedNameImplES4_NS_17IdentityExtractorIS4_EENS1_17QualifiedNameHashENS_10HashTraitsIS4_EES9_E6expandEv
__ZN3WTF9HashTableIPN7WebCore13QualifiedName17QualifiedNameImplES4_NS_17IdentityExtractorIS4_EENS1_17QualifiedNameHashENS_10HashTraitsIS4_EES9_E6lookupIS4_NS_22IdentityHashTranslatorIS4_S4_S7_EEEEPS4_RKT_
__ZN3WTF9HashTableIPN7WebCore13QualifiedName17QualifiedNameImplES4_NS_17IdentityExtractorIS4_EENS1_17QualifiedNameHashENS_10HashTraitsIS4_EES9_E6removeEPS4_
__ZN7WebCore13QualifiedName4initEv
__ZN7WebCore17MediaFeatureNames4initEv
__ZN7WebCore8SVGNames4initEv
__ZN7WebCore10XLinkNames4initEv
__ZN7WebCore11MathMLNames4initEv
__ZN7WebCore10XMLNSNames4initEv
__ZN7WebCore8XMLNames4initEv
__ZN7WebCore4Page12setMainFrameEN3WTF10PassRefPtrINS_5FrameEEE
__ZN7WebCore9FrameTree7setNameERKN3WTF12AtomicStringE
__ZN7WebCore11FrameLoader4initEv
__ZN7WebCore11FrameLoader18updateSandboxFlagsEv
__ZN7WebCore23FrameLoaderStateMachine9advanceToENS0_5StateE
__ZN7WebCore4KURLC1ENS_18ParsedURLStringTagEPKc
__ZN7WebCore14DocumentLoaderC2ERKNS_15ResourceRequestERKNS_14SubstituteDataE
__ZN7WebCore14DocumentWriterC1EPNS_5FrameE
__ZN7WebCore19ResourceRequestBaseC2ERKS0_
__ZN3WTF6VectorINS_6StringELm0EEC2ERKS2_
__ZN7WebCore14SubstituteDataC2ERKS0_
__ZN7WebCore20ApplicationCacheHostC1EPNS_14DocumentLoaderE
__ZNK7WebCore14DocumentLoader11frameLoaderEv
__ZN7WebCore11FrameLoader23setPolicyDocumentLoaderEPNS_14DocumentLoaderE
__ZN7WebCore14DocumentLoader8setFrameEPNS_5FrameE
__ZN7WebCore14DocumentLoader13attachToFrameEv
__ZN7WebCore19ResourceRequestBaseD2Ev
__ZN7WebCore14SubstituteDataD1Ev
__ZN7WebCore11FrameLoader8setStateENS_10FrameStateE
__ZNK7WebCore23FrameLoaderStateMachine15firstLayoutDoneEv
__ZN7WebCore19NavigationScheduler6cancelEb
__ZN7WebCore9TimerBase4stopEv
__ZN7WebCore20ResourceResponseBaseC2ERKNS_4KURLERKN3WTF6StringExS7_S7_
__ZN7WebCore20ResourceResponseBaseaSERKS0_
__ZN7WebCore20ResourceResponseBaseD2Ev
__ZN7WebCore14DocumentLoader15finishedLoadingEv
__ZN7WebCore11FrameLoader21commitProvisionalLoadEv
__ZN7WebCore9PageCache8canCacheEPNS_4PageE
__ZNK7WebCore11FrameLoader8loadTypeEv
__ZN7WebCore9PageCache31canCachePageContainingThisFrameEPNS_5FrameE
__ZN7WebCore11FrameLoader19closeOldDataSourcesEv
__ZNK7WebCore23FrameLoaderStateMachine28creatingInitialEmptyDocumentEv
__ZN7WebCore11FrameLoader21transitionToCommittedEN3WTF10PassRefPtrINS_10CachedPageEEE
__ZN7WebCore17HistoryController15updateForCommitEv
__ZN7WebCore21isBackForwardLoadTypeENS_13FrameLoadTypeE
__ZN7WebCore11FrameLoader17setDocumentLoaderEPNS_14DocumentLoaderE
__ZN7WebCore17HistoryController21updateForStandardLoadENS0_17HistoryUpdateTypeE
__ZNK7WebCore14DocumentLoader13urlForHistoryEv
__ZN7WebCore16MIMETypeRegistry27getUnsupportedTextMIMETypesEv
__ZNK7WebCore23FrameLoaderStateMachine23committingFirstRealLoadEv
__ZNK7WebCore5Frame13ownerRendererEv
__ZN7WebCore12RenderWidget29suspendWidgetHierarchyUpdatesEv
__ZN7WebCore12RenderWidget28resumeWidgetHierarchyUpdatesEv
__ZN7WebCore5Frame7setViewEN3WTF10PassRefPtrINS_9FrameViewEEE
__ZN7WebCore12EventHandler5clearEv
__ZN7WebCore11FrameLoader37resetMultipleFormSubmissionProtectionEv
__ZN7WebCore9FrameView6createEPNS_5FrameE
__ZN7WebCore9FrameViewC2EPNS_5FrameE
__ZN7WebCore10ScrollViewC2Ev
__ZN7WebCore6WidgetC2EP6NSView
__ZN7WebCore6Widget4initEP6NSView
__ZN7WebCore14ScrollableAreaC2Ev
__ZN7WebCore20FrameActionSchedulerC1Ev
__ZN7WebCore9FrameView4initEv
__ZN7WebCore9FrameView5resetEv
__ZN3WTF6VectorIN7WebCore7IntRectELm0EE14shrinkCapacityEm
__ZN7WebCore4Page17addScrollableAreaEPNS_14ScrollableAreaE
__ZN3WTF9HashTableIPN7WebCore14ScrollableAreaES3_NS_17IdentityExtractorIS3_EENS_7PtrHashIS3_EENS_10HashTraitsIS3_EES9_E3addIS3_S3_NS_22IdentityHashTranslatorIS3_S3_S7_EEEESt4pairINS_17HashTableIteratorIS3_S3_S5_S7_S9_S9_EEbERKT_RKT0_
__ZN3WTF9HashTableIPN7WebCore14ScrollableAreaES3_NS_17IdentityExtractorIS3_EENS_7PtrHashIS3_EENS_10HashTraitsIS3_EES9_E6expandEv
__ZN7WebCore10ScrollView4showEv
__ZN7WebCore6Widget4showEv
__ZN7WebCore9FrameView14setTransparentEb
__ZN7WebCore16colorFromNSColorEP7NSColor
__ZN7WebCore9FrameView22setBaseBackgroundColorERKNS_5ColorE
__ZN7WebCore9FrameView29setShouldUpdateWhileOffscreenEb
__ZNK7WebCore9FrameTree12traverseNextEPKNS_5FrameE
__ZN7WebCore6Widget17setPlatformWidgetEP6NSView
__ZN7WebCore9FrameView23updateCanHaveScrollbarsEv
__ZNK7WebCore10ScrollView14scrollbarModesERNS_13ScrollbarModeES2_
__ZNK7WebCore6Widget14platformWidgetEv
__ZNK7WebCore10ScrollView22platformScrollbarModesERNS_13ScrollbarModeES2_
__ZN7WebCore9FrameView20setCanHaveScrollbarsEb
__ZN7WebCore10ScrollView20setCanHaveScrollbarsEb
__ZN7WebCore10ScrollView17setScrollbarModesENS_13ScrollbarModeES1_bb
__ZN7WebCore10ScrollView16setParentVisibleEb
__ZN7WebCore14DocumentLoader8setTitleERKNS_19StringWithDirectionE
__ZNK7WebCore14DocumentLoader16responseMIMETypeEv
__ZNK7WebCore20ResourceResponseBase8mimeTypeEv
__ZN7WebCore16ResourceResponse16platformLazyInitENS_20ResourceResponseBase9InitLevelE
__ZN7WebCore14DocumentLoader7requestEv
__ZN7WebCore14SecurityOrigin6createERKNS_4KURLEi
__ZN7WebCore14SecurityOriginC2ERKNS_4KURLEi
__ZNK7WebCore4KURL8protocolEv
__ZNK7WebCore4KURL4hostEv
__ZN7WebCore24decodeURLEscapeSequencesERKN3WTF6StringERKNS_12TextEncodingE
__ZN3WTF6VectorItLm0EE6appendItEEvPKT_m
__ZNK7WebCore4KURL4portEv
__ZN7WebCore14SchemeRegistry30shouldTreatURLSchemeAsNoAccessERKN3WTF6StringE
__ZN3WTF9HashTableINS_6StringES1_NS_17IdentityExtractorIS1_EENS_15CaseFoldingHashENS_10HashTraitsIS1_EES6_E6lookupIS1_NS_22IdentityHashTranslatorIS1_S1_S4_EEEEPS1_RKT_
__ZN7WebCore14SchemeRegistry27shouldTreatURLSchemeAsLocalERKN3WTF6StringE
__ZN7WebCore24isDefaultPortForProtocolEtRKN3WTF6StringE
__ZNK7WebCore14SecurityOrigin10canRequestERKNS_4KURLE
__ZN7WebCore14SecurityOriginD1Ev
__ZNK7WebCore14DocumentLoader3urlEv
__ZNK7WebCore14DocumentLoader11responseURLEv
__ZNK7WebCore20ResourceResponseBase3urlEv
__ZN7WebCore8blankURLEv
__ZN7WebCore11FrameLoader10didOpenURLERKNS_4KURLE
__ZN7WebCore19NavigationScheduler27redirectScheduledDuringLoadEv
__ZN7WebCore6Editor20clearLastEditCommandEv
__ZN7WebCore11FrameLoader23finishedLoadingDocumentEPNS_14DocumentLoaderE
__ZNK7WebCore14DocumentLoader16mainResourceDataEv
__ZN7WebCore14ArchiveFactory6createEPNS_12SharedBufferERKN3WTF6StringE
__ZN7WebCore14DocumentWriter3endEv
__ZN7WebCore11FrameLoader14didEndDocumentEv
__ZN7WebCore14DocumentWriter27endIfNotLoadingMainResourceEv
__ZN7WebCore14DocumentWriter5beginERKNS_4KURLEbPNS_14SecurityOriginE
__ZN7WebCore14DocumentWriter14createDocumentERKNS_4KURLE
__ZNK7WebCore23FrameLoaderStateMachine32isDisplayingInitialEmptyDocumentEv
__ZN7WebCore17DOMImplementation14createDocumentERKN3WTF6StringEPNS_5FrameERKNS_4KURLEb
__ZN7WebCore12HTMLDocumentC1EPNS_5FrameERKNS_4KURLE
__ZN7WebCore8DocumentC2EPNS_5FrameERKNS_4KURLEbb
__ZN7WebCore9TreeScopeC2EPNS_8DocumentE
__ZN7WebCore22ScriptExecutionContextC2Ev
__ZN7WebCore14StyleSheetListC1EPNS_8DocumentE
__ZN7WebCore12ScriptRunnerC1EPNS_8DocumentE
__ZN7WebCore15CollectionCacheC1Ev
__ZN3WTF20deleteAllPairSecondsIPNS_6VectorIPN7WebCore7ElementELm0EEEKNS_7HashMapIPNS_16AtomicStringImplES6_NS_7PtrHashIS9_EENS_10HashTraitsIS9_EENSC_IS6_EEEEEEvRT0_
__ZN7WebCore10EventQueue6createEPNS_22ScriptExecutionContextE
__ZN7WebCore16SuspendableTimerC2EPNS_22ScriptExecutionContextE
__ZN7WebCore15ActiveDOMObjectC2EPNS_22ScriptExecutionContextEPv
__ZN7WebCore22ScriptExecutionContext22createdActiveDOMObjectEPNS_15ActiveDOMObjectEPv
__ZN7WebCore24DocumentMarkerControllerC1Ev
__ZN3WTF10PassOwnPtrIN7WebCore24DocumentMarkerControllerEED1Ev
__ZN7WebCore20CachedResourceLoaderC1EPNS_8DocumentE
__ZN7WebCore7makeRGBEiii
__ZN7WebCore5Color13setNamedColorERKN3WTF6StringE
__ZN7WebCore9findColorEPKcj
__ZN7WebCore13ColorDataHash23colordata_hash_functionEPKcj
__ZN7WebCore8Document19initSecurityContextEv
__ZN7WebCore22ScriptExecutionContext17setSecurityOriginEN3WTF10PassRefPtrINS_14SecurityOriginEEE
__ZN7WebCore21ContentSecurityPolicyC1EPNS_8DocumentE
__ZN7WebCore14SecurityOrigin32allowSubstituteDataAccessToLocalEv
__ZNK7WebCore14SecurityOrigin7isLocalEv
__ZNK7WebCore14SecurityOrigin7isEmptyEv
__ZN7WebCore11FrameLoader6openerEv
__ZN7WebCore8Document15initDNSPrefetchEv
__ZNK7WebCore8Document16isPluginDocumentEv
__ZN7WebCore11FrameLoader5clearEbbb
__ZN7WebCore6Editor5clearEv
__ZN3WTF6VectorIN7WebCore20CompositionUnderlineELm0EE14shrinkCapacityEm
__ZN7WebCore14DocumentWriter5clearEv
__ZN7WebCore16ScriptController27updatePlatformScriptObjectsEv
__ZN7WebCore11FrameLoader19setOutgoingReferrerERKNS_4KURLE
__ZNK7WebCore4KURL24strippedForUseAsReferrerEv
__ZN7WebCore4KURL7setUserERKN3WTF6StringE
__ZN7WebCore4KURL7setPassERKN3WTF6StringE
__ZN7WebCore4KURL24removeFragmentIdentifierEv
__ZN7WebCore5Frame11setDocumentEN3WTF10PassRefPtrINS_8DocumentEEE
__ZN7WebCore14FrameSelection33updateSecureKeyboardEntryIfActiveEv
__ZN7WebCore8Document6attachEv
__ZN7WebCore11RenderArenaC1Ej
__ZN7WebCore13InitArenaPoolEPNS_9ArenaPoolEPKcjj
__ZN7WebCore12RenderObjectnwEmPNS_11RenderArenaE
__ZN7WebCore11RenderArena8allocateEm
__ZN7WebCore13ArenaAllocateEPNS_9ArenaPoolEj
__ZN7WebCore10RenderViewC1EPNS_4NodeEPNS_9FrameViewE
__ZN7WebCore11RenderBlockC2EPNS_4NodeE
__ZN7WebCore9RenderBoxC2EPNS_4NodeE
__ZN7WebCore20RenderBoxModelObjectC2EPNS_4NodeE
__ZN7WebCore12RenderObjectC2EPNS_4NodeE
__ZN7WebCore12RenderObject30setPreferredLogicalWidthsDirtyEbb
__ZN7WebCore10RenderView15didMoveOnscreenEv
__ZN7WebCore8Document11recalcStyleENS_4Node11StyleChangeE
__ZNK7WebCore9FrameView10isPaintingEv
__ZN7WebCore13ContainerNode26suspendPostAttachCallbacksEv
__ZNK7WebCore8Document4pageEv
__ZN7WebCore4Page32setMemoryCacheClientCallsEnabledEb
__ZN7WebCore21ResourceLoadScheduler22suspendPendingRequestsEv
__ZN7WebCore9FrameView20pauseScheduledEventsEv
__ZN7WebCore20FrameActionScheduler5pauseEv
__ZN7WebCore9FrameView21beginDeferredRepaintsEv
__ZN7WebCore16CSSStyleSelector16styleForDocumentEPNS_8DocumentE
__ZN7WebCore11RenderStyle6createEv
__ZN7WebCore11RenderStyle18createDefaultStyleEv
__ZN7WebCore12StyleBoxDataC1Ev
__ZN7WebCore15StyleVisualDataC1Ev
__ZN7WebCore19StyleBackgroundDataC1Ev
__ZN7WebCore9FillLayerC1ENS_14EFillLayerTypeE
__ZN7WebCore7DataRefINS_17StyleSurroundDataEE4initEv
__ZN7WebCore17StyleSurroundDataC1Ev
__ZN7WebCore17StyleSurroundDataC2Ev
__ZN7WebCore25StyleRareNonInheritedDataC1Ev
__ZN7WebCore25StyleRareNonInheritedDataC2Ev
__ZN7WebCore20StyleDeprecatedFlexibleBoxDataC1Ev
__ZN7WebCore16StyleMarqueeDataC1Ev
__ZN7WebCore17StyleMultiColDataC1Ev
__ZN7WebCore18StyleTransformDataC1Ev
__ZN7WebCore19TransformOperationsC1Eb
__ZN3WTF6VectorINS_6RefPtrIN7WebCore18TransformOperationEEELm0EEC2ERKS5_
__ZN7WebCore22StyleRareInheritedDataC1Ev
__ZN7WebCore18StyleInheritedDataC1Ev
__ZN7WebCore14SVGRenderStyleC1Ev
__ZN7WebCore14SVGRenderStyleC2Ev
__ZN7WebCore14SVGRenderStyleC2ENS0_17CreateDefaultTypeE
__ZN7WebCore7DataRefINS_13StyleFillDataEE4initEv
__ZN7WebCore13StyleFillDataC1Ev
__ZN7WebCore15StyleStrokeDataC1Ev
__ZN7WebCore14SVGRenderStyle18initialStrokeWidthEv
__ZN7WebCore9SVGLengthC1ENS_13SVGLengthModeERKN3WTF6StringE
__ZN7WebCore9SVGLength16setValueAsStringERKN3WTF6StringERi
__ZN7WebCore9SVGLength22newValueSpecifiedUnitsEtfRi
__ZN7WebCore14SVGRenderStyle23initialStrokeDashOffsetEv
__ZN7WebCore13StyleTextDataC1Ev
__ZN7WebCore14SVGRenderStyle14initialKerningEv
__ZN7WebCore13StyleStopDataC1Ev
__ZN7WebCore13StyleMiscDataC1Ev
__ZN7WebCore14SVGRenderStyle25initialBaselineShiftValueEv
__ZN7WebCore7DataRefINS_18StyleShadowSVGDataEE4initEv
__ZN7WebCore18StyleShadowSVGDataC1Ev
__ZN7WebCore26StyleInheritedResourceDataC1Ev
__ZN7WebCore17StyleResourceDataC1Ev
__ZN7WebCore7DataRefINS_13StyleFillDataEEaSERKS2_
__ZN7WebCore11RenderStyle7setZoomEf
__ZN7WebCore11RenderStyle16setEffectiveZoomEf
__ZN7WebCore11RenderStyle21setPageScaleTransformEf
__ZNK7WebCore8Document12inDesignModeEv
__ZN7WebCore11RenderStyle13setUserModifyENS_11EUserModifyE
__ZNK7WebCore8Document20cacheDocumentElementEv
__ZNK7WebCore8Document8settingsEv
__ZNK7WebCore8Settings17fontRenderingModeEv
__ZNK7WebCore8Document13isSVGDocumentEv
__ZN7WebCore11RenderStyle18setFontDescriptionERKNS_15FontDescriptionE
__ZNK7WebCore15FontDescriptioneqERKS0_
__ZN7WebCoreeqERKNS_10FontFamilyES2_
__ZN7WebCore4FontC1ERKNS_15FontDescriptionEss
__ZN7WebCore15FontDescriptionC1ERKS0_
__ZN7WebCore10FontFamilyC1ERKS0_
__ZN7WebCore18StyleInheritedDataC1ERKS0_
__ZN7WebCore4FontC1ERKS0_
__ZN3WTF10ListRefPtrIN7WebCore16SharedFontFamilyEED2Ev
__ZN3WTF14derefIfNotNullIN7WebCore16SharedFontFamilyEEEvPT_
__ZNK7WebCore4Font6updateEN3WTF10PassRefPtrINS_12FontSelectorEEE
__ZN7WebCore16FontFallbackList10invalidateEN3WTF10PassRefPtrINS_12FontSelectorEEE
__ZN3WTF6VectorISt4pairIPKN7WebCore8FontDataEbELm1EE14shrinkCapacityEm
__ZN7WebCore4Node4diffEPKNS_11RenderStyleES3_
__ZNK7WebCore11RenderStyle14hasPseudoStyleENS_8PseudoIdE
__ZN7WebCore12RenderObject8setStyleEN3WTF10PassRefPtrINS_11RenderStyleEEE
__ZNK7WebCore12RenderObject21adjustStyleDifferenceENS_15StyleDifferenceEj
__ZN7WebCore11RenderBlock15styleWillChangeENS_15StyleDifferenceEPKNS_11RenderStyleE
__ZN7WebCore9RenderBox15styleWillChangeENS_15StyleDifferenceEPKNS_11RenderStyleE
__ZNK7WebCore12RenderObject6isBodyEv
__ZNK7WebCore12RenderObject4viewEv
__ZN7WebCore20RenderBoxModelObject15styleWillChangeENS_15StyleDifferenceEPKNS_11RenderStyleE
__ZN7WebCore12RenderObject15styleWillChangeENS_15StyleDifferenceEPKNS_11RenderStyleE
__ZN7WebCore12RenderObject16updateFillImagesEPKNS_9FillLayerES3_
__ZN7WebCore11RenderBlock14styleDidChangeENS_15StyleDifferenceEPKNS_11RenderStyleE
__ZN7WebCore9RenderBox14styleDidChangeENS_15StyleDifferenceEPKNS_11RenderStyleE
__ZN7WebCore20RenderBoxModelObject14styleDidChangeENS_15StyleDifferenceEPKNS_11RenderStyleE
__ZN7WebCore12RenderObject14styleDidChangeENS_15StyleDifferenceEPKNS_11RenderStyleE
__ZN7WebCore9RenderBox15updateFromStyleEv
__ZN7WebCore20RenderBoxModelObject15updateFromStyleEv
__ZNK7WebCore11RenderStyle21visitedDependentColorEi
__ZNK7WebCore11RenderStyle22colorIncludingFallbackEiNS_12EBorderStyleE
__ZNK7WebCore10RenderView12isRenderViewEv
__ZNK7WebCore10RenderView13requiresLayerEv
__ZN7WebCore11RenderLayernwEmPNS_11RenderArenaE
__ZN7WebCore11RenderLayerC1EPNS_20RenderBoxModelObjectE
__ZN7WebCore11RenderLayerC2EPNS_20RenderBoxModelObjectE
__ZNK7WebCore11RenderLayer22shouldBeNormalFlowOnlyEv
__ZNK7WebCore12RenderObject7isVideoEv
__ZNK7WebCore12RenderObject16isEmbeddedObjectEv
__ZNK7WebCore12RenderObject8isAppletEv
__ZNK7WebCore12RenderObject14isRenderIFrameEv
__ZNK7WebCore11RenderBlock15virtualChildrenEv
__ZN7WebCore11RenderLayer19insertOnlyThisLayerEv
__ZN7WebCore11RenderLayer34clearClipRectsIncludingDescendantsEv
__ZN7WebCore11RenderLayer12styleChangedENS_15StyleDifferenceEPKNS_11RenderStyleE
__ZN7WebCore11RenderLayer23updateScrollCornerStyleEv
__ZN7WebCore4Node28deprecatedShadowAncestorNodeEv
__ZNK7WebCore4Node15isSVGShadowRootEv
__ZN7WebCore11RenderLayer18updateResizerStyleEv
__ZN7WebCore11RenderLayer15updateTransformEv
__ZN7WebCore10RenderView10compositorEv
__ZN7WebCore21RenderLayerCompositorC1EPNS_10RenderViewE
__ZN7WebCore21RenderLayerCompositorC2EPNS_10RenderViewE
__ZN7WebCore21RenderLayerCompositor27updateLayerCompositingStateEPNS_11RenderLayerENS0_24CompositingChangeRepaintE
__ZN7WebCore21RenderLayerCompositor13updateBackingEPNS_11RenderLayerENS0_24CompositingChangeRepaintE
__ZNK7WebCore11RenderLayer19isSelfPaintingLayerEv
__ZNK7WebCore21RenderLayerCompositor24requiresCompositingLayerEPKNS_11RenderLayerE
__ZNK7WebCore12RenderObject9isReplicaEv
__ZNK7WebCore12RenderObject8isCanvasEv
__ZNK7WebCore21RenderLayerCompositor28requiresCompositingForPluginEPNS_12RenderObjectE
__ZNK7WebCore21RenderLayerCompositor27requiresCompositingForFrameEPNS_12RenderObjectE
__ZNK7WebCore12RenderObject12isRenderPartEv
__ZNK7WebCore12RenderObject9animationEv
__ZNK7WebCore19AnimationController28isRunningAnimationOnRendererEPNS_12RenderObjectENS_13CSSPropertyIDEb
__ZNK7WebCore26AnimationControllerPrivate28isRunningAnimationOnRendererEPNS_12RenderObjectENS_13CSSPropertyIDEb
__ZNK7WebCore12RenderObject18isRenderFullScreenEv
__ZNK7WebCore12RenderObject16isAnonymousBlockEv
__ZNK7WebCore11RenderBlock24blockElementContinuationEv
__ZNK7WebCore20RenderBoxModelObject12continuationEv
__ZNK7WebCore11RenderBlock12avoidsFloatsEv
__ZNK7WebCore9RenderBox12avoidsFloatsEv
__ZNK7WebCore12RenderObject4isHREv
__ZNK7WebCore12RenderObject8isLegendEv
__ZNK7WebCore9FrameView13layoutPendingEv
__ZN7WebCore9FrameView23updateCompositingLayersEv
__ZNK7WebCore5Frame15contentRendererEv
__ZN7WebCore21RenderLayerCompositor32cacheAcceleratedCompositingFlagsEv
__ZN7WebCore21RenderLayerCompositor23updateCompositingLayersENS_21CompositingUpdateTypeEPNS_11RenderLayerE
__ZN7WebCore9FrameView21resumeScheduledEventsEv
__ZN7WebCore20FrameActionScheduler6resumeEv
__ZN7WebCore20FrameActionScheduler8dispatchEv
__ZN7WebCore9FrameView19endDeferredRepaintsEv
__ZN7WebCore9FrameView18doDeferredRepaintsEv
__ZNK7WebCore10ScrollView11isOffscreenEv
__ZNK7WebCore10ScrollView19platformIsOffscreenEv
__ZN7WebCore20CachedResourceLoader12requestCountEv
__ZN7WebCore13ContainerNode25resumePostAttachCallbacksEv
__ZN7WebCore11FrameLoader35tellClientAboutPastMemoryCacheLoadsEv
__ZN7WebCore21ResourceLoadScheduler21resumePendingRequestsEv
__ZN7WebCore13ContainerNode6attachEv
__ZN7WebCore4Node6attachEv
__ZN7WebCore16ScriptController14updateDocumentEv
__ZN7WebCore4Page23updateViewportArgumentsEv
__ZNK7WebCore5Frame9domWindowEv
__ZN7WebCore9DOMWindowC1EPNS_5FrameE
__ZN7WebCore15EventTargetDataC1Ev
__ZN7WebCore9DOMWindow17setSecurityOriginEPNS_14SecurityOriginE
__ZN7WebCore11FrameLoader16didBeginDocumentEb
__ZN7WebCore8Document13setReadyStateENS0_10ReadyStateE
__ZN7WebCore5EventC1ERKN3WTF12AtomicStringEbb
__ZN7WebCore4Node13dispatchEventEN3WTF10PassRefPtrINS_5EventEEE
__ZN7WebCore21EventDispatchMediatorC1EN3WTF10PassRefPtrINS_5EventEEE
__ZN7WebCore15EventDispatcher13dispatchEventEPNS_4NodeERKNS_21EventDispatchMediatorE
__ZN7WebCore15EventDispatcherC2EPNS_4NodeE
__ZNK7WebCore8Document4viewEv
__ZNK7WebCore21EventDispatchMediator13dispatchEventEPNS_15EventDispatcherE
__ZN7WebCore15EventDispatcher13dispatchEventEN3WTF10PassRefPtrINS_5EventEEE
__ZN7WebCore4Node14refEventTargetEv
__ZN7WebCore5Event9setTargetEN3WTF10PassRefPtrINS_11EventTargetEEE
__ZN7WebCore5Event14receivedTargetEv
__ZN7WebCore15EventDispatcher20ensureEventAncestorsEPNS_5EventE
__ZN7WebCore18WindowEventContextC1EPNS_5EventEN3WTF10PassRefPtrINS_4NodeEEEPKNS_12EventContextE
__ZN7WebCore18WindowEventContextC2EPNS_5EventEN3WTF10PassRefPtrINS_4NodeEEEPKNS_12EventContextE
__ZNK7WebCore8Document9domWindowEv
__ZN7WebCore4Node23preDispatchEventHandlerEPNS_5EventE
__ZN7WebCore18WindowEventContext17handleLocalEventsEPNS_5EventE
__ZN7WebCore4Node16derefEventTargetEv
__ZN7WebCore11EventTarget18fireEventListenersEPNS_5EventE
__ZN7WebCore9DOMWindow15eventTargetDataEv
__ZN7WebCore4Node17handleLocalEventsEPNS_5EventE
__ZN7WebCore4Node24postDispatchEventHandlerEPNS_5EventEPv
__ZN7WebCore4Node19defaultEventHandlerEPNS_5EventE
__ZN7WebCore15EventDispatcherD1Ev
__ZN7WebCore21EventDispatchMediatorD1Ev
__ZN7WebCore5EventD0Ev
__ZN7WebCore11FrameLoader26updateFirstPartyForCookiesEv
__ZN7WebCore20CachedResourceLoader17setAutoLoadImagesEb
__ZNK7WebCore20ResourceResponseBase15httpHeaderFieldEPKc
__ZNK7WebCore13HTTPHeaderMap3getEPKc
__ZNK3WTF9HashTableINS_12AtomicStringESt4pairIS1_NS_6StringEENS_18PairFirstExtractorIS4_EENS_15CaseFoldingHashENS_14PairHashTraitsINS_10HashTraitsIS1_EENS9_IS3_EEEESA_E4findIPKcNS_24HashMapTranslatorAdapterIS4_SC_SG_N7WebCore28CaseFoldingCStringTranslatorEEEEENS_22HashTableConstIteratorIS1_S4_S6_S7_SC_SA_EERKT_
__ZNK3WTF9HashTableINS_12AtomicStringESt4pairIS1_NS_6StringEENS_18PairFirstExtractorIS4_EENS_15CaseFoldingHashENS_14PairHashTraitsINS_10HashTraitsIS1_EENS9_IS3_EEEESA_E4findIS1_NS_22IdentityHashTranslatorIS1_S4_S7_EEEENS_22HashTableConstIteratorIS1_S4_S6_S7_SC_SA_EERKT_
__ZN7WebCore17HistoryController20restoreDocumentStateEv
__ZN7WebCore8Document12implicitOpenEv
__ZN7WebCore13ContainerNode14removeChildrenEv
__ZN7WebCore8Document20setCompatibilityModeENS0_17CompatibilityModeE
__ZN7WebCore12HTMLDocument12createParserEv
__ZN7WebCore18HTMLDocumentParserC1EPNS_12HTMLDocumentEb
__ZN7WebCore18HTMLDocumentParserC2EPNS_12HTMLDocumentEb
__ZN7WebCore24ScriptableDocumentParserC2EPNS_8DocumentE
__ZN7WebCore25DecodedDataDocumentParserC2EPNS_8DocumentE
__ZN7WebCore14DocumentParserC2EPNS_8DocumentE
__ZN3WTF6VectorItLm1024EE14shrinkCapacityEm
__ZN7WebCore13HTMLTokenizerC1Eb
__ZN7WebCore16HTMLScriptRunnerC1EPNS_8DocumentEPNS_20HTMLScriptRunnerHostE
__ZN7WebCore15HTMLTreeBuilderC1EPNS_18HTMLDocumentParserEPNS_12HTMLDocumentEbb
__ZN7WebCore20HTMLConstructionSiteC1EPNS_8DocumentE
__ZN7WebCore16HTMLElementStackC1Ev
__ZN7WebCore25HTMLFormattingElementListC1Ev
__ZN7WebCore19HTMLParserSchedulerC1EPNS_18HTMLDocumentParserE
__ZN7WebCore17HTMLSourceTrackerC1Ev
__ZN7WebCore9XSSFilterC1EPNS_18HTMLDocumentParserE
__ZN7WebCore19AnimationController20beginAnimationUpdateEv
__ZN7WebCore9FrameView15setContentsSizeERKNS_7IntSizeE
__ZNK7WebCore10ScrollView12contentsSizeEv
__ZNK7WebCore10ScrollView20platformContentsSizeEv
__ZNK7WebCore10ScrollView12documentViewEv
__ZN7WebCore10ScrollView15setContentsSizeERKNS_7IntSizeE
__ZN7WebCore10ScrollView23platformSetContentsSizeEv
__ZNK7WebCore9FrameView11needsLayoutEv
__ZNK7WebCore14ScrollableArea14scrollAnimatorEv
__ZN7WebCore14ScrollAnimator6createEPNS_14ScrollableAreaE
__ZN7WebCore17ScrollAnimatorMacC2EPNS_14ScrollableAreaE
__ZN7WebCore14ScrollAnimatorC2EPNS_14ScrollableAreaE
-[ScrollAnimationHelperDelegate initWithScrollAnimator:]
-[ScrollbarPainterControllerDelegate initWithScrollAnimator:]
-[ScrollbarPainterDelegate .cxx_construct]
-[ScrollbarPainterDelegate initWithScrollAnimator:]
__ZNK7WebCore17ScrollAnimatorMac15contentsResizedEv
__ZNK7WebCore6Chrome19contentsSizeChangedEPNS_5FrameERKNS_7IntSizeE
__ZN7WebCore25DecodedDataDocumentParser11appendBytesEPNS_14DocumentWriterEPKcib
__ZN7WebCore14DocumentWriter21createDecoderIfNeededEv
__ZN7WebCore12TextEncodingC1ERKN3WTF6StringE
__ZN7WebCore31atomicCanonicalTextEncodingNameEPKtm
__ZN7WebCore19TextResourceDecoderC1ERKN3WTF6StringERKNS_12TextEncodingEb
__ZN7WebCore19TextResourceDecoderC2ERKN3WTF6StringERKNS_12TextEncodingEb
__ZN7WebCore14Latin1EncodingEv
__ZN7WebCore8Document10setDecoderEN3WTF10PassRefPtrINS_19TextResourceDecoderEEE
__ZN7WebCore19TextResourceDecoder6decodeEPKcm
__ZN7WebCore19TextResourceDecoder11checkForBOMEPKcm
__ZN7WebCore19TextResourceDecoder19checkForHeadCharsetEPKcmRb
__ZN7WebCore19TextResourceDecoder5flushEv
__ZN7WebCore12newTextCodecERKNS_12TextEncodingE
__ZN7WebCoreL36newStreamingTextDecoderWindowsLatin1ERKNS_12TextEncodingEPKv
__ZN7WebCore15TextCodecLatin16decodeEPKcmbbRb
__ZN7WebCore15TextCodecLatin1D0Ev
__ZN7WebCore9TextCodecD2Ev
__ZN7WebCore8Document13finishParsingEv
__ZN7WebCore18HTMLDocumentParser6finishEv
__ZN7WebCore15HTMLInputStream13markEndOfFileEv
__ZN7WebCore15SegmentedString6appendERKS0_
__ZN7WebCore15SegmentedString6appendERKNS_18SegmentedSubstringE
__ZN3WTF5DequeIN7WebCore18SegmentedSubstringELm0EE10destroyAllEv
__ZN7WebCore15SegmentedString5closeEv
__ZNK7WebCore18HTMLDocumentParser19isWaitingForScriptsEv
__ZN7WebCore18HTMLDocumentParser20prepareToStopParsingEv
__ZN7WebCore18HTMLDocumentParser13pumpTokenizerENS0_15SynchronousModeE
__ZNK7WebCore15SegmentedString6lengthEv
__ZN7WebCore18HTMLDocumentParser16canTakeNextTokenENS0_15SynchronousModeERNS_11PumpSessionE
__ZN7WebCore19NavigationScheduler21locationChangePendingEv
__ZN7WebCore17HTMLSourceTracker5startERKNS_15HTMLInputStreamERNS_9HTMLTokenE
__ZN7WebCore15SegmentedStringaSERKS0_
__ZN3WTF5DequeIN7WebCore18SegmentedSubstringELm0EEC2ERKS3_
__ZN7WebCore13HTMLTokenizer9nextTokenERNS_15SegmentedStringERNS_9HTMLTokenE
__ZN7WebCore9HTMLToken17appendToCharacterItEEvT_
__ZN7WebCore13HTMLTokenizer23InputStreamPreprocessor7advanceERNS_15SegmentedStringERi
__ZN7WebCore15SegmentedString7advanceERi
__ZN7WebCore15SegmentedString15advanceSlowCaseERi
__ZN7WebCore15SegmentedString16advanceSubstringEv
__ZN7WebCore17HTMLSourceTracker3endERKNS_15HTMLInputStreamERNS_9HTMLTokenE
__ZN7WebCore9XSSFilter11filterTokenERNS_9HTMLTokenE
__ZN7WebCore9XSSFilter4initEv
__ZN7WebCore15HTMLTreeBuilder22constructTreeFromTokenERNS_9HTMLTokenE
__ZN7WebCore15AtomicHTMLTokenC2ERNS_9HTMLTokenE
__ZN7WebCore15HTMLTreeBuilder28constructTreeFromAtomicTokenERNS_15AtomicHTMLTokenE
__ZN7WebCore15HTMLTreeBuilder12processTokenERNS_15AtomicHTMLTokenE
__ZN7WebCore15HTMLTreeBuilder22processCharacterBufferERNS0_28ExternalCharacterTokenBufferE
__ZN7WebCore15HTMLTreeBuilder20defaultForBeforeHTMLEv
__ZN7WebCore20HTMLConstructionSite32insertHTMLHtmlStartTagBeforeHTMLERNS_15AtomicHTMLTokenE
__ZN7WebCore15HTMLHtmlElement6createEPNS_8DocumentE
__ZN7WebCore7Element15setAttributeMapEN3WTF10PassRefPtrINS_12NamedNodeMapEEENS_27FragmentScriptingPermissionE
__ZN7WebCore20HTMLConstructionSite6attachINS_7ElementEEEN3WTF10PassRefPtrIT_EEPNS_13ContainerNodeES6_
__ZN7WebCore13ContainerNode14parserAddChildEN3WTF10PassRefPtrINS_4NodeEEE
__ZNK7WebCore4Node9treeScopeEv
__ZN7WebCore4Node23setTreeScopeRecursivelyEPNS_9TreeScopeEb
__ZN7WebCore7Element20insertedIntoDocumentEv
__ZN7WebCore13ContainerNode20insertedIntoDocumentEv
__ZN7WebCore4Node20insertedIntoDocumentEv
__ZN7WebCore7Element16insertedIntoTreeEb
__ZN7WebCore13ContainerNode16insertedIntoTreeEb
__ZN7WebCore8Document15childrenChangedEbPNS_4NodeES2_i
__ZN7WebCore13ContainerNode15childrenChangedEbPNS_4NodeES2_i
__ZN7WebCore7Element6attachEv
__ZN7WebCore4Node22createRendererIfNeededEv
__ZN7WebCore19NodeRendererFactoryC2EPNS_4NodeE
__ZNK7WebCore4Node16isShadowBoundaryEv
__ZN7WebCore19NodeRendererFactory22createRendererIfNeededEv
__ZN7WebCore8Document21shouldCreateRenderersEv
__ZN7WebCore19NodeRendererFactory22createRendererAndStyleEv
__ZNK7WebCore19NodeRendererFactory20shouldCreateRendererEv
__ZNK7WebCore12RenderObject15canHaveChildrenEv
__ZNK7WebCore4Node25childShouldCreateRendererEPS0_
__ZN7WebCore4Node16styleForRendererEv
__ZN7WebCore8Document19createStyleSelectorEv
__ZN7WebCore8Document13pageUserSheetEv
__ZNK7WebCore4Page14userStyleSheetEv
__ZNK7WebCore8Document19pageGroupUserSheetsEv
__ZN7WebCore4Page9initGroupEv
__ZN7WebCore9PageGroupC1EPNS_4PageE
__ZN7WebCore13GroupSettingsC1Ev
__ZN7WebCore16CSSStyleSelectorC1EPNS_8DocumentEPNS_14StyleSheetListEPNS_13CSSStyleSheetES6_PKN3WTF6VectorINS7_6RefPtrIS5_EELm0EEEbb
__ZN7WebCore16CSSStyleSelectorC2EPNS_8DocumentEPNS_14StyleSheetListEPNS_13CSSStyleSheetES6_PKN3WTF6VectorINS7_6RefPtrIS5_EELm0EEEbb
__ZN7WebCore15CSSFontSelectorC1EPNS_8DocumentE
__ZN7WebCore9FontCache9addClientEPNS_12FontSelectorE
__ZN3WTF9HashTableIPN7WebCore12FontSelectorES3_NS_17IdentityExtractorIS3_EENS_7PtrHashIS3_EENS_10HashTraitsIS3_EES9_E3addIS3_S3_NS_22IdentityHashTranslatorIS3_S3_S7_EEEESt4pairINS_17HashTableIteratorIS3_S3_S5_S7_S9_S9_EEbERKT_RKT0_
__ZN3WTF9HashTableIPN7WebCore12FontSelectorES3_NS_17IdentityExtractorIS3_EENS_7PtrHashIS3_EENS_10HashTraitsIS3_EES9_E6expandEv
__ZN7WebCore21CSSStyleApplyProperty27sharedCSSStyleApplyPropertyEv
__ZN7WebCore21CSSStyleApplyPropertyC2Ev
__ZN7WebCoreL31elementCanUseSimpleDefaultStyleEPNS_7ElementE
__ZN7WebCoreL12parseUASheetEPKcj
__ZN7WebCore13CSSStyleSheet6createEv
__ZN7WebCore13CSSStyleSheetC1EPS0_RKN3WTF6StringERKNS_4KURLES5_
__ZN7WebCore10StyleSheetC2EPS0_RKN3WTF6StringERKNS_4KURLE
__ZN7WebCore13CSSStyleSheet11parseStringERKN3WTF6StringEb
__ZN7WebCore9CSSParserC1Eb
__ZN7WebCore9CSSParserC2Eb
__ZN7WebCore11SourceRangeC1Ejj
__ZN7WebCore21CSSPropertySourceData4initEv
__ZN7WebCore9CSSParser10parseSheetEPNS_13CSSStyleSheetERKN3WTF6StringEiPNS3_7HashMapIPNS_12CSSStyleRuleENS3_6RefPtrINS_17CSSRuleSourceDataEEENS3_7PtrHashIS9_EENS3_10HashTraitsIS9_EENSF_ISC_EEEE
__ZN7WebCore9CSSParser13setStyleSheetEPNS_13CSSStyleSheetE
__ZNK7WebCore13CSSStyleSheet15isCSSStyleSheetEv
__ZN7WebCore13CSSStyleSheet8documentEv
__ZN7WebCore9StyleBase6isRuleEv
__ZN7WebCore22CSSPrimitiveValueCacheC1Ev
__ZN7WebCore22CSSPrimitiveValueCacheC2Ev
__ZN7WebCore17CSSPrimitiveValueC1Ej
__ZN7WebCore17CSSPrimitiveValueC1EdNS0_9UnitTypesE
__ZN7WebCore9CSSParser11setupParserEPKcRKN3WTF6StringES2_
__Z10cssyyparsePv
__ZN7WebCore9CSSParser3lexEPv
__ZN7WebCore9CSSParser3lexEv
__ZN7WebCore9CSSParser4textEPi
__ZN7WebCore9CSSParser21markSelectorListStartEv
__ZNK7WebCore9CSSParser8documentEv
__ZN7WebCore9CSSParser22createFloatingSelectorEv
__ZN7WebCore17CSSParserSelectorC1Ev
__ZN3WTF9HashTableIPN7WebCore17CSSParserSelectorES3_NS_17IdentityExtractorIS3_EENS_7PtrHashIS3_EENS_10HashTraitsIS3_EES9_E3addIS3_S3_NS_22IdentityHashTranslatorIS3_S3_S7_EEEESt4pairINS_17HashTableIteratorIS3_S3_S5_S7_S9_S9_EEbERKT_RKT0_
__ZN3WTF9HashTableIPN7WebCore17CSSParserSelectorES3_NS_17IdentityExtractorIS3_EENS_7PtrHashIS3_EENS_10HashTraitsIS3_EES9_E6expandEv
__ZN7WebCore13QualifiedNameC1ERKN3WTF12AtomicStringES4_S4_
__ZN7WebCore13QualifiedName5derefEv
__ZN7WebCore13QualifiedNameD1Ev
__ZN7WebCore9CSSParser20sinkFloatingSelectorEPNS_17CSSParserSelectorE
__ZNK3WTF9HashTableIPN7WebCore17CSSParserSelectorES3_NS_17IdentityExtractorIS3_EENS_7PtrHashIS3_EENS_10HashTraitsIS3_EES9_E4findIS3_NS_22IdentityHashTranslatorIS3_S3_S7_EEEENS_22HashTableConstIteratorIS3_S3_S5_S7_S9_S9_EERKT_
__ZN3WTF9HashTableIPN7WebCore17CSSParserSelectorES3_NS_17IdentityExtractorIS3_EENS_7PtrHashIS3_EENS_10HashTraitsIS3_EES9_E6removeEPS3_
__ZN3WTF6VectorINS_6OwnPtrIN7WebCore17CSSParserSelectorEEELm0EE14expandCapacityEm
__ZN7WebCore9CSSParser33updateLastSelectorLineAndPositionEv
__ZN7WebCore9CSSParser19markSelectorListEndEv
__ZN7WebCore9CSSParser17markPropertyStartEv
__ZN7WebCore13cssPropertyIDERKNS_15CSSParserStringE
__ZN7WebCoreL13cssPropertyIDEPKtj
__ZN7WebCore12findPropertyEPKcj
__ZN7WebCore20CSSPropertyNamesHash21propery_hash_functionEPKcj
__ZN7WebCore17cssValueKeywordIDERKNS_15CSSParserStringE
__ZN7WebCore9findValueEPKcj
__ZN7WebCore20CSSValueKeywordsHash19value_hash_functionEPKcj
__ZN7WebCore9CSSParser23createFloatingValueListEv
__ZN3WTF9HashTableIPN7WebCore18CSSParserValueListES3_NS_17IdentityExtractorIS3_EENS_7PtrHashIS3_EENS_10HashTraitsIS3_EES9_E3addIS3_S3_NS_22IdentityHashTranslatorIS3_S3_S7_EEEESt4pairINS_17HashTableIteratorIS3_S3_S5_S7_S9_S9_EEbERKT_RKT0_
__ZN3WTF9HashTableIPN7WebCore18CSSParserValueListES3_NS_17IdentityExtractorIS3_EENS_7PtrHashIS3_EENS_10HashTraitsIS3_EES9_E6expandEv
__ZN7WebCore9CSSParser17sinkFloatingValueERNS_14CSSParserValueE
__ZN7WebCore18CSSParserValueList8addValueERKNS_14CSSParserValueE
__ZN7WebCore9CSSParser21sinkFloatingValueListEPNS_18CSSParserValueListE
__ZNK3WTF9HashTableIPN7WebCore18CSSParserValueListES3_NS_17IdentityExtractorIS3_EENS_7PtrHashIS3_EENS_10HashTraitsIS3_EES9_E4findIS3_NS_22IdentityHashTranslatorIS3_S3_S7_EEEENS_22HashTableConstIteratorIS3_S3_S5_S7_S9_S9_EERKT_
__ZN3WTF9HashTableIPN7WebCore18CSSParserValueListES3_NS_17IdentityExtractorIS3_EENS_7PtrHashIS3_EENS_10HashTraitsIS3_EES9_E6removeEPS3_
__ZN7WebCore9CSSParser10parseValueEib
__ZN7WebCore9CSSParser21checkForOrphanedUnitsEv
__ZN7WebCore22CSSPrimitiveValueCache21createIdentifierValueEi
__ZN7WebCore17CSSPrimitiveValueC1Ei
__ZN7WebCore9CSSParser11addPropertyEiN3WTF10PassRefPtrINS_8CSSValueEEEb
__ZN7WebCore18CSSParserValueListD1Ev
__ZN7WebCore18CSSParserValueListD2Ev
__ZN7WebCore9CSSParser15markPropertyEndEbb
__ZN7WebCore9CSSParser15createStyleRuleEPN3WTF6VectorINS1_6OwnPtrINS_17CSSParserSelectorEEELm0EEE
__ZN7WebCore12CSSStyleRuleC1EPNS_13CSSStyleSheetEi
__ZN7WebCore15CSSSelectorList19adoptSelectorVectorERN3WTF6VectorINS1_6OwnPtrINS_17CSSParserSelectorEEELm0EEE
__ZN7WebCore15CSSSelectorList15deleteSelectorsEv
__ZN7WebCore17CSSParserSelectorD1Ev
__ZN7WebCore17CSSParserSelectorD2Ev
__ZN3WTF14deleteOwnedPtrIN7WebCore17CSSParserSelectorEEEvPT_
__ZN7WebCore26CSSMutableStyleDeclarationC1EPNS_7CSSRuleEPKPKNS_11CSSPropertyEi
__ZN7WebCore26CSSMutableStyleDeclarationC2EPNS_7CSSRuleEPKPKNS_11CSSPropertyEi
__ZN7WebCore19CSSStyleDeclarationC2EPNS_7CSSRuleE
__ZNK3WTF9HashTableIiSt4pairIibENS_18PairFirstExtractorIS2_EENS_7IntHashIjEENS_14PairHashTraitsINS_10HashTraitsIiEENS8_IbEEEES9_E8containsIiNS_22IdentityHashTranslatorIiS2_S6_EEEEbRKT_
__ZN7WebCore12CSSStyleRule14setDeclarationEN3WTF10PassRefPtrINS_26CSSMutableStyleDeclarationEEE
__ZN3WTF6VectorINS_6RefPtrIN7WebCore9StyleBaseEEELm0EE14expandCapacityEm
__ZN7WebCore9CSSParser15clearPropertiesEv
__ZN7WebCore9StyleList6appendEN3WTF10PassRefPtrINS_9StyleBaseEEE
__ZN7WebCore9StyleBase18insertedIntoParentEv
__ZN7WebCore9CSSParser12parse4ValuesEiPKib
__ZN7WebCore22CSSPrimitiveValueCache11createValueEdNS_17CSSPrimitiveValue9UnitTypesE
__ZN7WebCore15CSSParserString5lowerEv
__ZNK7WebCore11CSSSelector17extractPseudoTypeEv
__ZN7WebCoreL19nameToPseudoTypeMapEv
__ZN3WTF9HashTableIPNS_16AtomicStringImplESt4pairIS2_N7WebCore11CSSSelector10PseudoTypeEENS_18PairFirstExtractorIS7_EENS_7PtrHashIS2_EENS_14PairHashTraitsINS_10HashTraitsIS2_EENSD_IS6_EEEESE_E16lookupForWritingERKS2_
__ZN3WTF9HashTableIPNS_16AtomicStringImplESt4pairIS2_N7WebCore11CSSSelector10PseudoTypeEENS_18PairFirstExtractorIS7_EENS_7PtrHashIS2_EENS_14PairHashTraitsINS_10HashTraitsIS2_EENSD_IS6_EEEESE_E3addIS2_S6_NS_17HashMapTranslatorIS7_SG_SB_EEEES3_INS_17HashTableIteratorIS2_S7_S9_SB_SG_SE_EEbERKT_RKT0_
__ZN3WTF9HashTableIPNS_16AtomicStringImplESt4pairIS2_N7WebCore11CSSSelector10PseudoTypeEENS_18PairFirstExtractorIS7_EENS_7PtrHashIS2_EENS_14PairHashTraitsINS_10HashTraitsIS2_EENSD_IS6_EEEESE_E4findIS2_NS_22IdentityHashTranslatorIS2_S7_SB_EEEENS_17HashTableIteratorIS2_S7_S9_SB_SG_SE_EERKT_
__ZN3WTF9HashTableIPNS_16AtomicStringImplESt4pairIS2_N7WebCore11CSSSelector10PseudoTypeEENS_18PairFirstExtractorIS7_EENS_7PtrHashIS2_EENS_14PairHashTraitsINS_10HashTraitsIS2_EENSD_IS6_EEEESE_E6rehashEi
__ZN7WebCore9CSSParser31updateSpecifiersWithElementNameERKN3WTF12AtomicStringES4_PNS_17CSSParserSelectorE
__ZN7WebCore9CSSParser14parseShorthandEiPKiib
__ZN7WebCore12CSSValueListC1Eb
__ZN7WebCore12CSSValueList6appendEN3WTF10PassRefPtrINS_8CSSValueEEE
__ZN3WTF6VectorINS_6RefPtrIN7WebCore8CSSValueEEELm0EE14expandCapacityEm
__ZN7WebCore9CSSParser16updateSpecifiersEPNS_17CSSParserSelectorES2_
__ZN7WebCore17CSSParserSelector16appendTagHistoryENS_11CSSSelector8RelationEN3WTF10PassOwnPtrIS0_EE
__ZN7WebCore9CSSParserD1Ev
__ZN7WebCore9CSSParserD2Ev
__ZN3WTF15deleteAllValuesIPNS_6VectorINS_6OwnPtrIN7WebCore17CSSParserSelectorEEELm0EEEKNS_9HashTableIS7_S7_NS_17IdentityExtractorIS7_EENS_7PtrHashIS7_EENS_10HashTraitsIS7_EESE_EEEEvRT0_
__ZN3WTF15deleteAllValuesIPN7WebCore17CSSParserFunctionEKNS_9HashTableIS3_S3_NS_17IdentityExtractorIS3_EENS_7PtrHashIS3_EENS_10HashTraitsIS3_EESA_EEEEvRT0_
__ZN3WTF6OwnPtrINS_6VectorINS0_IN7WebCore13MediaQueryExpEEELm0EEEED1Ev
__ZN7WebCore22CSSPrimitiveValueCacheD1Ev
__ZN7WebCore22CSSPrimitiveValueCacheD2Ev
__ZN7WebCore17CSSPrimitiveValueD0Ev
__ZN7WebCore17CSSPrimitiveValue7cleanupEv
__ZN7WebCore19MediaQueryEvaluatorC1EPKcb
__ZN7WebCore7RuleSet17addRulesFromSheetEPNS_13CSSStyleSheetERKNS_19MediaQueryEvaluatorEPNS_16CSSStyleSelectorE
__ZN7WebCore12CSSStyleRule11isStyleRuleEv
__ZN7WebCore7RuleSet12addStyleRuleEPNS_12CSSStyleRuleE
__ZN7WebCore9StyleBase10isPageRuleEv
__ZN7WebCore7RuleSet7addRuleEPNS_12CSSStyleRuleEPNS_11CSSSelectorE
__ZN7WebCore7RuleSet12addToRuleSetEPN3WTF16AtomicStringImplERNS1_7HashMapIS3_PNS1_6VectorINS_8RuleDataELm0EEENS1_7PtrHashIS3_EENS1_10HashTraitsIS3_EENSB_IS8_EEEEPNS_12CSSStyleRuleEPNS_11CSSSelectorE
__ZN7WebCore8RuleDataC2EPNS_12CSSStyleRuleEPNS_11CSSSelectorEj
__ZNK7WebCore11CSSSelector11specificityEv
__ZNK7WebCore11CSSSelector25specificityForOneSelectorEv
__ZN7WebCore8RuleData41collectDescendantSelectorIdentifierHashesEv
__ZN3WTF6VectorIN7WebCore8RuleDataELm0EE15reserveCapacityEm
__ZN7WebCore7RuleSet11shrinkToFitEv
__ZN3WTF6VectorIN7WebCore8RuleDataELm0EE14shrinkCapacityEm
__ZNK7WebCore9FrameView9mediaTypeEv
__ZN7WebCore19MediaQueryEvaluatorC1ERKN3WTF6StringEb
__ZN7WebCore16CSSStyleSelector15styleForElementEPNS_7ElementEPNS_11RenderStyleEbbb
__ZN7WebCore16CSSStyleSelector19initForStyleResolveEPNS_7ElementEPNS_11RenderStyleENS_8PseudoIdE
__ZN7WebCore4Node30parentNodeForRenderingAndStyleEv
__ZN3WTF6VectorIPN7WebCore26CSSMutableStyleDeclarationELm64EE14shrinkCapacityEm
__ZN7WebCore11RenderStyle11inheritFromEPKS0_
__ZNK7WebCore7Element15isMathMLElementEv
__ZN7WebCore16CSSStyleSelector12matchUARulesERiS1_
__ZNK7WebCore19MediaQueryEvaluator22mediaTypeMatchSpecificEPKc
__ZN7WebCore16CSSStyleSelector10matchRulesEPNS_7RuleSetERiS3_b
__ZN3WTF6VectorIPKN7WebCore8RuleDataELm32EE14shrinkCapacityEm
__ZNK7WebCore7Element14shadowPseudoIdEv
__ZN7WebCore16CSSStyleSelector17matchRulesForListEPKN3WTF6VectorINS_8RuleDataELm0EEERiS7_b
__ZN7WebCore16CSSStyleSelector13checkSelectorERKNS_8RuleDataE
__ZN7WebCore16CSSStyleSelector14addMatchedRuleEPKNS_8RuleDataE
__ZSt16__introsort_loopIPPKN7WebCore8RuleDataElPFbS3_S3_EEvT_S7_T0_T1_
__ZSt22__final_insertion_sortIPPKN7WebCore8RuleDataEPFbS3_S3_EEvT_S7_T0_
__ZSt16__insertion_sortIPPKN7WebCore8RuleDataEPFbS3_S3_EEvT_S7_T0_
__ZN7WebCore16CSSStyleSelector21addMatchedDeclarationEPNS_26CSSMutableStyleDeclarationE
__ZN7WebCore16CSSStyleSelector13applyPropertyEiPNS_8CSSValueE
__ZNK7WebCore17CSSPrimitiveValue16isPrimitiveValueEv
__ZNK7WebCore17CSSPrimitiveValue12cssValueTypeEv
__ZN7WebCore11CSSProperty29resolveDirectionAwarePropertyEiNS_13TextDirectionENS_11WritingModeE
__ZN7WebCore16CSSStyleSelector17applyDeclarationsILb1EEEvbii
__ZN7WebCore16CSSStyleSelector17adjustRenderStyleEPNS_11RenderStyleES2_PNS_7ElementE
__ZN7WebCore11RenderStyle16setHasAutoZIndexEv
__ZN7WebCore11RenderStyle9setZIndexEi
__ZN7WebCore12StyleBoxDataC1ERKS0_
__ZN7WebCore11RenderStyle22adjustBackgroundLayersEv
__ZN7WebCore11RenderStyle16adjustMaskLayersEv
__ZN7WebCore11RenderStyle16adjustAnimationsEv
__ZN7WebCore11RenderStyle17adjustTransitionsEv
__ZNK7WebCore7Element20isFormControlElementEv
__ZN7WebCore16CSSStyleSelector17loadPendingImagesEv
__ZN7WebCore19MediaQueryEvaluatorC1ERKN3WTF6StringEPNS_5FrameEPNS_11RenderStyleE
__ZN7WebCore19MediaQueryEvaluatorD1Ev
__ZNK7WebCore14StyleSheetList6lengthEv
__ZNK7WebCore7RuleSet15collectFeaturesERNS_16CSSStyleSelector8FeaturesE
__ZN7WebCoreL23collectFeaturesFromListERNS_16CSSStyleSelector8FeaturesERKN3WTF6VectorINS_8RuleDataELm0EEE
__ZN7WebCore7RuleSetD2Ev
__ZN3WTF20deleteAllPairSecondsIPNS_6VectorIN7WebCore8RuleDataELm0EEEKNS_7HashMapIPNS_16AtomicStringImplES5_NS_7PtrHashIS8_EENS_10HashTraitsIS8_EENSB_IS5_EEEEEEvRT0_
__ZNK7WebCore13StyledElement36canHaveAdditionalAttributeStyleDeclsEv
__ZNK7WebCore11HTMLElement35directionalityIfhasDirAutoAttributeERb
__ZN7WebCore11HTMLElement16rendererIsNeededEPNS_11RenderStyleE
__ZN7WebCore4Node16rendererIsNeededEPNS_11RenderStyleE
__ZN7WebCore11HTMLElement14createRendererEPNS_11RenderArenaEPNS_11RenderStyleE
__ZN7WebCore12RenderObject12createObjectEPNS_4NodeEPNS_11RenderStyleE
__ZN7WebCore11RenderBlockC1EPNS_4NodeE
__ZNK7WebCore10RenderView14isChildAllowedEPNS_12RenderObjectEPNS_11RenderStyleE
__ZN7WebCore12RenderObject18setAnimatableStyleEN3WTF10PassRefPtrINS_11RenderStyleEEE
__ZN7WebCore19AnimationController16updateAnimationsEPNS_12RenderObjectEPNS_11RenderStyleE
__ZNK7WebCore12RenderObject12isRenderViewEv
__ZNK7WebCore20RenderBoxModelObject13requiresLayerEv
__ZN7WebCore11RenderBlock8addChildEPNS_12RenderObjectES2_
__ZN7WebCore11RenderBlock28addChildIgnoringContinuationEPNS_12RenderObjectES2_
__ZN7WebCore11RenderBlock37addChildIgnoringAnonymousColumnBlocksEPNS_12RenderObjectES2_
__ZN7WebCore11RenderBlock30columnsBlockForSpanningElementEPNS_12RenderObjectE
__ZN7WebCore11RenderBlock21makeChildrenNonInlineEPNS_12RenderObjectE
__ZN7WebCore12RenderObject8addChildEPS0_S1_
__ZN7WebCore11RenderBlock15virtualChildrenEv
__ZNK7WebCore12RenderObject10isTableColEv
__ZNK7WebCore11RenderBlock13isRenderBlockEv
__ZNK7WebCore12RenderObject14isTableSectionEv
__ZNK7WebCore12RenderObject10isTableRowEv
__ZNK7WebCore12RenderObject11isTableCellEv
__ZN7WebCore21RenderObjectChildList15insertChildNodeEPNS_12RenderObjectES2_S2_b
__ZN7WebCore21RenderObjectChildList15appendChildNodeEPNS_12RenderObjectES2_b
__ZNK7WebCore12RenderObject14enclosingLayerEv
__ZN7WebCore12RenderObject9addLayersEPNS_11RenderLayerEPS0_
__ZN7WebCoreL9addLayersEPNS_12RenderObjectEPNS_11RenderLayerERS1_RS3_
__ZN7WebCore12RenderObject13findNextLayerEPNS_11RenderLayerEPS0_b
__ZN7WebCore11RenderLayer8addChildEPS0_S1_
__ZN7WebCore11RenderLayer9setParentEPS0_
__ZN7WebCore21RenderLayerCompositor13layerWasAddedEPNS_11RenderLayerES2_
__ZN7WebCore11RenderLayer31dirtyStackingContextZOrderListsEv
__ZN7WebCore11RenderLayer16dirtyZOrderListsEv
__ZN7WebCore21RenderLayerCompositor31setCompositingLayersNeedRebuildEb
__ZN7WebCore11RenderLayer22updateVisibilityStatusEv
__ZNK7WebCore12RenderObject10isListItemEv
__ZN7WebCore13RenderCounter23rendererSubtreeAttachedEPNS_12RenderObjectE
__ZNK7WebCore11RenderStyle17counterDirectivesEv
__ZNK7WebCore12RenderObject14nextInPreOrderEPS0_
__ZN7WebCore11RenderQuote23rendererSubtreeAttachedEPNS_12RenderObjectE
__ZNK7WebCore12RenderObject7isQuoteEv
__ZN7WebCore12RenderObject29markContainingBlocksForLayoutEbPS0_
__ZNK7WebCore12RenderObject9containerEPNS_20RenderBoxModelObjectEPb
__ZNK7WebCore12RenderObject13isTextControlEv
__ZNK7WebCore12RenderObject9isSVGRootEv
__ZN7WebCore12RenderObject16scheduleRelayoutEv
__ZN7WebCore9FrameView16scheduleRelayoutEv
__ZN7WebCore8Document20shouldScheduleLayoutEv
__ZNK7WebCore8Document4bodyEv
__ZN7WebCore12RenderObject24setLayerNeedsFullRepaintEv
__ZN7WebCore12RenderObject41invalidateContainerPreferredLogicalWidthsEv
__ZN7WebCore16HTMLElementStack19pushHTMLHtmlElementEN3WTF10PassRefPtrINS_7ElementEEE
__ZN7WebCore16HTMLElementStack10pushCommonEN3WTF10PassRefPtrINS_13ContainerNodeEEE
__ZN7WebCore7Element20beginParsingChildrenEv
__ZN7WebCore16CSSStyleSelector10pushParentEPNS_7ElementE
__ZN7WebCore16CSSStyleSelector20pushParentStackFrameEPNS_7ElementE
__ZN3WTF6VectorIN7WebCore16CSSStyleSelector16ParentStackFrameELm0EE15reserveCapacityEm
__ZN3WTF11VectorMoverILb0EN7WebCore16CSSStyleSelector16ParentStackFrameEE4moveEPKS3_S6_PS3_
__ZN7WebCore15HTMLHtmlElement16insertedByParserEv
__ZN7WebCore11FrameLoader32dispatchDocumentElementAvailableEv
__ZN7WebCore5Frame17injectUserScriptsENS_23UserScriptInjectionTimeE
__ZN7WebCore15AtomicHTMLTokenD1Ev
__ZN7WebCore15HTMLTreeBuilder20defaultForBeforeHeadEv
__ZN7WebCore15HTMLTreeBuilder15processStartTagERNS_15AtomicHTMLTokenE
__ZN7WebCore20HTMLConstructionSite21insertHTMLHeadElementERNS_15AtomicHTMLTokenE
__ZN7WebCore20HTMLConstructionSite17createHTMLElementERNS_15AtomicHTMLTokenE
__ZN7WebCore18HTMLElementFactory17createHTMLElementERKNS_13QualifiedNameEPNS_8DocumentEPNS_15HTMLFormElementEb
__ZN3WTF9HashTableIPNS_16AtomicStringImplESt4pairIS2_PFNS_10PassRefPtrIN7WebCore11HTMLElementEEERKNS5_13QualifiedNameEPNS5_8DocumentEPNS5_15HTMLFormElementEbEENS_18PairFirstExtractorISH_EENS_7PtrHashIS2_EENS_14PairHashTraitsINS_10HashTraitsIS2_EENSN_ISG_EEEESO_E16lookupForWritingERKS2_
__ZN3WTF9HashTableIPNS_16AtomicStringImplESt4pairIS2_PFNS_10PassRefPtrIN7WebCore11HTMLElementEEERKNS5_13QualifiedNameEPNS5_8DocumentEPNS5_15HTMLFormElementEbEENS_18PairFirstExtractorISH_EENS_7PtrHashIS2_EENS_14PairHashTraitsINS_10HashTraitsIS2_EENSN_ISG_EEEESO_E3addIS2_SG_NS_17HashMapTranslatorISH_SQ_SL_EEEES3_INS_17HashTableIteratorIS2_SH_SJ_SL_SQ_SO_EEbERKT_RKT0_
__ZN3WTF9HashTableIPNS_16AtomicStringImplESt4pairIS2_PFNS_10PassRefPtrIN7WebCore11HTMLElementEEERKNS5_13QualifiedNameEPNS5_8DocumentEPNS5_15HTMLFormElementEbEENS_18PairFirstExtractorISH_EENS_7PtrHashIS2_EENS_14PairHashTraitsINS_10HashTraitsIS2_EENSN_ISG_EEEESO_E4findIS2_NS_22IdentityHashTranslatorIS2_SH_SL_EEEENS_17HashTableIteratorIS2_SH_SJ_SL_SQ_SO_EERKT_
__ZN3WTF9HashTableIPNS_16AtomicStringImplESt4pairIS2_PFNS_10PassRefPtrIN7WebCore11HTMLElementEEERKNS5_13QualifiedNameEPNS5_8DocumentEPNS5_15HTMLFormElementEbEENS_18PairFirstExtractorISH_EENS_7PtrHashIS2_EENS_14PairHashTraitsINS_10HashTraitsIS2_EENSN_ISG_EEEESO_E6lookupERKS2_
__ZN3WTF9HashTableIPNS_16AtomicStringImplESt4pairIS2_PFNS_10PassRefPtrIN7WebCore11HTMLElementEEERKNS5_13QualifiedNameEPNS5_8DocumentEPNS5_15HTMLFormElementEbEENS_18PairFirstExtractorISH_EENS_7PtrHashIS2_EENS_14PairHashTraitsINS_10HashTraitsIS2_EENSN_ISG_EEEESO_E6rehashEi
__ZN7WebCoreL15headConstructorERKNS_13QualifiedNameEPNS_8DocumentEPNS_15HTMLFormElementEb
__ZN7WebCore15HTMLHeadElement6createERKNS_13QualifiedNameEPNS_8DocumentE
__ZN7WebCore11HTMLElement15childrenChangedEbPNS_4NodeES2_i
__ZN7WebCore7Element15childrenChangedEbPNS_4NodeES2_i
__ZN7WebCore11HTMLElement48adjustDirectionalityIfNeededAfterChildrenChangedEPNS_4NodeEi
__ZNK7WebCore7Element10shadowRootEv
__ZNK7WebCore7Element25childShouldCreateRendererEPNS_4NodeE
__ZN7WebCore11RenderStyleD1Ev
__ZN7WebCore11RenderStyleD2Ev
__ZN3WTF14deleteOwnedPtrINS_6VectorINS_6RefPtrIN7WebCore11RenderStyleEEELm4EEEEEvPT_
__ZN7WebCore16HTMLElementStack19pushHTMLHeadElementEN3WTF10PassRefPtrINS_7ElementEEE
__ZN7WebCore15HTMLTreeBuilder16defaultForInHeadEv
__ZN7WebCore15HTMLTreeBuilder13processEndTagERNS_15AtomicHTMLTokenE
__ZN7WebCore16HTMLElementStack18popHTMLHeadElementEv
__ZN7WebCore16HTMLElementStack9popCommonEv
__ZN7WebCore7Element21finishParsingChildrenEv
__ZNK7WebCore4Node22nonRendererRenderStyleEv
__ZN7WebCoreL27checkForSiblingStyleChangesEPNS_7ElementEPNS_11RenderStyleEbPNS_4NodeES5_i
__ZN7WebCore16CSSStyleSelector9popParentEPNS_7ElementE
__ZN7WebCore16CSSStyleSelector19popParentStackFrameEv
__ZN3WTF14deleteOwnedPtrIN7WebCore16HTMLElementStack13ElementRecordEEEvPT_
__ZN7WebCore15HTMLTreeBuilder19defaultForAfterHeadEv
__ZN7WebCore20HTMLConstructionSite21insertHTMLBodyElementERNS_15AtomicHTMLTokenE
__ZN7WebCoreL15bodyConstructorERKNS_13QualifiedNameEPNS_8DocumentEPNS_15HTMLFormElementEb
__ZN7WebCore15HTMLBodyElement6createERKNS_13QualifiedNameEPNS_8DocumentE
__ZN7WebCore15HTMLBodyElement20insertedIntoDocumentEv
__ZNK7WebCore8Document12ownerElementEv
__ZN7WebCore8Document18minimumLayoutDelayEv
__ZNK7WebCore16CSSStyleSelector24canShareStyleWithElementEPNS_4NodeE
__ZNK7WebCore16CSSStyleSelector16locateCousinListEPNS_7ElementERj
__ZN7WebCoreL12compareRulesEPKNS_8RuleDataES2_
__ZNK7WebCore19ApplyPropertyLengthILNS_10LengthAutoE1ELNS_15LengthIntrinsicE0ELNS_18LengthMinIntrinsicE0ELNS_10LengthNoneE0ELNS_15LengthUndefinedE0EE10applyValueEPNS_16CSSStyleSelectorEPNS_8CSSValueE
__ZNK7WebCore17CSSPrimitiveValue8getIdentEv
__ZN7WebCore17CSSPrimitiveValue12isQuirkValueEv
__ZN7WebCore17CSSPrimitiveValue25computeLengthIntForLengthEPNS_11RenderStyleES2_d
__ZN7WebCore17CSSPrimitiveValue19computeLengthDoubleEPNS_11RenderStyleES2_db
__ZN7WebCore11RenderStyle12setMarginTopENS_6LengthE
__ZN7WebCore7DataRefINS_17StyleSurroundDataEE6accessEv
__ZN7WebCore17StyleSurroundDataC1ERKS0_
__ZN7WebCore10BorderDataC1ERKS0_
__ZN7WebCore11RenderStyle14setMarginRightENS_6LengthE
__ZN7WebCore11RenderStyle15setMarginBottomENS_6LengthE
__ZN7WebCore11RenderStyle13setMarginLeftENS_6LengthE
__ZNK7WebCore12RenderObject14isChildAllowedEPS0_PNS_11RenderStyleE
__ZN7WebCore12RenderObject7repaintEb
__ZNK7WebCore10RenderView8printingEv
__ZNK7WebCore10RenderView15usesCompositingEv
__ZN7WebCore9RenderBox29clippedOverflowRectForRepaintEPNS_20RenderBoxModelObjectE
__ZN7WebCore10RenderView21computeRectForRepaintEPNS_20RenderBoxModelObjectERNS_7IntRectEb
__ZN7WebCore12RenderObject21repaintUsingContainerEPNS_20RenderBoxModelObjectERKNS_7IntRectEb
__ZN7WebCore10RenderView20repaintViewRectangleERKNS_7IntRectEb
__ZN7WebCore16HTMLElementStack19pushHTMLBodyElementEN3WTF10PassRefPtrINS_7ElementEEE
__ZN7WebCore20HTMLConstructionSite38reconstructTheActiveFormattingElementsEv
__ZN7WebCore20HTMLConstructionSite14insertTextNodeERKN3WTF6StringE
__ZN7WebCore4Text21createWithLengthLimitEPNS_8DocumentERKN3WTF6StringEjj
__ZN7WebCore20HTMLConstructionSite12attachAtSiteERKNS0_14AttachmentSiteEN3WTF10PassRefPtrINS_4NodeEEE
__ZN7WebCore4Text6attachEv
__ZN7WebCore4Text16rendererIsNeededEPNS_11RenderStyleE
__ZN7WebCore13CharacterData16rendererIsNeededEPNS_11RenderStyleE
__ZNK7WebCore13CharacterData22containsOnlyWhitespaceEv
__ZN7WebCore4Text14createRendererEPNS_11RenderArenaEPNS_11RenderStyleE
__ZN7WebCore10RenderTextC1EPNS_4NodeEN3WTF10PassRefPtrINS3_10StringImplEEE
__ZN7WebCore10RenderTextC2EPNS_4NodeEN3WTF10PassRefPtrINS3_10StringImplEEE
__ZN7WebCore10RenderText15styleWillChangeENS_15StyleDifferenceEPKNS_11RenderStyleE
__ZN7WebCore10RenderText14styleDidChangeENS_15StyleDifferenceEPKNS_11RenderStyleE
__ZNK7WebCore12TextEncoding25backslashAsCurrencySymbolEv
__ZNK7WebCore12RenderObject13isRenderBlockEv
__ZNK7WebCore12RenderObject15virtualChildrenEv
__ZN7WebCore11RenderBlock26dirtyLinesFromChangedChildEPNS_12RenderObjectE
__ZN7WebCore17RenderLineBoxList26dirtyLinesFromChangedChildEPNS_12RenderObjectES2_
__ZN7WebCore14DocumentParser20prepareToStopParsingEv
__ZN7WebCore16HTMLScriptRunner31executeScriptsWaitingForParsingEv
__ZN7WebCore15HTMLTreeBuilder8finishedEv
__ZN7WebCore8Document15finishedParsingEv
__ZN7WebCore8Document19updateStyleIfNeededEv
__ZN7WebCore11FrameLoader15finishedParsingEv
__ZN7WebCore24InspectorInstrumentation30domContentLoadedEventFiredImplEPNS_19InstrumentingAgentsEPNS_5FrameERKNS_4KURLE
__ZNK7WebCore14DocumentLoader10requestURLEv
__ZN7WebCore8Document13cancelParsingEv
__ZN7WebCore18HTMLDocumentParser6detachEv
__ZN7WebCore14DocumentParser6detachEv
__ZN7WebCore16HTMLScriptRunner6detachEv
__ZN7WebCore15HTMLTreeBuilder6detachEv
__ZN7WebCore20HTMLConstructionSite6detachEv
__ZN7WebCore19HTMLParserSchedulerD1Ev
__ZN7WebCore9TimerBaseD2Ev
__ZN7WebCore18HTMLDocumentParserD0Ev
__ZN7WebCore9XSSFilterD1Ev
__ZN7WebCore17HTMLSourceTrackerD1Ev
__ZN7WebCore15HTMLTreeBuilderD1Ev
__ZN7WebCore20HTMLConstructionSiteD1Ev
__ZN7WebCore25HTMLFormattingElementListD1Ev
__ZN7WebCore16HTMLElementStackD1Ev
__ZN7WebCore16HTMLElementStack13ElementRecordD1Ev
__ZN7WebCore16HTMLScriptRunnerD1Ev
__ZN7WebCore16HTMLScriptRunnerD2Ev
__ZNK7WebCore13PendingScript12cachedScriptEv
__ZN3WTF5DequeIN7WebCore13PendingScriptELm0EED1Ev
__ZN7WebCore13PendingScriptD1Ev
__ZN7WebCore13PendingScriptD2Ev
__ZN7WebCore13HTMLTokenizerD1Ev
__ZN7WebCore9HTMLTokenD1Ev
__ZN7WebCore14DocumentParserD2Ev
__ZN7WebCore8Document13explicitCloseEv
__ZNK7WebCore11FrameLoader20activeDocumentLoaderEv
__ZN7WebCore11FrameLoader14checkCompletedEv
__ZN7WebCore9FrameView33checkStopDelayingDeferredRepaintsEv
__ZN7WebCore8Document13implicitCloseEv
__ZN7WebCore19NavigationScheduler10startTimerEv
__ZN7WebCore11FrameLoader9completedEv
__ZN7WebCore9FrameView30maintainScrollPositionAtAnchorEPNS_4NodeE
__ZN7WebCore11FrameLoader26recursiveCheckLoadCompleteEv
__ZN7WebCore11FrameLoader29checkLoadCompleteForThisFrameEv
__ZNK7WebCore14DocumentLoader19isLoadingInAPISenseEv
__ZNK7WebCore11FrameLoader17subframeIsLoadingEv
__ZN7WebCore11FrameLoader18frameLoadCompletedEv
__ZN7WebCore17HistoryController27updateForFrameLoadCompletedEv
__ZNK7WebCore23FrameLoaderStateMachine30committedFirstRealDocumentLoadEv
__ZN7WebCore14DocumentLoader22stopRecordingResponsesEv
__ZN7WebCore5Frame25setPageAndTextZoomFactorsEff
__ZN7WebCore12SchedulePairC1EP9NSRunLoopPK10__CFString
__ZN7WebCore12SchedulePairC2EP9NSRunLoopPK10__CFString
__ZN7WebCore4Page15addSchedulePairEN3WTF10PassRefPtrINS_12SchedulePairEEE
__ZN7WebCore16SchedulePairHash4hashERKN3WTF6RefPtrINS_12SchedulePairEEE
__ZN7WebCore14DocumentLoader8scheduleEPNS_12SchedulePairE
__ZN7WebCoreL11scheduleAllERKN3WTF7HashSetINS0_6RefPtrINS_14ResourceLoaderEEENS0_7PtrHashIS4_EENS0_10HashTraitsIS4_EEEEPNS_12SchedulePairE
__ZN3WTF10RefCountedIN7WebCore12SchedulePairEE5derefEv
__ZN7WebCore4Page12setGroupNameERKN3WTF6StringE
__ZN7WebCore9PageGroupD1Ev
__ZN7WebCore9PageGroupD2Ev
__ZN7WebCore9PageGroup20removeAllUserContentEv
__ZN3WTF6OwnPtrINS_7HashMapINS_6RefPtrIN7WebCore15DOMWrapperWorldEEEPNS_6VectorINS0_INS3_14UserStyleSheetEEELm0EEENS_7PtrHashIS5_EENS_10HashTraitsIS5_EENSD_ISA_EEEEED1Ev
__ZN3WTF6OwnPtrINS_7HashMapINS_6RefPtrIN7WebCore15DOMWrapperWorldEEEPNS_6VectorINS0_INS3_10UserScriptEEELm0EEENS_7PtrHashIS5_EENS_10HashTraitsIS5_EENSD_ISA_EEEEED1Ev
__ZN7WebCore9PageGroup9pageGroupERKN3WTF6StringE
__ZN7WebCore9PageGroup7addPageEPNS_4PageE
__ZN7WebCore8Settings20setCursiveFontFamilyERKN3WTF12AtomicStringE
__ZN7WebCore4Page30setNeedsRecalcStyleInAllFramesEv
__ZN7WebCore8Document20styleSelectorChangedENS_23StyleSelectorUpdateFlagE
__ZN7WebCore8Document19recalcStyleSelectorEv
__ZN7WebCore16CSSStyleSelectorD1Ev
__ZN7WebCore16CSSStyleSelectorD2Ev
__ZN7WebCore9FillLayerD1Ev
__ZN7WebCore8Document19scheduleStyleRecalcEv
__ZN3WTF9HashTableIPN7WebCore8DocumentES3_NS_17IdentityExtractorIS3_EENS_7PtrHashIS3_EENS_10HashTraitsIS3_EES9_E3addIS3_S3_NS_22IdentityHashTranslatorIS3_S3_S7_EEEESt4pairINS_17HashTableIteratorIS3_S3_S5_S7_S9_S9_EEbERKT_RKT0_
__ZN3WTF9HashTableIPN7WebCore8DocumentES3_NS_17IdentityExtractorIS3_EENS_7PtrHashIS3_EENS_10HashTraitsIS3_EES9_E6expandEv
__ZN7WebCore8Settings23setDefaultFixedFontSizeEi
__ZN7WebCore8Settings18setDefaultFontSizeEi
__ZN7WebCore8Settings20setFantasyFontFamilyERKN3WTF12AtomicStringE
__ZN7WebCore8Settings18setFixedFontFamilyERKN3WTF12AtomicStringE
__ZN7WebCore8Settings14setJavaEnabledEb
__ZN7WebCore8Settings20setJavaScriptEnabledEb
__ZN7WebCore8Settings18setMinimumFontSizeEi
__ZN7WebCore8Settings25setMinimumLogicalFontSizeEi
__ZN7WebCore8Settings17setPluginsEnabledEb
__ZN7WebCore15DatabaseBackend14setIsAvailableEb
__ZN7WebCore8Settings25setPrivateBrowsingEnabledEb
__ZN7WebCore8Settings22setSansSerifFontFamilyERKN3WTF12AtomicStringE
__ZN7WebCore8Settings18setSerifFontFamilyERKN3WTF12AtomicStringE
__ZN7WebCore8Settings21setStandardFontFamilyERKN3WTF12AtomicStringE
__ZN7WebCore8Settings27setLoadsImagesAutomaticallyEb
__ZN7WebCore8Settings24setUsesOverlayScrollbarsEb
__ZN7WebCore8Settings24setTextAreasAreResizableEb
__ZN7WebCore8Settings16setUsesPageCacheEb
__ZN7WebCore8Settings29setAuthorAndUserStylesEnabledEb
__ZN7WebCore8Settings25setUserStyleSheetLocationERKNS_4KURLE
__ZN7WebCore4Page29userStyleSheetLocationChangedEv
__ZNK7WebCore4KURL10protocolIsEPKc
__ZN7WebCore8Document19updatePageUserSheetEv
__ZN7WebCore8Settings32setNeedsAdobeFrameReloadingQuirkEb
__ZN7WebCore8Settings23setNeedsTigerMailQuirksEb
__ZN7WebCore8Settings24setDNSPrefetchingEnabledEb
__ZN7WebCore8Settings32setAcceleratedCompositingEnabledEb
__ZN7WebCore8Settings28setAcceleratedDrawingEnabledEb
__ZN7WebCore8Settings19setShowDebugBordersEb
__ZN7WebCore8Settings21setShowRepaintCounterEb
__ZN7WebCore8Settings23setPluginAllowedRunTimeEj
__ZN7WebCore4Page27pluginAllowedRunTimeChangedEv
__ZN7WebCore27applicationIsAdobeInstallerEv
__ZN7WebCoreL19mainBundleIsEqualToERKN3WTF6StringE
__ZN7WebCore22applicationIsAppleMailEv
__ZN7WebCore23ApplicationCacheStorage21setDefaultOriginQuotaEx
__ZN7WebCore4Page11PageClientsD1Ev
__ZNK7WebCore4Page15backForwardListEv
__ZN7WebCore19BackForwardListImpl10setEnabledEb
__ZN7WebCore27DeviceOrientationClientMockC1Ev
__ZN7WebCore14SchemeRegistry24registerURLSchemeAsLocalERKN3WTF6StringE
__ZN7WebCoreL15localURLSchemesEv
__ZN7WebCore8Document28takeAnyMediaCanStartListenerEv
__ZN7WebCore4Page15didMoveOnscreenEv
__ZN7WebCore9FrameView15didMoveOnscreenEv
__ZN7WebCore21RenderLayerCompositor15didMoveOnscreenEv
__ZNK7WebCore17ScrollAnimatorMac18contentAreaDidShowEv
-[ScrollbarPainterControllerDelegate scrollerImpPair:setContentAreaNeedsDisplayInRect:]
__ZN7WebCore15FocusController9setActiveEb
__ZN7WebCore14FrameSelection21pageActivationChangedEv
__ZN7WebCore14FrameSelection27focusedOrActiveStateChangedEv
__ZNK7WebCore14FrameSelection6boundsEb
__ZNK7WebCore10RenderView15selectionBoundsEb
__ZNK3WTF9HashTableINS_12AtomicStringESt4pairIS1_N7WebCore14FontTranscoder13ConverterTypeEENS_18PairFirstExtractorIS6_EENS_16AtomicStringHashENS_14PairHashTraitsINS_10HashTraitsIS1_EENSB_IS5_EEEESC_E4findIS1_NS_22IdentityHashTranslatorIS1_S6_S9_EEEENS_22HashTableConstIteratorIS1_S6_S8_S9_SE_SC_EERKT_
__ZNK7WebCore25StyleRareNonInheritedData21contentDataEquivalentERKS0_
__ZNK7WebCore11RenderStyleeqERKS0_
__ZNK7WebCore11RenderStyle14InheritedFlagseqERKS1_
__ZNK7WebCore11RenderStyle17NonInheritedFlagseqERKS1_
__ZNK7WebCore18StyleInheritedDataeqERKS0_
__ZNK7WebCore4FonteqERKS0_
__ZNK7WebCore11RenderStyle17inheritedNotEqualEPKS0_
__ZNK7WebCore11RenderStyle4diffEPKS0_Rj
__ZNK7WebCore9LengthBoxeqERKS0_
__ZNK7WebCore19TransformOperationseqERKS0_
__ZNK7WebCore11RenderStyle13logicalHeightEv
__ZNK7WebCore11RenderStyle16logicalMinHeightEv
__ZNK7WebCore11RenderStyle16logicalMaxHeightEv
__ZN7WebCore7Element11recalcStyleENS_4Node11StyleChangeE
__ZNK7WebCore12StyleBoxDataeqERKS0_
__ZN7WebCore4Node14setRenderStyleEN3WTF10PassRefPtrINS_11RenderStyleEEE
__ZN7WebCore13RenderCounter20rendererStyleChangedEPNS_12RenderObjectEPKNS_11RenderStyleES5_
__ZN7WebCore12RenderObject33setNeedsLayoutAndPrefWidthsRecalcEv
__ZN7WebCore7Element6detachEv
__ZN7WebCore7Element27cancelFocusAppearanceUpdateEv
__ZN7WebCore13ContainerNode6detachEv
__ZN7WebCore4Node6detachEv
__ZNK7WebCore17StyleSurroundDataeqERKS0_
__ZNK7WebCore10BorderDataeqERKS0_
__ZNK7WebCore14NinePieceImageeqERKS0_
__ZNK7WebCore10LengthSizeeqERKS0_
__ZN7WebCore4Text11recalcStyleENS_4Node11StyleChangeE
__ZN7WebCore18StyleInheritedDataD1Ev
__ZN7WebCore15CSSFontSelectorD0Ev
__ZN7WebCore9FontCache12removeClientEPNS_12FontSelectorE
__ZNK3WTF9HashTableIPN7WebCore12FontSelectorES3_NS_17IdentityExtractorIS3_EENS_7PtrHashIS3_EENS_10HashTraitsIS3_EES9_E4findIS3_NS_22IdentityHashTranslatorIS3_S3_S7_EEEENS_22HashTableConstIteratorIS3_S3_S5_S7_S9_S9_EERKT_
__ZN3WTF9HashTableIPN7WebCore12FontSelectorES3_NS_17IdentityExtractorIS3_EENS_7PtrHashIS3_EENS_10HashTraitsIS3_EES9_E6removeEPS3_
__ZN3WTF20deleteAllPairSecondsIPNS_6VectorINS_6RefPtrIN7WebCore11CSSFontFaceEEELm0EEEKNS_7HashMapINS_6StringES7_NS_15CaseFoldingHashENS_10HashTraitsIS9_EENSB_IS7_EEEEEEvRT0_
__ZN3WTF20deleteAllPairSecondsIPNS_7HashMapIjNS_6RefPtrIN7WebCore20CSSSegmentedFontFaceEEENS_7IntHashIjEENS_10HashTraitsIjEENS8_IS5_EEEEKNS1_INS_6StringESC_NS_15CaseFoldingHashENS8_ISD_EENS8_ISC_EEEEEEvRT0_
__ZNK3WTF9HashTableIPN7WebCore8DocumentES3_NS_17IdentityExtractorIS3_EENS_7PtrHashIS3_EENS_10HashTraitsIS3_EES9_E4findIS3_NS_22IdentityHashTranslatorIS3_S3_S7_EEEENS_22HashTableConstIteratorIS3_S3_S5_S7_S9_S9_EERKT_
__ZN3WTF9HashTableIPN7WebCore8DocumentES3_NS_17IdentityExtractorIS3_EENS_7PtrHashIS3_EENS_10HashTraitsIS3_EES9_E6removeEPS3_
__ZN7WebCore19AnimationController18endAnimationUpdateEv
__ZN7WebCore26AnimationControllerPrivate14styleAvailableEv
__ZN7WebCore26AnimationControllerPrivate17startTimeResponseEd
__ZNK7WebCore10ScrollView18visibleContentRectEb
__ZNK7WebCore10ScrollView26platformVisibleContentRectEb
__ZN7WebCore7IntRect9intersectERKS0_
__ZN7WebCore9FloatRectC1ERKNS_7IntRectE
__ZN7WebCore10FloatPointC1ERKNS_8IntPointE
__ZN7WebCore9FloatSizeC1ERKNS_7IntSizeE
__ZN7WebCore16enclosingIntRectERKNS_9FloatRectE
__ZN7WebCore10RenderView41repaintRectangleInViewAndCompositedLayersERKNS_7IntRectEb
__ZN7WebCore12EventHandler27capsLockStateMayHaveChangedEv
__ZNK7WebCore6Editor7canEditEv
__ZNK7WebCore16VisibleSelection19rootEditableElementEv
__ZN7WebCore23editableRootForPositionERKNS_8PositionE
__ZNK7WebCore14FrameSelection17isInPasswordFieldEv
__ZNK7WebCore8Position13containerNodeEv
__ZN7WebCore15FocusController15setFocusedFrameEN3WTF10PassRefPtrINS_5FrameEEE
__ZNK7WebCore6Chrome19focusedFrameChangedEPNS_5FrameE
__ZN7WebCore15FocusController10setFocusedEb
__ZN7WebCore14FrameSelection10setFocusedEb
__ZN7WebCore14FrameSelection20setSelectionFromNoneEv
__ZNK7WebCore4Node18rendererIsEditableENS0_13EditableLevelE
__ZN7WebCore14FrameSelection19invalidateCaretRectEv
__ZN7WebCore14FrameSelection16updateAppearanceEv
__ZN7WebCore14FrameSelection18recomputeCaretRectEv
__ZN7WebCore14FrameSelection14localCaretRectEv
__ZNK7WebCore9CaretBase26absoluteBoundsForLocalRectEPNS_4NodeERKNS_7IntRectE
__ZN7WebCore16VisibleSelectionC2ERKS0_
__ZN7WebCore10RenderView14clearSelectionEv
__ZN7WebCore11RenderLayer25repaintBlockSelectionGapsEv
__ZN7WebCore10RenderView12setSelectionEPNS_12RenderObjectEiS2_iNS0_20SelectionRepaintModeE
__ZN7WebCore16VisibleSelectionD1Ev
__ZN7WebCoreL36dispatchEventsOnWindowAndFocusedNodeEPNS_8DocumentEb
__ZN7WebCore8Document19dispatchWindowEventEN3WTF10PassRefPtrINS_5EventEEENS2_INS_11EventTargetEEE
__ZN7WebCore9DOMWindow13dispatchEventEN3WTF10PassRefPtrINS_5EventEEENS2_INS_11EventTargetEEE
__ZN7WebCore9DOMWindow14refEventTargetEv
__ZN7WebCore9DOMWindow16derefEventTargetEv
__ZN7WebCore8Document14setFocusedNodeEN3WTF10PassRefPtrINS_4NodeEEE
__ZN7WebCore15FocusController15setInitialFocusENS_14FocusDirectionEPNS_13KeyboardEventE
__ZN7WebCore15FocusController27advanceFocusInDocumentOrderENS_14FocusDirectionEPNS_13KeyboardEventEb
__ZN7WebCore8Document36updateLayoutIgnorePendingStylesheetsEv
__ZN7WebCore8Document12updateLayoutEv
__ZN7WebCore9FrameView6layoutEb
__ZNK7WebCore16CSSStyleSelector24affectedByViewportChangeEv
__ZN7WebCore9FrameView32calculateScrollbarModesForLayoutERNS_13ScrollbarModeES2_
__ZN7WebCore10ScrollView23setScrollbarsSuppressedEbb
__ZN7WebCore10ScrollView31platformSetScrollbarsSuppressedEb
__ZNK7WebCore6Widget9frameRectEv
__ZN7WebCore10ScrollView25platformSetScrollbarModesEv
__ZNK7WebCore10ScrollView12layoutHeightEv
__ZNK7WebCore10ScrollView13visibleHeightEv
__ZNK7WebCore10ScrollView11layoutWidthEv
__ZNK7WebCore10ScrollView12visibleWidthEv
__ZNK7WebCore4Node9renderBoxEv
__ZNK7WebCore9RenderBox19stretchesToViewportEv
__ZN7WebCore10RenderView6layoutEv
__ZNK7WebCore10ScrollView14useFixedLayoutEv
__ZN7WebCore11RenderBlock6layoutEv
__ZN7WebCore11RenderBlock17updateFirstLetterEv
__ZN7WebCore11RenderBlock11layoutBlockEbi
__ZN7WebCore11RenderBlock16simplifiedLayoutEv
__ZN7WebCore12RenderObject15LayoutRepainterC2ERS0_bPKNS_7IntRectE
__ZNK7WebCore9RenderBox19contentLogicalWidthEv
__ZNK7WebCore9RenderBox11clientWidthEv
__ZNK7WebCore20RenderBoxModelObject10borderLeftEv
__ZNK7WebCore20RenderBoxModelObject11borderRightEv
__ZNK7WebCore9RenderBox22verticalScrollbarWidthEv
__ZNK7WebCore20RenderBoxModelObject11paddingLeftEb
__ZNK7WebCore20RenderBoxModelObject12paddingRightEb
__ZN7WebCore10RenderView19computeLogicalWidthEv
__ZNK7WebCore10RenderView16viewLogicalWidthEv
__ZN7WebCore11RenderBlock15calcColumnWidthEv
__ZN7WebCore11RenderBlock29setDesiredColumnCountAndWidthEii
__ZN7WebCore11RenderBlock11clearFloatsEv
__ZN7WebCore21LayoutStateMaintainer4pushEPNS_9RenderBoxENS_7IntSizeEibPNS_10ColumnInfoE
__ZN7WebCore11RenderBlock19initMaxMarginValuesEv
__ZNK7WebCore11RenderStyle12marginBeforeEv
__ZNK7WebCore11RenderStyle11marginAfterEv
__ZN7WebCore11RenderBlock18setPaginationStrutEi
__ZN7WebCore11RenderBlock19layoutBlockChildrenEbRi
__ZNK7WebCore20RenderBoxModelObject12borderBeforeEv
__ZNK7WebCore11RenderStyle17borderBeforeWidthEv
__ZNK7WebCore20RenderBoxModelObject13paddingBeforeEb
__ZNK7WebCore11RenderStyle13paddingBeforeEv
__ZNK7WebCore20RenderBoxModelObject11borderAfterEv
__ZNK7WebCore11RenderStyle16borderAfterWidthEv
__ZNK7WebCore20RenderBoxModelObject12paddingAfterEb
__ZNK7WebCore11RenderStyle12paddingAfterEv
__ZNK7WebCore9RenderBox25horizontalScrollbarHeightEv
__ZN7WebCore11RenderBlock10MarginInfoC2EPS0_ii
__ZN7WebCore11RenderBlock26layoutSpecialExcludedChildEb
__ZNK7WebCore11RenderStyle12paddingStartEv
__ZNK7WebCore11RenderStyle10paddingEndEv
__ZN7WebCore11RenderBlock18handleSpecialChildEPNS_9RenderBoxERKNS0_10MarginInfoE
__ZN7WebCore11RenderBlock16handleRunInChildEPNS_9RenderBoxE
__ZN7WebCore11RenderBlock16layoutBlockChildEPNS_9RenderBoxERNS0_10MarginInfoERiS5_
__ZNK7WebCore9RenderBox12marginBeforeEv
__ZN7WebCore9RenderBox28computeBlockDirectionMarginsEPNS_11RenderBlockE
__ZNK7WebCore9RenderBox37containingBlockLogicalWidthForContentEv
__ZNK7WebCore12RenderObject15containingBlockEv
__ZNK7WebCore12RenderObject10isFrameSetEv
__ZNK7WebCore12RenderObject7isMediaEv
__ZNK7WebCore12RenderObject14isSVGContainerEv
__ZNK7WebCore11RenderBlock21availableLogicalWidthEv
__ZNK7WebCore11RenderStyle17marginBeforeUsingEPKS0_
__ZN7WebCore11RenderBlock23setMarginBeforeForChildEPNS_9RenderBoxEi
__ZNK7WebCore11RenderStyle16marginAfterUsingEPKS0_
__ZN7WebCore11RenderBlock22setMarginAfterForChildEPNS_9RenderBoxEi
__ZN7WebCore11RenderBlock26estimateLogicalTopPositionEPNS_9RenderBoxERKNS0_10MarginInfoE
__ZNK7WebCore11RenderBlock20marginBeforeForChildEPNS_20RenderBoxModelObjectE
__ZNK7WebCore9RenderBox9marginTopEv
__ZN7WebCore11RenderBlock13getClearDeltaEPNS_9RenderBoxEi
__ZN7WebCore9RenderBox19computeLogicalWidthEv
__ZNK7WebCore9FrameView10layoutRootEb
__ZNK7WebCore12RenderObject13isFlexibleBoxEv
__ZNK7WebCore9RenderBox27shouldComputeSizeAsReplacedEv
__ZNK7WebCore11RenderStyle12logicalWidthEv
__ZN7WebCore9RenderBox24computeLogicalWidthUsingENS_16SizeTypeEi
__ZNK7WebCore11RenderStyle11marginStartEv
__ZNK7WebCore11RenderStyle9marginEndEv
__ZNK7WebCore9RenderBox28sizesToIntrinsicLogicalWidthENS_16SizeTypeE
__ZNK7WebCore11RenderBlock26isInlineBlockOrInlineTableEv
__ZNK7WebCore11RenderStyle15logicalMaxWidthEv
__ZNK7WebCore11RenderStyle15logicalMinWidthEv
__ZNK7WebCore9RenderBox28computeBorderBoxLogicalWidthEi
__ZNK7WebCore20RenderBoxModelObject11borderStartEv
__ZNK7WebCore11RenderStyle16borderStartWidthEv
__ZNK7WebCore20RenderBoxModelObject9borderEndEv
__ZNK7WebCore11RenderStyle14borderEndWidthEv
__ZNK7WebCore20RenderBoxModelObject12paddingStartEb
__ZNK7WebCore20RenderBoxModelObject10paddingEndEb
__ZNK7WebCore9RenderBox11marginStartEv
__ZNK7WebCore9RenderBox9marginEndEv
__ZN7WebCore11RenderBlock20layoutInlineChildrenEbRiS1_
__ZN7WebCore17RenderLineBoxList15deleteLineBoxesEPNS_11RenderArenaE
__ZNK7WebCore12RenderObject14isRenderInlineEv
__ZNK7WebCore12RenderObject9isCounterEv
__ZN7WebCore10RenderText14dirtyLineBoxesEb
__ZN7WebCoreL8bidiNextEPNS_12RenderObjectES1_PNS_12BidiResolverINS_14InlineIteratorENS_7BidiRunEEEbPb
__ZN7WebCore11RenderBlock19layoutRunsAndFloatsERNS_15LineLayoutStateEbRN3WTF6VectorINS0_13FloatWithRectELm0EEE
__ZN7WebCore11RenderBlock22determineStartPositionERNS_15LineLayoutStateERNS_8LineInfoERNS_12BidiResolverINS_14InlineIteratorENS_7BidiRunEEERN3WTF6VectorINS0_13FloatWithRectELm0EEERjRb
__ZN7WebCore10BidiStatusC2ENS_13TextDirectionEb
__ZN7WebCore11BidiContext6createEhN3WTF7Unicode9DirectionEbNS_19BidiEmbeddingSourceEPS0_
__ZN7WebCore12BidiResolverINS_14InlineIteratorENS_7BidiRunEE23commitExplicitEmbeddingEv
__ZN3WTF6VectorIN7WebCore13BidiEmbeddingELm8EE14shrinkCapacityEm
__ZN7WebCore11RenderBlock11LineBreaker13nextLineBreakERNS_12BidiResolverINS_14InlineIteratorENS_7BidiRunEEERNS_8LineInfoERSt4pairIPNS_10RenderTextENS_21LazyLineBreakIteratorEEPNS0_14FloatingObjectE
__ZNK7WebCore11RenderBlock24logicalLeftOffsetForLineEib
__ZNK7WebCore11RenderBlock24logicalLeftOffsetForLineEiibPi
__ZNK7WebCore11RenderBlock28logicalRightOffsetForContentEv
__ZNK7WebCore11RenderBlock25logicalRightOffsetForLineEiibPi
__ZN7WebCore11RenderBlock11LineBreaker21skipLeadingWhitespaceERNS_12BidiResolverINS_14InlineIteratorENS_7BidiRunEEERKNS_8LineInfoEPNS0_14FloatingObjectERNS_9LineWidthE
__ZN7WebCoreL15requiresLineBoxERKNS_14InlineIteratorERKNS_8LineInfoE
__ZNK7WebCore12RenderObject4isBREv
__ZNK7WebCore12RenderObject15isSVGInlineTextEv
__ZNK7WebCore16FontFallbackList14determinePitchEPKNS_4FontE
__ZN7WebCore9FontCache11getFontDataERKNS_4FontERiPNS_12FontSelectorE
__ZN7WebCore15CSSFontSelector11getFontDataERKNS_15FontDescriptionERKN3WTF12AtomicStringE
__ZN7WebCore9FontCache25getCachedFontPlatformDataERKNS_15FontDescriptionERKN3WTF12AtomicStringEb
__ZN7WebCore9FontCache12platformInitEv
__ZN7WebCore9FontCache22createFontPlatformDataERKNS_15FontDescriptionERKN3WTF12AtomicStringE
+[WebFontCache fontWithFamily:traits:weight:size:]
+[WebFontCache internalFontWithFamily:traits:weight:size:]
__ZN7WebCore11computeHashERKNS_24FontPlatformDataCacheKeyE
__ZN7WebCore24FontPlatformDataCacheKeyaSERKS0_
__ZNK7WebCore14SimpleFontData9isLoadingEv
__ZN7WebCoreL18inlineLogicalWidthEPNS_12RenderObjectEbb
__ZNK7WebCore10RenderText11isWordBreakEv
__ZN3WTF6VectorIPN7WebCore9RenderBoxELm4EE14shrinkCapacityEm
__ZNK7WebCore10RenderText5widthEjjRKNS_4FontEfPN3WTF7HashSetIPKNS_14SimpleFontDataENS4_7PtrHashIS8_EENS4_10HashTraitsIS8_EEEEPNS_13GlyphOverflowE
__ZN7WebCore10RenderText29computePreferredLogicalWidthsEf
__ZN7WebCore10RenderText29computePreferredLogicalWidthsEfRN3WTF7HashSetIPKNS_14SimpleFontDataENS1_7PtrHashIS5_EENS1_10HashTraitsIS5_EEEERNS_13GlyphOverflowE
__ZN7WebCore21nextBreakablePositionERNS_21LazyLineBreakIteratorEib
__ZN7WebCore15TrailingObjects31updateMidpointsForTrailingBoxesERNS_13MidpointStateINS_14InlineIteratorEEERKS2_NS0_23CollapseFirstSpaceOrNotE
__ZN7WebCore12BidiResolverINS_14InlineIteratorENS_7BidiRunEE21createBidiRunsForLineERKS1_NS_23VisualDirectionOverrideEb
__ZN7WebCore12BidiResolverINS_14InlineIteratorENS_7BidiRunEE9appendRunEv
__ZNK7WebCore10RenderText6lengthEv
__ZN7WebCore11RenderBlock19appendRunsForObjectERNS_11BidiRunListINS_7BidiRunEEEiiPNS_12RenderObjectERNS_12BidiResolverINS_14InlineIteratorES2_EE
__ZN7WebCore7BidiRunnwEmPNS_11RenderArenaE
__ZN7WebCore12BidiResolverINS_14InlineIteratorENS_7BidiRunEE21reorderRunsFromLevelsEv
__ZN7WebCore12BidiResolverINS_14InlineIteratorENS_7BidiRunEED1Ev
__ZN7WebCore11RenderBlock20handleTrailingSpacesERNS_11BidiRunListINS_7BidiRunEEEPNS_11BidiContextE
__ZN7WebCore11RenderBlock27createLineBoxesFromBidiRunsERNS_11BidiRunListINS_7BidiRunEEERKNS_14InlineIteratorERNS_8LineInfoERNS_21VerticalPositionCacheEPS2_
__ZN7WebCore11RenderBlock13constructLineERNS_11BidiRunListINS_7BidiRunEEERKNS_8LineInfoE
__ZN7WebCore10RenderText19createInlineTextBoxEv
__ZN7WebCore10RenderText13createTextBoxEv
__ZN7WebCore9InlineBoxnwEmPNS_11RenderArenaE
__ZN7WebCore11RenderBlock15createLineBoxesEPNS_12RenderObjectERKNS_8LineInfoEPNS_9InlineBoxE
__ZN7WebCore11RenderBlock28createAndAppendRootInlineBoxEv
__ZN7WebCore11RenderBlock19createRootInlineBoxEv
__ZN7WebCore13RootInlineBoxC1EPNS_11RenderBlockE
__ZN7WebCore17RenderLineBoxList13appendLineBoxEPNS_13InlineFlowBoxE
__ZN7WebCore13InlineFlowBox9addToLineEPNS_9InlineBoxE
__ZNK7WebCore11RenderStyle16textEmphasisMarkEv
__ZNK7WebCore9InlineBox15isInlineFlowBoxEv
__ZNK7WebCore13InlineTextBox15isInlineTextBoxEv
__ZN7WebCore13InlineFlowBox28determineSpacingForFlowBoxesEbbPNS_12RenderObjectE
__ZN7WebCore13InlineFlowBox14setConstructedEv
__ZN7WebCore9InlineBox14setConstructedEv
__ZNK7WebCore9InlineBox18isSVGRootInlineBoxEv
__ZN7WebCore11RenderBlock38computeInlineDirectionPositionsForLineEPNS_13RootInlineBoxERKNS_8LineInfoEPNS_7BidiRunES7_bRN3WTF7HashMapIPKNS_13InlineTextBoxESt4pairINS8_6VectorIPKNS_14SimpleFontDataELm0EEENS_13GlyphOverflowEENS8_7PtrHashISC_EENS8_10HashTraitsISC_EENSN_ISK_EEEERNS_21VerticalPositionCacheE
__ZNK7WebCore11RenderBlock20textAlignmentForLineEb
__ZN7WebCore13InlineFlowBox26getFlowSpacingLogicalWidthEv
__ZNK7WebCore13InlineFlowBox30marginBorderPaddingLogicalLeftEv
__ZNK7WebCore13InlineFlowBox31marginBorderPaddingLogicalRightEv
__ZNK7WebCore13InlineTextBox11isLineBreakEv
__ZNK7WebCore13RootInlineBox12fitsToGlyphsEv
__ZNK7WebCore10RenderText5widthEjjfbPN3WTF7HashSetIPKNS_14SimpleFontDataENS1_7PtrHashIS5_EENS1_10HashTraitsIS5_EEEEPNS_13GlyphOverflowE
__ZN7WebCore13InlineFlowBox27placeBoxesInInlineDirectionEfRbRN3WTF7HashMapIPKNS_13InlineTextBoxESt4pairINS2_6VectorIPKNS_14SimpleFontDataELm0EEENS_13GlyphOverflowEENS2_7PtrHashIS6_EENS2_10HashTraitsIS6_EENSH_ISE_EEEE
__ZN7WebCore11RenderBlock37computeBlockDirectionPositionsForLineEPNS_13RootInlineBoxEPNS_7BidiRunERN3WTF7HashMapIPKNS_13InlineTextBoxESt4pairINS5_6VectorIPKNS_14SimpleFontDataELm0EEENS_13GlyphOverflowEENS5_7PtrHashIS9_EENS5_10HashTraitsIS9_EENSK_ISH_EEEERNS_21VerticalPositionCacheE
__ZN7WebCore13RootInlineBox26alignBoxesInBlockDirectionEiRN3WTF7HashMapIPKNS_13InlineTextBoxESt4pairINS1_6VectorIPKNS_14SimpleFontDataELm0EEENS_13GlyphOverflowEENS1_7PtrHashIS5_EENS1_10HashTraitsIS5_EENSG_ISD_EEEERNS_21VerticalPositionCacheE
__ZNK7WebCore13InlineFlowBox27requiresIdeographicBaselineERKN3WTF7HashMapIPKNS_13InlineTextBoxESt4pairINS1_6VectorIPKNS_14SimpleFontDataELm0EEENS_13GlyphOverflowEENS1_7PtrHashIS5_EENS1_10HashTraitsIS5_EENSG_ISD_EEEE
__ZN7WebCore13InlineFlowBox24computeLogicalBoxHeightsEPNS_13RootInlineBoxERiS3_S3_S3_RbS4_bRN3WTF7HashMapIPKNS_13InlineTextBoxESt4pairINS5_6VectorIPKNS_14SimpleFontDataELm0EEENS_13GlyphOverflowEENS5_7PtrHashIS9_EENS5_10HashTraitsIS9_EENSK_ISH_EEEENS_12FontBaselineERNS_21VerticalPositionCacheE
__ZNK7WebCore13RootInlineBox15isRootInlineBoxEv
__ZNK7WebCore13RootInlineBox22ascentAndDescentForBoxEPNS_9InlineBoxERN3WTF7HashMapIPKNS_13InlineTextBoxESt4pairINS3_6VectorIPKNS_14SimpleFontDataELm0EEENS_13GlyphOverflowEENS3_7PtrHashIS7_EENS3_10HashTraitsIS7_EENSI_ISF_EEEERiSN_RbSO_
__ZNK7WebCore13RootInlineBox17includeFontForBoxEPNS_9InlineBoxE
__ZNK7WebCore13InlineFlowBox15isInlineFlowBoxEv
__ZNK7WebCore13RootInlineBox16baselinePositionENS_12FontBaselineE
__ZNK7WebCore11RenderBlock16baselinePositionENS_12FontBaselineEbNS_17LineDirectionModeENS_16LinePositionModeE
__ZNK7WebCore11RenderBlock10lineHeightEbNS_17LineDirectionModeENS_16LinePositionModeE
__ZNK7WebCore11RenderStyle18computedLineHeightEv
__ZNK7WebCore11FontMetrics6heightENS_12FontBaselineE
__ZNK7WebCore13RootInlineBox10lineHeightEv
__ZN7WebCore13InlineFlowBox26placeBoxesInBlockDirectionEiiibRiS1_RbS1_S1_S2_S2_NS_12FontBaselineE
__ZN7WebCore9InlineBox14adjustPositionEff
__ZNK7WebCore9InlineBox13logicalHeightEv
__ZNK7WebCore13RootInlineBox27beforeAnnotationsAdjustmentEv
__ZN7WebCore10RenderText15positionLineBoxEPNS_9InlineBoxE
__ZN7WebCore13InlineFlowBox15computeOverflowEiiRN3WTF7HashMapIPKNS_13InlineTextBoxESt4pairINS1_6VectorIPKNS_14SimpleFontDataELm0EEENS_13GlyphOverflowEENS1_7PtrHashIS5_EENS1_10HashTraitsIS5_EENSG_ISD_EEEE
__ZN7WebCore7BidiRun7destroyEv
__ZN7WebCore11RenderArena4freeEmPv
__ZN7WebCore13RootInlineBox16setLineBreakInfoEPNS_12RenderObjectEjRKNS_10BidiStatusE
__ZN7WebCore11RenderBlock7newLineENS_6EClearE
__ZN7WebCore11RenderBlock17positionNewFloatsEv
__ZNK7WebCore13InlineFlowBox32computeUnderAnnotationAdjustmentEi
__ZN7WebCore11RenderBlock13layoutColumnsEbiRNS_21LayoutStateMaintainerE
__ZNK7WebCore9RenderBox12clientHeightEv
__ZNK7WebCore20RenderBoxModelObject9borderTopEv
__ZNK7WebCore20RenderBoxModelObject12borderBottomEv
__ZN7WebCore9RenderBox20computeLogicalHeightEv
__ZNK7WebCore12RenderObject7isTableEv
__ZNK7WebCore9RenderBox29computeBorderBoxLogicalHeightEi
__ZNK7WebCore11RenderBlock21collapsedMarginBeforeEv
__ZNK7WebCore11RenderBlock20collapsedMarginAfterEv
__ZNK7WebCore9RenderBox11marginAfterEv
__ZNK7WebCore10RenderView10viewHeightEv
__ZN7WebCore11RenderBlock23layoutPositionedObjectsEb
__ZN7WebCore11RenderBlock15computeOverflowEib
__ZN7WebCore11RenderBlock23addOverflowFromChildrenEv
__ZN7WebCore11RenderBlock29addOverflowFromInlineChildrenEv
__ZNK7WebCore13RootInlineBox24paddedLayoutOverflowRectEi
__ZNK7WebCore13InlineFlowBox18layoutOverflowRectEii
__ZN7WebCore9RenderBox17addLayoutOverflowERKNS_7IntRectE
__ZNK7WebCore7IntRect8containsERKS0_
__ZNK7WebCore13InlineFlowBox18visualOverflowRectEii
__ZN7WebCore9RenderBox17addVisualOverflowERKNS_7IntRectE
__ZNK7WebCore11RenderBlock33expandsToEncloseOverhangingFloatsEv
__ZNK7WebCore12RenderObject10isFieldsetEv
__ZNK7WebCore20RenderBoxModelObject20hasSelfPaintingLayerEv
__ZN7WebCore9RenderBox17addShadowOverflowEv
__ZNK7WebCore11RenderStyle15getShadowExtentEPKNS_10ShadowDataERiS4_S4_S4_
__ZN7WebCore9RenderBox20updateLayerTransformEv
__ZNK7WebCore9RenderBox14hasControlClipEv
__ZN7WebCore11RenderBlock15collapseMarginsEPNS_9RenderBoxERNS0_10MarginInfoE
__ZN7WebCore11RenderBlock20marginValuesForChildEPNS_9RenderBoxE
__ZNK7WebCore11RenderBlock21isSelfCollapsingBlockEv
__ZN7WebCore11RenderBlock19clearFloatsIfNeededEPNS_9RenderBoxERNS0_10MarginInfoEiii
__ZN7WebCore11RenderBlock36determineLogicalLeftPositionForChildEPNS_9RenderBoxE
__ZNK7WebCore11RenderBlock19marginStartForChildEPNS_20RenderBoxModelObjectE
__ZNK7WebCore9RenderBox10marginLeftEv
__ZNK7WebCore12RenderObject27checkForRepaintDuringLayoutEv
__ZN7WebCore11RenderBlock22handleAfterSideOfBlockEiiRNS0_10MarginInfoE
__ZN7WebCore11RenderBlock24setCollapsedBottomMarginERKNS0_10MarginInfoE
__ZN7WebCore9RenderBox20addOverflowFromChildEPS0_RKNS_7IntSizeE
__ZNK7WebCore9RenderBox32layoutOverflowRectForPropagationEPNS_11RenderStyleE
__ZNK7WebCore9RenderBox18layoutOverflowRectEv
__ZN7WebCore7IntRect5uniteERKS0_
__ZNK7WebCore9RenderBox32visualOverflowRectForPropagationEPNS_11RenderStyleE
__ZN7WebCore11RenderBlock21addOverflowFromFloatsEv
__ZN7WebCore10RenderView20computeLogicalHeightEv
__ZNK7WebCore10RenderView17viewLogicalHeightEv
__ZN7WebCore9FrameView14adjustViewSizeEv
__ZNK7WebCore10RenderView12documentRectEv
__ZNK7WebCore9RenderBox18flipForWritingModeERNS_7IntRectE
__ZN7WebCore10ScrollView15setScrollOriginERKNS_8IntPointEbb
__ZN7WebCore9FrameView14setNeedsLayoutEv
__ZN7WebCore9FrameView11forceLayoutEb
__ZNK7WebCore11RenderBlock29collapsedMarginBeforeForChildEPNS_9RenderBoxE
__ZN7WebCore13RootInlineBox7destroyEPNS_11RenderArenaE
__ZN7WebCore13RootInlineBox17detachEllipsisBoxEPNS_11RenderArenaE
__ZN7WebCore9InlineBox7destroyEPNS_11RenderArenaE
__ZN7WebCore13RootInlineBoxD0Ev
__ZN7WebCore9InlineBoxdlEPvm
__ZN7WebCore13InlineTextBox7destroyEPNS_11RenderArenaE
__ZN7WebCore13InlineTextBoxD0Ev
__ZN7WebCore9FrameView23repaintContentRectangleERKNS_7IntRectEb
__ZN3WTF6VectorIN7WebCore7IntRectELm0EE15reserveCapacityEm
__ZN7WebCore11RenderLayer20updateLayerPositionsEjPNS_8IntPointE
__ZN7WebCore11RenderLayer19updateLayerPositionEv
__ZNK7WebCore9RenderBox31locationOffsetIncludingFlippingEv
__ZN7WebCore11RenderLayer24positionOverflowControlsEii
__ZNK7WebCore12RenderObject19containerForRepaintEv
__ZNK7WebCore9RenderBox23outlineBoundsForRepaintEPNS_20RenderBoxModelObjectEPNS_8IntPointE
__ZNK7WebCore9RenderBox17borderBoundingBoxEv
__ZNK7WebCore12RenderObject29adjustRectForOutlineAndShadowERNS_7IntRectE
__ZNK7WebCore11RenderBlock22outlineStyleForRepaintEv
__ZNK7WebCore9FloatQuad11boundingBoxEv
__ZN7WebCore9RenderBox21computeRectForRepaintEPNS_20RenderBoxModelObjectERNS_7IntRectEb
__ZNK7WebCore11RenderBlock11isBlockFlowEv
__ZN7WebCore10ScrollView23repaintContentRectangleERKNS_7IntRectEb
__ZN7WebCore10ScrollView31platformRepaintContentRectangleERKNS_7IntRectEb
__ZN7WebCore9FrameView22updateDashboardRegionsEv
__ZNK7WebCore9FrameView15useSlowRepaintsEv
__ZN7WebCore10ScrollView18setCanBlitOnScrollEb
__ZN7WebCore10ScrollView26platformSetCanBlitOnScrollEb
__ZN7WebCore9FrameView22performPostLayoutTasksEv
__ZN7WebCore10RenderView21updateWidgetPositionsEv
__ZN7WebCore10RenderView18getRetainedWidgetsERN3WTF6VectorIPNS_12RenderWidgetELm0EEE
__ZN7WebCore9FrameView13updateWidgetsEv
__ZN7WebCore9FrameView14scrollToAnchorEv
__ZN7WebCore11FrameLoader14didFirstLayoutEv
__ZN7WebCore11FrameLoader30didFirstVisuallyNonEmptyLayoutEv
__ZN7WebCore8Document17nextFocusableNodeEPNS_4NodeEPNS_13KeyboardEventE
__ZNK7WebCore4Node19isKeyboardFocusableEPNS_13KeyboardEventE
__ZNK7WebCore4Node11isFocusableEv
__ZNK7WebCore4Node13supportsFocusEv
__ZNK7WebCore4Node16traverseNextNodeEPKS0_
__ZNK7WebCore11HTMLElement13supportsFocusEv
__ZNK7WebCore15HTMLBodyElement13supportsFocusEv
__ZN7WebCore9FrameView37updateLayoutAndStyleIfNeededRecursiveEv
__ZN7WebCore9FrameView13paintContentsEPNS_15GraphicsContextERKNS_7IntRectE
__ZN7WebCore9FrameView32syncCompositingStateForThisFrameEv
__ZN7WebCore21RenderLayerCompositor24flushPendingLayerChangesEv
__ZN7WebCore24DocumentMarkerController39invalidateRenderedRectsForMarkersInRectERKNS_7IntRectE
__ZN7WebCore11RenderLayer5paintEPNS_15GraphicsContextERKNS_7IntRectEjPNS_12RenderObjectE
__ZN7WebCore11RenderLayer10paintLayerEPS0_PNS_15GraphicsContextERKNS_7IntRectEjPNS_12RenderObjectEPN3WTF7HashMapIPNS_24OverlapTestRequestClientES4_NS9_7PtrHashISC_EENS9_10HashTraitsISC_EENSF_IS4_EEEEj
__ZNK7WebCore11RenderLayer13isTransparentEv
__ZNK7WebCore4Node19virtualNamespaceURIEv
__ZNK7WebCore11RenderLayer14calculateRectsEPKS0_RKNS_7IntRectERS3_S6_S6_S6_bNS_29OverlayScrollbarSizeRelevancyE
__ZNK7WebCore11RenderLayer20convertToLayerCoordsEPKS0_RiS3_
__ZN7WebCore11RenderLayer38updateCompositingAndLayerListsIfNeededEv
__ZN7WebCore11RenderLayer17updateZOrderListsEv
__ZN7WebCore11RenderLayer13collectLayersERPN3WTF6VectorIPS0_Lm0EEES6_
__ZN3WTF6VectorIPN7WebCore11RenderLayerELm0EE14expandCapacityEm
__ZSt22__stable_sort_adaptiveIPPN7WebCore11RenderLayerES3_lPFbS2_S2_EEvT_S6_T0_T1_T2_
__ZSt24__merge_sort_with_bufferIPPN7WebCore11RenderLayerES3_PFbS2_S2_EEvT_S6_T0_T1_
__ZSt16__insertion_sortIPPN7WebCore11RenderLayerEPFbS2_S2_EEvT_S6_T0_
__ZSt16__merge_adaptiveIPPN7WebCore11RenderLayerElS3_PFbS2_S2_EEvT_S6_S6_T0_S7_T1_S7_T2_
__ZSt16__merge_backwardIPPN7WebCore11RenderLayerES3_S3_PFbS2_S2_EET1_T_S7_T0_S8_S6_T2_
__ZN7WebCore11RenderLayer20updateNormalFlowListEv
__ZNK7WebCore11RenderLayer11boundingBoxEPKS0_
__ZNK7WebCore11RenderLayer16localBoundingBoxEv
__ZNK7WebCore11RenderLayer20intersectsDamageRectERKNS_7IntRectES3_PKS0_
__ZN7WebCore10RenderView5paintERNS_9PaintInfoEii
__ZN7WebCore11RenderBlock11paintObjectERNS_9PaintInfoEii
__ZN7WebCore10RenderView19paintBoxDecorationsERNS_9PaintInfoEii
__ZN7WebCore11RenderBlock13paintChildrenERNS_9PaintInfoEii
__ZNK7WebCore9RenderBox18flipForWritingModeEPKS0_RKNS_8IntPointENS0_18FlippingAdjustmentE
__ZN7WebCore11RenderBlock14paintSelectionERNS_9PaintInfoEii
__ZNK7WebCore11RenderBlock24shouldPaintSelectionGapsEv
__ZN7WebCore11RenderBlock11paintFloatsERNS_9PaintInfoEiib
__ZN7WebCore11RenderBlock10paintCaretERNS_9PaintInfoEiiNS_9CaretTypeE
__ZNK7WebCore14FrameSelection13caretRendererEv
__ZNK7WebCore16VisibleSelection17isContentEditableEv
__ZN7WebCore18callRemovedLastRefEPNS_10TreeSharedINS_13ContainerNodeEEE
__ZN7WebCore18isEditablePositionERKNS_8PositionE
__ZNK7WebCore19DragCaretController13caretRendererEv
__ZN7WebCore11RenderBlock25paintContinuationOutlinesERNS_9PaintInfoEii
__ZNK7WebCore12RenderObject20hasOutlineAnnotationEv
__ZNK7WebCore7Element19virtualNamespaceURIEv
__ZNK7WebCore11RenderLayer18backgroundClipRectEPKS0_bNS_29OverlayScrollbarSizeRelevancyE
__ZNK7WebCore11RenderLayer15parentClipRectsEPKS0_RNS_9ClipRectsEbNS_29OverlayScrollbarSizeRelevancyE
__ZN7WebCore11RenderLayer15updateClipRectsEPKS0_NS_29OverlayScrollbarSizeRelevancyE
__ZNK7WebCore11RenderLayer18calculateClipRectsEPKS0_RNS_9ClipRectsEbNS_29OverlayScrollbarSizeRelevancyE
__ZN7WebCore11RenderBlock5paintERNS_9PaintInfoEii
__ZN7WebCore9RenderBox16pushContentsClipERNS_9PaintInfoEii
__ZN7WebCore9RenderBox19paintBoxDecorationsERNS_9PaintInfoEii
__ZN7WebCore9RenderBox27paintBoxDecorationsWithSizeERNS_9PaintInfoENS_7IntRectE
__ZNK7WebCore11RenderBlock15borderFitAdjustERNS_7IntRectE
__ZN7WebCore20RenderBoxModelObject14paintBoxShadowEPNS_15GraphicsContextERKNS_7IntRectEPKNS_11RenderStyleENS_11ShadowStyleEbb
__ZNK7WebCore9RenderBox33determineBackgroundBleedAvoidanceEPNS_15GraphicsContextE
__ZN7WebCore9RenderBox22paintRootBoxFillLayersERKNS_9PaintInfoE
__ZN7WebCore9RenderBox15paintFillLayersERKNS_9PaintInfoERKNS_5ColorEPKNS_9FillLayerERKNS_7IntRectENS_24BackgroundBleedAvoidanceENS_17CompositeOperatorEPNS_12RenderObjectE
__ZN7WebCore20RenderBoxModelObject22paintFillLayerExtendedERKNS_9PaintInfoERKNS_5ColorEPKNS_9FillLayerERKNS_7IntRectENS_24BackgroundBleedAvoidanceEPNS_13InlineFlowBoxERKNS_7IntSizeENS_17CompositeOperatorEPNS_12RenderObjectE
__ZNK7WebCore10BorderData15hasBorderRadiusEv
__ZNK7WebCore9FrameView13isTransparentEv
__ZN7WebCore9FrameView18setContentIsOpaqueEb
__ZNK7WebCore9FrameView19baseBackgroundColorEv
__ZNK7WebCore15GraphicsContext18compositeOperationEv
__ZN7WebCore15GraphicsContext21setCompositeOperationENS_17CompositeOperatorE
__ZN7WebCore15GraphicsContext29setPlatformCompositeOperationENS_17CompositeOperatorE
__ZN7WebCore15GraphicsContext8fillRectERKNS_9FloatRectERKNS_5ColorENS_10ColorSpaceE
__ZNK7WebCore12RenderObject18maximalOutlineSizeENS_10PaintPhaseE
__ZNK7WebCore7IntRect10intersectsERKS0_
__ZNK7WebCore17RenderLineBoxList5paintEPNS_20RenderBoxModelObjectERNS_9PaintInfoEii
__ZNK7WebCore17RenderLineBoxList21anyLineIntersectsRectEPNS_20RenderBoxModelObjectERKNS_7IntRectEiibi
__ZN7WebCore9InlineBox4rootEv
__ZNK7WebCore17RenderLineBoxList19rangeIntersectsRectEPNS_20RenderBoxModelObjectEiiRKNS_7IntRectEii
__ZNK7WebCore9RenderBox18flipForWritingModeEi
__ZNK7WebCore17RenderLineBoxList23lineIntersectsDirtyRectEPNS_20RenderBoxModelObjectEPNS_13InlineFlowBoxERKNS_9PaintInfoEii
__ZNK7WebCore13RootInlineBox12selectionTopEv
__ZN7WebCore13RootInlineBox5paintERNS_9PaintInfoEiiii
__ZN7WebCore13InlineFlowBox5paintERNS_9PaintInfoEiiii
__ZN7WebCore9InlineBox18flipForWritingModeERNS_7IntRectE
__ZN7WebCore13InlineFlowBox19paintBoxDecorationsERNS_9PaintInfoEii
__ZNK7WebCore13InlineFlowBox16roundedFrameRectEv
__ZN7WebCore13InlineTextBox5paintERNS_9PaintInfoEiiii
__ZNK7WebCore13InlineTextBox19logicalOverflowRectEv
__ZNK7WebCore9InlineBox16logicalFrameRectEv
__ZN7WebCore13InlineTextBox14selectionStateEv
__ZN7WebCore9InlineBox25locationIncludingFlippingEv
__ZN7WebCore13InlineTextBox20paintDocumentMarkersEPNS_15GraphicsContextERKNS_10FloatPointEPNS_11RenderStyleERKNS_4FontEb
__ZN7WebCore24DocumentMarkerController14markersForNodeEPNS_4NodeE
__ZNK3WTF7HashMapINS_6RefPtrIN7WebCore4NodeEEEPNS_6VectorINS2_22RenderedDocumentMarkerELm0EEENS_7PtrHashIS4_EENS_10HashTraitsIS4_EENSB_IS8_EEE3getEPS3_
__ZNK7WebCore13InlineTextBox23getEmphasisMarkPositionEPNS_11RenderStyleERNS_20TextEmphasisPositionE
__ZN7WebCore21updateGraphicsContextEPNS_15GraphicsContextERKNS_5ColorES4_fNS_10ColorSpaceE
__ZN7WebCoreL20paintTextWithShadowsEPNS_15GraphicsContextERKNS_4FontERKNS_7TextRunERKN3WTF12AtomicStringEiiiiRKNS_10FloatPointERKNS_9FloatRectEPKNS_10ShadowDataEbb
__ZN7WebCore15GraphicsContext8drawTextERKNS_4FontERKNS_7TextRunERKNS_10FloatPointEii
__ZNK7WebCore9FrameView13paintBehaviorEv
__ZN7WebCore9FrameView16setPaintBehaviorEj
__ZN7WebCore10RenderView13notifyWidgetsENS_18WidgetNotificationE
__ZN7WebCore11MemoryCache24pruneDeadResourcesToSizeEj
__ZN7WebCore11MemoryCache18pruneLiveResourcesEv
__ZN7WebCore23ApplicationCacheStorage5emptyEv
__ZN7WebCore23ApplicationCacheStorage12openDatabaseEb
__ZN7WebCore31CrossOriginPreflightResultCache6sharedEv
__ZN7WebCore31CrossOriginPreflightResultCache5emptyEv
__ZN3WTF20deleteAllPairSecondsIPN7WebCore35CrossOriginPreflightResultCacheItemEKNS_7HashMapISt4pairINS_6StringENS1_4KURLEES3_NS_8PairHashIS6_S7_EENS_10HashTraitsIS8_EENSB_IS3_EEEEEEvRT0_
__ZN7WebCore16ScriptController13executeScriptERKN3WTF6StringEb
__ZN7WebCore16ScriptSourceCodeC2ERKN3WTF6StringERKNS_4KURLERKNS1_12TextPositionINS1_14OneBasedNumberEEE
__ZN7WebCore20StringSourceProviderC2ERKN3WTF6StringES4_RKNS1_12TextPositionINS1_14OneBasedNumberEEE
__ZNK7WebCore20StringSourceProvider6lengthEv
__ZN7WebCore16ScriptController13executeScriptERKNS_16ScriptSourceCodeE
__ZN7WebCore16ScriptController17canExecuteScriptsENS_33ReasonForCallingCanExecuteScriptsE
__ZN7WebCore16ScriptController8evaluateERKNS_16ScriptSourceCodeE
__ZN7WebCore21mainThreadNormalWorldEv
__ZN7WebCore15JSDOMWindowBase18commonVMEv
__ZN7WebCore15DOMWrapperWorldC1EPN3JSC12VMEb
__ZN3WTF9HashTableIPN7WebCore15DOMWrapperWorldES3_NS_17IdentityExtractorIS3_EENS_7PtrHashIS3_EENS_10HashTraitsIS3_EES9_E3addIS3_S3_NS_22IdentityHashTranslatorIS3_S3_S7_EEEESt4pairINS_17HashTableIteratorIS3_S3_S5_S7_S9_S9_EEbERKT_RKT0_
__ZN3WTF9HashTableIPN7WebCore15DOMWrapperWorldES3_NS_17IdentityExtractorIS3_EENS_7PtrHashIS3_EENS_10HashTraitsIS3_EES9_E6expandEv
__ZN7WebCore16ScriptController15evaluateInWorldERKNS_16ScriptSourceCodeEPNS_15DOMWrapperWorldE
__ZN7WebCore16ScriptController10initScriptEPNS_15DOMWrapperWorldE
__ZN7WebCore16ScriptController17createWindowShellEPNS_15DOMWrapperWorldE
__ZN7WebCore16JSDOMWindowShellnwEm
__ZN7WebCore16JSDOMWindowShellC1EN3WTF10PassRefPtrINS_9DOMWindowEEEPNS_15DOMWrapperWorldE
__ZN7WebCore16JSDOMWindowShellC2EN3WTF10PassRefPtrINS_9DOMWindowEEEPNS_15DOMWrapperWorldE
__ZN7WebCore16JSDOMWindowShell9setWindowEN3WTF10PassRefPtrINS_9DOMWindowEEE
__ZN7WebCore20JSDOMWindowPrototypenwEm
__ZN7WebCore11JSDOMWindowC1ERN3JSC12VMEPNS1_9StructureEN3WTF10PassRefPtrINS_9DOMWindowEEEPNS_16JSDOMWindowShellE
__ZN7WebCore15JSDOMWindowBaseC2ERN3JSC12VMEPNS1_9StructureEN3WTF10PassRefPtrINS_9DOMWindowEEEPNS_16JSDOMWindowShellE
__ZN7WebCore17JSDOMGlobalObjectC2ERN3JSC12VMEPNS1_9StructureEN3WTF10PassRefPtrINS_15DOMWrapperWorldEEEPNS1_8JSObjectE
__ZN3JSC14JSGlobalObjectC2ERNS_12VMEPNS_9StructureEPNS_8JSObjectE
__ZN7WebCore5Frame9keepAliveEv
__ZN3JSC6StrongIN7WebCore16JSDOMWindowShellEEC2ERKS3_
__ZN3WTF9HashTableINS_6RefPtrIN7WebCore15DOMWrapperWorldEEESt4pairIS4_N3JSC6StrongINS2_16JSDOMWindowShellEEEENS_18PairFirstExtractorISA_EENS_7PtrHashIS4_EENS_14PairHashTraitsINS_10HashTraitsIS4_EENSG_IS9_EEEESH_E15deallocateTableEPSA_i
__ZN3WTF9HashTableINS_6RefPtrIN7WebCore15DOMWrapperWorldEEESt4pairIS4_N3JSC6StrongINS2_16JSDOMWindowShellEEEENS_18PairFirstExtractorISA_EENS_7PtrHashIS4_EENS_14PairHashTraitsINS_10HashTraitsIS4_EENSG_IS9_EEEESH_E16lookupForWritingERKS4_
__ZN3WTF9HashTableINS_6RefPtrIN7WebCore15DOMWrapperWorldEEESt4pairIS4_N3JSC6StrongINS2_16JSDOMWindowShellEEEENS_18PairFirstExtractorISA_EENS_7PtrHashIS4_EENS_14PairHashTraitsINS_10HashTraitsIS4_EENSG_IS9_EEEESH_E3addIPS3_S9_NS_29RefPtrHashMapRawKeyTranslatorISM_SA_SJ_SE_EEEES5_INS_17HashTableIteratorIS4_SA_SC_SE_SJ_SH_EEbERKT_RKT0_
__ZN3WTF9HashTableINS_6RefPtrIN7WebCore15DOMWrapperWorldEEESt4pairIS4_N3JSC6StrongINS2_16JSDOMWindowShellEEEENS_18PairFirstExtractorISA_EENS_7PtrHashIS4_EENS_14PairHashTraitsINS_10HashTraitsIS4_EENSG_IS9_EEEESH_E4findIPS3_NS_29RefPtrHashMapRawKeyTranslatorISM_SA_SJ_SE_EEEENS_17HashTableIteratorIS4_SA_SC_SE_SJ_SH_EERKT_
__ZN3WTF9HashTableINS_6RefPtrIN7WebCore15DOMWrapperWorldEEESt4pairIS4_N3JSC6StrongINS2_16JSDOMWindowShellEEEENS_18PairFirstExtractorISA_EENS_7PtrHashIS4_EENS_14PairHashTraitsINS_10HashTraitsIS4_EENSG_IS9_EEEESH_E4findIS4_NS_22IdentityHashTranslatorIS4_SA_SE_EEEENS_17HashTableIteratorIS4_SA_SC_SE_SJ_SH_EERKT_
__ZN3WTF9HashTableINS_6RefPtrIN7WebCore15DOMWrapperWorldEEESt4pairIS4_N3JSC6StrongINS2_16JSDOMWindowShellEEEENS_18PairFirstExtractorISA_EENS_7PtrHashIS4_EENS_14PairHashTraitsINS_10HashTraitsIS4_EENSG_IS9_EEEESH_E6rehashEi
__ZN3WTF9HashTableINS_6RefPtrIN7WebCore15DOMWrapperWorldEEESt4pairIS4_N3JSC6StrongINS2_16JSDOMWindowShellEEEENS_18PairFirstExtractorISA_EENS_7PtrHashIS4_EENS_14PairHashTraitsINS_10HashTraitsIS4_EENSG_IS9_EEEESH_E6removeEPSA_
__ZN3JSC6StrongIN7WebCore16JSDOMWindowShellEEaSERKS3_
__ZN3WTF9HashTableIPN7WebCore16ScriptControllerES3_NS_17IdentityExtractorIS3_EENS_7PtrHashIS3_EENS_10HashTraitsIS3_EES9_E3addIS3_S3_NS_22IdentityHashTranslatorIS3_S3_S7_EEEESt4pairINS_17HashTableIteratorIS3_S3_S5_S7_S9_S9_EEbERKT_RKT0_
__ZN3WTF9HashTableIPN7WebCore16ScriptControllerES3_NS_17IdentityExtractorIS3_EENS_7PtrHashIS3_EENS_10HashTraitsIS3_EES9_E6expandEv
__ZN7WebCore15JSDOMWindowBase14updateDocumentEv
__ZN7WebCore15JSDOMWindowBase10globalExecEv
__ZNK7WebCore9DOMWindow8documentEv
__ZN7WebCore4toJSEPN3JSC9ExecStateEPNS_17JSDOMGlobalObjectEPNS_4NodeE
__ZN7WebCore13createWrapperEPN3JSC9ExecStateEPNS_17JSDOMGlobalObjectEPNS_4NodeE
__ZNK7WebCore8Document8nodeTypeEv
__ZN7WebCore4toJSEPN3JSC9ExecStateEPNS_17JSDOMGlobalObjectEPNS_8DocumentE
__ZN7WebCore13createWrapperINS_14JSHTMLDocumentENS_12HTMLDocumentEEEPNS_12JSDOMWrapperEPN3JSC9ExecStateEPNS_17JSDOMGlobalObjectEPT0_
__ZN7WebCore15getDOMStructureINS_14JSHTMLDocumentEEEPN3JSC9StructureEPNS2_9ExecStateEPNS_17JSDOMGlobalObjectE
__ZN7WebCore21getCachedDOMStructureEPNS_17JSDOMGlobalObjectEPKN3JSC9ClassInfoE
__ZN7WebCore14JSHTMLDocument15createPrototypeEPN3JSC9ExecStateEPNS1_14JSGlobalObjectE
__ZN7WebCore19JSDocumentPrototype4selfEPN3JSC9ExecStateEPNS1_14JSGlobalObjectE
__ZN7WebCore15getDOMStructureINS_10JSDocumentEEEPN3JSC9StructureEPNS2_9ExecStateEPNS_17JSDOMGlobalObjectE
__ZN7WebCore10JSDocument15createPrototypeEPN3JSC9ExecStateEPNS1_14JSGlobalObjectE
__ZN7WebCore15JSNodePrototype4selfEPN3JSC9ExecStateEPNS1_14JSGlobalObjectE
__ZN7WebCore15getDOMStructureINS_6JSNodeEEEPN3JSC9StructureEPNS2_9ExecStateEPNS_17JSDOMGlobalObjectE
__ZN7WebCore6JSNode15createPrototypeEPN3JSC9ExecStateEPNS1_14JSGlobalObjectE
__ZN7WebCore17cacheDOMStructureEPNS_17JSDOMGlobalObjectEPN3JSC9StructureEPKNS2_9ClassInfoE
__ZN7WebCore14JSHTMLDocumentC1EPN3JSC9StructureEPNS_17JSDOMGlobalObjectEN3WTF10PassRefPtrINS_12HTMLDocumentEEE
__ZN7WebCore10JSDocumentC2EPN3JSC9StructureEPNS_17JSDOMGlobalObjectEN3WTF10PassRefPtrINS_8DocumentEEE
__ZN7WebCore6JSNodeC2EPN3JSC9StructureEPNS_17JSDOMGlobalObjectEN3WTF10PassRefPtrINS_4NodeEEE
__ZN7WebCore12cacheWrapperINS_12HTMLDocumentEEEvPNS_15DOMWrapperWorldEPT_PNS_12JSDOMWrapperE
__ZN3JSC4WeakIN7WebCore12JSDOMWrapperEE3setERNS_12VMEPS2_PNS_15WeakHandleOwnerEPv
__ZN3WTF9HashTableINS_6RefPtrINS_10StringImplEEESt4pairIS3_N3JSC16SymbolTableEntryEENS_18PairFirstExtractorIS7_EENS5_17IdentifierRepHashENS_14PairHashTraitsINS_10HashTraitsIS3_EENS5_26SymbolTableIndexHashTraitsEEESD_E4findIPS2_NS_29RefPtrHashMapRawKeyTranslatorISI_S7_SF_SA_EEEENS_17HashTableIteratorIS3_S7_S9_SA_SF_SD_EERKT_
__ZN7WebCore11FrameLoader35dispatchDidClearWindowObjectInWorldEPNS_15DOMWrapperWorldE
__ZNK3WTF9HashTableINS_6RefPtrIN7WebCore15DOMWrapperWorldEEESt4pairIS4_N3JSC6StrongINS2_16JSDOMWindowShellEEEENS_18PairFirstExtractorISA_EENS_7PtrHashIS4_EENS_14PairHashTraitsINS_10HashTraitsIS4_EENSG_IS9_EEEESH_E4findIPS3_NS_29RefPtrHashMapRawKeyTranslatorISM_SA_SJ_SE_EEEENS_22HashTableConstIteratorIS4_SA_SC_SE_SJ_SH_EERKT_
__ZN7WebCore19InspectorController27didClearWindowObjectInWorldEPNS_5FrameEPNS_15DOMWrapperWorldE
__ZN7WebCore24InspectorInstrumentation31didClearWindowObjectInWorldImplEPNS_19InstrumentingAgentsEPNS_5FrameEPNS_15DOMWrapperWorldE
__ZN7WebCore14InspectorAgent27didClearWindowObjectInWorldEPNS_5FrameEPNS_15DOMWrapperWorldE
__ZNK7WebCore20StringSourceProvider4dataEv
__ZNK7WebCore15JSDOMWindowBase17supportsProfilingEv
__ZN7WebCore19InspectorController15profilerEnabledEv
__ZNK7WebCore15JSDOMWindowBase22supportsRichSourceInfoEv
__ZNK7WebCore19InspectorController7enabledEv
__ZNK7WebCore14InspectorAgent7enabledEv
__ZN7WebCore8Document26updateStyleForAllDocumentsEv
__ZN3JSC6StrongINS_7UnknownEEC2ERKS2_
__ZN7WebCore16ScriptSourceCodeD1Ev
__ZN7WebCore11JSDOMWindow18getOwnPropertySlotEPN3JSC9ExecStateERKNS1_10IdentifierERNS1_12PropertySlotE
__ZNK7WebCore15JSDOMWindowBase16allowsAccessFromEPN3JSC9ExecStateERN3WTF6StringE
__ZNK7WebCore9FrameTree5childERKN3WTF12AtomicStringE
__ZN7WebCore20JSDOMWindowPrototype18getOwnPropertySlotEPN3JSC9ExecStateERKNS1_10IdentifierERNS1_12PropertySlotE
__ZN3JSC21getStaticFunctionSlotINS_8JSObjectEEEbPNS_9ExecStateEPKNS_9HashTableEPS1_RKNS_10IdentifierERNS_12PropertySlotE
__ZN3JSC8JSObject17getDirectLocationERNS_12VMERKNS_10IdentifierE
__ZN7WebCore16findAtomicStringERKN3JSC10IdentifierE
__ZNK3WTF9HashTableIPNS_16AtomicStringImplESt4pairIS2_jENS_18PairFirstExtractorIS4_EENS_7PtrHashIS2_EENS_14PairHashTraitsINS_10HashTraitsIS2_EENSA_IjEEEESB_E8containsIS2_NS_22IdentityHashTranslatorIS2_S4_S8_EEEEbRKT_
__ZNK3WTF9HashTableIPNS_16AtomicStringImplESt4pairIS2_PN7WebCore7ElementEENS_18PairFirstExtractorIS7_EENS_7PtrHashIS2_EENS_14PairHashTraitsINS_10HashTraitsIS2_EENSD_IS6_EEEESE_E8containsIS2_NS_22IdentityHashTranslatorIS2_S7_SB_EEEEbRKT_
__ZN7WebCore15reportExceptionEPN3JSC9ExecStateENS0_7JSValueEPNS_12CachedScriptE
__ZNK3JSC7JSValue8toStringEPNS_9ExecStateE
__ZNK3JSC8JSObject3getEPNS_9ExecStateERKNS_10IdentifierE
__ZN7WebCore15toExceptionBaseEN3JSC7JSValueE
__ZN7WebCore18toDOMCoreExceptionEN3JSC7JSValueE
__ZN7WebCore16toRangeExceptionEN3JSC7JSValueE
__ZN7WebCore16toEventExceptionEN3JSC7JSValueE
__ZN7WebCore25toXMLHttpRequestExceptionEN3JSC7JSValueE
__ZN7WebCore14toSVGExceptionEN3JSC7JSValueE
__ZN7WebCore16toXPathExceptionEN3JSC7JSValueE
__ZN7WebCore14toSQLExceptionEN3JSC7JSValueE
__ZNK7WebCore15JSDOMWindowBase22scriptExecutionContextEv
__ZN7WebCore22ScriptExecutionContext15reportExceptionERKN3WTF6StringEiS4_NS1_10PassRefPtrINS_15ScriptCallStackEEE
__ZN7WebCore22ScriptExecutionContext18dispatchErrorEventERKN3WTF6StringEiS4_
__ZThn208_N7WebCore8Document16errorEventTargetEv
__ZN7WebCore22ScriptExecutionContext19sanitizeScriptErrorERN3WTF6StringERiS3_
__ZThn208_NK7WebCore8Document18virtualCompleteURLERKN3WTF6StringE
__ZNK7WebCore8Document11completeURLERKN3WTF6StringE
__ZN7WebCore4KURLC1ERKS0_RKN3WTF6StringERKNS_12TextEncodingE
__ZNK7WebCore12TextEncoding25encodingForFormSubmissionEv
__ZNK7WebCore12TextEncoding22isNonByteBasedEncodingEv
__ZN7WebCore30noExtendedTextEncodingNameUsedEv
__ZN7WebCore10ErrorEventC1ERKN3WTF6StringES4_j
__ZN7WebCore5EventC2ERKN3WTF12AtomicStringEbb
__ZN7WebCore11EventTarget13dispatchEventEN3WTF10PassRefPtrINS_5EventEEE
__ZN7WebCore10ErrorEventD0Ev
__ZN7WebCore5EventD2Ev
__ZThn208_N7WebCore8Document21logExceptionToConsoleERKN3WTF6StringEiS4_NS1_10PassRefPtrINS_15ScriptCallStackEEE
__ZN7WebCore8Document10addMessageENS_13MessageSourceENS_11MessageTypeENS_12MessageLevelERKN3WTF6StringEjS7_NS4_10PassRefPtrINS_15ScriptCallStackEEE
__ZNK7WebCore9DOMWindow7consoleEv
__ZN7WebCore7ConsoleC1EPNS_5FrameE
__ZN7WebCore7Console10addMessageENS_13MessageSourceENS_11MessageTypeENS_12MessageLevelERKN3WTF6StringEjS7_NS4_10PassRefPtrINS_15ScriptCallStackEEE
__ZN7WebCore21InspectorConsoleAgent19addMessageToConsoleENS_13MessageSourceENS_11MessageTypeENS_12MessageLevelERKN3WTF6StringEjS7_
__ZN3JSC14NumericStrings3addEi
__ZN3JSC14NumericStrings17lookupSmallStringEj
__ZN7WebCore11FrameLoader16detachFromParentEv
__ZN7WebCore17HistoryController17saveDocumentStateEv
__ZN7WebCore11FrameLoader11stopLoadingENS_17UnloadEventPolicyE
__ZN7WebCore19PageTransitionEventC1ERKN3WTF12AtomicStringEb
__ZN7WebCore19PageTransitionEventD0Ev
__ZN7WebCore8Document23removeAllEventListenersEv
__ZN7WebCore11EventTarget23removeAllEventListenersEv
__ZN7WebCore4Node15eventTargetDataEv
__ZN7WebCore9DOMWindow23removeAllEventListenersEv
__ZN7WebCoreL29removeAllUnloadEventListenersEPNS_9DOMWindowE
__ZN7WebCoreL35removeAllBeforeUnloadEventListenersEPNS_9DOMWindowE
__ZN7WebCore20CachedResourceLoader14cancelRequestsEv
__ZN7WebCore20CachedResourceLoader20clearPendingPreloadsEv
__ZN7WebCore22ScriptExecutionContext13stopDatabasesEPNS_24DatabaseTaskSynchronizerE
__ZN7WebCore6Editor23clearUndoRedoOperationsEv
__ZN7WebCore17HistoryController36saveScrollPositionAndViewStateToItemEPNS_11HistoryItemE
__ZN7WebCore11FrameLoader14stopAllLoadersENS_26ClearProvisionalItemPolicyE
__ZN7WebCore13PolicyChecker9stopCheckEv
__ZN7WebCore14PolicyCallbackC2ERKS0_
__ZN7WebCore16NavigationActionC1ERKS0_
__ZN7WebCore14PolicyCallback5clearEv
__ZN7WebCore14PolicyCallback12clearRequestEv
__ZN7WebCore19ResourceRequestBaseaSERKS0_
__ZN7WebCore14PolicyCallback6cancelEv
__ZN7WebCore14PolicyCallbackD1Ev
__ZN7WebCore16NavigationActionD1Ev
__ZN7WebCore17HistoryController18setProvisionalItemEPNS_11HistoryItemE
__ZN7WebCore11FrameLoader20stopLoadingSubframesENS_26ClearProvisionalItemPolicyE
__ZN7WebCore14DocumentLoader11stopLoadingEv
__ZN7WebCoreL9cancelAllERKN3WTF7HashSetINS0_6RefPtrINS_14ResourceLoaderEEENS0_7PtrHashIS4_EENS0_10HashTraitsIS4_EEEE
__ZN3WTF12copyToVectorINS_6RefPtrIN7WebCore14ResourceLoaderEEENS_7PtrHashIS4_EENS_10HashTraitsIS4_EENS_6VectorIS4_Lm0EEEEEvRKNS_7HashSetIT_T0_T1_EERT2_
__ZN7WebCore20ApplicationCacheHost18stopLoadingInFrameEPNS_5FrameE
__ZN7WebCore14DocumentLoader21clearArchiveResourcesEv
__ZN7WebCore24InspectorInstrumentation27frameDetachedFromParentImplEPNS_19InstrumentingAgentsEPNS_5FrameE
__ZN7WebCore14DocumentLoader15detachFromFrameEv
__ZN7WebCore20ApplicationCacheHost22setDOMApplicationCacheEPNS_19DOMApplicationCacheE
__ZN7WebCore9FrameView22detachCustomScrollbarsEv
__ZNK7WebCore10ScrollView19horizontalScrollbarEv
__ZNK7WebCore10ScrollView17verticalScrollbarEv
__ZN7WebCore8Document6detachEv
__ZN7WebCore8Document18clearAXObjectCacheEv
__ZN7WebCore22ScriptExecutionContext20stopActiveDOMObjectsEv
__ZThn32_N7WebCore16SuspendableTimer4stopEv
__ZN7WebCore10EventQueue18cancelQueuedEventsEv
__ZN7WebCore16SuspendableTimer4stopEv
__ZN3WTF11ListHashSetINS_6RefPtrIN7WebCore5EventEEELm256ENS_7PtrHashIS4_EEE14deleteAllNodesEv
__ZN7WebCore10RenderView17willMoveOffscreenEv
__ZN7WebCore21RenderLayerCompositor17willMoveOffscreenEv
__ZN7WebCore22SharedWorkerRepository16documentDetachedEPNS_8DocumentE
__ZN7WebCore10RenderText7destroyEv
__ZN7WebCore10RenderText25removeAndDestroyTextBoxesEv
__ZN7WebCore12RenderObject7destroyEv
__ZN7WebCore12RenderObject15virtualChildrenEv
__ZNK7WebCore12EventHandler18autoscrollRendererEv
__ZN7WebCore19AnimationController16cancelAnimationsEPNS_12RenderObjectE
__ZN7WebCore11RenderBlock11removeChildEPNS_12RenderObjectE
__ZN7WebCore12RenderObject11removeChildEPS0_
__ZN7WebCore21RenderObjectChildList15removeChildNodeEPNS_12RenderObjectES2_b
__ZN7WebCore13RenderCounter23rendererRemovedFromTreeEPNS_12RenderObjectE
__ZNK7WebCore12RenderObject13lastLeafChildEv
__ZN7WebCore13RenderCounter19destroyCounterNodesEPNS_12RenderObjectE
__ZN7WebCore11RenderQuote23rendererRemovedFromTreeEPNS_12RenderObjectE
__ZN7WebCore12RenderObject11arenaDeleteEPNS_11RenderArenaEPv
__ZN7WebCore10RenderTextD0Ev
__ZN7WebCore12RenderObjectD2Ev
__ZN7WebCore12RenderObjectdlEPvm
__ZN7WebCore11RenderBlock7destroyEv
__ZN7WebCore21RenderObjectChildList23destroyLeftoverChildrenEv
__ZN7WebCore9RenderBox7destroyEv
__ZN7WebCore20RenderBoxModelObject7destroyEv
__ZN7WebCore9RenderBox20deleteLineBoxWrapperEv
__ZN7WebCore11RenderBlockD0Ev
__ZN3WTF6OwnPtrINS_11ListHashSetIPN7WebCore9RenderBoxELm4ENS_7PtrHashIS4_EEEEED1Ev
__ZN3WTF6OwnPtrIN7WebCore11RenderBlock15FloatingObjectsEED1Ev
__ZN7WebCore9RenderBoxD2Ev
__ZN7WebCore20RenderBoxModelObjectD2Ev
__ZN7WebCore11RenderLayer14clearClipRectsEv
__ZN7WebCore20RenderBoxModelObject12destroyLayerEv
__ZN7WebCore11RenderLayer7destroyEPNS_11RenderArenaE
__ZN7WebCore11RenderLayerD0Ev
__ZN7WebCore11RenderLayer16destroyScrollbarENS_20ScrollbarOrientationE
__ZN7WebCore14ScrollableAreaD2Ev
__ZN7WebCore10RenderViewD0Ev
__ZN7WebCore21RenderLayerCompositorD0Ev
__ZN7WebCore11RenderBlockD2Ev
__ZN7WebCore11RenderArenaD1Ev
__ZN7WebCore15FinishArenaPoolEPNS_9ArenaPoolE
__ZN7WebCore9FrameView18unscheduleRelayoutEv
__ZN7WebCore9FrameViewD0Ev
__ZN7WebCore9FrameView15resetScrollbarsEv
__ZN7WebCore10ScrollView25setHasHorizontalScrollbarEb
__ZN7WebCore10ScrollView23setHasVerticalScrollbarEb
__ZN7WebCore4Page20removeScrollableAreaEPNS_14ScrollableAreaE
__ZNK3WTF9HashTableIPN7WebCore14ScrollableAreaES3_NS_17IdentityExtractorIS3_EENS_7PtrHashIS3_EENS_10HashTraitsIS3_EES9_E4findIS3_NS_22IdentityHashTranslatorIS3_S3_S7_EEEENS_22HashTableConstIteratorIS3_S3_S5_S7_S9_S9_EERKT_
__ZN3WTF9HashTableIPN7WebCore14ScrollableAreaES3_NS_17IdentityExtractorIS3_EENS_7PtrHashIS3_EENS_10HashTraitsIS3_EES9_E6removeEPS3_
__ZN7WebCore20FrameActionSchedulerD1Ev
__ZN3WTF6VectorINS_6OwnPtrIN7WebCore11FrameActionEEELm0EE14shrinkCapacityEm
__ZN7WebCore10ScrollViewD2Ev
__ZN7WebCore6WidgetD2Ev
__ZN7WebCore5Frame13pageDestroyedEv
__ZN7WebCore9DOMWindow16resetGeolocationEv
__ZN7WebCore9DOMWindow13pageDestroyedEv
__ZN7WebCore16ScriptController16clearWindowShellEb
__ZN7WebCore15JSDOMWindowBase25willRemoveFromWindowShellEv
__ZN7WebCore17JSDOMGlobalObject15setCurrentEventEPNS_5EventE
__ZN7WebCore12gcControllerEv
__ZN7WebCore12GCController18garbageCollectSoonEv
__ZN7WebCore16ScriptController18clearScriptObjectsEv
__ZN7WebCore14DragController9dragEndedEv
__ZN7WebCore19DragCaretController16setCaretPositionERKNS_15VisiblePositionE
__ZN7WebCore4PageD1Ev
__ZN7WebCore4PageD2Ev
__ZNK3WTF9HashTableIPN7WebCore4PageES3_NS_17IdentityExtractorIS3_EENS_7PtrHashIS3_EENS_10HashTraitsIS3_EES9_E4findIS3_NS_22IdentityHashTranslatorIS3_S3_S7_EEEENS_22HashTableConstIteratorIS3_S3_S5_S7_S9_S9_EERKT_
__ZN3WTF9HashTableIPN7WebCore4PageES3_NS_17IdentityExtractorIS3_EENS_7PtrHashIS3_EENS_10HashTraitsIS3_EES9_E6removeEPS3_
__ZN7WebCore24InspectorInstrumentation26inspectedPageDestroyedImplEPNS_19InstrumentingAgentsE
__ZN7WebCore14InspectorAgent22inspectedPageDestroyedEv
__ZN7WebCore19InspectorController22inspectedPageDestroyedEv
__ZN7WebCore24InspectorInstrumentation25unbindInstrumentingAgentsEPNS_4PageE
__ZN7WebCore19InspectorController18disconnectFrontendEv
__ZN7WebCore25InspectorDOMDebuggerAgentD0Ev
__ZN7WebCore17PageDebuggerAgentD0Ev
__ZN7WebCore22InspectorDebuggerAgentD2Ev
__ZN3WTF9HashTableINS_6StringESt4pairIS1_N7WebCore22InspectorDebuggerAgent6ScriptEENS_18PairFirstExtractorIS6_EENS_10StringHashENS_14PairHashTraitsINS_10HashTraitsIS1_EENSB_IS5_EEEESC_E15deallocateTableEPS6_i
__ZN3WTF9HashTableINS_6StringESt4pairIS1_N7WebCore22InspectorDebuggerAgent6ScriptEENS_18PairFirstExtractorIS6_EENS_10StringHashENS_14PairHashTraitsINS_10HashTraitsIS1_EENSB_IS5_EEEESC_E16lookupForWritingIS1_NS_22IdentityHashTranslatorIS1_S6_S9_EEEES2_IPS6_bERKT_
__ZN3WTF9HashTableINS_6StringESt4pairIS1_N7WebCore22InspectorDebuggerAgent6ScriptEENS_18PairFirstExtractorIS6_EENS_10StringHashENS_14PairHashTraitsINS_10HashTraitsIS1_EENSB_IS5_EEEESC_E3addIS1_S5_NS_17HashMapTranslatorIS6_SE_S9_EEEES2_INS_17HashTableIteratorIS1_S6_S8_S9_SE_SC_EEbERKT_RKT0_
__ZN3WTF9HashTableINS_6StringESt4pairIS1_N7WebCore22InspectorDebuggerAgent6ScriptEENS_18PairFirstExtractorIS6_EENS_10StringHashENS_14PairHashTraitsINS_10HashTraitsIS1_EENSB_IS5_EEEESC_E6lookupIS1_NS_22IdentityHashTranslatorIS1_S6_S9_EEEEPS6_RKT_
__ZN3WTF9HashTableINS_6StringESt4pairIS1_N7WebCore22InspectorDebuggerAgent6ScriptEENS_18PairFirstExtractorIS6_EENS_10StringHashENS_14PairHashTraitsINS_10HashTraitsIS1_EENSB_IS5_EEEESC_E6rehashEi
__ZN7WebCore21InjectedScriptManager10disconnectEv
__ZN7WebCore18InjectedScriptHost10disconnectEv
__ZN7WebCore18InjectedScriptHostD1Ev
__ZN7WebCore21BackForwardController5closeEv
__ZN7WebCore19BackForwardListImpl5closeEv
__ZN3WTF6VectorINS_6RefPtrIN7WebCore11HistoryItemEEELm0EE14shrinkCapacityEm
__ZN7WebCore21BackForwardControllerD1Ev
__ZN7WebCore19BackForwardListImplD0Ev
__ZN7WebCore15ProgressTrackerD1Ev
__ZN7WebCore8SettingsD2Ev
__ZN7WebCore21GeolocationControllerD1Ev
__ZN7WebCore19InspectorControllerD1Ev
__ZN7WebCore19InspectorControllerD2Ev
__ZN7WebCore20InspectorWorkerAgentD1Ev
__ZN7WebCore22InspectorProfilerAgentD0Ev
__ZN7WebCore21InspectorConsoleAgentD1Ev
__ZN7WebCore12_GLOBAL__N_116PageRuntimeAgentD0Ev
__ZN7WebCore21InspectorRuntimeAgentD2Ev
__ZN7WebCore22InspectorResourceAgentD1Ev
__ZN7WebCore22InspectorResourceAgentD2Ev
__ZN7WebCore14InspectorState10getBooleanERKN3WTF6StringE
__ZN3WTF6OwnPtrIN7WebCore15EventsCollectorEED1Ev
__ZN7WebCore22InspectorTimelineAgentD0Ev
__ZN7WebCore22InspectorTimelineAgent4stopEPN3WTF6StringE
__ZN7WebCore24InspectorDOMStorageAgentD1Ev
__ZN7WebCore22InspectorDatabaseAgentD1Ev
__ZN7WebCore17InspectorCSSAgentD0Ev
__ZN7WebCore17InspectorCSSAgent5resetEv
__ZN7WebCore17InspectorDOMAgentD1Ev
__ZN7WebCore17InspectorDOMAgentD2Ev
__ZN7WebCore17InspectorDOMAgent5resetEv
__ZN7WebCore17InspectorDOMAgent12cancelSearchEPN3WTF6StringE
__ZN7WebCore17InspectorDOMAgent15discardBindingsEv
__ZN3WTF15deleteAllValuesIPNS_7HashMapINS_6RefPtrIN7WebCore4NodeEEEiNS_7PtrHashIS5_EENS_10HashTraitsIS5_EENS8_IiEEEELm0EEEvRKNS_6VectorIT_XT0_EEE
__ZN3WTF6OwnPtrIN7WebCore28RevalidateStyleAttributeTaskEED1Ev
__ZN3WTF6OwnPtrIN7WebCore18InspectorPageAgentEED1Ev
__ZN7WebCore14InspectorAgentD0Ev
__ZN7WebCore14InspectorStateD0Ev
__ZN7WebCore15InspectorObjectD0Ev
__ZN7WebCore21InjectedScriptManagerD1Ev
__ZN7WebCore21ContextMenuControllerD1Ev
__ZN7WebCore13HitTestResultD1Ev
__ZN7WebCore14DragControllerD1Ev
__ZN7WebCore6ChromeD0Ev
__ZN7WebCore5Frame9scalePageEfRKNS_8IntPointE
__ZN7WebCore9FrameView17setScrollPositionERKNS_8IntPointE
__ZN7WebCore10ScrollView17setScrollPositionERKNS_8IntPointE
__ZN7WebCore10ScrollView25platformSetScrollPositionERKNS_8IntPointE
__ZN7WebCore9FrameTree9clearNameEv
__ZNK7WebCore4Page9groupNameEv
__ZN7WebCore8Settings22setMinDOMTimerIntervalEd
__ZN7WebCore4Page23setMinimumTimerIntervalEd
__ZN7WebCore22ScriptExecutionContext26adjustMinimumTimerIntervalEd
__ZThn208_NK7WebCore8Document20minimumTimerIntervalEv
__ZN7WebCore8Settings19minDOMTimerIntervalEv
__ZNK7WebCore4Page20minimumTimerIntervalEv
__ZNK7WebCore9FrameTree20traverseNextWithWrapEb
__ZN7WebCore19InspectorController15disableProfilerEv
__ZN7WebCore22InspectorProfilerAgent7disableEPN3WTF6StringE
__ZN7WebCore14InspectorState8setValueERKN3WTF6StringENS1_10PassRefPtrINS_14InspectorValueEEE
__ZN7WebCore15InspectorObject8setValueERKN3WTF6StringENS1_10PassRefPtrINS_14InspectorValueEEE
__ZN3WTF17HashMapTranslatorISt4pairINS_6StringENS_6RefPtrIN7WebCore14InspectorValueEEEENS_14PairHashTraitsINS_10HashTraitsIS2_EENS9_IS6_EEEENS_10StringHashEE9translateERS7_RKS2_RKS6_
__ZN7WebCore14InspectorState12updateCookieEv
__ZNK7WebCore14InspectorValue12toJSONStringEv
__ZNK7WebCore15InspectorObject9writeJSONEPN3WTF6VectorItLm0EEE
__ZN7WebCore12_GLOBAL__N_117doubleQuoteStringERKN3WTF6StringEPNS1_6VectorItLm0EEE
__ZNK7WebCore19InspectorBasicValue9writeJSONEPN3WTF6VectorItLm0EEE
__ZN7WebCore29setUsesTestModeFocusRingColorEb
__ZN7WebCore14SecurityOrigin27resetOriginAccessWhitelistsEv
__ZN3WTF20deleteAllPairSecondsIPNS_6VectorIN7WebCore17OriginAccessEntryELm0EEEKNS_7HashMapINS_6StringES5_NS_10StringHashENS_10HashTraitsIS7_EENS9_IS5_EEEEEEvRT0_
__ZN7WebCore11FrameLoader9setOpenerEPNS_5FrameE
__ZN7WebCore21ContentSecurityPolicyD1Ev
__ZN7WebCore21ContentSecurityPolicyD2Ev
__ZN7WebCore19BackForwardListImpl7enabledEv
__ZN7WebCore19BackForwardListImpl11currentItemEv
__ZN7WebCore11FrameLoader4loadERKNS_15ResourceRequestEb
__ZN7WebCore11FrameLoader4loadERKNS_15ResourceRequestERKNS_14SubstituteDataEb
__ZN7WebCore11FrameLoader4loadEPNS_14DocumentLoaderE
__ZN7WebCore11FrameLoader23addExtraFieldsToRequestERNS_15ResourceRequestENS_13FrameLoadTypeEbb
__ZN7WebCore19ResourceRequestBase23setFirstPartyForCookiesERKNS_4KURLE
__ZNK7WebCore14DocumentLoader15originalRequestEv
__ZNK7WebCore11FrameLoader29shouldTreatURLAsSameAsCurrentERKNS_4KURLE
__ZN7WebCore11FrameLoader34shouldReloadToHandleUnreachableURLEPNS_14DocumentLoaderE
__ZNK7WebCore14DocumentLoader14unreachableURLEv
__ZN7WebCore11FrameLoader22loadWithDocumentLoaderEPNS_14DocumentLoaderENS_13FrameLoadTypeEN3WTF10PassRefPtrINS_9FormStateEEE
__ZNK7WebCore4KURL21hasFragmentIdentifierEv
__ZN7WebCore16NavigationActionC1ERKNS_4KURLENS_13FrameLoadTypeEb
__ZN7WebCore16NavigationActionC2ERKNS_4KURLENS_13FrameLoadTypeEb
__ZN7WebCore13PolicyChecker21checkNavigationPolicyERKNS_15ResourceRequestEPNS_14DocumentLoaderEN3WTF10PassRefPtrINS_9FormStateEEEPFvPvS3_S9_bESA_
__ZN7WebCore25equalIgnoringHeaderFieldsERKNS_19ResourceRequestBaseES2_
__ZN7WebCore14PolicyCallback3setERKNS_15ResourceRequestEN3WTF10PassRefPtrINS_9FormStateEEEPFvPvS3_S7_bES8_
__ZN7WebCore21findEventWithKeyStateEPNS_5EventE
__ZN7WebCore13PolicyChecker29continueAfterNavigationPolicyENS_12PolicyActionE
__ZN7WebCore14PolicyCallback4callEb
__ZN7WebCore11FrameLoader37callContinueLoadAfterNavigationPolicyEPvRKNS_15ResourceRequestEN3WTF10PassRefPtrINS_9FormStateEEEb
__ZN7WebCore11FrameLoader33continueLoadAfterNavigationPolicyERKNS_15ResourceRequestEN3WTF10PassRefPtrINS_9FormStateEEEb
__ZN7WebCore11FrameLoader11shouldCloseEv
__ZN7WebCore6Chrome30canRunBeforeUnloadConfirmPanelEv
__ZN3WTF6VectorINS_6RefPtrIN7WebCore5FrameEEELm0EE14expandCapacityEm
__ZNK7WebCore9FrameTree14isDescendantOfEPKNS_5FrameE
__ZN7WebCore11FrameLoader21fireBeforeUnloadEventEPNS_6ChromeE
__ZN7WebCore17BeforeUnloadEventC1Ev
__ZN7WebCore17BeforeUnloadEventD0Ev
__ZN7WebCore19InspectorController6resumeEv
__ZN7WebCore22InspectorDebuggerAgent6resumeEPN3WTF6StringE
__ZN7WebCore21InjectedScriptManager18releaseObjectGroupERKN3WTF6StringE
__ZN7WebCore17PageDebuggerAgent17scriptDebugServerEv
__ZN7WebCore21PageScriptDebugServer6sharedEv
__ZN7WebCore17ScriptDebugServerC2Ev
__ZN7WebCore17ScriptDebugServer15continueProgramEv
__ZN7WebCore11FrameLoader31continueLoadAfterWillSubmitFormEv
__ZN7WebCore14DocumentLoader19prepareForLoadStartEv
__ZN7WebCore14DocumentLoader22setPrimaryLoadCompleteEb
__ZN7WebCore14DocumentLoader11clearErrorsEv
__ZN7WebCore17ResourceErrorBaseaSERKS0_
__ZN7WebCore17ResourceErrorBaseD2Ev
__ZN7WebCore11FrameLoader19prepareForLoadStartEv
__ZN7WebCore15ProgressTracker15progressStartedEPNS_5FrameE
__ZN7WebCore15ProgressTracker5resetEv
__ZN7WebCore21applicationIsApertureEv
__ZNK7WebCore14DocumentLoader21isLoadingMainResourceEv
__ZN7WebCore15ProgressTracker22createUniqueIdentifierEv
__ZN7WebCore20ResourceLoadNotifier32assignIdentifierToInitialRequestEmPNS_14DocumentLoaderERKNS_15ResourceRequestE
__ZNK7WebCore11FrameLoader14frameHasLoadedEv
__ZN7WebCore14DocumentLoader24startLoadingMainResourceEm
__ZN7WebCore18MainResourceLoader6createEPNS_5FrameE
__ZN7WebCore18MainResourceLoaderC2EPNS_5FrameE
__ZN7WebCore14ResourceLoaderC2EPNS_5FrameEbb
__ZN7WebCore11FrameLoader35addExtraFieldsToMainResourceRequestERNS_15ResourceRequestE
__ZN7WebCore18MainResourceLoader4loadERKNS_15ResourceRequestERKNS_14SubstituteDataE
__ZN7WebCore14SubstituteDataaSERKS0_
__ZN7WebCore20ApplicationCacheHost21maybeLoadMainResourceERNS_15ResourceRequestERNS_14SubstituteDataE
__ZN7WebCore21ApplicationCacheGroup19cacheForMainRequestERKNS_15ResourceRequestEPNS_14DocumentLoaderE
__ZN7WebCore16ApplicationCache23requestIsHTTPOrHTTPSGetERKNS_15ResourceRequestE
__ZN7WebCore18MainResourceLoader7loadNowERNS_15ResourceRequestE
__ZN7WebCoreL25shouldLoadAsEmptyDocumentERKNS_4KURLE
__ZN7WebCore14SchemeRegistry34shouldLoadURLSchemeAsEmptyDocumentERKN3WTF6StringE
__ZN7WebCoreL20emptyDocumentSchemesEv
__ZN7WebCore18MainResourceLoader15willSendRequestERNS_15ResourceRequestERKNS_16ResourceResponseE
__ZNK7WebCore14ResourceLoader11frameLoaderEv
__ZNK7WebCore11FrameLoader18isLoadingMainFrameEv
__ZN7WebCore18MainResourceLoader25isPostOrRedirectAfterPostERKNS_15ResourceRequestERKNS_16ResourceResponseE
__ZNK7WebCore20ResourceResponseBase14httpStatusCodeEv
__ZNK7WebCore9FrameTree3topEb
__ZN7WebCore14ResourceLoader15willSendRequestERNS_15ResourceRequestERKNS_16ResourceResponseE
__ZN7WebCore20ResourceLoadNotifier15willSendRequestEPNS_14ResourceLoaderERNS_15ResourceRequestERKNS_16ResourceResponseE
__ZN7WebCore11FrameLoader14applyUserAgentERNS_15ResourceRequestE
__ZNK7WebCore11FrameLoader9userAgentERKNS_4KURLE
__ZN7WebCore19ResourceRequestBase18setHTTPHeaderFieldEPKcRKN3WTF6StringE
__ZN7WebCore19ResourceRequestBase18setHTTPHeaderFieldERKN3WTF12AtomicStringERKNS1_6StringE
__ZN7WebCore20ResourceLoadNotifier23dispatchWillSendRequestEPNS_14DocumentLoaderEmRNS_15ResourceRequestERKNS_16ResourceResponseE
__ZN7WebCore24InspectorInstrumentation19willSendRequestImplEPNS_19InstrumentingAgentsEmPNS_14DocumentLoaderERNS_15ResourceRequestERKNS_16ResourceResponseE
__ZNSt4pairIN3WTF12AtomicStringENS0_6StringEEaSERKS3_
__ZN7WebCore14DocumentLoader10setRequestERKNS_15ResourceRequestE
__ZN7WebCore21ResourceLoadScheduler19addMainResourceLoadEPNS_14ResourceLoaderE
__ZN7WebCore21ResourceLoadScheduler10hostForURLERKNS_4KURLENS0_16CreateHostPolicyE
__ZN7WebCore11FrameLoader32representationExistsForURLSchemeERKN3WTF6StringE
__ZNK7WebCore11FrameLoader17networkingContextEv
__ZN7WebCore14ResourceHandle6createEPNS_17NetworkingContextERKNS_15ResourceRequestEPNS_20ResourceHandleClientEbb
__ZN7WebCore14ResourceHandleC2ERKNS_15ResourceRequestEPNS_20ResourceHandleClientEbb
__ZN7WebCore22ResourceHandleInternalC2EPNS_14ResourceHandleERKNS_15ResourceRequestEPNS_20ResourceHandleClientEbb
__ZN7WebCore10CredentialC1Ev
__ZN7WebCore27AuthenticationChallengeBaseC2Ev
__ZN7WebCore15ProtectionSpaceC1Ev
__ZNK7WebCore4KURL4userEv
__ZNK7WebCore4KURL4passEv
__ZN7WebCore19ResourceRequestBase17removeCredentialsEv
__ZN7WebCore4KURL5parseERKN3WTF6StringE
__ZN7WebCore11portAllowedERKNS_4KURLE
__ZN7WebCore14ResourceHandle5startEPNS_17NetworkingContextE
__ZN7WebCore14ResourceHandle8delegateEv
-[WebCoreResourceHandleAsDelegate initWithHandle:]
__ZNK7WebCore14ResourceHandle6clientEv
__ZN7WebCore14ResourceLoader26shouldUseCredentialStorageEPNS_14ResourceHandleE
__ZN7WebCore14ResourceLoader26shouldUseCredentialStorageEv
__ZN7WebCore11FrameLoader26shouldUseCredentialStorageEPNS_14ResourceLoaderE
__ZN7WebCore14ResourceHandle21createNSURLConnectionEP11objc_objectbb
__ZN7WebCore14ResourceHandle12firstRequestEv
__ZN7WebCore28privateBrowsingCookieStorageEv
__ZNK7WebCore10Credential7isEmptyEv
__ZN7WebCore14ResourceHandle29privateBrowsingStorageSessionEv
-[WebCoreResourceHandleAsDelegate connectionShouldUseCredentialStorage:]
__ZN7WebCoreL51fontCacheRegisteredFontsChangedNotificationCallbackEP22__CFNotificationCenterPvPK10__CFStringPKvPK14__CFDictionary
__ZN7WebCore9FontCache10invalidateEv
__ZN3WTF20deleteAllPairSecondsIPN7WebCore16FontPlatformDataEKNS_7HashMapINS1_24FontPlatformDataCacheKeyES3_NS1_28FontPlatformDataCacheKeyHashENS1_30FontPlatformDataCacheKeyTraitsENS_10HashTraitsIS3_EEEEEEvRT0_
__ZN3WTF22HashTableConstIteratorIN7WebCore24FontPlatformDataCacheKeyESt4pairIS2_PNS1_16FontPlatformDataEENS_18PairFirstExtractorIS6_EENS1_28FontPlatformDataCacheKeyHashENS_14PairHashTraitsINS1_30FontPlatformDataCacheKeyTraitsENS_10HashTraitsIS5_EEEESB_E16skipEmptyBucketsEv
__ZN7WebCore15CSSFontSelector20fontCacheInvalidatedEv
__ZN7WebCore15CSSFontSelector29dispatchInvalidationCallbacksEv
__ZN7WebCore8Document25scheduleForcedStyleRecalcEv
__ZN7WebCore9FontCache21purgeInactiveFontDataEi
__ZN7WebCore5TimerINS_5FrameEE5firedEv
__ZN7WebCore5Frame21lifeSupportTimerFiredEPNS_5TimerIS0_EE
__ZN7WebCore5FrameD2Ev
__ZN7WebCore11FrameLoader14cancelAndClearEv
__ZN7WebCore14FrameSelection5clearEv
__ZN7WebCore14FrameSelection12setSelectionERKNS_16VisibleSelectionEjNS0_19CursorAlignOnScrollENS_15TextGranularityENS_20DirectionalityPolicyE
__ZN7WebCore13TypingCommand11closeTypingEPNS_11EditCommandE
__ZN7WebCoreeqERKNS_16VisibleSelectionES2_
__ZN7WebCore14FrameSelection31notifyRendererOfSelectionChangeEb
__ZN7WebCore14SubframeLoader5clearEv
__ZN7WebCore19NavigationScheduler5clearEv
__ZN7WebCore9DOMWindow15disconnectFrameEv
__ZN7WebCore9DOMWindow5clearEv
__ZN7WebCore7Console15disconnectFrameEv
__ZN7WebCore7ConsoleD0Ev
__ZN7WebCore19AnimationControllerD1Ev
__ZN7WebCore26AnimationControllerPrivateD2Ev
__ZN7WebCore12EventHandlerD1Ev
__ZN7WebCore12EventHandlerD2Ev
__ZN7WebCore6EditorD1Ev
__ZN7WebCore6EditorD2Ev
__ZN7WebCore28SpellingCorrectionControllerD1Ev
__ZN7WebCore19CorrectionPanelInfoD1Ev
__ZN7WebCore12SpellCheckerD1Ev
__ZN7WebCore22DeleteButtonControllerD1Ev
__ZN7WebCore16ScriptControllerD1Ev
__ZN7WebCore16ScriptControllerD2Ev
__ZN7WebCore16ScriptController31disconnectPlatformScriptObjectsEv
__ZN7WebCore16ScriptController18destroyWindowShellEPNS_15DOMWrapperWorldE
__ZNK3WTF9HashTableIPN7WebCore16ScriptControllerES3_NS_17IdentityExtractorIS3_EENS_7PtrHashIS3_EENS_10HashTraitsIS3_EES9_E4findIS3_NS_22IdentityHashTranslatorIS3_S3_S7_EEEENS_22HashTableConstIteratorIS3_S3_S5_S7_S9_S9_EERKT_
__ZN3WTF9HashTableIPN7WebCore16ScriptControllerES3_NS_17IdentityExtractorIS3_EENS_7PtrHashIS3_EENS_10HashTraitsIS3_EES9_E6removeEPS3_
__ZN7WebCore19NavigationSchedulerD1Ev
__ZN7WebCore11FrameLoaderD1Ev
__ZN7WebCore11FrameLoaderD2Ev
__ZN7WebCore14DocumentLoaderD2Ev
__ZN7WebCore20ApplicationCacheHostD1Ev
__ZN7WebCore20ApplicationCacheHostD2Ev
__ZN7WebCore14DocumentWriterD1Ev
__ZN7WebCore17HistoryControllerD1Ev
__ZN7WebCore9FrameTreeD1Ev
__ZN7WebCore9FrameTreeD2Ev
__ZN7WebCore5TimerINS_12GCControllerEE5firedEv
__ZN7WebCore12GCController12gcTimerFiredEPNS_5TimerIS0_EE
__ZN7WebCore11JSNodeOwner26isReachableFromOpaqueRootsEN3JSC6HandleINS1_7UnknownEEEPvRNS1_9MarkStackE
__ZNK3WTF9HashTableIPvS1_NS_17IdentityExtractorIS1_EENS_7PtrHashIS1_EENS_10HashTraitsIS1_EES7_E8containsIS1_NS_22IdentityHashTranslatorIS1_S1_S5_EEEEbRKT_
__ZN7WebCore11JSNodeOwner8finalizeEN3JSC6HandleINS1_7UnknownEEEPv
__ZN7WebCore14uncacheWrapperINS_4NodeEEEvPNS_15DOMWrapperWorldEPT_PNS_12JSDOMWrapperE
__ZN7WebCore14JSHTMLDocumentD1Ev
__ZThn8_N7WebCore8Document14removedLastRefEv
__ZN7WebCore8Document14removedLastRefEv
__ZN7WebCore14StyleSheetListD1Ev
__ZN7WebCore9TreeScope20destroyTreeScopeDataEv
__ZN7WebCore18DocumentOrderedMap5clearEv
__ZN7WebCore13ContainerNode17removeAllChildrenEv
__ZN7WebCore28removeAllChildrenInContainerINS_4NodeENS_13ContainerNodeEEEvPT0_
__ZN7WebCore15HTMLHtmlElementD0Ev
__ZN7WebCore13StyledElementD2Ev
__ZN7WebCore7ElementD2Ev
__ZN7WebCore7Element16removeShadowRootEv
__ZN7WebCore13ContainerNodeD2Ev
__ZN7WebCore4NodeD2Ev
__ZN7WebCore11EventTargetD2Ev
__ZN7WebCore15HTMLHeadElementD0Ev
__ZN7WebCore15HTMLBodyElementD0Ev
__ZN7WebCore4TextD0Ev
__ZN7WebCore24DocumentMarkerController6detachEv
__ZN3WTF9HashTableINS_6StringESt4pairIS1_NS_6RefPtrIN7WebCore17HTMLCanvasElementEEEENS_18PairFirstExtractorIS7_EENS_10StringHashENS_14PairHashTraitsINS_10HashTraitsIS1_EENSC_IS6_EEEESD_E15deallocateTableEPS7_i
__ZN3WTF9HashTableINS_6StringESt4pairIS1_NS_6RefPtrIN7WebCore17HTMLCanvasElementEEEENS_18PairFirstExtractorIS7_EENS_10StringHashENS_14PairHashTraitsINS_10HashTraitsIS1_EENSC_IS6_EEEESD_E16lookupForWritingIS1_NS_22IdentityHashTranslatorIS1_S7_SA_EEEES2_IPS7_bERKT_
__ZN3WTF9HashTableINS_6StringESt4pairIS1_NS_6RefPtrIN7WebCore17HTMLCanvasElementEEEENS_18PairFirstExtractorIS7_EENS_10StringHashENS_14PairHashTraitsINS_10HashTraitsIS1_EENSC_IS6_EEEESD_E3addIS1_S6_NS_17HashMapTranslatorIS7_SF_SA_EEEES2_INS_17HashTableIteratorIS1_S7_S9_SA_SF_SD_EEbERKT_RKT0_
__ZN3WTF9HashTableINS_6StringESt4pairIS1_NS_6RefPtrIN7WebCore17HTMLCanvasElementEEEENS_18PairFirstExtractorIS7_EENS_10StringHashENS_14PairHashTraitsINS_10HashTraitsIS1_EENSC_IS6_EEEESD_E6lookupIS1_NS_22IdentityHashTranslatorIS1_S7_SA_EEEEPS7_RKT_
__ZN3WTF9HashTableINS_6StringESt4pairIS1_NS_6RefPtrIN7WebCore17HTMLCanvasElementEEEENS_18PairFirstExtractorIS7_EENS_10StringHashENS_14PairHashTraitsINS_10HashTraitsIS1_EENSC_IS6_EEEESD_E6rehashEi
__ZN7WebCore12HTMLDocumentD0Ev
__ZN7WebCore8DocumentD2Ev
__ZN7WebCore12ScriptRunnerD1Ev
__ZN7WebCore12ScriptRunnerD2Ev
__ZN7WebCore20CachedResourceLoaderD1Ev
__ZN7WebCore20CachedResourceLoaderD2Ev
__ZN7WebCore20CachedResourceLoader13clearPreloadsEv
__ZN3WTF6OwnPtrINS_11ListHashSetIPN7WebCore14CachedResourceELm256ENS_7PtrHashIS4_EEEEED1Ev
__ZN3WTF9HashTableINS_6StringESt4pairIS1_N7WebCore20CachedResourceHandleINS3_14CachedResourceEEEENS_18PairFirstExtractorIS7_EENS_10StringHashENS_14PairHashTraitsINS_10HashTraitsIS1_EENSC_IS6_EEEESD_E15deallocateTableEPS7_i
__ZN3WTF9HashTableINS_6StringESt4pairIS1_N7WebCore20CachedResourceHandleINS3_14CachedResourceEEEENS_18PairFirstExtractorIS7_EENS_10StringHashENS_14PairHashTraitsINS_10HashTraitsIS1_EENSC_IS6_EEEESD_E16lookupForWritingIS1_NS_22IdentityHashTranslatorIS1_S7_SA_EEEES2_IPS7_bERKT_
__ZN3WTF9HashTableINS_6StringESt4pairIS1_N7WebCore20CachedResourceHandleINS3_14CachedResourceEEEENS_18PairFirstExtractorIS7_EENS_10StringHashENS_14PairHashTraitsINS_10HashTraitsIS1_EENSC_IS6_EEEESD_E3addIS1_S6_NS_17HashMapTranslatorIS7_SF_SA_EEEES2_INS_17HashTableIteratorIS1_S7_S9_SA_SF_SD_EEbERKT_RKT0_
__ZN3WTF9HashTableINS_6StringESt4pairIS1_N7WebCore20CachedResourceHandleINS3_14CachedResourceEEEENS_18PairFirstExtractorIS7_EENS_10StringHashENS_14PairHashTraitsINS_10HashTraitsIS1_EENSC_IS6_EEEESD_E6lookupIS1_NS_22IdentityHashTranslatorIS1_S7_SA_EEEEPS7_RKT_
__ZN3WTF9HashTableINS_6StringESt4pairIS1_N7WebCore20CachedResourceHandleINS3_14CachedResourceEEEENS_18PairFirstExtractorIS7_EENS_10StringHashENS_14PairHashTraitsINS_10HashTraitsIS1_EENSC_IS6_EEEESD_E6rehashEi
__ZN3WTF9HashTableINS_6StringESt4pairIS1_N7WebCore20CachedResourceHandleINS3_14CachedResourceEEEENS_18PairFirstExtractorIS7_EENS_10StringHashENS_14PairHashTraitsINS_10HashTraitsIS1_EENSC_IS6_EEEESD_E6removeEPS7_
__ZN7WebCore19TextResourceDecoderD1Ev
__ZN3WTF5DequeINS_6RefPtrIN7WebCore7ElementEEELm0EE10destroyAllEv
__ZN7WebCore10EventQueueD1Ev
__ZN7WebCore15EventQueueTimerD0Ev
__ZN7WebCore16SuspendableTimerD2Ev
__ZN7WebCore15ActiveDOMObjectD2Ev
__ZN7WebCore22ScriptExecutionContext24destroyedActiveDOMObjectEPNS_15ActiveDOMObjectE
__ZN7WebCore15CollectionCacheD1Ev
__ZN3WTF6OwnPtrIN7WebCore24DocumentMarkerControllerEED1Ev
__ZN3WTF6OwnPtrINS_6VectorINS_6RefPtrIN7WebCore13CSSStyleSheetEEELm0EEEED1Ev
__ZN7WebCore22ScriptExecutionContextD2Ev
__ZN3WTF6OwnPtrINS_6VectorINS0_IN7WebCore22ScriptExecutionContext16PendingExceptionEEELm0EEEED1Ev
__ZN7WebCore9TreeScopeD2Ev
__ZN7WebCore20StringSourceProviderD0Ev
__ZN3JSC14SourceProviderD2Ev
__ZN7WebCore16JSDOMWindowShellD1Ev
__ZN7WebCore11JSDOMWindowD1Ev
__ZN7WebCore17JSDOMGlobalObjectD2Ev
__ZN7WebCore9DOMWindowD0Ev
__ZN7WebCore15EventTargetDataD1Ev
__ZN7WebCore20JSDOMWindowPrototypeD1Ev
__ZN7WebCore15JSNodePrototypeD1Ev
__ZN7WebCore19JSDocumentPrototypeD1Ev
__ZN7WebCore23JSHTMLDocumentPrototypeD1Ev
__ZN7WebCore5TimerINS_8SettingsEE5firedEv
__ZN7WebCore8Settings34loadsImagesAutomaticallyTimerFiredEPNS_5TimerIS0_EE
__ZN7WebCore5TimerINS_8DocumentEE5firedEv
__ZN7WebCore8Document21styleRecalcTimerFiredEPNS_5TimerIS0_EE
-[WebCoreResourceHandleAsDelegate connection:didReceiveResponse:]
__ZN7WebCore25adjustMIMETypeIfNecessaryEP14_CFURLResponse
__ZN7WebCore16ResourceResponseC1EP13NSURLResponse
__ZN7WebCore14ResourceLoader18didReceiveResponseEPNS_14ResourceHandleERKNS_16ResourceResponseE
__ZN7WebCore20ApplicationCacheHost28maybeLoadFallbackForResponseEPNS_14ResourceLoaderERKNS_16ResourceResponseE
__ZN7WebCore18MainResourceLoader18didReceiveResponseERKNS_16ResourceResponseE
__ZN7WebCore20ApplicationCacheHost32maybeLoadFallbackForMainResponseERKNS_15ResourceRequestERKNS_16ResourceResponseE
__ZNK7WebCore20ResourceResponseBase16httpHeaderFieldsEv
__ZN7WebCore13PolicyChecker18checkContentPolicyERKNS_16ResourceResponseEPFvPvNS_12PolicyActionEES4_
__ZN7WebCore14PolicyCallback3setEPFvPvNS_12PolicyActionEES1_
__ZN7WebCore13PolicyChecker26continueAfterContentPolicyENS_12PolicyActionE
__ZN7WebCore14PolicyCallback4callENS_12PolicyActionE
__ZN7WebCore18MainResourceLoader30callContinueAfterContentPolicyEPvNS_12PolicyActionE
__ZN7WebCore18MainResourceLoader26continueAfterContentPolicyENS_12PolicyActionE
__ZNK7WebCore11FrameLoader10isStoppingEv
__ZN7WebCore18MainResourceLoader26continueAfterContentPolicyENS_12PolicyActionERKNS_16ResourceResponseE
__ZNK7WebCore11FrameLoader15canShowMIMETypeERKN3WTF6StringE
__ZNK7WebCore20ResourceResponseBase6isHTTPEv
__ZN7WebCore14ResourceLoader18didReceiveResponseERKNS_16ResourceResponseE
__ZN7WebCore20ResourceLoadNotifier18didReceiveResponseEPNS_14ResourceLoaderERKNS_16ResourceResponseE
__ZN7WebCore14DocumentLoader11addResponseERKNS_16ResourceResponseE
__ZN3WTF6VectorIN7WebCore16ResourceResponseELm0EE15reserveCapacityEm
__ZN3WTF11VectorMoverILb0EN7WebCore16ResourceResponseEE4moveEPKS2_S5_PS2_
__ZN7WebCore20ResourceResponseBaseC2ERKS0_
__ZN7WebCore15ProgressTracker17incrementProgressEmRKNS_16ResourceResponseE
__ZNK7WebCore20ResourceResponseBase21expectedContentLengthEv
__ZN7WebCore20ResourceLoadNotifier26dispatchDidReceiveResponseEPNS_14DocumentLoaderEmRKNS_16ResourceResponseE
__ZN7WebCore24InspectorInstrumentation31willReceiveResourceResponseImplEPNS_19InstrumentingAgentsEmRKNS_16ResourceResponseE
__ZN7WebCore24InspectorInstrumentation30didReceiveResourceResponseImplERKSt4pairIPNS_19InstrumentingAgentsEiEmPNS_14DocumentLoaderERKNS_16ResourceResponseE
__ZN7WebCore21InspectorConsoleAgent18didReceiveResponseEmRKNS_16ResourceResponseE
__ZN7WebCore5TimerINS_21ResourceLoadSchedulerEE5firedEv
__ZN7WebCore21ResourceLoadScheduler17requestTimerFiredEPNS_5TimerIS0_EE
__ZN7WebCore21ResourceLoadScheduler20servePendingRequestsENS_20ResourceLoadPriorityE
__ZN7WebCore21ResourceLoadScheduler20servePendingRequestsEPNS0_15HostInformationENS_20ResourceLoadPriorityE
-[WebCoreResourceHandleAsDelegate connection:didReceiveData:lengthReceived:]
__ZN7WebCore14ResourceLoader14didReceiveDataEPNS_14ResourceHandleEPKcii
__ZN7WebCore18MainResourceLoader14didReceiveDataEPKcixb
__ZN7WebCore20ApplicationCacheHost24mainResourceDataReceivedEPKcixb
__ZN7WebCore14ResourceLoader14didReceiveDataEPKcixb
__ZN7WebCore18MainResourceLoader7addDataEPKcib
__ZN7WebCore14ResourceLoader7addDataEPKcib
__ZN7WebCore14ResourceHandle20supportsBufferedDataEv
__ZN7WebCore14DocumentLoader12receivedDataEPKci
__ZNK7WebCore11FrameLoader11isReplacingEv
__ZN7WebCore14DocumentLoader10commitLoadEPKci
__ZN7WebCore22SharedWorkerRepository16hasSharedWorkersEPNS_8DocumentE
__ZN7WebCore17ScrollAnimatorMac16cancelAnimationsEv
-[ScrollbarPainterDelegate cancelAnimations]
__ZN7WebCore9DOMWindow18dispatchTimedEventEN3WTF10PassRefPtrINS_5EventEEEPNS_8DocumentEPdS7_
__ZNK7WebCore14SecurityOrigin20isSecureTransitionToERKNS_4KURLE
__ZN7WebCore14DocumentLoader23stopLoadingSubresourcesEv
__ZN7WebCore14DocumentLoader18stopLoadingPlugInsEv
__ZN7WebCore17HistoryController36updateBackForwardListClippedAtTargetEb
__ZN7WebCore11FrameLoader30checkDidPerformFirstNavigationEv
__ZN7WebCore21BackForwardController11itemAtIndexEi
__ZN7WebCore19BackForwardListImpl11itemAtIndexEi
__ZN7WebCore17HistoryController14createItemTreeEPNS_5FrameEb
__ZN7WebCore17HistoryController10createItemEv
__ZN7WebCore11HistoryItemC1Ev
__ZN7WebCore11HistoryItemC2Ev
__ZN7WebCore17HistoryController14initializeItemEPNS_11HistoryItemE
__ZNK7WebCore14DocumentLoader11originalURLEv
__ZN7WebCore11HistoryItem6setURLERKNS_4KURLE
__ZN7WebCore9PageCache6removeEPNS_11HistoryItemE
__ZN7WebCore11HistoryItem12setURLStringERKN3WTF6StringE
__ZN7WebCore12iconDatabaseEv
__ZN7WebCore11HistoryItem9setTargetERKN3WTF6StringE
__ZN7WebCore11HistoryItem9setParentERKN3WTF6StringE
__ZN7WebCore11HistoryItem8setTitleERKN3WTF6StringE
__ZN7WebCore11HistoryItem20setOriginalURLStringERKN3WTF6StringE
__ZN7WebCore11HistoryItem22setFormInfoFromRequestERKNS_15ResourceRequestE
__ZNK7WebCore19ResourceRequestBase15httpHeaderFieldEPKc
__ZN3WTF12StringHasher11computeHashIcXadL_ZNS_15CaseFoldingHash8foldCaseIcEEtT_EEEEjPKS4_j
__ZN7WebCore11HistoryItem15setIsTargetItemEb
__ZN7WebCore21BackForwardController7addItemEN3WTF10PassRefPtrINS_11HistoryItemEEE
__ZN7WebCore19BackForwardListImpl7addItemEN3WTF10PassRefPtrINS_11HistoryItemEEE
__ZN3WTF6VectorINS_6RefPtrIN7WebCore11HistoryItemEEELm0EE14expandCapacityEm
__ZNK7WebCore14DocumentLoader28urlForHistoryReflectsFailureEv
__ZNK7WebCore14DocumentLoader19originalRequestCopyEv
__ZN7WebCore19BackForwardListImpl16forwardListCountEv
__ZN7WebCore18platformStrategiesEv
__ZN7WebCore9PageGroup18addVisitedLinkHashEy
__ZN7WebCoreL24schemesWithUniqueOriginsEv
__ZNK7WebCore4KURL7hasPathEv
__ZNK7WebCore4KURL4pathEv
__ZN3WTF6VectorItLm0EE14expandCapacityEm
__ZN7WebCore9DOMWindow9setStatusERKN3WTF6StringE
__ZN7WebCore6Chrome16setStatusbarTextEPNS_5FrameERKN3WTF6StringE
__ZNK7WebCore5Frame31displayStringModifiedByEncodingERKN3WTF6StringE
__ZNK7WebCore8Document31displayStringModifiedByEncodingERKN3WTF6StringE
__ZN7WebCore9DOMWindow16setDefaultStatusERKN3WTF6StringE
__ZN7WebCore14ArchiveFactory17isArchiveMimeTypeERKN3WTF6StringE
__ZN7WebCore8Document24setShouldCreateRenderersEb
__ZN7WebCore14DocumentLoader10commitDataEPKci
__ZNK7WebCore20ResourceResponseBase16textEncodingNameEv
__ZN7WebCore14DocumentWriter11setEncodingERKN3WTF6StringEb
__ZN7WebCore11FrameLoader15willSetEncodingEv
__ZN7WebCore11FrameLoader17receivedFirstDataEv
__ZN7WebCore8Document6setURLERKNS_4KURLE
__ZN7WebCore8Document13updateBaseURLEv
__ZN7WebCore14SecurityOrigin20grantUniversalAccessEv
__ZN7WebCore13ContainerNode10willRemoveEv
__ZN7WebCore7Element10willRemoveEv
__ZNK7WebCore7Element25containsFullScreenElementEv
__ZN7WebCore4Node10willRemoveEv
__ZN7WebCore8Document26removeFocusedNodeOfSubtreeEPNS_4NodeEb
__ZN7WebCore9FrameView5clearEv
__ZNK7WebCore11HistoryItem13documentStateEv
__ZN7WebCore8Document26setStateForNewFormElementsERKN3WTF6VectorINS1_6StringELm0EEE
__ZN7WebCore14DocumentWriter38setDocumentWasLoadedAsPartOfNavigationEv
__ZN7WebCore11FrameLoader21dispatchDidCommitLoadEv
__ZN7WebCore24InspectorInstrumentation17didCommitLoadImplEPNS_19InstrumentingAgentsEPNS_4PageEPNS_14DocumentLoaderE
__ZN7WebCore21InspectorConsoleAgent5resetEv
__ZN7WebCore21InspectorConsoleAgent20clearConsoleMessagesEPN3WTF6StringE
__ZN3WTF6VectorINS_6OwnPtrIN7WebCore14ConsoleMessageEEELm0EE14shrinkCapacityEm
__ZN7WebCore17InspectorDOMAgent20releaseDanglingNodesEv
__ZN7WebCore22InspectorProfilerAgent10resetStateEv
__ZN7WebCore22InspectorDatabaseAgent14clearResourcesEv
__ZN7WebCore14InspectorAgent13didCommitLoadEv
__ZN7WebCore21InjectedScriptManager22discardInjectedScriptsEv
__ZN7WebCore11FrameLoader40dispatchDidClearWindowObjectsInAllWorldsEv
__ZN7WebCore16ScriptController12getAllWorldsERN3WTF6VectorIPNS_15DOMWrapperWorldELm0EEE
__ZN3WTF6VectorIPN7WebCore15DOMWrapperWorldELm0EE14expandCapacityEm
__ZN7WebCore16parseHTTPRefreshERKN3WTF6StringEbRdRS1_
__ZN7WebCore14DocumentWriter7addDataEPKcib
__ZN7WebCore21HTMLMetaCharsetParserC1Ev
__ZN7WebCore19TextResourceDecoder19checkForMetaCharsetEPKcm
__ZN7WebCore21HTMLMetaCharsetParser19checkForMetaCharsetEPKcm
__ZN7WebCore9HTMLToken13beginStartTagEt
__ZN3WTF6VectorIN7WebCore9HTMLToken9AttributeELm10EE14shrinkCapacityEm
__ZN7WebCore9HTMLToken12appendToNameEt
__ZN3WTF6VectorItLm32EEaSILm1024EEERS1_RKNS0_ItXT_EEE
__ZN7WebCore13HTMLTokenizer14updateStateForERKN3WTF12AtomicStringEPNS_5FrameE
__ZN7WebCore15SegmentedString18advancePastNewlineERi
__ZN3WTF6VectorItLm32EE14shrinkCapacityEm
__ZN7WebCore13HTMLTokenizer19addToPossibleEndTagEt
__ZN7WebCore13HTMLTokenizer19flushBufferedEndTagERNS_15SegmentedStringE
__ZN3WTF6VectorItLm1024EE6appendItEEvPKT_m
__ZN7WebCore9HTMLToken11beginEndTagItEEvT_
__ZNK7WebCore8Document15isMediaDocumentEv
__ZN7WebCore20ResourceLoadNotifier14didReceiveDataEPNS_14ResourceLoaderEPKcii
__ZN7WebCore15ProgressTracker17incrementProgressEmPKci
__ZNK7WebCore11FrameLoader27numPendingOrLoadingRequestsEb
__ZN7WebCore20ResourceLoadNotifier31dispatchDidReceiveContentLengthEPNS_14DocumentLoaderEmii
__ZN7WebCore24InspectorInstrumentation27didReceiveContentLengthImplEPNS_19InstrumentingAgentsEmii
-[WebCoreResourceHandleAsDelegate connectionDidFinishLoading:]
__ZN7WebCore14ResourceLoader16didFinishLoadingEPNS_14ResourceHandleEd
__ZN7WebCore18MainResourceLoader16didFinishLoadingEd
__ZN7WebCore11FrameLoader15finishedLoadingEv
__ZN7WebCore14ResourceLoader12resourceDataEv
__ZN7WebCore14DocumentWriter18reportDataReceivedEv
__ZNK7WebCore12TextEncoding18usesVisualOrderingEv
__ZNK7WebCore11RenderStyle24hasAnyPublicPseudoStylesEv
__ZN7WebCore18HTMLDocumentParser6appendERKNS_15SegmentedStringE
__ZN7WebCore15AtomicHTMLToken20initializeAttributesERKN3WTF6VectorINS_9HTMLToken9AttributeELm10EEE
__ZNK7WebCore7Element12getAttributeERKNS_13QualifiedNameE
__ZN7WebCore20ApplicationCacheHost26selectCacheWithoutManifestEv
__ZN7WebCore21ApplicationCacheGroup29selectCacheWithoutManifestURLEPNS_5FrameE
__ZN7WebCore15HTMLTreeBuilder24processStartTagForInBodyERNS_15AtomicHTMLTokenE
__ZN7WebCore15HTMLTreeBuilder24processStartTagForInHeadERNS_15AtomicHTMLTokenE
__ZN7WebCore20HTMLConstructionSite19insertScriptElementERNS_15AtomicHTMLTokenE
__ZN7WebCore17HTMLScriptElement6createERKNS_13QualifiedNameEPNS_8DocumentEb
__ZN7WebCore13ScriptElementC2EPNS_7ElementEbb
__ZN7WebCore17HTMLScriptElement20insertedIntoDocumentEv
__ZN7WebCore13ScriptElement20insertedIntoDocumentEv
__ZN7WebCoreL20loadFullDefaultStyleEv
__ZN7WebCore13CSSStyleSheetD0Ev
__ZN7WebCore10StyleSheetD2Ev
__ZN7WebCore12CSSStyleRuleD0Ev
__ZN7WebCore15CSSSelectorListD1Ev
__ZN7WebCore11CSSSelectorD1Ev
__ZN7WebCore13QualifiedName17QualifiedNameImplD1Ev
__ZN7WebCore26CSSMutableStyleDeclarationD0Ev
__ZNK7WebCore8CSSValue14isMutableValueEv
__ZN3WTF6VectorIN7WebCore11CSSPropertyELm4EED1Ev
__ZN7WebCore12CSSValueListD0Ev
__ZN7WebCore11RenderTheme22extraDefaultStyleSheetEv
__ZN7WebCore9CSSParser12addNamespaceERKN3WTF12AtomicStringES4_
__ZN7WebCore13CSSStyleSheet12addNamespaceEPNS_9CSSParserERKN3WTF12AtomicStringES6_
__ZN7WebCore17CSSPrimitiveValueC2EdNS0_9UnitTypesE
__ZN7WebCore9CSSParser12parseContentEib
__ZN7WebCore9CSSParser15parseFontWeightEb
__ZN7WebCore9CSSParser28createFloatingSelectorVectorEv
__ZN7WebCore9CSSParser26sinkFloatingSelectorVectorEPN3WTF6VectorINS1_6OwnPtrINS_17CSSParserSelectorEEELm0EEE
__ZNK3WTF9HashTableIPNS_6VectorINS_6OwnPtrIN7WebCore17CSSParserSelectorEEELm0EEES7_NS_17IdentityExtractorIS7_EENS_7PtrHashIS7_EENS_10HashTraitsIS7_EESD_E4findIS7_NS_22IdentityHashTranslatorIS7_S7_SB_EEEENS_22HashTableConstIteratorIS7_S7_S9_SB_SD_SD_EERKT_
__ZN7WebCore17CSSParserSelector19adoptSelectorVectorERN3WTF6VectorINS1_6OwnPtrIS0_EELm0EEE
__ZN7WebCore11CSSSelector15setSelectorListEN3WTF10PassOwnPtrINS_15CSSSelectorListEEE
__ZN3WTF10PassOwnPtrINS_6VectorINS_6OwnPtrIN7WebCore17CSSParserSelectorEEELm0EEEED1Ev
__ZN3WTF9HashTableIiSt4pairIiNS_6RefPtrIN7WebCore17CSSPrimitiveValueEEEENS_18PairFirstExtractorIS6_EENS_7IntHashIjEENS_14PairHashTraitsINS_10HashTraitsIiEENSC_IS5_EEEESD_E16lookupForWritingERKi
__ZN3WTF9HashTableIiSt4pairIiNS_6RefPtrIN7WebCore17CSSPrimitiveValueEEEENS_18PairFirstExtractorIS6_EENS_7IntHashIjEENS_14PairHashTraitsINS_10HashTraitsIiEENSC_IS5_EEEESD_E3addIiS5_NS_17HashMapTranslatorIS6_SF_SA_EEEES1_INS_17HashTableIteratorIiS6_S8_SA_SF_SD_EEbERKT_RKT0_
__ZN3WTF9HashTableIiSt4pairIiNS_6RefPtrIN7WebCore17CSSPrimitiveValueEEEENS_18PairFirstExtractorIS6_EENS_7IntHashIjEENS_14PairHashTraitsINS_10HashTraitsIiEENSC_IS5_EEEESD_E4findIiNS_22IdentityHashTranslatorIiS6_SA_EEEENS_17HashTableIteratorIiS6_S8_SA_SF_SD_EERKT_
__ZN3WTF9HashTableIiSt4pairIiNS_6RefPtrIN7WebCore17CSSPrimitiveValueEEEENS_18PairFirstExtractorIS6_EENS_7IntHashIjEENS_14PairHashTraitsINS_10HashTraitsIiEENSC_IS5_EEEESD_E6rehashEi
__ZN7WebCore11CSSSelector12setAttributeERKNS_13QualifiedNameE
__ZN7WebCore9CSSParser17parseBorderRadiusEib
__ZN7WebCoreL19completeBorderRadiiEPN3WTF6RefPtrINS_17CSSPrimitiveValueEEE
__ZN7WebCore17CSSPrimitiveValue4initEN3WTF10PassRefPtrINS_4PairEEE
__ZN7WebCore9CSSParser19parseColorFromValueEPNS_14CSSParserValueERj
__ZN7WebCore9CSSParser10parseColorERKN3WTF6StringERjb
__ZN7WebCore22CSSPrimitiveValueCache16createColorValueEj
__ZN7WebCore5Color13parseHexColorEPKtjRj
__ZN7WebCore9CSSParser17parseFillPropertyEiRiS1_RN3WTF6RefPtrINS_8CSSValueEEES6_
__ZN7WebCore9CSSParser14parseFillImageERN3WTF6RefPtrINS_8CSSValueEEE
__ZN7WebCore13CSSImageValueC1Ev
__ZN7WebCore17CSSPrimitiveValueC2Ei
__ZN7WebCore9CSSParser24parseTransitionShorthandEb
__ZN7WebCore9CSSParser22parseAnimationPropertyEiRN3WTF6RefPtrINS_8CSSValueEEE
__ZN7WebCore9CSSParser22parseAnimationPropertyEv
__ZN7WebCore9CSSParser17addAnimationValueERN3WTF6RefPtrINS_8CSSValueEEENS1_10PassRefPtrIS3_EE
__ZN7WebCore9CSSParser28parseAnimationTimingFunctionEv
__ZN3WTF6VectorIN7WebCore14CSSParserValueELm4EE15reserveCapacityEm
__ZN7WebCore9CSSParser22createFloatingFunctionEv
__ZN3WTF9HashTableIPN7WebCore17CSSParserFunctionES3_NS_17IdentityExtractorIS3_EENS_7PtrHashIS3_EENS_10HashTraitsIS3_EES9_E3addIS3_S3_NS_22IdentityHashTranslatorIS3_S3_S7_EEEESt4pairINS_17HashTableIteratorIS3_S3_S5_S7_S9_S9_EEbERKT_RKT0_
__ZN3WTF9HashTableIPN7WebCore17CSSParserFunctionES3_NS_17IdentityExtractorIS3_EENS_7PtrHashIS3_EENS_10HashTraitsIS3_EES9_E6expandEv
__ZNK3WTF9HashTableIPN7WebCore17CSSParserFunctionES3_NS_17IdentityExtractorIS3_EENS_7PtrHashIS3_EENS_10HashTraitsIS3_EES9_E4findIS3_NS_22IdentityHashTranslatorIS3_S3_S7_EEEENS_22HashTableConstIteratorIS3_S3_S5_S7_S9_S9_EERKT_
__ZN3WTF9HashTableIPN7WebCore17CSSParserFunctionES3_NS_17IdentityExtractorIS3_EENS_7PtrHashIS3_EENS_10HashTraitsIS3_EES9_E6removeEPS3_
__ZN7WebCore9CSSParser18parseFillShorthandEiPKiib
__ZNK7WebCore9CSSParser21isGeneratedImageValueEPNS_14CSSParserValueE
__ZN7WebCore9CSSParser19parseGeneratedImageERN3WTF6RefPtrINS_8CSSValueEEE
__ZN7WebCore9CSSParser23parseDeprecatedGradientERN3WTF6RefPtrINS_8CSSValueEEE
__ZN7WebCore22CSSImageGeneratorValueC2Ev
__ZN7WebCoreL28parseDeprecatedGradientPointEPNS_14CSSParserValueEbPNS_22CSSPrimitiveValueCacheE
__ZN7WebCore16CSSGradientValue7addStopERKNS_20CSSGradientColorStopE
__ZN3WTF6VectorIN7WebCore20CSSGradientColorStopELm0EE15reserveCapacityEm
__ZN3WTF11VectorMoverILb0EN7WebCore20CSSGradientColorStopEE4moveEPKS2_S5_PS2_
__ZN7WebCore9CSSParser12addFillValueERN3WTF6RefPtrINS_8CSSValueEEENS1_10PassRefPtrIS3_EE
__ZN3WTF14deleteOwnedPtrIN7WebCore18CSSParserValueListEEEvPT_
__ZN7WebCore9CSSParser11parseShadowEib
__ZN7WebCore18ShadowParseContext12commitLengthEPNS_14CSSParserValueE
__ZN7WebCore9CSSParser20parseColorParametersEPNS_14CSSParserValueEPib
__ZN7WebCore9CSSParser9validUnitEPNS_14CSSParserValueENS0_5UnitsEb
__ZN7WebCore18ShadowParseContext11commitValueEv
__ZN7WebCore11ShadowValue6createEN3WTF10PassRefPtrINS_17CSSPrimitiveValueEEES4_S4_S4_S4_S4_
__ZN7WebCore11ShadowValueC1EN3WTF10PassRefPtrINS_17CSSPrimitiveValueEEES4_S4_S4_S4_S4_
__ZN7WebCore18ShadowParseContext11commitStyleEPNS_14CSSParserValueE
__ZN7WebCore18ShadowParseContextD2Ev
__ZN3WTF9HashTableIiSt4pairIibENS_18PairFirstExtractorIS2_EENS_7IntHashIjEENS_14PairHashTraitsINS_10HashTraitsIiEENS8_IbEEEES9_E16lookupForWritingERKi
__ZN3WTF9HashTableIiSt4pairIibENS_18PairFirstExtractorIS2_EENS_7IntHashIjEENS_14PairHashTraitsINS_10HashTraitsIiEENS8_IbEEEES9_E3addIibNS_17HashMapTranslatorIS2_SB_S6_EEEES1_INS_17HashTableIteratorIiS2_S4_S6_SB_S9_EEbERKT_RKT0_
__ZN3WTF9HashTableIiSt4pairIibENS_18PairFirstExtractorIS2_EENS_7IntHashIjEENS_14PairHashTraitsINS_10HashTraitsIiEENS8_IbEEEES9_E4findIiNS_22IdentityHashTranslatorIiS2_S6_EEEENS_17HashTableIteratorIiS2_S4_S6_SB_S9_EERKT_
__ZN3WTF9HashTableIiSt4pairIibENS_18PairFirstExtractorIS2_EENS_7IntHashIjEENS_14PairHashTraitsINS_10HashTraitsIiEENS8_IbEEEES9_E6expandEv
__ZN7WebCore9CSSParser20parseTransformOriginEiRiS1_S1_RN3WTF6RefPtrINS_8CSSValueEEES6_S6_
__ZN7WebCore9CSSParser29parseTransformOriginShorthandERN3WTF6RefPtrINS_8CSSValueEEES5_S5_
__ZN7WebCore9CSSParser17parseFillPositionEPNS_18CSSParserValueListERN3WTF6RefPtrINS_8CSSValueEEES7_
__ZN7WebCore9CSSParser26parseFillPositionComponentEPNS_18CSSParserValueListERjRNS0_16FillPositionFlagE
__ZN7WebCore9CSSParser14parseTransformEv
__ZN7WebCore22TransformOperationInfoC2ERKNS_15CSSParserStringE
__ZN7WebCore23WebKitCSSTransformValueC1ENS0_22TransformOperationTypeE
__ZN7WebCore12CSSValueListC2Eb
__ZN7WebCore9CSSParser22rollbackLastPropertiesEi
__ZN3WTF9HashTableIPN7WebCore17CSSParserSelectorES3_NS_17IdentityExtractorIS3_EENS_7PtrHashIS3_EENS_10HashTraitsIS3_EES9_E16lookupForWritingERKS3_
__ZN3WTF9HashTableIPN7WebCore17CSSParserSelectorES3_NS_17IdentityExtractorIS3_EENS_7PtrHashIS3_EENS_10HashTraitsIS3_EES9_E4findIS3_NS_22IdentityHashTranslatorIS3_S3_S7_EEEENS_17HashTableIteratorIS3_S3_S5_S7_S9_S9_EERKT_
__ZN7WebCore9CSSParser14parseFontStyleEb
__ZN7WebCore9CSSParser15parseFontFamilyEv
__ZN7WebCore9CSSParser22parseTextEmphasisStyleEb
__ZN7WebCore9CSSParser9parseSizeEib
__ZN7WebCore9CSSParser18parseSizeParameterEPNS_12CSSValueListEPNS_14CSSParserValueENS0_17SizeParameterTypeE
__ZN7WebCore9CSSParser14createPageRuleEN3WTF10PassOwnPtrINS_17CSSParserSelectorEEE
__ZN7WebCore11CSSPageRuleC1EPNS_13CSSStyleSheetEi
__ZN7WebCore12CSSStyleRuleC2EPNS_13CSSStyleSheetEi
__ZN3WTF9HashTableIPNS_16AtomicStringImplESt4pairIS2_PNS_6VectorIN7WebCore8RuleDataELm0EEEENS_18PairFirstExtractorIS9_EENS_7PtrHashIS2_EENS_14PairHashTraitsINS_10HashTraitsIS2_EENSF_IS8_EEEESG_E16lookupForWritingERKS2_
__ZN3WTF9HashTableIPNS_16AtomicStringImplESt4pairIS2_PNS_6VectorIN7WebCore8RuleDataELm0EEEENS_18PairFirstExtractorIS9_EENS_7PtrHashIS2_EENS_14PairHashTraitsINS_10HashTraitsIS2_EENSF_IS8_EEEESG_E3addIS2_S8_NS_17HashMapTranslatorIS9_SI_SD_EEEES3_INS_17HashTableIteratorIS2_S9_SB_SD_SI_SG_EEbERKT_RKT0_
__ZN3WTF9HashTableIPNS_16AtomicStringImplESt4pairIS2_PNS_6VectorIN7WebCore8RuleDataELm0EEEENS_18PairFirstExtractorIS9_EENS_7PtrHashIS2_EENS_14PairHashTraitsINS_10HashTraitsIS2_EENSF_IS8_EEEESG_E4findIS2_NS_22IdentityHashTranslatorIS2_S9_SD_EEEENS_17HashTableIteratorIS2_S9_SB_SD_SI_SG_EERKT_
__ZN3WTF9HashTableIPNS_16AtomicStringImplESt4pairIS2_PNS_6VectorIN7WebCore8RuleDataELm0EEEENS_18PairFirstExtractorIS9_EENS_7PtrHashIS2_EENS_14PairHashTraitsINS_10HashTraitsIS2_EENSF_IS8_EEEESG_E6lookupERKS2_
__ZN3WTF9HashTableIPNS_16AtomicStringImplESt4pairIS2_PNS_6VectorIN7WebCore8RuleDataELm0EEEENS_18PairFirstExtractorIS9_EENS_7PtrHashIS2_EENS_14PairHashTraitsINS_10HashTraitsIS2_EENSF_IS8_EEEESG_E6rehashEi
__ZN7WebCore11CSSPageRule10isPageRuleEv
__ZN7WebCore7RuleSet11addPageRuleEPNS_12CSSStyleRuleEPNS_11CSSSelectorE
__ZN7WebCore11RenderTheme21extraQuirksStyleSheetEv
__ZN7WebCore9CSSParser16parseFontVariantEb
__ZNK7WebCore11CSSSelector8isSimpleEv
__ZN3WTFeqERKNS_12AtomicStringES2_
__ZNK7WebCore11CSSSelector10pseudoTypeEv
__ZNK7WebCore16CSSStyleSelector15SelectorChecker13checkSelectorEPNS_11CSSSelectorEPNS_7ElementEPN3WTF7HashSetIPNS6_16AtomicStringImplENS6_7PtrHashIS9_EENS6_10HashTraitsIS9_EEEERNS_8PseudoIdEbbPNS_11RenderStyleESJ_
__ZNK7WebCore16CSSStyleSelector15SelectorChecker16checkOneSelectorEPNS_11CSSSelectorEPNS_7ElementEPN3WTF7HashSetIPNS6_16AtomicStringImplENS6_7PtrHashIS9_EENS6_10HashTraitsIS9_EEEERNS_8PseudoIdEbbPNS_11RenderStyleESJ_
__ZN7WebCore16HTMLElementStack4pushEN3WTF10PassRefPtrINS_7ElementEEE
__ZNK7WebCore18HTMLDocumentParser12textPositionEv
__ZNK7WebCore15SegmentedString11currentLineEv
__ZNK7WebCore15SegmentedString13currentColumnEv
__ZN7WebCore17HTMLScriptElement15childrenChangedEbPNS_4NodeES2_i
__ZN7WebCore13ScriptElement15childrenChangedEv
__ZN7WebCore16HTMLElementStack3popEv
__ZN7WebCore19HTMLParserScheduler25checkForYieldBeforeScriptERNS_11PumpSessionE
__ZN7WebCore8Document19isLayoutTimerActiveEv
__ZN7WebCore18HTMLDocumentParser30runScriptsForPausedTreeBuilderEv
__ZN7WebCore15HTMLTreeBuilder19takeScriptToProcessERN3WTF12TextPositionINS1_14OneBasedNumberEEE
__ZN7WebCore16HTMLScriptRunner7executeEN3WTF10PassRefPtrINS_7ElementEEERKNS1_12TextPositionINS1_14OneBasedNumberEEE
__ZThn40_NK7WebCore18HTMLDocumentParser17hasPreloadScannerEv
__ZN7WebCore16HTMLScriptRunner9runScriptEPNS_7ElementERKN3WTF12TextPositionINS3_14OneBasedNumberEEE
__ZThn40_N7WebCore18HTMLDocumentParser11inputStreamEv
__ZN7WebCore15HTMLInputStream9splitIntoERNS_15SegmentedStringE
__ZN7WebCore15SegmentedString18setCurrentPositionEN3WTF15ZeroBasedNumberES2_i
__ZN7WebCore15toScriptElementEPNS_7ElementE
__ZN7WebCore13ScriptElement13prepareScriptERKN3WTF12TextPositionINS1_14OneBasedNumberEEENS0_17LegacyTypeSupportE
__ZThn120_NK7WebCore17HTMLScriptElement19asyncAttributeValueEv
__ZThn120_NK7WebCore17HTMLScriptElement18hasSourceAttributeEv
__ZNK7WebCore13ScriptElement21isScriptTypeSupportedENS0_17LegacyTypeSupportE
__ZThn120_NK7WebCore17HTMLScriptElement18typeAttributeValueEv
__ZThn120_NK7WebCore17HTMLScriptElement22languageAttributeValueEv
__ZNK7WebCore13ScriptElement25isScriptForEventSupportedEv
__ZThn120_NK7WebCore17HTMLScriptElement19eventAttributeValueEv
__ZThn120_NK7WebCore17HTMLScriptElement17forAttributeValueEv
__ZThn120_NK7WebCore17HTMLScriptElement21charsetAttributeValueEv
__ZNK7WebCore8Document8encodingEv
__ZNK7WebCore12TextEncoding7domNameEv
__ZNK7WebCore13ScriptElement13scriptContentEv
__ZN7WebCore13ScriptElement13executeScriptERKNS_16ScriptSourceCodeE
__ZNK7WebCore21ContentSecurityPolicy17allowInlineScriptEv
__ZNK7WebCore15JSDOMWindowBase12toThisObjectEPN3JSC9ExecStateE
__ZN7WebCore16JSDOMWindowShell18getOwnPropertySlotEPN3JSC9ExecStateERKNS1_10IdentifierERNS1_12PropertySlotE
__ZN7WebCore16JSDOMWindowShell17putWithAttributesEPN3JSC9ExecStateERKNS1_10IdentifierENS1_7JSValueEj
__ZN7WebCore16ScriptController18windowScriptObjectEv
__ZN7WebCore16ScriptController17bindingRootObjectEv
__ZN3JSC8Bindings10RootObject6createEPKvPNS_14JSGlobalObjectE
__ZN3JSC8Bindings10RootObjectC2EPKvPNS_14JSGlobalObjectE
__ZN3WTF9HashTableIPN3JSC8Bindings10RootObjectES4_NS_17IdentityExtractorIS4_EENS_7PtrHashIS4_EENS_10HashTraitsIS4_EESA_E3addIS4_S4_NS_22IdentityHashTranslatorIS4_S4_S8_EEEESt4pairINS_17HashTableIteratorIS4_S4_S6_S8_SA_SA_EEbERKT_RKT0_
__ZN3WTF9HashTableIPN3JSC8Bindings10RootObjectES4_NS_17IdentityExtractorIS4_EENS_7PtrHashIS4_EENS_10HashTraitsIS4_EESA_E6expandEv
+[WebScriptObject initialize]
+[WebScriptObject scriptObjectForJSObject:originRootObject:rootObject:]
__Z16createDOMWrapperPN3JSC8JSObjectEN3WTF10PassRefPtrINS_8Bindings10RootObjectEEES6_
__ZNK7WebCore16JSDOMWindowShell4implEv
__Z3kitPN7WebCore9DOMWindowE
__Z13getDOMWrapperP17DOMObjectInternal
-[WebScriptObject(WebScriptObjectInternal) _init]
__Z13addDOMWrapperP8NSObjectP17DOMObjectInternal
-[WebScriptObject _hasImp]
-[WebScriptObject _setImp:originRootObject:rootObject:]
__Z18createWrapperCachev
__ZN3JSC8Bindings10RootObject9gcProtectEPNS_8JSObjectE
__ZNK3WTF9HashTableIPN3JSC8JSObjectESt4pairIS3_jENS_18PairFirstExtractorIS5_EENS_7PtrHashIS3_EENS_14PairHashTraitsINS_10HashTraitsIS3_EENSB_IjEEEESC_E8containsIS3_NS_22IdentityHashTranslatorIS3_S5_S9_EEEEbRKT_
-[WebScriptObject setValue:forKey:]
-[WebScriptObject _isSafeScript]
-[WebScriptObject _rootObject]
__ZNK3JSC8Bindings10RootObject12globalObjectEv
__ZNK7WebCore15JSDOMWindowBase16allowsAccessFromEPKN3JSC14JSGlobalObjectE
-[WebScriptObject _imp]
__ZN3JSC8Bindings23convertObjcValueToValueEPNS_9ExecStateEPvNS0_13ObjcValueTypeEPNS0_10RootObjectE
__ZN3JSC8Bindings17webUndefinedClassEv
__ZN3JSC8Bindings20webScriptObjectClassEv
__ZN3JSC8Bindings12ObjcInstance6createEP11objc_objectN3WTF10PassRefPtrINS0_10RootObjectEEE
__ZN3JSC8Bindings12ObjcInstanceC2EP11objc_objectN3WTF10PassRefPtrINS0_10RootObjectEEE
__ZN3JSC8Bindings8InstanceC2EN3WTF10PassRefPtrINS0_10RootObjectEEE
__ZN3JSC4WeakINS_8Bindings13RuntimeObjectEEC2ERNS_12VMEPS2_PNS_15WeakHandleOwnerEPv
__ZN3JSC8Bindings8Instance19createRuntimeObjectEPNS_9ExecStateE
__ZN3JSC8Bindings12ObjcInstance16newRuntimeObjectEPNS_9ExecStateE
__ZN3JSC8Bindings17ObjCRuntimeObjectC1EPNS_9ExecStateEPNS_14JSGlobalObjectEN3WTF10PassRefPtrINS0_12ObjcInstanceEEE
__ZN3JSC8Bindings17ObjCRuntimeObjectC2EPNS_9ExecStateEPNS_14JSGlobalObjectEN3WTF10PassRefPtrINS0_12ObjcInstanceEEE
__ZN3JSC8Bindings13RuntimeObjectC2EPNS_9ExecStateEPNS_14JSGlobalObjectEPNS_9StructureEN3WTF10PassRefPtrINS0_8InstanceEEE
__ZN3JSC4WeakINS_8Bindings13RuntimeObjectEE3setERNS_12VMEPS2_PNS_15WeakHandleOwnerEPv
__ZN3JSC8Bindings10RootObject16addRuntimeObjectERNS_12VMEPNS0_13RuntimeObjectE
__ZN3JSC4WeakINS_8Bindings13RuntimeObjectEEaSERKS3_
__ZN7WebCore16JSDOMWindowShell3putEPN3JSC9ExecStateERKNS1_10IdentifierENS1_7JSValueERNS1_15PutPropertySlotE
__ZN7WebCore11JSDOMWindow3putEPN3JSC9ExecStateERKNS1_10IdentifierENS1_7JSValueERNS1_15PutPropertySlotE
__ZN3JSC14JSGlobalObject22hasOwnPropertyForWriteEPNS_9ExecStateERKNS_10IdentifierE
__ZN3JSC9lookupPutIN7WebCore11JSDOMWindowEEEbPNS_9ExecStateERKNS_10IdentifierENS_7JSValueEPKNS_9HashTableEPT_
__ZL11_didExecuteP15WebScriptObject
__ZN3JSC8Bindings8Instance18didExecuteFunctionEv
__ZN7WebCoreL30updateStyleIfNeededForBindingsEPN3JSC9ExecStateEPNS0_8JSObjectE
__ZN7WebCore20InsertionPointRecordD2Ev
__ZN7WebCore4Node16previousRendererEv
__ZN7WebCore4Node12nextRendererEv
__ZN7WebCore15HTMLTreeBuilder34processFakePEndTagIfPInButtonScopeEv
__ZNK7WebCore16HTMLElementStack13inButtonScopeERKN3WTF12AtomicStringE
__ZN7WebCore12_GLOBAL__N_113isScopeMarkerEPNS_13ContainerNodeE
__ZNK7WebCore7Element8nodeTypeEv
__ZN7WebCore20HTMLConstructionSite17insertHTMLElementERNS_15AtomicHTMLTokenE
__ZN7WebCore11HTMLElement6createERKNS_13QualifiedNameEPNS_8DocumentE
__ZN7WebCore17RenderLineBoxList17deleteLineBoxTreeEPNS_11RenderArenaE
__ZNK7WebCore11RenderBlock20createAnonymousBlockEb
__ZN7WebCore11RenderStyle20createAnonymousStyleEPKS0_
__ZNK7WebCore12RenderObject12isListMarkerEv
__ZNK7WebCore12RenderObject17isSelectionBorderEv
__ZN7WebCore15HTMLTreeBuilder22processEndTagForInBodyERNS_15AtomicHTMLTokenE
__ZNK7WebCore16HTMLElementStack7inScopeERKN3WTF12AtomicStringE
__ZN7WebCore13CharacterData16parserAppendDataEPKtjj
__ZN7WebCore13CharacterData14updateRendererEjj
__ZN7WebCore18HTMLDocumentParser12endIfDelayedEv
__ZNK7WebCore9DOMWindow27pendingUnloadEventListenersEv
__ZN7WebCore24ScriptableDocumentParser26asScriptableDocumentParserEv
__ZNK7WebCore25DecodedDataDocumentParser10wellFormedEv
__ZN7WebCore11FrameLoader15startIconLoaderEv
__ZN7WebCore19AnimationController27resumeAnimationsForDocumentEPNS_8DocumentE
__ZN7WebCore26AnimationControllerPrivate20updateAnimationTimerEb
__ZN7WebCore11ImageLoader31dispatchPendingBeforeLoadEventsEv
__ZN7WebCore16ImageEventSenderC1ERKN3WTF12AtomicStringE
__ZN7WebCore16ImageEventSender21dispatchPendingEventsEv
__ZN7WebCore11ImageLoader25dispatchPendingLoadEventsEv
__ZN7WebCore9DOMWindow17dispatchLoadEventEv
__ZN7WebCore24InspectorInstrumentation18loadEventFiredImplEPNS_19InstrumentingAgentsEPNS_5FrameERKNS_4KURLE
__ZN7WebCore8Document20enqueuePageshowEventENS_24PageshowEventPersistenceE
__ZN7WebCore21SerializedScriptValue9nullValueEv
__ZN7WebCore8Document20enqueuePopstateEventEN3WTF10PassRefPtrINS_21SerializedScriptValueEEE
__ZN7WebCore13PopStateEventC1EN3WTF10PassRefPtrINS_21SerializedScriptValueEEE
__ZN7WebCore13PopStateEventD0Ev
__ZN7WebCore11FrameLoader19handledOnloadEventsEv
__ZN7WebCore20ApplicationCacheHost19stopDeferringEventsEv
__ZN3WTF6VectorIN7WebCore20ApplicationCacheHost13DeferredEventELm0EE14shrinkCapacityEm
__ZN7WebCore11FrameLoader22checkCallImplicitCloseEv
__ZN3WTF6VectorIN7WebCore14InlineIteratorELm0EE4growEm
__ZN3WTF6VectorIN7WebCore14InlineIteratorELm0EE15reserveCapacityEm
__ZN7WebCore11RenderBlock24setMaxMarginBeforeValuesEii
__ZN7WebCore11RenderBlock23setMaxMarginAfterValuesEii
__ZN7WebCore9FrameView16restoreScrollbarEv
__ZN7WebCore9FrameView16scrollToFragmentERKNS_4KURLE
__ZN7WebCore14InspectorAgent26domContentLoadedEventFiredEv
__ZN7WebCore18InjectedScriptHost19clearInspectedNodesEv
__ZN3WTF6VectorINS_6RefPtrIN7WebCore4NodeEEELm0EE14shrinkCapacityEm
__ZNK7WebCore11FrameLoader9isLoadingEv
__ZNK7WebCore14DocumentLoader21isLoadingSubresourcesEv
__ZNK7WebCore14DocumentLoader16isLoadingPlugInsEv
__ZN7WebCore9DOMWindow15finishedLoadingEv
__ZN7WebCore31applicationIsMicrosoftMessengerEv
__ZNK7WebCore8Document15isImageDocumentEv
__Z3kitPN7WebCore8DocumentE
__Z3kitPN7WebCore4NodeE
__Z8kitClassPN7WebCore4NodeE
-[DOMDocument documentElement]
__Z3kitPN7WebCore7ElementE
__ZN7WebCoreL12elementClassERKNS_13QualifiedNameEP10objc_class
__ZN7WebCoreL15addElementClassERKNS_13QualifiedNameEP10objc_class
__ZN3WTF9HashTableIPKN7WebCore13QualifiedName17QualifiedNameImplESt4pairIS5_P10objc_classENS_18PairFirstExtractorIS9_EENS_7PtrHashIS5_EENS_14PairHashTraitsINS_10HashTraitsIS5_EENSF_IS8_EEEESG_E16lookupForWritingERKS5_
__ZN3WTF9HashTableIPKN7WebCore13QualifiedName17QualifiedNameImplESt4pairIS5_P10objc_classENS_18PairFirstExtractorIS9_EENS_7PtrHashIS5_EENS_14PairHashTraitsINS_10HashTraitsIS5_EENSF_IS8_EEEESG_E3addIS5_S8_NS_17HashMapTranslatorIS9_SI_SD_EEEES6_INS_17HashTableIteratorIS5_S9_SB_SD_SI_SG_EEbERKT_RKT0_
__ZN3WTF9HashTableIPKN7WebCore13QualifiedName17QualifiedNameImplESt4pairIS5_P10objc_classENS_18PairFirstExtractorIS9_EENS_7PtrHashIS5_EENS_14PairHashTraitsINS_10HashTraitsIS5_EENSF_IS8_EEEESG_E4findIS5_NS_22IdentityHashTranslatorIS5_S9_SD_EEEENS_17HashTableIteratorIS5_S9_SB_SD_SI_SG_EERKT_
__ZN3WTF9HashTableIPKN7WebCore13QualifiedName17QualifiedNameImplESt4pairIS5_P10objc_classENS_18PairFirstExtractorIS9_EENS_7PtrHashIS5_EENS_14PairHashTraitsINS_10HashTraitsIS5_EENSF_IS8_EEEESG_E6lookupERKS5_
__ZN3WTF9HashTableIPKN7WebCore13QualifiedName17QualifiedNameImplESt4pairIS5_P10objc_classENS_18PairFirstExtractorIS9_EENS_7PtrHashIS5_EENS_14PairHashTraitsINS_10HashTraitsIS5_EENSF_IS8_EEEESG_E6rehashEi
-[DOMHTMLElement innerText]
__ZNK7WebCore7Element9innerTextEv
__ZN7WebCore15rangeOfContentsEPNS_4NodeE
__ZN7WebCore8Document11attachRangeEPNS_5RangeE
__ZN3WTF9HashTableIPN7WebCore5RangeES3_NS_17IdentityExtractorIS3_EENS_7PtrHashIS3_EENS_10HashTraitsIS3_EES9_E3addIS3_S3_NS_22IdentityHashTranslatorIS3_S3_S7_EEEESt4pairINS_17HashTableIteratorIS3_S3_S5_S7_S9_S9_EEbERKT_RKT0_
__ZN3WTF9HashTableIPN7WebCore5RangeES3_NS_17IdentityExtractorIS3_EENS_7PtrHashIS3_EENS_10HashTraitsIS3_EES9_E6expandEv
__ZN7WebCore5Range18selectNodeContentsEPNS_4NodeERi
__ZNK7WebCore4Node18offsetInCharactersEv
__ZN7WebCore9plainTextEPKNS_5RangeENS_20TextIteratorBehaviorE
__ZN7WebCore32plainTextToMallocAllocatedBufferEPKNS_5RangeERjbNS_20TextIteratorBehaviorE
__ZN7WebCore12TextIteratorC2EPKNS_5RangeENS_20TextIteratorBehaviorE
__ZNK7WebCore4Node9nodeIndexEv
__ZNK7WebCore5Range9firstNodeEv
__ZNK7WebCore13ContainerNode9childNodeEj
__ZN7WebCoreL22setUpFullyClippedStackERNS_8BitStackEPNS_4NodeE
__ZN7WebCoreL21pushFullyClippedStateERNS_8BitStackEPNS_4NodeE
__ZN7WebCore8BitStack4pushEb
__ZN7WebCore12TextIterator7advanceEv
__ZNK7WebCore12RenderObject7isImageEv
__ZNK7WebCore12RenderObject8isWidgetEv
__ZN7WebCore12TextIterator17handleNonTextNodeEv
__ZN7WebCore12TextIterator23representNodeOffsetZeroEv
__ZN7WebCore11isTableCellEPKNS_4NodeE
__ZN7WebCoreL36shouldEmitNewlinesBeforeAndAfterNodeEPNS_4NodeE
__ZNK7WebCore4Text8nodeTypeEv
__ZN7WebCore12TextIterator14handleTextNodeEv
__ZNK7WebCore10RenderText14isTextFragmentEv
__ZN7WebCore12TextIterator13handleTextBoxEv
__ZN7WebCore12TextIterator8emitTextEPNS_4NodeEPNS_12RenderObjectEii
__ZNK7WebCore10RenderText22textWithoutTranscodingEv
__ZN7WebCore12TextIterator29shouldRepresentNodeOffsetZeroEv
__ZNK7WebCore4Node14isDescendantOfEPKS0_
__ZN7WebCore12TextIterator8exitNodeEv
__ZNK7WebCore4Node19traverseNextSiblingEPKS0_
__ZN7WebCore12TextIteratorD1Ev
__ZN7WebCore5RangeD1Ev
__ZN7WebCore5RangeD2Ev
__ZN7WebCore8Document11detachRangeEPNS_5RangeE
__ZNK3WTF9HashTableIPN7WebCore5RangeES3_NS_17IdentityExtractorIS3_EENS_7PtrHashIS3_EENS_10HashTraitsIS3_EES9_E4findIS3_NS_22IdentityHashTranslatorIS3_S3_S7_EEEENS_22HashTableConstIteratorIS3_S3_S5_S7_S9_S9_EERKT_
__ZN3WTF9HashTableIPN7WebCore5RangeES3_NS_17IdentityExtractorIS3_EENS_7PtrHashIS3_EENS_10HashTraitsIS3_EES9_E6removeEPS3_
__ZN7WebCore15ProgressTracker17progressCompletedEPNS_5FrameE
__ZN7WebCore15ProgressTracker21finalProgressCompleteEv
__ZN7WebCore14ResourceLoader16didFinishLoadingEd
__ZN7WebCore20ResourceLoadNotifier13didFinishLoadEPNS_14ResourceLoaderEd
__ZN7WebCore15ProgressTracker16completeProgressEm
__ZN7WebCore20ResourceLoadNotifier24dispatchDidFinishLoadingEPNS_14DocumentLoaderEmd
__ZN7WebCore24InspectorInstrumentation20didFinishLoadingImplEPNS_19InstrumentingAgentsEmd
__ZN7WebCore14ResourceLoader16releaseResourcesEv
__ZN7WebCore21ResourceLoadScheduler6removeEPNS_14ResourceLoaderE
__ZN7WebCore21ResourceLoadScheduler15HostInformation6removeEPNS_14ResourceLoaderE
__ZNK3WTF9HashTableINS_6RefPtrIN7WebCore14ResourceLoaderEEES4_NS_17IdentityExtractorIS4_EENS_7PtrHashIS4_EENS_10HashTraitsIS4_EESA_E4findIS4_NS_22IdentityHashTranslatorIS4_S4_S8_EEEENS_22HashTableConstIteratorIS4_S4_S6_S8_SA_SA_EERKT_
__ZNK3WTF9HashTableINS_6RefPtrIN7WebCore14ResourceLoaderEEES4_NS_17IdentityExtractorIS4_EENS_7PtrHashIS4_EENS_10HashTraitsIS4_EESA_E8containsIS4_NS_22IdentityHashTranslatorIS4_S4_S8_EEEEbRKT_
__ZN7WebCore14ResourceHandle9setClientEPNS_20ResourceHandleClientE
__ZN7WebCore14ResourceHandleD0Ev
__ZN7WebCore14ResourceHandle15releaseDelegateEv
-[WebCoreResourceHandleAsDelegate detachHandle]
__ZN7WebCore23AuthenticationChallenge23setAuthenticationClientEPNS_20AuthenticationClientE
__ZN7WebCore22ResourceHandleInternalD2Ev
__ZN7WebCore23AuthenticationChallengeD1Ev
__ZN7WebCore27AuthenticationChallengeBaseD2Ev
__ZN7WebCore10CredentialD1Ev
__ZN7WebCore15ProtectionSpaceD1Ev
__ZN7WebCore20ApplicationCacheHost27finishedLoadingMainResourceEv
__ZN7WebCore18MainResourceLoaderD0Ev
__ZN7WebCore16RunLoopTimerBaseD2Ev
__ZN7WebCore14ResourceLoaderD2Ev
-[DOMNode dealloc]
-[DOMObject dealloc]
__Z16removeDOMWrapperP17DOMObjectInternal
-[WebScriptObject dealloc]
__ZN7WebCore19InspectorController5closeEv
__ZN7WebCore19InspectorBasicValueD0Ev
__ZN7WebCore12SharedBuffer10wrapNSDataEP6NSData
__ZN7WebCore12SharedBufferC1EPK8__CFData
__ZNK7WebCore11HistoryItem3urlEv
__ZN7WebCore4KURLC1ENS_18ParsedURLStringTagERKN3WTF6StringE
__ZNK7WebCore11HistoryItem11originalURLEv
__ZN7WebCore18MainResourceLoader18handleDataLoadSoonERKNS_15ResourceRequestE
__ZN7WebCore16RunLoopTimerBase5startEdd
__ZN7WebCore16RunLoopTimerBase8scheduleERKN3WTF7HashSetINS1_6RefPtrINS_12SchedulePairEEENS_16SchedulePairHashENS1_10HashTraitsIS5_EEEE
__ZN7WebCore11FrameLoader17stopForUserCancelEb
__ZN7WebCore14ResourceLoader6cancelEv
__ZN7WebCore14ResourceLoader6cancelERKNS_13ResourceErrorE
__ZNK7WebCore11FrameLoader14cancelledErrorERKNS_15ResourceRequestE
__ZN7WebCore15localizedStringEPKc
__ZN7WebCore18MainResourceLoader10willCancelERKNS_13ResourceErrorE
__ZN7WebCore16RunLoopTimerBase4stopEv
__ZN7WebCore14DocumentLoader27cancelPendingSubstituteLoadEPNS_14ResourceLoaderE
__ZN7WebCore20ResourceLoadNotifier13didFailToLoadEPNS_14ResourceLoaderERKNS_13ResourceErrorE
__ZNK7WebCore13ResourceErrorcvP7NSErrorEv
__ZNK7WebCore13ResourceError7nsErrorEv
__ZN7WebCore24InspectorInstrumentation18didFailLoadingImplEPNS_19InstrumentingAgentsEmRKNS_13ResourceErrorE
__ZN7WebCore21InspectorConsoleAgent14didFailLoadingEmRKNS_13ResourceErrorE
__ZN7WebCore18MainResourceLoader9didCancelERKNS_13ResourceErrorE
__ZN7WebCore11FrameLoader25receivedMainResourceErrorERKNS_13ResourceErrorEb
__ZN7WebCore11FrameLoader4stopEv
__ZN7WebCore17HistoryController31invalidateCurrentItemCachedPageEv
__ZN7WebCore9PageCache3getEPNS_11HistoryItemE
__ZN7WebCore14DocumentLoader17mainReceivedErrorERKNS_13ResourceErrorEb
__ZN7WebCore20ApplicationCacheHost25failedLoadingMainResourceEv
__ZN7WebCore11FrameLoader20setMainDocumentErrorEPNS_14DocumentLoaderERKNS_13ResourceErrorE
__ZN7WebCore11FrameLoader25mainReceivedCompleteErrorEPNS_14DocumentLoaderERKNS_13ResourceErrorE
__ZN7WebCore11FrameLoader20clearProvisionalLoadEv
__ZN7WebCore22ScriptExecutionContext26canSuspendActiveDOMObjectsEv
__ZThn32_NK7WebCore16SuspendableTimer10canSuspendEv
__ZNK7WebCore20ApplicationCacheHost19canCacheInPageCacheEv
__ZN7WebCore21BackForwardController8isActiveEv
__ZN7WebCore19BackForwardListImpl8isActiveEv
__ZNK7WebCore11HistoryItem17isCurrentDocumentEPNS_8DocumentE
__ZN7WebCore31equalIgnoringFragmentIdentifierERKNS_4KURLES2_
__ZNK7WebCore8Document17formElementsStateEv
__ZN7WebCore11HistoryItem16setDocumentStateERKN3WTF6VectorINS1_6StringELm0EEE
__ZNK7WebCore10ScrollView14scrollPositionEv
__ZN7WebCore11HistoryItem14setScrollPointERKNS_8IntPointE
__ZN7WebCore11HistoryItem18setPageScaleFactorEf
__ZN7WebCore17ScrollAnimatorMacD0Ev
-[ScrollbarPainterControllerDelegate scrollAnimatorDestroyed]
-[ScrollbarPainterDelegate scrollAnimatorDestroyed]
-[ScrollAnimationHelperDelegate scrollAnimatorDestroyed]
-[ScrollbarPainterDelegate .cxx_destruct]
__ZN7WebCore14ScrollAnimatorD2Ev
__ZNK7WebCore14SecurityOrigin20isSameSchemeHostPortEPKS0_
__ZN7WebCore5Frame14clearDOMWindowEv
__ZN3WTF9HashTableIPN7WebCore9DOMWindowES3_NS_17IdentityExtractorIS3_EENS_7PtrHashIS3_EENS_10HashTraitsIS3_EES9_E3addIS3_S3_NS_22IdentityHashTranslatorIS3_S3_S7_EEEESt4pairINS_17HashTableIteratorIS3_S3_S5_S7_S9_S9_EEbERKT_RKT0_
__ZN3WTF9HashTableIPN7WebCore9DOMWindowES3_NS_17IdentityExtractorIS3_EENS_7PtrHashIS3_EENS_10HashTraitsIS3_EES9_E6expandEv
__ZN3JSC8Bindings10RootObject10invalidateEv
__ZN3JSC8Bindings13RuntimeObject10invalidateEv
__ZN3JSC8Bindings8Instance27willInvalidateRuntimeObjectEv
__ZN3JSC8Bindings12ObjcInstanceD0Ev
__ZN3JSC8Bindings8InstanceD2Ev
__ZNK3WTF9HashTableIPN3JSC8Bindings10RootObjectES4_NS_17IdentityExtractorIS4_EENS_7PtrHashIS4_EENS_10HashTraitsIS4_EESA_E4findIS4_NS_22IdentityHashTranslatorIS4_S4_S8_EEEENS_22HashTableConstIteratorIS4_S4_S6_S8_SA_SA_EERKT_
__ZN3WTF9HashTableIPN3JSC8Bindings10RootObjectES4_NS_17IdentityExtractorIS4_EENS_7PtrHashIS4_EENS_10HashTraitsIS4_EESA_E6removeEPS4_
-[WebScriptObject _setOriginRootObject:andRootObject:]
__ZN3JSC8Bindings10RootObjectD0Ev
__ZN3WTF6VectorIN7WebCore9HTMLToken9AttributeELm10EE4growEm
__ZN7WebCore9HTMLToken21appendToAttributeNameEt
__ZN7WebCore9HTMLToken22appendToAttributeValueEt
__ZN3WTF16VectorDestructorILb1EN7WebCore9HTMLToken9AttributeEE8destructEPS3_S5_
__ZN3WTF6VectorItLm32EE15reserveCapacityEm
__ZN7WebCore12NamedNodeMap15insertAttributeEN3WTF10PassRefPtrINS_9AttributeEEEb
__ZN7WebCore12NamedNodeMap12addAttributeEN3WTF10PassRefPtrINS_9AttributeEEE
__ZNK7WebCore9Attribute4attrEv
__ZN7WebCore12NamedNodeMap22copyAttributesToVectorERN3WTF6VectorINS1_6RefPtrINS_9AttributeEEELm0EEE
__ZN3WTF6VectorINS_6RefPtrIN7WebCore9AttributeEEELm0EEaSERKS5_
__ZN3WTF6VectorINS_6RefPtrIN7WebCore9AttributeEEELm0EE14shrinkCapacityEm
__ZN7WebCore13StyledElement16attributeChangedEPNS_9AttributeEb
__ZNK7WebCore15HTMLBodyElement10mapToEntryERKNS_13QualifiedNameERNS_20MappedAttributeEntryE
__ZNK7WebCore11HTMLElement10mapToEntryERKNS_13QualifiedNameERNS_20MappedAttributeEntryE
__ZNK7WebCore13StyledElement10mapToEntryERKNS_13QualifiedNameERNS_20MappedAttributeEntryE
__ZN7WebCore15HTMLBodyElement20parseMappedAttributeEPNS_9AttributeE
__ZN7WebCore28createAttributeEventListenerEPNS_5FrameEPNS_9AttributeE
__ZNK7WebCore16ScriptController22eventHandlerLineNumberEv
__ZNK7WebCore8Document24scriptableDocumentParserEv
__ZNK7WebCore18HTMLDocumentParser10lineNumberEv
__ZN7WebCore13toJSDOMWindowEPNS_5FrameEPNS_15DOMWrapperWorldE
__ZN7WebCoreL18eventParameterNameEb
__ZN7WebCore19JSLazyEventListenerC1ERKN3WTF6StringES4_S4_PNS_4NodeES4_iPN3JSC8JSObjectEPNS_15DOMWrapperWorldE
__ZN7WebCore15JSEventListenerC2EPN3JSC8JSObjectES3_bPNS_15DOMWrapperWorldE
__ZN3JSC4WeakINS_8JSObjectEEC2ERNS_12VMEPS1_PNS_15WeakHandleOwnerEPv
__ZN7WebCore8Document31setWindowAttributeEventListenerERKN3WTF12AtomicStringENS1_10PassRefPtrINS_13EventListenerEEE
__ZN7WebCore11EventTarget25setAttributeEventListenerERKN3WTF12AtomicStringENS1_10PassRefPtrINS_13EventListenerEEE
__ZN7WebCore11EventTarget25getAttributeEventListenerERKN3WTF12AtomicStringE
__ZN7WebCore9DOMWindow16addEventListenerERKN3WTF12AtomicStringENS1_10PassRefPtrINS_13EventListenerEEEb
__ZN7WebCore11EventTarget16addEventListenerERKN3WTF12AtomicStringENS1_10PassRefPtrINS_13EventListenerEEEb
__ZN7WebCore9DOMWindow21ensureEventTargetDataEv
__ZN3WTF9HashTableINS_12AtomicStringESt4pairIS1_PNS_6VectorIN7WebCore23RegisteredEventListenerELm1EEEENS_18PairFirstExtractorIS8_EENS_16AtomicStringHashENS_14PairHashTraitsINS_10HashTraitsIS1_EENSD_IS7_EEEESE_E3addIS1_S7_NS_17HashMapTranslatorIS8_SG_SB_EEEES2_INS_17HashTableIteratorIS1_S8_SA_SB_SG_SE_EEbERKT_RKT0_
__ZN3WTF9HashTableINS_12AtomicStringESt4pairIS1_PNS_6VectorIN7WebCore23RegisteredEventListenerELm1EEEENS_18PairFirstExtractorIS8_EENS_16AtomicStringHashENS_14PairHashTraitsINS_10HashTraitsIS1_EENSD_IS7_EEEESE_E4findIS1_NS_22IdentityHashTranslatorIS1_S8_SB_EEEENS_17HashTableIteratorIS1_S8_SA_SB_SG_SE_EERKT_
__ZN3WTF9HashTableINS_12AtomicStringESt4pairIS1_PNS_6VectorIN7WebCore23RegisteredEventListenerELm1EEEENS_18PairFirstExtractorIS8_EENS_16AtomicStringHashENS_14PairHashTraitsINS_10HashTraitsIS1_EENSD_IS7_EEEESE_E6rehashEi
__ZN3WTF9HashTableINS_12AtomicStringESt4pairIS1_PNS_6VectorIN7WebCore23RegisteredEventListenerELm1EEEENS_18PairFirstExtractorIS8_EENS_16AtomicStringHashENS_14PairHashTraitsINS_10HashTraitsIS1_EENSD_IS7_EEEESE_E6removeEPS8_
__ZN7WebCore8Document23addListenerTypeIfNeededERKN3WTF12AtomicStringE
__ZN7WebCore7Element40recalcStyleIfNeededAfterAttributeChangedEPNS_9AttributeE
__ZNK7WebCore16CSSStyleSelector23hasSelectorForAttributeERKN3WTF12AtomicStringE
__ZNK3WTF9HashTableIPNS_16AtomicStringImplES2_NS_17IdentityExtractorIS2_EENS_7PtrHashIS2_EENS_10HashTraitsIS2_EES8_E8containsIS2_NS_22IdentityHashTranslatorIS2_S2_S6_EEEEbRKT_
__ZN7WebCore7Element27updateAfterAttributeChangedEPNS_9AttributeE
__ZN7WebCore12_GLOBAL__N_131isNonAnchorNonNobrFormattingTagERKN3WTF12AtomicStringE
__ZN7WebCore20HTMLConstructionSite28insertSelfClosingHTMLElementERNS_15AtomicHTMLTokenE
__ZN7WebCoreL13brConstructorERKNS_13QualifiedNameEPNS_8DocumentEPNS_15HTMLFormElementEb
__ZN7WebCore13HTMLBRElement6createERKNS_13QualifiedNameEPNS_8DocumentE
__ZN7WebCore13HTMLBRElement14createRendererEPNS_11RenderArenaEPNS_11RenderStyleE
__ZN7WebCore8RenderBRC1EPNS_4NodeE
__ZN7WebCore8RenderBR14styleDidChangeENS_15StyleDifferenceEPKNS_11RenderStyleE
__ZNK7WebCore8RenderBR4isBREv
__ZN7WebCoreL16inputConstructorERKNS_13QualifiedNameEPNS_8DocumentEPNS_15HTMLFormElementEb
__ZN7WebCore16HTMLInputElement6createERKNS_13QualifiedNameEPNS_8DocumentEPNS_15HTMLFormElementEb
__ZN7WebCore26HTMLTextFormControlElementC2ERKNS_13QualifiedNameEPNS_8DocumentEPNS_15HTMLFormElementE
__ZN7WebCore22HTMLFormControlElementC2ERKNS_13QualifiedNameEPNS_8DocumentEPNS_15HTMLFormElementE
__ZN7WebCore21FormAssociatedElementC2EPNS_15HTMLFormElementE
__ZNK7WebCore11HTMLElement16findFormAncestorEv
__ZN7WebCore9InputType10createTextEPNS_16HTMLInputElementE
__ZN7WebCore13TextInputType6createEPNS_16HTMLInputElementE
__ZN7WebCore22HTMLFormControlElement16attributeChangedEPNS_9AttributeEb
__ZNK7WebCore16HTMLInputElement10mapToEntryERKNS_13QualifiedNameERNS_20MappedAttributeEntryE
__ZN7WebCore16HTMLInputElement20parseMappedAttributeEPNS_9AttributeE
__ZN7WebCore16HTMLInputElement10updateTypeEv
__ZN7WebCore9InputType6createEPNS_16HTMLInputElementERKN3WTF6StringE
__ZN3WTF10PassOwnPtrINS_7HashMapINS_6StringEPFNS0_IN7WebCore9InputTypeEEEPNS3_16HTMLInputElementEENS_15CaseFoldingHashENS_10HashTraitsIS2_EENSB_IS9_EEEEED1Ev
__ZN3WTF6OwnPtrINS_7HashMapINS_6StringEPFNS_10PassOwnPtrIN7WebCore9InputTypeEEEPNS4_16HTMLInputElementEENS_15CaseFoldingHashENS_10HashTraitsIS2_EENSC_ISA_EEEEED1Ev
__ZN7WebCore15ButtonInputType6createEPNS_16HTMLInputElementE
__ZNK7WebCore15ButtonInputType15formControlTypeEv
__ZN7WebCore14InputTypeNames6buttonEv
__ZNK7WebCore13TextInputType15formControlTypeEv
__ZN7WebCore14InputTypeNames4textEv
__ZN7WebCore19CheckedRadioButtons12removeButtonEPNS_22HTMLFormControlElementE
__ZThn120_NK7WebCore16HTMLInputElement15formControlNameEv
__ZN7WebCore9InputType32storesValueSeparateFromAttributeEv
__ZN7WebCore9InputType31shouldResetOnDocumentActivationEv
__ZN7WebCore9InputType37shouldRespectHeightAndWidthAttributesEv
__ZN7WebCore9InputType20destroyShadowSubtreeEv
__ZN7WebCore13TextInputTypeD0Ev
__ZN7WebCore9InputTypeD2Ev
__ZN7WebCore9InputType19createShadowSubtreeEv
__ZN7WebCore22HTMLFormControlElement25setNeedsWillValidateCheckEv
__ZNK7WebCore16HTMLInputElement18recalcWillValidateEv
__ZNK7WebCore15ButtonInputType18supportsValidationEv
__ZN7WebCore4Node19setNeedsStyleRecalcENS_15StyleChangeTypeE
__ZN7WebCore19BaseButtonInputType32storesValueSeparateFromAttributeEv
__ZN7WebCore16HTMLInputElement19updateValueIfNeededEv
__ZN7WebCore9InputType13sanitizeValueERKN3WTF6StringE
__ZN7WebCore22HTMLFormControlElement41setChangedSinceLastFormControlChangeEventEb
__ZN7WebCore19CheckedRadioButtons9addButtonEPNS_22HTMLFormControlElementE
__ZNK7WebCore16HTMLInputElement13isRadioButtonEv
__ZNK7WebCore9InputType13isRadioButtonEv
__ZN7WebCore22HTMLFormControlElement21setNeedsValidityCheckEv
__ZN7WebCore21FormAssociatedElement8validityEv
__ZNK7WebCore13ValidityState5validEv
__ZN7WebCore13toHTMLElementEPNS_21FormAssociatedElementE
__ZThn120_NK7WebCore22HTMLFormControlElement20isFormControlElementEv
__ZNK7WebCore22HTMLFormControlElement12willValidateEv
__ZNK7WebCore13ValidityState12stepMismatchEv
__ZNK7WebCore13ValidityState14rangeUnderflowEv
__ZNK7WebCore13ValidityState13rangeOverflowEv
__ZNK7WebCore13ValidityState7tooLongEv
__ZNK7WebCore13ValidityState15patternMismatchEv
__ZNK7WebCore13ValidityState12valueMissingEv
__ZN7WebCore26HTMLTextFormControlElement20parseMappedAttributeEPNS_9AttributeE
__ZN7WebCore22HTMLFormControlElement20parseMappedAttributeEPNS_9AttributeE
__ZN7WebCore11HTMLElement20parseMappedAttributeEPNS_9AttributeE
__ZN7WebCore13StyledElement20parseMappedAttributeEPNS_9AttributeE
__ZN7WebCore7Element18idAttributeChangedEPNS_9AttributeE
__ZN7WebCore28createAttributeEventListenerEPNS_4NodeEPNS_9AttributeE
__ZN7WebCore4Node16addEventListenerERKN3WTF12AtomicStringENS1_10PassRefPtrINS_13EventListenerEEEb
__ZN7WebCore4Node21ensureEventTargetDataEv
__ZN7WebCore4Node14ensureRareDataEv
__ZN7WebCore7Element14createRareDataEv
__ZN7WebCore22HTMLFormControlElement34setFormControlValueMatchesRendererEb
__ZN7WebCore26HTMLTextFormControlElement20insertedIntoDocumentEv
__ZN7WebCore22HTMLFormControlElement16insertedIntoTreeEb
__ZN7WebCore21FormAssociatedElement16insertedIntoTreeEv
__ZN7WebCore9TreeScope14addElementByIdERKN3WTF12AtomicStringEPNS_7ElementE
__ZN7WebCore18DocumentOrderedMap3addEPN3WTF16AtomicStringImplEPNS_7ElementE
__ZN7WebCore21FormAssociatedElement20insertedIntoDocumentEv
__ZNK7WebCore16HTMLInputElement5valueEv
__ZN7WebCore9InputType20getTypeSpecificValueERN3WTF6StringE
__ZN7WebCore26HTMLTextFormControlElement37setTextAsOfLastFormControlChangeEventEN3WTF6StringE
__ZN7WebCore16HTMLInputElement6attachEv
__ZN7WebCore22HTMLFormControlElement6attachEv
__ZNK7WebCore11CSSSelector9attributeEv
__ZN3WTF9HashTableIPNS_16AtomicStringImplES2_NS_17IdentityExtractorIS2_EENS_7PtrHashIS2_EENS_10HashTraitsIS2_EES8_E3addIS2_S2_NS_22IdentityHashTranslatorIS2_S2_S6_EEEESt4pairINS_17HashTableIteratorIS2_S2_S4_S6_S8_S8_EEbERKT_RKT0_
__ZN3WTF9HashTableIPNS_16AtomicStringImplES2_NS_17IdentityExtractorIS2_EENS_7PtrHashIS2_EENS_10HashTraitsIS2_EES8_E6expandEv
__ZN3WTF9HashTableIPNS_16AtomicStringImplES2_NS_17IdentityExtractorIS2_EENS_7PtrHashIS2_EENS_10HashTraitsIS2_EES8_E16lookupForWritingERKS2_
__ZN3WTF9HashTableIPNS_16AtomicStringImplES2_NS_17IdentityExtractorIS2_EENS_7PtrHashIS2_EENS_10HashTraitsIS2_EES8_E4findIS2_NS_22IdentityHashTranslatorIS2_S2_S6_EEEENS_17HashTableIteratorIS2_S2_S4_S6_S8_S8_EERKT_
__ZN7WebCore11CSSSelector8pseudoIdENS0_10PseudoTypeE
__ZNK7WebCore22HTMLFormControlElement20isFormControlElementEv
__ZN7WebCore16HTMLInputElement14toInputElementEv
__ZNK7WebCore22HTMLFormControlElement20isEnabledFormControlEv
__ZNK7WebCore22HTMLFormControlElement8disabledEv
__ZNK7WebCore4Node15rareDataFocusedEv
__ZN7WebCore11RenderStyle13setLineHeightENS_6LengthE
__ZNK7WebCore14RenderThemeMac10systemFontEiRNS_15FontDescriptionE
__ZNK7WebCore8CSSValue16isPrimitiveValueEv
__ZNK7WebCore15CSSInitialValue12cssValueTypeEv
__ZNK7WebCore18ApplyPropertyColorILNS_12ColorInheritE1EE17applyInitialValueEPNS_16CSSStyleSelectorE
__ZN7WebCore11RenderStyle12initialColorEv
__ZN7WebCore11RenderStyle8setColorERKNS_5ColorE
__ZNK7WebCore18ApplyPropertyColorILNS_12ColorInheritE1EE10applyValueEPNS_16CSSStyleSelectorEPNS_8CSSValueE
__ZNK7WebCore16CSSStyleSelector26getColorFromPrimitiveValueEPNS_17CSSPrimitiveValueE
__ZNK7WebCore14RenderThemeMac11systemColorEi
__ZNK3WTF9HashTableIiSt4pairIijENS_18PairFirstExtractorIS2_EENS_7IntHashIjEENS_14PairHashTraitsINS_10HashTraitsIiEENS8_IjEEEES9_E8containsIiNS_22IdentityHashTranslatorIiS2_S6_EEEEbRKT_
__ZN7WebCoreL21convertNSColorToColorEP7NSColor
__ZN7WebCore16CSSStyleSelector10updateFontEv
__ZN7WebCore16CSSStyleSelector22checkForTextSizeAdjustEv
__ZN7WebCore16CSSStyleSelector27checkForGenericFamilyChangeEPNS_11RenderStyleES2_
__ZN7WebCore16CSSStyleSelector18checkForZoomChangeEPNS_11RenderStyleES2_
__ZN7WebCore11RenderStyle16setLetterSpacingEi
__ZN7WebCore11RenderStyle14setWordSpacingEi
__ZNK7WebCore19ApplyPropertyLengthILNS_10LengthAutoE0ELNS_15LengthIntrinsicE0ELNS_18LengthMinIntrinsicE0ELNS_10LengthNoneE0ELNS_15LengthUndefinedE0EE10applyValueEPNS_16CSSStyleSelectorEPNS_8CSSValueE
__ZN7WebCore11RenderStyle13setTextIndentENS_6LengthE
__ZN7WebCore11RenderStyle13setTextShadowEN3WTF10PassOwnPtrINS_10ShadowDataEEEb
__ZN7WebCore22StyleRareInheritedDataC1ERKS0_
__ZN7WebCore22StyleRareInheritedDataC2ERKS0_
__ZN7WebCore11RenderStyle13setAppearanceENS_11ControlPartE
__ZN7WebCore25StyleRareNonInheritedDataC1ERKS0_
__ZN7WebCore25StyleRareNonInheritedDataC2ERKS0_
__ZN3WTF10PassOwnPtrIN7WebCore13AnimationListEED1Ev
__ZN7WebCore9FillLayerC1ERKS0_
__ZN7WebCore9FillLayerC2ERKS0_
__ZN7WebCore11RenderStyle13setPaddingTopENS_6LengthE
__ZN7WebCore11RenderStyle15setPaddingRightENS_6LengthE
__ZN7WebCore11RenderStyle16setPaddingBottomENS_6LengthE
__ZN7WebCore11RenderStyle14setPaddingLeftENS_6LengthE
__ZNK7WebCore18ApplyPropertyColorILNS_12ColorInheritE0EE10applyValueEPNS_16CSSStyleSelectorEPNS_8CSSValueE
__ZN7WebCore11RenderStyle18setBackgroundColorERKNS_5ColorE
__ZN7WebCore19StyleBackgroundDataC1ERKS0_
__ZNK7WebCore18ApplyPropertyWidth10applyValueEPNS_16CSSStyleSelectorEPNS_8CSSValueE
__ZN7WebCore17CSSPrimitiveValue18computeLengthShortEPNS_11RenderStyleES2_d
__ZN7WebCore11RenderStyle17setBorderTopWidthEt
__ZN7WebCore11RenderStyle19setBorderRightWidthEt
__ZN7WebCore11RenderStyle20setBorderBottomWidthEt
__ZN7WebCore11RenderStyle18setBorderLeftWidthEt
__ZNK7WebCore20ApplyPropertyDefaultINS_12EBorderStyleEE10applyValueEPNS_16CSSStyleSelectorEPNS_8CSSValueE
__ZN7WebCore11RenderStyle17setBorderTopStyleENS_12EBorderStyleE
__ZN7WebCore11RenderStyle19setBorderRightStyleENS_12EBorderStyleE
__ZN7WebCore11RenderStyle20setBorderBottomStyleENS_12EBorderStyleE
__ZN7WebCore11RenderStyle18setBorderLeftStyleENS_12EBorderStyleE
__ZNK7WebCore22ApplyPropertyExpandingILNS_19ExpandValueBehaviorE0EE17applyInitialValueEPNS_16CSSStyleSelectorE
__ZNK7WebCore18ApplyPropertyColorILNS_12ColorInheritE0EE17applyInitialValueEPNS_16CSSStyleSelectorE
__ZN7WebCore11RenderStyle17setBorderTopColorERKNS_5ColorE
__ZN7WebCore11RenderStyle19setBorderRightColorERKNS_5ColorE
__ZN7WebCore11RenderStyle20setBorderBottomColorERKNS_5ColorE
__ZN7WebCore11RenderStyle18setBorderLeftColorERKNS_5ColorE
__ZN7WebCore11RenderStyle13setUserSelectENS_11EUserSelectE
__ZN7WebCore11RenderStyle15clearCursorListEv
__ZNK7WebCore8CSSValue11isValueListEv
__ZN7WebCore11RenderStyle11setBoxAlignENS_13EBoxAlignmentE
__ZN7WebCore20StyleDeprecatedFlexibleBoxDataC1ERKS0_
__ZNK3WTF7HashMapIijNS_7IntHashIjEENS_10HashTraitsIiEENS3_IjEEE3getERKi
__ZN7WebCore11RenderStyle12setBoxSizingENS_10EBoxSizingE
__ZN7WebCore10BorderDataaSERKS0_
__ZN7WebCore9FillLayeraSERKS0_
__ZNK7WebCore16HTMLInputElement13isImageButtonEv
__ZNK7WebCore9InputType13isImageButtonEv
__ZN7WebCore11RenderTheme11adjustStyleEPNS_16CSSStyleSelectorEPNS_11RenderStyleEPNS_7ElementEbRKNS_10BorderDataERKNS_9FillLayerERKNS_5ColorE
__ZNK7WebCore14RenderThemeMac15isControlStyledEPKNS_11RenderStyleERKNS_10BorderDataERKNS_9FillLayerERKNS_5ColorE
__ZNK7WebCore11RenderTheme15isControlStyledEPKNS_11RenderStyleERKNS_10BorderDataERKNS_9FillLayerERKNS_5ColorE
__ZNK7WebCore9FillLayereqERKS0_
__ZN7WebCore11RenderStyle12setBoxShadowEN3WTF10PassOwnPtrINS_10ShadowDataEEEb
__ZNK7WebCore8ThemeMac13controlBorderENS_11ControlPartERKNS_4FontERKNS_9LengthBoxEf
__ZNK7WebCore5Theme13controlBorderENS_11ControlPartERKNS_4FontERKNS_9LengthBoxEf
__ZNK7WebCore8ThemeMac14controlPaddingENS_11ControlPartERKNS_4FontERKNS_9LengthBoxEf
__ZNK7WebCore8ThemeMac28controlRequiresPreWhiteSpaceENS_11ControlPartE
__ZNK7WebCore8ThemeMac11controlSizeENS_11ControlPartERKNS_4FontERKNS_10LengthSizeEf
__ZN7WebCoreL21sizeFromNSControlSizeEmRKNS_10LengthSizeEfPKNS_7IntSizeE
__ZN7WebCore11RenderStyle9setHeightENS_6LengthE
__ZNK7WebCore8ThemeMac18minimumControlSizeENS_11ControlPartERKNS_4FontEf
__ZNK7WebCore8ThemeMac11controlFontENS_11ControlPartERKNS_4FontEf
__ZN7WebCore10FontFamilyD1Ev
__ZN7WebCore16HTMLInputElement16rendererIsNeededEPNS_11RenderStyleE
__ZN7WebCore9InputType16rendererIsNeededEv
__ZN7WebCore16HTMLInputElement14createRendererEPNS_11RenderArenaEPNS_11RenderStyleE
__ZNK7WebCore19BaseButtonInputType14createRendererEPNS_11RenderArenaEPNS_11RenderStyleE
__ZN7WebCore12RenderButtonC1EPNS_4NodeE
__ZN7WebCore17RenderDeprecatedFlexibleBoxC2EPNS_4NodeE
__ZN7WebCore12RenderButton15styleWillChangeENS_15StyleDifferenceEPKNS_11RenderStyleE
__ZN7WebCore12RenderButton14styleDidChangeENS_15StyleDifferenceEPKNS_11RenderStyleE
__ZNK7WebCore17RenderDeprecatedFlexibleBox12avoidsFloatsEv
__ZNK7WebCore12RenderObject5themeEv
__ZNK7WebCore11RenderTheme9isDefaultEPKNS_12RenderObjectE
__ZN7WebCore12RenderButton17updateFromElementEv
__ZNK7WebCore16HTMLInputElement16valueWithDefaultEv
__ZN7WebCore12RenderButton7setTextERKN3WTF6StringE
__ZN7WebCore18RenderTextFragmentC1EPNS_4NodeEPN3WTF10StringImplE
__ZN7WebCore18RenderTextFragmentC2EPNS_4NodeEPN3WTF10StringImplE
__ZN7WebCore18RenderTextFragment14styleDidChangeENS_15StyleDifferenceEPKNS_11RenderStyleE
__ZN7WebCore12RenderButton8addChildEPNS_12RenderObjectES2_
__ZN7WebCore11RenderStyle10setBoxFlexEf
__ZN7WebCore11RenderStyle12setBoxOrientENS_10EBoxOrientE
__ZNK7WebCore16HTMLInputElement17isInputTypeHiddenEv
__ZNK7WebCore9InputType12isHiddenTypeEv
__ZNK7WebCore22HTMLFormControlElement9autofocusEv
__ZNK7WebCore7Element12hasAttributeERKNS_13QualifiedNameE
__ZNK7WebCore7Element14hasAttributeNSERKN3WTF6StringES4_
__ZNK7WebCore7Element10attributesEb
__ZN7WebCore9InputType6attachEv
__ZN7WebCore16HTMLInputElement21finishParsingChildrenEv
__ZN7WebCore31HTMLFormControlElementWithState21finishParsingChildrenEv
__ZNK7WebCore31HTMLFormControlElementWithState36shouldSaveAndRestoreFormControlStateEv
__ZNK7WebCore16HTMLInputElement12autoCompleteEv
__ZNK7WebCore31HTMLFormControlElementWithState12autoCompleteEv
__ZNK7WebCore8Document26hasStateForNewFormElementsEv
__ZN7WebCoreL14divConstructorERKNS_13QualifiedNameEPNS_8DocumentEPNS_15HTMLFormElementEb
__ZN7WebCore14HTMLDivElement6createERKNS_13QualifiedNameEPNS_8DocumentE
__ZNK7WebCore14HTMLDivElement10mapToEntryERKNS_13QualifiedNameERNS_20MappedAttributeEntryE
__ZN7WebCore14HTMLDivElement20parseMappedAttributeEPNS_9AttributeE
__ZNK7WebCore21ContentSecurityPolicy16allowInlineStyleEv
__ZN7WebCore13StyledElement21createInlineStyleDeclEv
__ZN7WebCore26CSSMutableStyleDeclarationC1Ev
__ZN7WebCore8Document12elementSheetEv
__ZN7WebCore13CSSStyleSheetC1EPNS_4NodeERKN3WTF6StringERKNS_4KURLES6_
__ZN7WebCore10StyleSheetC2EPNS_4NodeERKN3WTF6StringERKNS_4KURLE
__ZN7WebCore26CSSMutableStyleDeclaration16parseDeclarationERKN3WTF6StringE
__ZN3WTF6VectorIN7WebCore11CSSPropertyELm4EE14shrinkCapacityEm
__ZN7WebCore9CSSParser16parseDeclarationEPNS_26CSSMutableStyleDeclarationERKN3WTF6StringEPNS3_6RefPtrINS_18CSSStyleSourceDataEEE
__ZN7WebCore9StyleBase10stylesheetEv
__ZNK7WebCore9StyleBase12isStyleSheetEv
__ZNK7WebCore10StyleSheet12isStyleSheetEv
__ZNK7WebCore8Document22cssPrimitiveValueCacheEv
__ZN7WebCore26CSSMutableStyleDeclaration19addParsedPropertiesEPKPKNS_11CSSPropertyEi
__ZN3WTF6VectorIN7WebCore11CSSPropertyELm4EE15reserveCapacityEm
__ZN7WebCore26CSSMutableStyleDeclaration17addParsedPropertyERKNS_11CSSPropertyE
__ZNK7WebCore26CSSMutableStyleDeclaration19getPropertyPriorityEi
__ZN7WebCore26CSSMutableStyleDeclaration14removePropertyEibb
__ZN7WebCore19longhandForPropertyEi
__ZNK3WTF7HashMapIiN7WebCore19CSSPropertyLonghandENS_7IntHashIjEENS_10HashTraitsIiEENS5_IS2_EEE3getERKi
__ZN7WebCore26CSSMutableStyleDeclaration19setNeedsStyleRecalcEv
__ZN7WebCore20HTMLConstructionSite22generateImpliedEndTagsEv
__ZN7WebCore12_GLOBAL__N_116hasImpliedEndTagEPNS_13ContainerNodeE
__ZN7WebCore16HTMLElementStack14popUntilPoppedERKN3WTF12AtomicStringE
__ZN7WebCore10RenderText17setTextWithOffsetEN3WTF10PassRefPtrINS1_10StringImplEEEjjb
__ZN7WebCore10RenderText7setTextEN3WTF10PassRefPtrINS1_10StringImplEEEb
__ZN7WebCore10RenderText15setTextInternalEN3WTF10PassRefPtrINS1_10StringImplEEE
__ZNK7WebCore10RenderText13transformTextERN3WTF6StringE
__ZNK7WebCore8Document13axObjectCacheEv
__ZN7WebCore13AXObjectCacheC1EPKNS_8DocumentE
__ZN7WebCore11EventTarget18fireEventListenersEPNS_5EventEPNS_15EventTargetDataERN3WTF6VectorINS_23RegisteredEventListenerELm1EEE
__ZNK7WebCore9DOMWindow22scriptExecutionContextEv
__ZN7WebCore15JSEventListener11handleEventEPNS_22ScriptExecutionContextEPNS_5EventE
__ZThn208_NK7WebCore8Document22isJSExecutionForbiddenEv
__ZNK7WebCore19JSLazyEventListener20initializeJSFunctionEPNS_22ScriptExecutionContextE
__ZNK7WebCore21ContentSecurityPolicy24allowInlineEventHandlersEv
__ZN7WebCore19toJSDOMGlobalObjectEPNS_22ScriptExecutionContextEPNS_15DOMWrapperWorldE
__ZThn208_NK7WebCore8Document10isDocumentEv
__ZN3JSC18jsNontrivialStringEPNS_12VMERKNS_7UStringE
__ZN7WebCore8jsStringEPN3JSC9ExecStateERKN3WTF6StringE
__ZN7WebCore16jsStringSlowCaseEPN3JSC9ExecStateERN3WTF7HashMapIPNS3_10StringImplENS0_4WeakINS0_8JSStringEEENS3_10StringHashENS3_10HashTraitsIS6_EENSB_IS9_EEEES6_
__ZN3JSC8jsStringEPNS_12VMERKNS_7UStringE
__ZN3JSC4WeakINS_8JSStringEEC2ERNS_12VMEPS1_PNS_15WeakHandleOwnerEPv
__ZN3JSC4WeakINS_8JSStringEEaSERKS2_
__ZN7WebCore22ScriptExecutionContext10vmEv
__ZN7WebCore4toJSEPN3JSC9ExecStateEPNS_17JSDOMGlobalObjectEPNS_5EventE
__ZNK7WebCore5Event9isUIEventEv
__ZNK7WebCore5Event15isMutationEventEv
__ZNK7WebCore5Event15isOverflowEventEv
__ZNK7WebCore5Event14isMessageEventEv
__ZNK7WebCore5Event21isPageTransitionEventEv
__ZNK7WebCore5Event15isProgressEventEv
__ZNK7WebCore5Event17isBeforeLoadEventEv
__ZNK7WebCore5Event14isStorageEventEv
__ZNK7WebCore5Event22isWebKitAnimationEventEv
__ZNK7WebCore5Event23isWebKitTransitionEventEv
__ZNK7WebCore5Event12isErrorEventEv
__ZNK7WebCore5Event17isHashChangeEventEv
__ZNK7WebCore5Event15isPopStateEventEv
__ZNK7WebCore5Event13isCustomEventEv
__ZNK7WebCore5Event12isCloseEventEv
__ZN7WebCore13createWrapperINS_7JSEventENS_5EventEEEPNS_12JSDOMWrapperEPN3JSC9ExecStateEPNS_17JSDOMGlobalObjectEPT0_
__ZN7WebCore15getDOMStructureINS_7JSEventEEEPN3JSC9StructureEPNS2_9ExecStateEPNS_17JSDOMGlobalObjectE
__ZN7WebCore7JSEvent15createPrototypeEPN3JSC9ExecStateEPNS1_14JSGlobalObjectE
__ZN7WebCore7JSEventC1EPN3JSC9StructureEPNS_17JSDOMGlobalObjectEN3WTF10PassRefPtrINS_5EventEEE
__ZN3JSC4WeakIN7WebCore12JSDOMWrapperEEC2ERNS_12VMEPS2_PNS_15WeakHandleOwnerEPv
__ZN3JSC4WeakIN7WebCore12JSDOMWrapperEEaSERKS3_
__ZNK7WebCore17JSDOMGlobalObject12currentEventEv
__ZN7WebCore4toJSEPN3JSC9ExecStateEPNS_17JSDOMGlobalObjectEPNS_11EventTargetE
__ZN7WebCore11EventTarget13toEventSourceEv
__ZN7WebCore11EventTarget20toSVGElementInstanceEv
__ZN7WebCore11EventTarget6toNodeEv
__ZN7WebCore9DOMWindow11toDOMWindowEv
__ZN7WebCore4toJSEPN3JSC9ExecStateEPNS_17JSDOMGlobalObjectEPNS_9DOMWindowE
__ZN7WebCore14JSHTMLDocument18getOwnPropertySlotEPN3JSC9ExecStateERKNS1_10IdentifierERNS1_12PropertySlotE
__ZN7WebCore14JSHTMLDocument18canGetItemsForNameEPN3JSC9ExecStateEPNS_12HTMLDocumentERKNS1_10IdentifierE
__ZN3JSC18getStaticValueSlotIN7WebCore14JSHTMLDocumentENS1_10JSDocumentEEEbPNS_9ExecStateEPKNS_9HashTableEPT_RKNS_10IdentifierERNS_12PropertySlotE
__ZN3JSC18getStaticValueSlotIN7WebCore6JSNodeENS1_12JSDOMWrapperEEEbPNS_9ExecStateEPKNS_9HashTableEPT_RKNS_10IdentifierERNS_12PropertySlotE
__ZN7WebCore23JSHTMLDocumentPrototype18getOwnPropertySlotEPN3JSC9ExecStateERKNS1_10IdentifierERNS1_12PropertySlotE
__ZN7WebCore19JSDocumentPrototype18getOwnPropertySlotEPN3JSC9ExecStateERKNS1_10IdentifierERNS1_12PropertySlotE
__ZN7WebCore41jsDocumentPrototypeFunctionGetElementByIdEPN3JSC9ExecStateE
__ZNK7WebCore8Document14getElementByIdERKN3WTF12AtomicStringE
__ZNK7WebCore9TreeScope14getElementByIdERKN3WTF12AtomicStringE
__ZNK7WebCore18DocumentOrderedMap14getElementByIdEPN3WTF16AtomicStringImplEPKNS_9TreeScopeE
__ZNK7WebCore18DocumentOrderedMap3getIXadL_ZNS_12keyMatchesIdEPN3WTF16AtomicStringImplEPNS_7ElementEEEEES6_S4_PKNS_9TreeScopeE
__ZN7WebCore19createJSHTMLWrapperEPN3JSC9ExecStateEPNS_17JSDOMGlobalObjectEN3WTF10PassRefPtrINS_11HTMLElementEEE
__ZN7WebCoreL29createHTMLInputElementWrapperEPN3JSC9ExecStateEPNS_17JSDOMGlobalObjectEN3WTF10PassRefPtrINS_11HTMLElementEEE
__ZN7WebCore13createWrapperINS_18JSHTMLInputElementENS_16HTMLInputElementEEEPNS_12JSDOMWrapperEPN3JSC9ExecStateEPNS_17JSDOMGlobalObjectEPT0_
__ZN7WebCore15getDOMStructureINS_18JSHTMLInputElementEEEPN3JSC9StructureEPNS2_9ExecStateEPNS_17JSDOMGlobalObjectE
__ZN7WebCore18JSHTMLInputElement15createPrototypeEPN3JSC9ExecStateEPNS1_14JSGlobalObjectE
__ZN7WebCore22JSHTMLElementPrototype4selfEPN3JSC9ExecStateEPNS1_14JSGlobalObjectE
__ZN7WebCore15getDOMStructureINS_13JSHTMLElementEEEPN3JSC9StructureEPNS2_9ExecStateEPNS_17JSDOMGlobalObjectE
__ZN7WebCore13JSHTMLElement15createPrototypeEPN3JSC9ExecStateEPNS1_14JSGlobalObjectE
__ZN7WebCore18JSElementPrototype4selfEPN3JSC9ExecStateEPNS1_14JSGlobalObjectE
__ZN7WebCore15getDOMStructureINS_9JSElementEEEPN3JSC9StructureEPNS2_9ExecStateEPNS_17JSDOMGlobalObjectE
__ZN7WebCore9JSElement15createPrototypeEPN3JSC9ExecStateEPNS1_14JSGlobalObjectE
__ZN7WebCore18JSHTMLInputElementC1EPN3JSC9StructureEPNS_17JSDOMGlobalObjectEN3WTF10PassRefPtrINS_16HTMLInputElementEEE
__ZN7WebCore13JSHTMLElementC2EPN3JSC9StructureEPNS_17JSDOMGlobalObjectEN3WTF10PassRefPtrINS_11HTMLElementEEE
__ZN7WebCore9JSElementC2EPN3JSC9StructureEPNS_17JSDOMGlobalObjectEN3WTF10PassRefPtrINS_7ElementEEE
__ZN7WebCore12cacheWrapperINS_16HTMLInputElementEEEvPNS_15DOMWrapperWorldEPT_PNS_12JSDOMWrapperE
__ZN7WebCore18JSHTMLInputElement18getOwnPropertySlotEPN3JSC9ExecStateERKNS1_10IdentifierERNS1_12PropertySlotE
__ZN7WebCore13JSHTMLElement18getOwnPropertySlotEPN3JSC9ExecStateERKNS1_10IdentifierERNS1_12PropertySlotE
__ZN3JSC18getStaticValueSlotIN7WebCore13JSHTMLElementENS1_9JSElementEEEbPNS_9ExecStateEPKNS_9HashTableEPT_RKNS_10IdentifierERNS_12PropertySlotE
__ZN7WebCore27JSHTMLInputElementPrototype18getOwnPropertySlotEPN3JSC9ExecStateERKNS1_10IdentifierERNS1_12PropertySlotE
__ZN7WebCore22JSHTMLElementPrototype18getOwnPropertySlotEPN3JSC9ExecStateERKNS1_10IdentifierERNS1_12PropertySlotE
__ZN7WebCore18JSElementPrototype18getOwnPropertySlotEPN3JSC9ExecStateERKNS1_10IdentifierERNS1_12PropertySlotE
__ZN3JSC21getStaticPropertySlotIN7WebCore18JSElementPrototypeENS_8JSObjectEEEbPNS_9ExecStateEPKNS_9HashTableEPT_RKNS_10IdentifierERNS_12PropertySlotE
__ZN7WebCore31jsElementPrototypeFunctionFocusEPN3JSC9ExecStateE
__ZN7WebCore7Element5focusEb
__ZN7WebCore9RenderBox14dirtyLineBoxesEb
__ZN7WebCore17RenderDeprecatedFlexibleBox11layoutBlockEbi
__ZNK7WebCore12RenderObject13isHTMLMarqueeEv
__ZNK7WebCore9RenderBox24minPreferredLogicalWidthEv
__ZN7WebCore17RenderDeprecatedFlexibleBox29computePreferredLogicalWidthsEv
__ZN7WebCore17RenderDeprecatedFlexibleBox24calcHorizontalPrefWidthsEv
__ZN7WebCore11RenderBlock29computePreferredLogicalWidthsEv
__ZN7WebCore11RenderBlock35computeInlinePreferredLogicalWidthsEv
__ZN7WebCore20InlineMinMaxIterator4nextEv
__ZN7WebCore10RenderText17trimmedPrefWidthsEfRfRbS1_S2_S2_S2_S1_S1_S1_S1_S2_
__ZNK7WebCore9RenderBox24maxPreferredLogicalWidthEv
__ZN7WebCore17RenderDeprecatedFlexibleBox19layoutHorizontalBoxEb
__ZNK7WebCore20RenderBoxModelObject13paddingBottomEb
__ZNK7WebCore20RenderBoxModelObject10paddingTopEb
__ZN7WebCore15FlexBoxIteratorC2EPNS_17RenderDeprecatedFlexibleBoxE
__ZN7WebCoreL22gatherFlexChildrenInfoERNS_15FlexBoxIteratorEbRjS2_Rb
__ZN7WebCore15FlexBoxIterator4nextEv
__ZN7WebCore9RenderBox15setOverrideSizeEi
__ZN7WebCore11RenderBlock26startDelayUpdateScrollInfoEv
__ZNK7WebCore17RenderDeprecatedFlexibleBox13isFlexibleBoxEv
__ZNK7WebCore17RenderDeprecatedFlexibleBox20isStretchingChildrenEv
__ZNK7WebCore9RenderBox12marginBottomEv
__ZN7WebCore11RenderBlock33markForPaginationRelayoutIfNeededEv
__ZNK7WebCore9RenderBox11marginRightEv
__ZN7WebCore11RenderBlock27finishDelayUpdateScrollInfoEv
__ZNK7WebCore12RenderButton14hasControlClipEv
__ZN7WebCore11BidiContext41copyStackRemovingUnicodeEmbeddingContextsEv
__ZN7WebCore13RootInlineBox22verticalPositionForBoxEPNS_9InlineBoxERNS_21VerticalPositionCacheE
__ZNK7WebCore13InlineTextBox16baselinePositionENS_12FontBaselineE
__ZNK7WebCore13InlineTextBox10lineHeightEv
__ZNK7WebCore12RenderObject9isRubyRunEv
__ZNK7WebCore11RenderBlock17marginEndForChildEPNS_20RenderBoxModelObjectE
__ZN7WebCore24acquireLineBreakIteratorEPKti
__ZN7WebCore24currentTextBreakLocaleIDEv
__ZN7WebCoreL21topLanguagePreferenceEv
__ZN7WebCoreL27canonicalLanguageIdentifierEPK10__CFString
__ZN7WebCore18textBreakFollowingEPNS_17TextBreakIteratorEi
__ZNK7WebCore12RenderObject6lengthEv
__ZN7WebCore9RenderBox15createInlineBoxEv
__ZNK7WebCore9InlineBox15isInlineTextBoxEv
__ZNK7WebCore9InlineBox11isLineBreakEv
__ZNK7WebCore9InlineBox16baselinePositionENS_12FontBaselineE
__ZNK7WebCore11RenderTheme18isControlContainerENS_11ControlPartE
__ZNK7WebCore11RenderBlock19lastLineBoxBaselineEv
__ZNK7WebCore9InlineBox10lineHeightEv
__ZNK7WebCore9RenderBox10lineHeightEbNS_17LineDirectionModeENS_16LinePositionModeE
__ZN7WebCore9RenderBox15positionLineBoxEPNS_9InlineBoxE
__ZN7WebCore24releaseLineBreakIteratorEPNS_17TextBreakIteratorE
__ZN7WebCore9InlineBoxD0Ev
__ZN7WebCore11RenderBlock22checkFloatsInCleanLineEPNS_13RootInlineBoxERN3WTF6VectorINS0_13FloatWithRectELm0EEERmRbS9_
__ZN7WebCore11RenderBlock20determineEndPositionEPNS_13RootInlineBoxERN3WTF6VectorINS0_13FloatWithRectELm0EEEmRNS_14InlineIteratorERNS_10BidiStatusERi
__ZN7WebCore15LineLayoutState25updateRepaintRangeFromBoxEPNS_13RootInlineBoxEi
__ZN7WebCore13InlineFlowBox10deleteLineEPNS_11RenderArenaE
__ZN7WebCore13InlineTextBox10deleteLineEPNS_11RenderArenaE
__ZN7WebCore10RenderText13removeTextBoxEPNS_13InlineTextBoxE
__ZN7WebCore13RootInlineBox29removeLineBoxFromRenderObjectEv
__ZN7WebCore17RenderLineBoxList13removeLineBoxEPNS_13InlineFlowBoxE
__ZNK7WebCore11RenderBlock20adjustRectForColumnsERNS_7IntRectE
__ZNK7WebCore22HTMLFormControlElement11isFocusableEv
__ZNK7WebCore22HTMLFormControlElement13supportsFocusEv
__ZN7WebCore15FocusController14setFocusedNodeEPNS_4NodeEN3WTF10PassRefPtrINS_5FrameEEE
__ZNK7WebCore4Node19rootEditableElementEv
__ZN7WebCore26HTMLTextFormControlElement18dispatchFocusEventEv
__ZNK7WebCore16HTMLInputElement19supportsPlaceholderEv
__ZNK7WebCore9InputType10isTextTypeEv
__ZN7WebCore16HTMLInputElement16handleFocusEventEv
__ZNK7WebCore9InputType11isTextFieldEv
__ZN7WebCore4Node18dispatchFocusEventEv
__ZN7WebCore12EventContextC1EN3WTF10PassRefPtrINS_4NodeEEENS2_INS_11EventTargetEEES6_
__ZN3WTF6VectorIN7WebCore12EventContextELm0EE15reserveCapacityEm
__ZN3WTF11VectorMoverILb0EN7WebCore12EventContextEE4moveEPKS2_S5_PS2_
__ZN7WebCore16HTMLInputElement23preDispatchEventHandlerEPNS_5EventE
__ZNK7WebCore12EventContext17handleLocalEventsEPNS_5EventE
__ZN7WebCore16HTMLInputElement24postDispatchEventHandlerEPNS_5EventEPv
__ZN7WebCore16HTMLInputElement19defaultEventHandlerEPNS_5EventE
__ZNK7WebCore5Event12isMouseEventEv
__ZNK7WebCore5Event15isKeyboardEventEv
__ZN7WebCore9InputType22shouldSubmitImplicitlyEPNS_5EventE
__ZNK7WebCore5Event25isBeforeTextInsertedEventEv
__ZNK7WebCore5Event12isWheelEventEv
__ZN7WebCore9InputType12forwardEventEPNS_5EventE
__ZN7WebCore31HTMLFormControlElementWithState19defaultEventHandlerEPNS_5EventE
__ZN7WebCore12EventContextD1Ev
__ZN7WebCore4Node15dispatchUIEventERKN3WTF12AtomicStringEiNS1_10PassRefPtrINS_5EventEEE
__ZN7WebCore7UIEventC1ERKN3WTF12AtomicStringEbbNS1_10PassRefPtrINS_9DOMWindowEEEi
__ZN7WebCore5Event18setUnderlyingEventEN3WTF10PassRefPtrIS0_EE
__ZN7WebCore15EventDispatcher19dispatchScopedEventEPNS_4NodeEN3WTF10PassRefPtrINS_5EventEEE
__ZN7WebCore16ScopedEventQueue8instanceEv
__ZN3WTF10PassOwnPtrIN7WebCore16ScopedEventQueueEED1Ev
__ZN3WTF6OwnPtrIN7WebCore16ScopedEventQueueEED1Ev
__ZN7WebCore16ScopedEventQueue12enqueueEventEN3WTF10PassRefPtrINS_5EventEEE
__ZNK7WebCore16ScopedEventQueue13dispatchEventEN3WTF10PassRefPtrINS_5EventEEE
__ZN7WebCore7UIEventD0Ev
__ZN7WebCore13ContainerNode8setFocusEb
__ZN7WebCore4Node8setFocusEb
__ZN7WebCore6Widget8setFocusEb
__ZN7WebCore5Frame14frameForWidgetEPKNS_6WidgetE
__ZN7WebCore12RenderWidget4findEPKNS_6WidgetE
-[NSScrollView(WebCoreView) _webcore_effectiveFirstResponder]
-[NSClipView(WebCoreView) _webcore_effectiveFirstResponder]
-[NSView(WebCoreView) _webcore_effectiveFirstResponder]
__ZN7WebCore6Chrome11focusNSViewEP6NSView
__ZNK7WebCore6Chrome18focusedNodeChangedEPNS_4NodeE
__ZN3WTF6VectorIN7WebCore16CSSStyleSelector16ParentStackFrameELm0EE6resizeEm
__ZN7WebCore22HTMLFormControlElement11recalcStyleENS_4Node11StyleChangeE
__ZNK7WebCore14FrameSelection18isFocusedAndActiveEv
__ZN7WebCore11RenderStyle15setOutlineStyleENS_12EBorderStyleEb
__ZN7WebCore11RenderStyle15setOutlineWidthEt
__ZN7WebCore11RenderTheme14focusRingColorEv
__ZNK7WebCore14RenderThemeMac22platformFocusRingColorEv
__ZNK7WebCore14RenderThemeMac26usesTestModeFocusRingColorEv
__ZN7WebCore26usesTestModeFocusRingColorEv
__ZN7WebCore21oldAquaFocusRingColorEv
__ZN7WebCore11RenderStyle15setOutlineColorERKNS_5ColorE
__ZN7WebCore17CSSPrimitiveValue16computeLengthIntEPNS_11RenderStyleES2_d
__ZN7WebCore11RenderStyle16setOutlineOffsetEi
__ZNK7WebCore19StyleBackgroundDataeqERKS0_
__ZNK7WebCore14SVGRenderStyle17inheritedNotEqualEPKS0_
__ZNK7WebCore14SVGRenderStyle14InheritedFlagseqERKS1_
__ZNK7WebCore22StyleRareInheritedDataeqERKS0_
__ZNK7WebCore10QuotesDataeqERKS0_
__ZNK7WebCore20StyleDeprecatedFlexibleBoxDataeqERKS0_
__ZNK7WebCore25StyleRareNonInheritedData20shadowDataEquivalentERKS0_
__ZNK7WebCore25StyleRareNonInheritedData24reflectionDataEquivalentERKS0_
__ZNK7WebCore22StyleRareInheritedData20shadowDataEquivalentERKS0_
__ZN7WebCore14RenderThemeMac17adjustRepaintRectEPKNS_12RenderObjectERNS_7IntRectE
__ZN7WebCore11RenderTheme17adjustRepaintRectEPKNS_12RenderObjectERNS_7IntRectE
__ZNK7WebCore11RenderTheme24controlStatesForRendererEPKNS_12RenderObjectE
__ZNK7WebCore7Element19isSpinButtonElementEv
__ZNK7WebCore16HTMLInputElement9isCheckedEv
__ZNK7WebCore22HTMLFormControlElement21isReadOnlyFormControlEv
__ZNK7WebCore16HTMLInputElement15isIndeterminateEv
__ZNK7WebCore8ThemeMac23inflateControlPaintRectENS_11ControlPartEjRNS_7IntRectEf
__ZN7WebCoreL6buttonENS_11ControlPartEjRKNS_7IntRectEf
__ZN7WebCoreL14leakButtonCellENS_14ButtonCellTypeE
__ZN7WebCoreL24controlSizeFromPixelSizeEPKNS_7IntSizeERS1_f
__ZN7WebCoreL12updateStatesEP6NSCellj
__ZN7WebCoreL11inflateRectERKNS_7IntRectERKNS_7IntSizeEPKif
__ZN7WebCore10RenderView21setMaximalOutlineSizeEi
__ZNK7WebCore20RenderBoxModelObject16isBoxModelObjectEv
__ZN7WebCore25StyleRareNonInheritedDataD1Ev
__ZN7WebCore25StyleRareNonInheritedDataD2Ev
__ZN3WTF6OwnPtrIN7WebCore13AnimationListEED1Ev
__ZN3WTF6OwnPtrINS_7HashMapINS_6RefPtrINS_16AtomicStringImplEEEN7WebCore17CounterDirectivesENS_7PtrHashIS4_EENS_10HashTraitsIS4_EENS9_IS6_EEEEED1Ev
__ZN3WTF10RefCountedIN7WebCore18StyleTransformDataEE5derefEv
__ZN7WebCore22StyleRareInheritedDataD1Ev
__ZN7WebCore22StyleRareInheritedDataD2Ev
__ZN7WebCore13ContainerNode23queuePostAttachCallbackEPFvPNS_4NodeEES2_
__ZN3WTF6VectorISt4pairIPFvPN7WebCore4NodeEENS_6RefPtrIS3_EEELm0EE14expandCapacityEm
__ZN7WebCoreL25updateFromElementCallbackEPNS_4NodeE
__ZN3WTF6VectorISt4pairIPFvPN7WebCore4NodeEENS_6RefPtrIS3_EEELm0EE14shrinkCapacityEm
__ZNK7WebCore16HTMLInputElement20shouldUseInputMethodEv
__ZNK7WebCore9InputType20shouldUseInputMethodEv
__ZN7WebCore8Document27cancelFocusAppearanceUpdateEv
__ZN7WebCore16HTMLInputElement21updateFocusAppearanceEb
__ZN7WebCore7Element21updateFocusAppearanceEb
__ZNK7WebCore13ContainerNode7getRectEv
__ZNK7WebCore13ContainerNode18getUpperLeftCornerERNS_10FloatPointE
__ZNK7WebCore12RenderObject15localToAbsoluteERKNS_10FloatPointEbb
__ZNK7WebCore9RenderBox19mapLocalToContainerEPNS_20RenderBoxModelObjectEbbRNS_14TransformStateE
__ZNK7WebCore14TransformState11mappedPointEv
__ZNK7WebCore9RenderBox19offsetFromContainerEPNS_12RenderObjectERKNS_8IntPointE
__ZNK7WebCore12RenderObject31shouldUseTransformFromContainerEPKS0_
__ZN7WebCore14TransformState4moveEiiNS0_21TransformAccumulationE
__ZNK7WebCore10RenderView19mapLocalToContainerEPNS_20RenderBoxModelObjectEbbRNS_14TransformStateE
__ZN7WebCore14TransformState7flattenEv
__ZNK7WebCore13ContainerNode19getLowerRightCornerERNS_10FloatPointE
__ZN7WebCore12RenderObject19scrollRectToVisibleERKNS_7IntRectERKNS_15ScrollAlignmentES6_
__ZNK7WebCore9RenderBox28canBeProgramaticallyScrolledEb
__ZN7WebCore11RenderLayer15getRectToExposeERKNS_7IntRectES3_RKNS_15ScrollAlignmentES6_
__ZNK7WebCore6Chrome18scrollRectIntoViewERKNS_7IntRectE
__ZN7WebCore13AXObjectCache18rootObjectForFrameEPNS_5FrameE
__ZN7WebCore13AXObjectCache11getOrCreateEPNS_6WidgetE
__ZN7WebCore13AXObjectCache3getEPNS_6WidgetE
__ZNK7WebCore9FrameView11isFrameViewEv
__ZNK7WebCore13AXObjectCache20platformGenerateAXIDEv
__ZN3WTF9HashTableIjjNS_17IdentityExtractorIjEENS_7IntHashIjEENS_10HashTraitsIjEES6_E3addIjjNS_22IdentityHashTranslatorIjjS4_EEEESt4pairINS_17HashTableIteratorIjjS2_S4_S6_S6_EEbERKT_RKT0_
__ZN3WTF9HashTableIjjNS_17IdentityExtractorIjEENS_7IntHashIjEENS_10HashTraitsIjEES6_E6expandEv
__ZN7WebCore13AXObjectCache13attachWrapperEPNS_19AccessibilityObjectE
-[AccessibilityObjectWrapper initWithAccessibilityObject:]
__ZNK7WebCore23AccessibilityScrollView12isAttachmentEv
__ZNK7WebCore23AccessibilityScrollView10firstChildEv
__ZNK7WebCore19AccessibilityObject13axObjectCacheEv
__ZNK7WebCore19AccessibilityObject8documentEv
__ZNK7WebCore23AccessibilityScrollView17documentFrameViewEv
__ZN7WebCore13AXObjectCache11getOrCreateEPNS_12RenderObjectE
__ZN7WebCore13AXObjectCache3getEPNS_12RenderObjectE
__ZNK7WebCore4Node21isMediaControlElementEv
__ZNK7WebCore12RenderObject9isListBoxEv
__ZNK7WebCore12RenderObject10isMenuListEv
__ZNK7WebCore12RenderObject8isSliderEv
__ZN7WebCore25AccessibilityRenderObject26determineAccessibilityRoleEv
__ZNK7WebCore25AccessibilityRenderObject26determineAriaRoleAttributeEv
__ZNK7WebCore19AccessibilityObject12getAttributeERKNS_13QualifiedNameE
__ZNK7WebCore25AccessibilityRenderObject4nodeEv
__ZNK7WebCore25AccessibilityRenderObject17ariaRoleAttributeEv
__ZNK3WTF7HashMapIjNS_6RefPtrIN7WebCore19AccessibilityObjectEEENS_7IntHashIjEENS_10HashTraitsIjEENS7_IS4_EEE3getERKj
-[AccessibilityObjectWrapper accessibilityFocusedUIElement]
-[AccessibilityObjectWrapper updateObjectBackingStore]
__ZN7WebCore19AccessibilityObject18updateBackingStoreEv
__ZNK7WebCore25AccessibilityRenderObject8documentEv
__ZNK7WebCore19AccessibilityObject16focusedUIElementEv
__ZN7WebCore13AXObjectCache23focusedUIElementForPageEPKNS_4PageE
__ZNK7WebCore15FocusController18focusedOrMainFrameEv
__ZNK7WebCore12RenderObject11isTextFieldEv
__ZNK7WebCore12RenderObject10isTextAreaEv
__ZNK7WebCore16HTMLInputElement10isCheckboxEv
__ZNK7WebCore9InputType10isCheckboxEv
__ZNK7WebCore16HTMLInputElement12isTextButtonEv
__ZNK7WebCore15ButtonInputType12isTextButtonEv
__ZNK7WebCore25AccessibilityRenderObject27shouldFocusActiveDescendantEv
__ZNK7WebCore25AccessibilityRenderObject22accessibilityIsIgnoredEv
__ZNK7WebCore25AccessibilityRenderObject12ariaIsHiddenEv
__ZNK7WebCore25AccessibilityRenderObject12parentObjectEv
__ZNK7WebCore25AccessibilityRenderObject18renderParentObjectEv
__ZNK7WebCore11RenderBlock25inlineElementContinuationEv
__ZNK7WebCore25AccessibilityRenderObject18isFileUploadButtonEv
__ZNK7WebCore25AccessibilityRenderObject12headingLevelEv
__ZNK7WebCore25AccessibilityRenderObject27isAccessibilityRenderObjectEv
__ZNK7WebCore25AccessibilityRenderObject9isWebAreaEv
__ZNK7WebCore19AccessibilityObject9roleValueEv
__ZNK7WebCore19AccessibilityObject27isAccessibilityRenderObjectEv
__ZNK7WebCore23AccessibilityScrollView12parentObjectEv
__ZNK7WebCore25AccessibilityRenderObject31isPresentationalChildOfAriaRoleEv
__ZNK7WebCore25AccessibilityRenderObject33ariaRoleHasPresentationalChildrenEv
__ZNK7WebCore19AccessibilityObject33ariaRoleHasPresentationalChildrenEv
__ZNK7WebCore19AccessibilityObject35accessibilityPlatformIncludesObjectEv
__ZNK7WebCore19AccessibilityObject15isMenuListPopupEv
__ZNK7WebCore19AccessibilityObject16isMenuListOptionEv
__ZNK7WebCore25AccessibilityRenderObject15canHaveChildrenEv
__ZNK7WebCore19AccessibilityObject15canHaveChildrenEv
__ZNK7WebCore25AccessibilityRenderObject26inheritsPresentationalRoleEv
__ZNK7WebCore23AccessibilityScrollView9roleValueEv
__ZNK7WebCore25AccessibilityRenderObject12isAttachmentEv
__ZNK7WebCore25AccessibilityRenderObject35correspondingControlForLabelElementEv
__ZNK7WebCore25AccessibilityRenderObject21labelElementContainerEv
__ZNK7WebCore25AccessibilityRenderObject9isControlEv
__ZNK7WebCore25AccessibilityRenderObject9isHeadingEv
__ZNK7WebCore25AccessibilityRenderObject6isLinkEv
-[AccessibilityObjectWrapper accessibilityAttributeValue:]
__ZNK7WebCore19AccessibilityObject20isAccessibilityTableEv
__ZNK7WebCore19AccessibilityObject13isTableColumnEv
__ZNK7WebCore19AccessibilityObject11isTableCellEv
__ZNK7WebCore19AccessibilityObject9isListBoxEv
__ZNK7WebCore19AccessibilityObject6isListEv
__ZNK7WebCore25AccessibilityRenderObject8rendererEv
__ZN7WebCore40jsHTMLInputElementPrototypeFunctionClickEPN3JSC9ExecStateE
__ZN7WebCore11HTMLElement5clickEv
__ZN7WebCore4Node22dispatchSimulatedClickEN3WTF10PassRefPtrINS_5EventEEEbb
__ZN7WebCore15EventDispatcher22dispatchSimulatedClickEPNS_4NodeEN3WTF10PassRefPtrINS_5EventEEEbb
__ZN3WTF9HashTableIPN7WebCore4NodeES3_NS_17IdentityExtractorIS3_EENS_7PtrHashIS3_EENS_10HashTraitsIS3_EES9_E3addIS3_S3_NS_22IdentityHashTranslatorIS3_S3_S7_EEEESt4pairINS_17HashTableIteratorIS3_S3_S5_S7_S9_S9_EEbERKT_RKT0_
__ZN3WTF9HashTableIPN7WebCore4NodeES3_NS_17IdentityExtractorIS3_EENS_7PtrHashIS3_EENS_10HashTraitsIS3_EES9_E6expandEv
__ZN7WebCore13ContainerNode9setActiveEbb
__ZNK7WebCore11RenderTheme12stateChangedEPNS_12RenderObjectENS_12ControlStateE
__ZN7WebCore19SimulatedMouseEvent6createERKN3WTF12AtomicStringENS1_10PassRefPtrINS_9DOMWindowEEENS5_INS_5EventEEE
__ZN7WebCore19SimulatedMouseEventC2ERKN3WTF12AtomicStringENS1_10PassRefPtrINS_9DOMWindowEEENS5_INS_5EventEEE
__ZN7WebCore17MouseRelatedEventC2ERKN3WTF12AtomicStringEbbNS1_10PassRefPtrINS_9DOMWindowEEEiiiiibbbbb
__ZN7WebCore7UIEventC2ERKN3WTF12AtomicStringEbbNS1_10PassRefPtrINS_9DOMWindowEEEi
__ZN7WebCore17MouseRelatedEvent19computePageLocationEv
__ZNK7WebCore17MouseRelatedEvent5pageYEv
__ZNK7WebCore17MouseRelatedEvent5pageXEv
__ZN7WebCore17MouseRelatedEvent14receivedTargetEv
__ZNK7WebCore10MouseEvent12isMouseEventEv
__ZN7WebCore9InputType17willDispatchClickEv
__ZNK7WebCore4Node22scriptExecutionContextEv
__ZN3JSC4WeakINS_8JSObjectEE3setERNS_12VMEPS1_PNS_15WeakHandleOwnerEPv
__ZNK7WebCore13JSHTMLElement21pushEventHandlerScopeEPN3JSC9ExecStateEPNS1_14ScopeChainNodeE
__ZNK7WebCore4Node13ownerDocumentEv
__ZNK7WebCore22HTMLFormControlElement11virtualFormEv
__ZNK7WebCore7UIEvent9isUIEventEv
__ZNK7WebCore5Event11isTextEventEv
__ZN7WebCore13createWrapperINS_12JSMouseEventENS_10MouseEventEEEPNS_12JSDOMWrapperEPN3JSC9ExecStateEPNS_17JSDOMGlobalObjectEPT0_
__ZN7WebCore15getDOMStructureINS_12JSMouseEventEEEPN3JSC9StructureEPNS2_9ExecStateEPNS_17JSDOMGlobalObjectE
__ZN7WebCore12JSMouseEvent15createPrototypeEPN3JSC9ExecStateEPNS1_14JSGlobalObjectE
__ZN7WebCore18JSUIEventPrototype4selfEPN3JSC9ExecStateEPNS1_14JSGlobalObjectE
__ZN7WebCore15getDOMStructureINS_9JSUIEventEEEPN3JSC9StructureEPNS2_9ExecStateEPNS_17JSDOMGlobalObjectE
__ZN7WebCore9JSUIEvent15createPrototypeEPN3JSC9ExecStateEPNS1_14JSGlobalObjectE
__ZN7WebCore16JSEventPrototype4selfEPN3JSC9ExecStateEPNS1_14JSGlobalObjectE
__ZN7WebCore12JSMouseEventC1EPN3JSC9StructureEPNS_17JSDOMGlobalObjectEN3WTF10PassRefPtrINS_10MouseEventEEE
__ZN7WebCore9JSUIEventC2EPN3JSC9StructureEPNS_17JSDOMGlobalObjectEN3WTF10PassRefPtrINS_7UIEventEEE
__ZN7WebCore7JSEventC2EPN3JSC9StructureEPNS_17JSDOMGlobalObjectEN3WTF10PassRefPtrINS_5EventEEE
__ZN7WebCore4Node6toNodeEv
__ZN7WebCore38jsElementPrototypeFunctionSetAttributeEPN3JSC9ExecStateE
__ZN7WebCore7Element12setAttributeERKN3WTF12AtomicStringES4_Ri
__ZN7WebCore8Document11isValidNameERKN3WTF6StringE
__ZN7WebCore13StyledElement15createAttributeERKNS_13QualifiedNameERKN3WTF12AtomicStringE
__ZN3WTF6VectorINS_6RefPtrIN7WebCore9AttributeEEELm0EE14expandCapacityEm
__ZN7WebCore13AXObjectCache29handleActiveDescendantChangedEPNS_12RenderObjectE
__ZN7WebCore25AccessibilityRenderObject29handleActiveDescendantChangedEv
__ZNK7WebCore25AccessibilityRenderObject16activeDescendantEv
__ZN7WebCore7Element25dispatchAttrAdditionEventEPNS_9AttributeE
__ZN7WebCore4Node28dispatchSubtreeModifiedEventEv
__ZN7WebCore4Node36notifyLocalNodeListsAttributeChangedEv
__ZN7WebCore15setDOMExceptionEPN3JSC9ExecStateEi
__ZNK7WebCore22ScriptExecutionContext15isWorkerGlobalScopeEv
__ZN7WebCore9InputType16handleClickEventEPNS_10MouseEventE
__ZN7WebCore9InputType22handleDOMActivateEventEPNS_5EventE
__ZNK3WTF9HashTableIPN7WebCore4NodeES3_NS_17IdentityExtractorIS3_EENS_7PtrHashIS3_EENS_10HashTraitsIS3_EES9_E4findIS3_NS_22IdentityHashTranslatorIS3_S3_S7_EEEENS_22HashTableConstIteratorIS3_S3_S5_S7_S9_S9_EERKT_
__ZN3WTF9HashTableIPN7WebCore4NodeES3_NS_17IdentityExtractorIS3_EENS_7PtrHashIS3_EENS_10HashTraitsIS3_EES9_E6removeEPS3_
__ZNK7WebCore25StyleRareNonInheritedDataeqERKS0_
__ZN7WebCore7Element25pseudoStyleCacheIsInvalidEPKNS_11RenderStyleEPS1_
__ZN7WebCore12RenderObject16setStyleInternalEN3WTF10PassRefPtrINS_11RenderStyleEEE
__ZN7WebCore13AXObjectCache16postNotificationEPNS_12RenderObjectENS0_14AXNotificationEbNS_8PostTypeE
__ZN7WebCore13AXObjectCache16postNotificationEPNS_19AccessibilityObjectEPNS_8DocumentENS0_14AXNotificationEbNS_8PostTypeE
__ZN3WTF6VectorISt4pairINS_6RefPtrIN7WebCore19AccessibilityObjectEEENS3_13AXObjectCache14AXNotificationEELm0EE15reserveCapacityEm
__ZNK7WebCore13RootInlineBox15selectionBottomEv
__ZN7WebCore9InlineBox5paintERNS_9PaintInfoEiiii
__ZN7WebCore11RenderTheme5paintEPNS_12RenderObjectERKNS_9PaintInfoERKNS_7IntRectE
__ZNK7WebCore15GraphicsContext20updatingControlTintsEv
__ZNK7WebCore8ThemeMac5paintENS_11ControlPartEjPNS_15GraphicsContextERKNS_7IntRectEfPNS_10ScrollViewE
__ZN7WebCore27LocalCurrentGraphicsContextC1EPNS_15GraphicsContextE
__ZN7WebCore27LocalCurrentGraphicsContextC2EPNS_15GraphicsContextE
__ZN7WebCore15GraphicsContext4saveEv
__ZN3WTF6VectorIN7WebCore20GraphicsContextStateELm0EE15reserveCapacityEm
__ZN7WebCore20GraphicsContextStateC2ERKS0_
__ZN7WebCore15GraphicsContext17savePlatformStateEv
__ZN7WebCore27LocalCurrentGraphicsContextD1Ev
__ZN7WebCore15GraphicsContext7restoreEv
__ZN7WebCore20GraphicsContextStateaSERKS0_
__ZN7WebCore15GraphicsContext20restorePlatformStateEv
__ZNK7WebCore12RenderButton15controlClipRectEii
__ZN7WebCore15GraphicsContext4clipERKNS_7IntRectE
__ZN7WebCore15GraphicsContext4clipERKNS_9FloatRectE
__ZN7WebCore9RenderBox15popContentsClipERNS_9PaintInfoENS_10PaintPhaseEii
__ZNK7WebCore9InlineBox4rootEv
__ZN7WebCore12RenderObject12paintOutlineEPNS_15GraphicsContextERKNS_7IntRectE
__ZNK7WebCore11RenderTheme17supportsFocusRingEPKNS_11RenderStyleE
__ZN7WebCore12TextIterator21handleReplacedElementEv
__ZN7WebCore16JSDOMWindowShell13visitChildrenERN3JSC9MarkStackE
__ZN7WebCore11JSDOMWindow13visitChildrenERN3JSC9MarkStackE
__ZN7WebCore17JSDOMGlobalObject13visitChildrenERN3JSC9MarkStackE
__ZN7WebCore15JSEventListener15visitJSFunctionERN3JSC9MarkStackE
__ZN3WTF9HashTableIPvS1_NS_17IdentityExtractorIS1_EENS_7PtrHashIS1_EENS_10HashTraitsIS1_EES7_E3addIS1_S1_NS_22IdentityHashTranslatorIS1_S1_S5_EEEESt4pairINS_17HashTableIteratorIS1_S1_S3_S5_S7_S7_EEbERKT_RKT0_
__ZN3WTF9HashTableIPvS1_NS_17IdentityExtractorIS1_EENS_7PtrHashIS1_EENS_10HashTraitsIS1_EES7_E6expandEv
__ZN7WebCore6JSNode13visitChildrenERN3JSC9MarkStackE
__ZN7WebCore17JSDOMWrapperOwner8finalizeEN3JSC6HandleINS1_7UnknownEEEPv
__ZN7WebCore13JSStringOwner8finalizeEN3JSC6HandleINS1_7UnknownEEEPv
__ZN3WTF7HashMapIPNS_10StringImplEN3JSC4WeakINS3_8JSStringEEENS_10StringHashENS_10HashTraitsIS2_EENS8_IS6_EEE6removeERKS2_
__ZNK7WebCore8Document19axObjectCacheExistsEv
__ZN7WebCore17HTMLScriptElementD0Ev
__ZN7WebCore13ScriptElementD2Ev
__ZN7WebCore11HTMLElementD0Ev
__ZN3JSC8Bindings17ObjCRuntimeObjectD1Ev
__ZN3JSC8Bindings13RuntimeObjectD2Ev
__ZN7WebCore7JSEventD1Ev
__ZN7WebCore12JSMouseEventD1Ev
__ZN7WebCore19SimulatedMouseEventD0Ev
__ZN7WebCore7UIEventD2Ev
__ZN7WebCore5Frame20clearFormerDOMWindowEPNS_9DOMWindowE
__ZNK3WTF9HashTableIPN7WebCore9DOMWindowES3_NS_17IdentityExtractorIS3_EENS_7PtrHashIS3_EENS_10HashTraitsIS3_EES9_E4findIS3_NS_22IdentityHashTranslatorIS3_S3_S7_EEEENS_22HashTableConstIteratorIS3_S3_S5_S7_S9_S9_EERKT_
__ZN3WTF9HashTableIPN7WebCore9DOMWindowES3_NS_17IdentityExtractorIS3_EENS_7PtrHashIS3_EENS_10HashTraitsIS3_EES9_E6removeEPS3_
__ZN7WebCore5TimerINS_13AXObjectCacheEE5firedEv
__ZN7WebCore13AXObjectCache26notificationPostTimerFiredEPNS_5TimerIS0_EE
__ZN7WebCore13AXObjectCache24postPlatformNotificationEPNS_19AccessibilityObjectENS0_14AXNotificationE
-[AccessibilityObjectWrapper accessibilityPostedNotification:]
__ZN3WTF6VectorISt4pairINS_6RefPtrIN7WebCore19AccessibilityObjectEEENS3_13AXObjectCache14AXNotificationEELm0EE14shrinkCapacityEm
__ZNK7WebCore16HTMLInputElement20saveFormControlStateERN3WTF6StringE
__ZNK7WebCore9InputType20saveFormControlStateERN3WTF6StringE
__ZNK7WebCore16HTMLInputElement12defaultValueEv
__ZN7WebCore16HTMLInputElement13aboutToUnloadEv
__ZN3WTF6VectorIN7WebCore23RegisteredEventListenerELm1EED1Ev
__ZN7WebCore19JSLazyEventListenerD0Ev
__ZN7WebCore15JSEventListenerD2Ev
__ZN7WebCore13AXObjectCacheD1Ev
__ZN7WebCore13AXObjectCacheD2Ev
__ZN7WebCore13AXObjectCache13detachWrapperEPNS_19AccessibilityObjectE
-[AccessibilityObjectWrapper detach]
-[AccessibilityObjectWrapper unregisterUniqueIdForUIElement]
__ZN7WebCore25AccessibilityRenderObject6detachEv
__ZN7WebCore25AccessibilityRenderObject13clearChildrenEv
__ZN3WTF6VectorINS_6RefPtrIN7WebCore19AccessibilityObjectEEELm0EE14shrinkCapacityEm
__ZNK3WTF9HashTableIjjNS_17IdentityExtractorIjEENS_7IntHashIjEENS_10HashTraitsIjEES6_E4findIjNS_22IdentityHashTranslatorIjjS4_EEEENS_22HashTableConstIteratorIjjS2_S4_S6_S6_EERKT_
__ZN3WTF9HashTableIjjNS_17IdentityExtractorIjEENS_7IntHashIjEENS_10HashTraitsIjEES6_E6removeEPj
__ZN7WebCore19AccessibilityObject6detachEv
__ZN7WebCore25AccessibilityRenderObjectD0Ev
__ZN7WebCore19AccessibilityObjectD2Ev
__ZN7WebCore23AccessibilityScrollViewD0Ev
__ZN7WebCore13AXObjectCache15childrenChangedEPNS_12RenderObjectE
__ZN7WebCore13AXObjectCache6removeEPNS_12RenderObjectE
__ZN7WebCore13AXObjectCache6removeEj
__ZN7WebCore8RenderBRD0Ev
__ZN7WebCore16HTMLInputElement6detachEv
__ZN7WebCore22HTMLFormControlElement6detachEv
__ZN7WebCore18RenderTextFragment7destroyEv
__ZN7WebCore18RenderTextFragmentD0Ev
__ZN7WebCore12RenderButton11removeChildEPNS_12RenderObjectE
__ZN7WebCore12RenderButtonD0Ev
__ZN7WebCore17RenderDeprecatedFlexibleBoxD2Ev
__ZN7WebCore13AXObjectCache6removeEPNS_6WidgetE
__ZNK7WebCore9FrameView13axObjectCacheEv
__ZN7WebCore13AXObjectCache21handleScrollbarUpdateEPNS_10ScrollViewE
__ZN7WebCore9HTMLToken12beginDOCTYPEEt
__ZN7WebCore9HTMLToken12beginDOCTYPEEv
__ZN7WebCore9HTMLToken24appendToPublicIdentifierEt
__ZN7WebCore21HTMLMetaCharsetParserD1Ev
__ZN7WebCore20HTMLConstructionSite13insertDoctypeERNS_15AtomicHTMLTokenE
__ZN7WebCore12DocumentTypeC1EPNS_8DocumentERKN3WTF6StringES6_S6_
__ZN7WebCore20HTMLConstructionSite6attachINS_12DocumentTypeEEEN3WTF10PassRefPtrIT_EEPNS_13ContainerNodeES6_
__ZN7WebCore12DocumentType20insertedIntoDocumentEv
__ZN7WebCore8Document10setDocTypeEN3WTF10PassRefPtrINS_12DocumentTypeEEE
__ZN7WebCore12HTMLDocument31setCompatibilityModeFromDoctypeEv
__ZN7WebCoreL15linkConstructorERKNS_13QualifiedNameEPNS_8DocumentEPNS_15HTMLFormElementEb
__ZN7WebCore15HTMLLinkElement6createERKNS_13QualifiedNameEPNS_8DocumentEb
__ZN7WebCore15HTMLLinkElement20parseMappedAttributeEPNS_9AttributeE
__ZN7WebCore15HTMLLinkElement20tokenizeRelAttributeERKN3WTF12AtomicStringERNS0_12RelAttributeE
__ZN7WebCore15HTMLLinkElement7processEv
__ZN7WebCore33stripLeadingAndTrailingHTMLSpacesERKN3WTF6StringE
__ZN7WebCoreL20copyPathRemovingDotsEPcPKcii
__ZN7WebCore15HTMLLinkElement20insertedIntoDocumentEv
__ZN7WebCore4Node14isInShadowTreeEv
__ZN7WebCore8Document26addStyleSheetCandidateNodeEPNS_4NodeEb
__ZN7WebCore13ContainerNode23dispatchBeforeLoadEventERKN3WTF6StringE
__ZN7WebCore20CachedResourceLoader20requestCSSStyleSheetERKN3WTF6StringES4_NS_20ResourceLoadPriorityE
__ZN7WebCore20CachedResourceLoader15requestResourceENS_14CachedResource4TypeERKN3WTF6StringES6_NS_20ResourceLoadPriorityEb
__ZN7WebCore11MemoryCache32removeFragmentIdentifierIfNeededERKNS_4KURLE
__ZN7WebCore20CachedResourceLoader10canRequestENS_14CachedResource4TypeERKNS_4KURLEb
__ZNK7WebCore14SecurityOrigin10canDisplayERKNS_4KURLE
__ZN7WebCore14SchemeRegistry26canDisplayOnlyIfCanRequestERKN3WTF6StringE
__ZN7WebCore14SchemeRegistry37shouldTreatURLSchemeAsDisplayIsolatedERKN3WTF6StringE
__ZN7WebCore11FrameLoader25checkIfRunInsecureContentEPNS_14SecurityOriginERKNS_4KURLE
__ZN7WebCore11FrameLoader14isMixedContentEPNS_14SecurityOriginERKNS_4KURLE
__ZNK7WebCore21ContentSecurityPolicy20allowStyleFromSourceERKNS_4KURLE
__ZNK7WebCore21ContentSecurityPolicy29checkSourceAndReportViolationEPNS_12CSPDirectiveERKNS_4KURLERKN3WTF6StringE
__ZN7WebCore11MemoryCache14resourceForURLERKNS_4KURLE
__ZNK7WebCore20CachedResourceLoader27determineRevalidationPolicyENS_14CachedResource4TypeEbPS1_
__ZN7WebCore20CachedResourceLoader12loadResourceENS_14CachedResource4TypeERKNS_4KURLERKN3WTF6StringENS_20ResourceLoadPriorityE
__ZN7WebCoreL14createResourceENS_14CachedResource4TypeERKNS_4KURLERKN3WTF6StringE
__ZN7WebCore19CachedCSSStyleSheetC1ERKN3WTF6StringES4_
__ZN7WebCore19CachedCSSStyleSheetC2ERKN3WTF6StringES4_
__ZN7WebCore14CachedResourceC2ERKN3WTF6StringENS0_4TypeE
__ZN7WebCore11MemoryCache3addEPNS_14CachedResourceE
__ZN7WebCore11MemoryCache16resourceAccessedEPNS_14CachedResourceE
__ZNK7WebCore14CachedResource12overheadSizeEv
__ZN7WebCore11MemoryCache10lruListForEPNS_14CachedResourceE
__ZN7WebCore14CachedResource15setLoadPriorityENS_20ResourceLoadPriorityE
__ZN7WebCore14CachedResource4loadEPNS_20CachedResourceLoaderE
__ZN7WebCore20CachedResourceLoader4loadEPNS_14CachedResourceEbNS_19SecurityCheckPolicyEb
__ZN7WebCore21CachedResourceRequest4loadEPNS_20CachedResourceLoaderEPNS_14CachedResourceEbNS_19SecurityCheckPolicyEb
__ZN7WebCore14CachedResource10setRequestEPNS_21CachedResourceRequestE
__ZN7WebCore19ResourceRequestBase11setPriorityENS_20ResourceLoadPriorityE
__ZN7WebCore21ResourceLoadScheduler23scheduleSubresourceLoadEPNS_5FrameEPNS_23SubresourceLoaderClientERKNS_15ResourceRequestENS_20ResourceLoadPriorityENS_19SecurityCheckPolicyEbbRKN3WTF6StringEb
__ZN7WebCore17SubresourceLoader6createEPNS_5FrameEPNS_23SubresourceLoaderClientERKNS_15ResourceRequestENS_19SecurityCheckPolicyEbbRKN3WTF6StringEb
__ZNK7WebCore11FrameLoader16outgoingReferrerEv
__ZNK7WebCore11FrameLoader14outgoingOriginEv
__ZNK7WebCore14SecurityOrigin8toStringEv
__ZN7WebCore14SecurityOrigin18shouldHideReferrerERKNS_4KURLERKN3WTF6StringE
__ZN7WebCore10protocolIsERKN3WTF6StringEPKc
__ZN7WebCore19ResourceRequestBase17clearHTTPReferrerEv
__ZN7WebCore11FrameLoader21addHTTPOriginIfNeededERNS_15ResourceRequestEN3WTF6StringE
__ZN7WebCore11FrameLoader34addExtraFieldsToSubresourceRequestERNS_15ResourceRequestE
__ZN7WebCore14ResourceLoader19setShouldBufferDataEb
__ZN7WebCore14DocumentLoader20addSubresourceLoaderEPNS_14ResourceLoaderE
__ZN7WebCore14ResourceLoader4initERKNS_15ResourceRequestE
__ZN7WebCore17SubresourceLoader15willSendRequestERNS_15ResourceRequestERKNS_16ResourceResponseE
__ZN7WebCore21ResourceLoadScheduler12scheduleLoadEPNS_14ResourceLoaderENS_20ResourceLoadPriorityE
__ZN3WTF5DequeINS_6RefPtrIN7WebCore14ResourceLoaderEEELm0EE14expandCapacityEv
__ZN7WebCore14ResourceLoader5startEv
__ZN7WebCore14DocumentLoader19scheduleArchiveLoadEPNS_14ResourceLoaderERKNS_15ResourceRequestERKNS_4KURLE
__ZN7WebCore20ApplicationCacheHost17maybeLoadResourceEPNS_14ResourceLoaderERNS_15ResourceRequestERKNS_4KURLE
__ZN7WebCore20ApplicationCacheHost38shouldLoadResourceFromApplicationCacheERKNS_15ResourceRequestERPNS_24ApplicationCacheResourceE
__ZN7WebCore17SubresourceLoader26shouldUseCredentialStorageEv
__ZN7WebCore23SubresourceLoaderClient29getShouldUseCredentialStorageEPNS_17SubresourceLoaderERb
__ZN7WebCore14CachedResource14registerHandleEPNS_24CachedResourceHandleBaseE
__ZN7WebCore24CachedResourceHandleBase11setResourceEPNS_14CachedResourceE
__ZN7WebCore14CachedResource16unregisterHandleEPNS_24CachedResourceHandleBaseE
__ZN7WebCore14CachedResource9addClientEPNS_20CachedResourceClientE
__ZN7WebCore14CachedResource14addClientToSetEPNS_20CachedResourceClientE
__ZN7WebCore11MemoryCache22addToLiveResourcesSizeEPNS_14CachedResourceE
__ZN7WebCore19CachedCSSStyleSheet12didAddClientEPNS_20CachedResourceClientE
__ZN7WebCore15HTMLLinkElement21finishParsingChildrenEv
__ZN7WebCore18HTMLPreloadScannerC1EPNS_8DocumentE
__ZN7WebCore17CSSPreloadScannerC1EPNS_8DocumentE
__ZN7WebCore18HTMLDocumentParser23usePreHTML5ParserQuirksEPNS_8DocumentE
__ZN7WebCore18HTMLPreloadScanner11appendToEndERKNS_15SegmentedStringE
__ZN7WebCore18HTMLPreloadScanner4scanEv
__ZN7WebCore18HTMLPreloadScanner12processTokenEv
__ZN7WebCore12_GLOBAL__N_111PreloadTask12setUrlToLoadERKN3WTF6StringE
__ZN7WebCore20CachedResourceLoader7preloadENS_14CachedResource4TypeERKN3WTF6StringES6_b
__ZN7WebCore20CachedResourceLoader14requestPreloadENS_14CachedResource4TypeERKN3WTF6StringES6_
__ZNK7WebCore21ContentSecurityPolicy21allowScriptFromSourceERKNS_4KURLE
__ZN7WebCore12CachedScriptC1ERKN3WTF6StringES4_
__ZN7WebCore12CachedScriptC2ERKN3WTF6StringES4_
__ZN7WebCore17DOMImplementation13isXMLMIMETypeERKN3WTF6StringE
__ZN7WebCore17RegularExpressionC1ERKN3WTF6StringENS1_19TextCaseSensitivityE
__ZN7WebCore17RegularExpression7Private7compileERKN3WTF6StringENS2_19TextCaseSensitivityE
__ZN3JSC4Yarr11YarrPatternD1Ev
__ZN3JSC4Yarr18PatternDisjunctionD1Ev
__ZNK7WebCore17RegularExpression5matchERKN3WTF6StringEiPi
__ZN3WTF10PassOwnPtrINS_11ListHashSetIPN7WebCore14CachedResourceELm256ENS_7PtrHashIS4_EEEEED1Ev
__ZN7WebCore14InputTypeNames5imageEv
__ZNK3WTF9HashTableIPNS_15ListHashSetNodeIPN7WebCore14CachedResourceELm256EEES6_NS_17IdentityExtractorIS6_EENS_28ListHashSetNodeHashFunctionsIS4_Lm256ENS_7PtrHashIS4_EEEENS_10HashTraitsIS6_EESE_E8containsIS4_NS_21ListHashSetTranslatorIS4_Lm256ESB_EEEEbRKT_
__ZN3WTF5DequeIN7WebCore18SegmentedSubstringELm0EE14expandCapacityEv
__ZN3WTF11VectorMoverILb0EN7WebCore18SegmentedSubstringEE4moveEPKS2_S5_PS2_
__ZN7WebCore17SubresourceLoader18didReceiveResponseERKNS_16ResourceResponseE
__ZN7WebCore21CachedResourceRequest18didReceiveResponseEPNS_17SubresourceLoaderERKNS_16ResourceResponseE
__ZN7WebCore14CachedResource11setResponseERKNS_16ResourceResponseE
__ZN7WebCore17SubresourceLoader14didReceiveDataEPKcixb
__ZN7WebCore21CachedResourceRequest14didReceiveDataEPNS_17SubresourceLoaderEPKci
__ZN7WebCore17SubresourceLoader16didFinishLoadingEd
__ZN7WebCore21CachedResourceRequest16didFinishLoadingEPNS_17SubresourceLoaderEd
__ZN7WebCore20CachedResourceLoader21decrementRequestCountEPKNS_14CachedResourceE
__ZN7WebCore19CachedCSSStyleSheet4dataEN3WTF10PassRefPtrINS_12SharedBufferEEEb
__ZN7WebCore14CachedResource14setEncodedSizeEj
__ZN7WebCore11MemoryCache17removeFromLRUListEPNS_14CachedResourceE
__ZN7WebCore11MemoryCache15insertInLRUListEPNS_14CachedResourceE
__ZN7WebCore11MemoryCache10adjustSizeEbi
__ZN7WebCore19TextResourceDecoder18checkForCSSCharsetEPKcmRb
__ZN7WebCore19CachedCSSStyleSheet11checkNotifyEv
__ZN7WebCore26CachedResourceClientWalkerC1ERKN3WTF14HashCountedSetIPNS_20CachedResourceClientENS1_7PtrHashIS4_EENS1_10HashTraitsIS4_EEEE
__ZN7WebCore26CachedResourceClientWalkerC2ERKN3WTF14HashCountedSetIPNS_20CachedResourceClientENS1_7PtrHashIS4_EENS1_10HashTraitsIS4_EEEE
__ZN7WebCore26CachedResourceClientWalker4nextEv
__ZNK3WTF9HashTableIPN7WebCore20CachedResourceClientESt4pairIS3_jENS_18PairFirstExtractorIS5_EENS_7PtrHashIS3_EENS_14PairHashTraitsINS_10HashTraitsIS3_EENSB_IjEEEESC_E8containsIS3_NS_22IdentityHashTranslatorIS3_S5_S9_EEEEbRKT_
__ZThn120_N7WebCore15HTMLLinkElement16setCSSStyleSheetERKN3WTF6StringERKNS_4KURLES4_PKNS_19CachedCSSStyleSheetE
__ZN7WebCore15HTMLLinkElement16setCSSStyleSheetERKN3WTF6StringERKNS_4KURLES4_PKNS_19CachedCSSStyleSheetE
__ZNK7WebCore19CachedCSSStyleSheet9sheetTextEbPb
__ZNK7WebCore19CachedCSSStyleSheet11canUseSheetEbPb
__ZN7WebCore28extractMIMETypeFromMediaTypeERKN3WTF6StringE
__ZNK7WebCore11HTMLElement5titleEv
__ZN7WebCore9MediaListC1EPNS_13CSSStyleSheetERKN3WTF6StringEb
__ZN7WebCore9MediaListC2EPNS_13CSSStyleSheetERKN3WTF6StringEb
__ZN7WebCore9MediaList12setMediaTextERKN3WTF6StringERi
__ZN3WTF6VectorIPN7WebCore10MediaQueryELm0EEaSERKS4_
__ZN7WebCore9MediaListD0Ev
__ZN7WebCore10StyleSheet8setMediaEN3WTF10PassRefPtrINS_9MediaListEEE
__ZN7WebCore13CSSStyleSheet11checkLoadedEv
__ZN7WebCore13CSSStyleSheet9isLoadingEv
__ZN7WebCore9StyleBase12isImportRuleEv
__ZN7WebCore15HTMLLinkElement11sheetLoadedEv
__ZN7WebCore8Document18removePendingSheetEv
__ZNK7WebCore15HTMLLinkElement9isLoadingEv
__ZNK7WebCore15HTMLLinkElement5sheetEv
__ZN3WTF6VectorINS_6RefPtrIN7WebCore10StyleSheetEEELm0EE14expandCapacityEm
__ZN7WebCore4Node11recalcStyleENS0_11StyleChangeE
__ZN7WebCore14StyleSheetList4itemEj
__ZNK7WebCore19MediaQueryEvaluator4evalEPKNS_9MediaListEPNS_16CSSStyleSelectorE
__ZN3WTF7HashSetIPNS_16AtomicStringImplENS_7PtrHashIS2_EENS_10HashTraitsIS2_EEE3addERKS2_
__ZN7WebCore18HTMLDocumentParser35executeScriptsWaitingForStylesheetsEv
__ZN7WebCore16HTMLScriptRunner35executeScriptsWaitingForStylesheetsEv
__ZN7WebCore16HTMLScriptRunner28executeParsingBlockingScriptEv
__ZN7WebCore16HTMLScriptRunner36executePendingScriptAndDispatchEventERNS_13PendingScriptE
__ZNK7WebCore16HTMLScriptRunner23sourceFromPendingScriptERKNS_13PendingScriptERb
__ZN7WebCore4KURLC1ERKS0_
__ZNK7WebCore4Node11textContentEb
__ZN7WebCoreL17appendTextContentEPKNS_4NodeEbRbRN3WTF13StringBuilderE
__ZN3WTF13StringBuilder6appendERKNS_6StringE
__ZN7WebCore13PendingScript22releaseElementAndClearEv
__ZN7WebCore17HTMLScriptElement16attributeChangedEPNS_9AttributeEb
__ZN7WebCore17HTMLScriptElement20parseMappedAttributeEPNS_9AttributeE
__ZN7WebCore13ScriptElement21handleSourceAttributeERKN3WTF6StringE
__ZThn120_NK7WebCore17HTMLScriptElement20sourceAttributeValueEv
__ZN7WebCore13ScriptElement13requestScriptERKN3WTF6StringE
__ZN7WebCore20CachedResourceLoader13requestScriptERKN3WTF6StringES4_
__ZN7WebCore14CachedResource13makePurgeableEb
__ZThn120_NK7WebCore17HTMLScriptElement19deferAttributeValueEv
__ZNK7WebCore16HTMLScriptRunner20requestPendingScriptERNS_13PendingScriptEPNS_7ElementE
__ZN7WebCore13PendingScript15setCachedScriptEPNS_12CachedScriptE
__ZN7WebCore12CachedScript12didAddClientEPNS_20CachedResourceClientE
__ZN7WebCore14CachedResource12didAddClientEPNS_20CachedResourceClientE
__ZThn40_N7WebCore18HTMLDocumentParser12watchForLoadEPNS_14CachedResourceE
__ZN7WebCore14CachedResource6finishEv
__ZN7WebCore20CachedResourceLoader8loadDoneEPNS_21CachedResourceRequestE
__ZNK3WTF9HashTableINS_6RefPtrIN7WebCore21CachedResourceRequestEEES4_NS_17IdentityExtractorIS4_EENS_7PtrHashIS4_EENS_10HashTraitsIS4_EESA_E4findIS4_NS_22IdentityHashTranslatorIS4_S4_S8_EEEENS_22HashTableConstIteratorIS4_S4_S6_S8_SA_SA_EERKT_
__ZN7WebCore11FrameLoader8loadDoneEv
__ZN7WebCore20CachedResourceLoader23checkForPendingPreloadsEv
__ZN7WebCore21CachedResourceRequestD0Ev
__ZN7WebCore14DocumentLoader23removeSubresourceLoaderEPNS_14ResourceLoaderE
__ZN7WebCore11FrameLoader17checkLoadCompleteEv
__ZN7WebCore17SubresourceLoaderD0Ev
__ZN7WebCore12CachedScript4dataEN3WTF10PassRefPtrINS_12SharedBufferEEEb
__ZN7WebCore14CachedResource11checkNotifyEv
__ZN7WebCore13PendingScript14notifyFinishedEPNS_14CachedResourceE
__ZThn48_N7WebCore18HTMLDocumentParser14notifyFinishedEPNS_14CachedResourceE
__ZN7WebCore18HTMLDocumentParser14notifyFinishedEPNS_14CachedResourceE
__ZN7WebCore16HTMLScriptRunner28executeScriptsWaitingForLoadEPNS_14CachedResourceE
__ZN7WebCore26CachedScriptSourceProviderC2EPNS_12CachedScriptE
__ZNK7WebCore12CachedScript19sourceProviderCacheEv
__ZN7WebCore20CachedResourceClient14notifyFinishedEPNS_14CachedResourceE
__ZNK7WebCore26CachedScriptSourceProvider6lengthEv
__ZN7WebCore12CachedScript6scriptEv
__ZN7WebCore14CachedResource14setDecodedSizeEj
__ZN7WebCore11MemoryCache32insertInLiveDecodedResourcesListEPNS_14CachedResourceE
__ZThn40_N7WebCore18HTMLDocumentParser19stopWatchingForLoadEPNS_14CachedResourceE
__ZN7WebCore14CachedResource12removeClientEPNS_20CachedResourceClientE
__ZNK7WebCore26CachedScriptSourceProvider4dataEv
__ZN7WebCore17CheckboxInputType6createEPNS_16HTMLInputElementE
__ZNK7WebCore17CheckboxInputType15formControlTypeEv
__ZN7WebCore14InputTypeNames8checkboxEv
__ZNK7WebCore9InputType18supportsValidationEv
__ZNK7WebCore22HTMLFormControlElement18recalcWillValidateEv
__ZN7WebCore22BaseCheckableInputType32storesValueSeparateFromAttributeEv
__ZNK7WebCore16HTMLInputElement12typeMismatchEv
__ZNK7WebCore9InputType12typeMismatchEv
__ZN7WebCore22BaseCheckableInputType13fallbackValueEv
__ZNK7WebCore16HTMLInputElement12stepMismatchERKN3WTF6StringE
__ZNK7WebCore16HTMLInputElement36getAllowedValueStepWithDecimalPlacesEPdPj
__ZNK7WebCore9InputType11defaultStepEv
__ZNK7WebCore9InputType15stepScaleFactorEv
__ZNK7WebCore16HTMLInputElement14rangeUnderflowERKN3WTF6StringE
__ZNK7WebCore9InputType14rangeUnderflowERKN3WTF6StringE
__ZNK7WebCore16HTMLInputElement13rangeOverflowERKN3WTF6StringE
__ZNK7WebCore9InputType13rangeOverflowERKN3WTF6StringE
__ZNK7WebCore16HTMLInputElement7tooLongERKN3WTF6StringENS_26HTMLTextFormControlElement21NeedsToCheckDirtyFlagE
__ZNK7WebCore16HTMLInputElement15patternMismatchERKN3WTF6StringE
__ZNK7WebCore9InputType15patternMismatchERKN3WTF6StringE
__ZNK7WebCore16HTMLInputElement12valueMissingERKN3WTF6StringE
__ZNK7WebCore16HTMLInputElement21isRequiredFormControlEv
__ZNK7WebCore9InputType16supportsRequiredEv
__ZNK7WebCore22HTMLFormControlElement8requiredEv
__ZNK7WebCore24ApplyPropertyDefaultBaseINS_6LengthEE17applyInitialValueEPNS_16CSSStyleSelectorE
__ZN7WebCore11RenderStyle14initialPaddingEv
__ZNK7WebCore24ApplyPropertyDefaultBaseINS_12EBorderStyleEE17applyInitialValueEPNS_16CSSStyleSelectorE
__ZN7WebCore11RenderStyle18initialBorderStyleEv
__ZNK7WebCore24ApplyPropertyDefaultBaseItE17applyInitialValueEPNS_16CSSStyleSelectorE
__ZN7WebCore11RenderStyle18initialBorderWidthEv
__ZNK7WebCore5Theme14controlPaddingENS_11ControlPartERKNS_4FontERKNS_9LengthBoxEf
__ZN7WebCore11RenderStyle8setWidthENS_6LengthE
__ZNK7WebCore9InputType14createRendererEPNS_11RenderArenaEPNS_11RenderStyleE
__ZN7WebCore12RenderObject17updateFromElementEv
__ZNK7WebCore22HTMLFormControlElement22isDefaultButtonForFormEv
__ZNK7WebCore16HTMLInputElement24isSuccessfulSubmitButtonEv
__ZN7WebCore9InputType27canBeSuccessfulSubmitButtonEv
__ZN7WebCore16HTMLInputElement10setCheckedEbb
__ZN7WebCore16HTMLInputElement25updateCheckedRadioButtonsEv
__ZNK7WebCore7Element15formControlNameEv
__ZNK7WebCore16HTMLInputElement15formControlNameEv
__ZNK7WebCore16HTMLInputElement15formControlTypeEv
__ZN7WebCore22BaseCheckableInputType11isCheckableEv
__ZN7WebCoreL8checkboxEjRKNS_7IntRectEf
__ZN7WebCore16parseHTMLIntegerERKN3WTF6StringERi
__ZN7WebCore4Node21setTabIndexExplicitlyEs
__ZN7WebCore13AXObjectCache21handleAriaRoleChangedEPNS_12RenderObjectE
__ZN7WebCoreL20paragraphConstructorERKNS_13QualifiedNameEPNS_8DocumentEPNS_15HTMLFormElementEb
__ZN7WebCore20HTMLParagraphElement6createERKNS_13QualifiedNameEPNS_8DocumentE
__ZNK7WebCore20HTMLParagraphElement10mapToEntryERKNS_13QualifiedNameERNS_20MappedAttributeEntryE
__ZN7WebCore20HTMLParagraphElement20parseMappedAttributeEPNS_9AttributeE
__ZN7WebCore20HTMLConstructionSite35generateImpliedEndTagsWithExclusionERKN3WTF12AtomicStringE
__ZNK7WebCore9TreeScope17applyAuthorSheetsEv
__ZNK7WebCore12CSSValueList12cssValueTypeEv
__ZNK7WebCore12CSSValueList11isValueListEv
__ZN7WebCore16CSSStyleSelector11setFontSizeERNS_15FontDescriptionEf
__ZN7WebCore40jsDocumentPrototypeFunctionCreateElementEPN3JSC9ExecStateE
__ZN7WebCore26valueToStringWithNullCheckEPN3JSC9ExecStateENS0_7JSValueE
__ZN7WebCore12HTMLDocument13createElementERKN3WTF12AtomicStringERi
__ZN7WebCore16toJSNewlyCreatedEPN3JSC9ExecStateEPNS_17JSDOMGlobalObjectEPNS_7ElementE
__ZN7WebCore13createWrapperINS_13JSHTMLElementENS_11HTMLElementEEEPNS_12JSDOMWrapperEPN3JSC9ExecStateEPNS_17JSDOMGlobalObjectEPT0_
__ZN7WebCore13JSHTMLElementC1EPN3JSC9StructureEPNS_17JSDOMGlobalObjectEN3WTF10PassRefPtrINS_11HTMLElementEEE
__ZN7WebCore12cacheWrapperINS_11HTMLElementEEEvPNS_15DOMWrapperWorldEPT_PNS_12JSDOMWrapperE
__ZN7WebCore13JSHTMLElement3putEPN3JSC9ExecStateERKNS1_10IdentifierENS1_7JSValueERNS1_15PutPropertySlotE
__ZN3JSC9lookupPutIN7WebCore13JSHTMLElementEEEbPNS_9ExecStateERKNS_10IdentifierENS_7JSValueEPKNS_9HashTableEPT_
__ZN7WebCore25setJSHTMLElementInnerHTMLEPN3JSC9ExecStateEPNS0_8JSObjectENS0_7JSValueE
__ZN7WebCore11HTMLElement12setInnerHTMLERKN3WTF6StringERi
__ZN7WebCoreL24createFragmentFromSourceERKN3WTF6StringEPNS_7ElementERi
__ZN7WebCore16DocumentFragment6createEPNS_8DocumentE
__ZN7WebCore16DocumentFragment9parseHTMLERKN3WTF6StringEPNS_7ElementENS_27FragmentScriptingPermissionE
__ZN7WebCore18HTMLDocumentParser21parseDocumentFragmentERKN3WTF6StringEPNS_16DocumentFragmentEPNS_7ElementENS_27FragmentScriptingPermissionE
__ZN7WebCore18HTMLDocumentParserC2EPNS_16DocumentFragmentEPNS_7ElementENS_27FragmentScriptingPermissionE
__ZN7WebCore15HTMLTreeBuilderC1EPNS_18HTMLDocumentParserEPNS_16DocumentFragmentEPNS_7ElementENS_27FragmentScriptingPermissionEb
__ZN7WebCore15HTMLTreeBuilderC2EPNS_18HTMLDocumentParserEPNS_16DocumentFragmentEPNS_7ElementENS_27FragmentScriptingPermissionEb
__ZN7WebCore20HTMLConstructionSiteC1EPNS_16DocumentFragmentENS_27FragmentScriptingPermissionE
__ZN7WebCore16HTMLElementStack12pushRootNodeEN3WTF10PassRefPtrINS_13ContainerNodeEEE
__ZN7WebCore4Node20beginParsingChildrenEv
__ZN7WebCore15HTMLTreeBuilder31resetInsertionModeAppropriatelyEv
__ZNK7WebCore16HTMLElementStack9topRecordEv
__ZNK7WebCore16HTMLElementStack8rootNodeEv
__ZN7WebCore20HTMLConstructionSite7setFormEPNS_15HTMLFormElementE
__ZN7WebCore18HTMLDocumentParser6insertERKNS_15SegmentedStringE
__ZN7WebCore15SegmentedStringC1ERKS0_
__ZN7WebCore15SegmentedString21setExcludeLineNumbersEv
__ZNK7WebCore16DocumentFragment8nodeTypeEv
__ZN7WebCore13StyledElement21classAttributeChangedERKN3WTF12AtomicStringE
__ZN7WebCore12NamedNodeMap8setClassERKN3WTF6StringE
__ZN7WebCore16SpaceSplitString3setERKN3WTF6StringEb
__ZNK7WebCore7Element17optionalClassListEv
__ZN7WebCore15HTMLTreeBuilder30processAnyOtherEndTagForInBodyERNS_15AtomicHTMLTokenE
__ZN7WebCore16HTMLElementStack14popUntilPoppedEPNS_7ElementE
__ZN7WebCoreL27replaceChildrenWithFragmentEPNS_11HTMLElementEN3WTF10PassRefPtrINS_16DocumentFragmentEEERi
__ZN7WebCore13ContainerNode11appendChildEN3WTF10PassRefPtrINS_4NodeEEERib
__ZN7WebCore4Node13checkAddChildEPS0_Ri
__ZN7WebCoreL16checkAcceptChildEPNS_4NodeES1_Ri
__ZN7WebCoreL18isChildTypeAllowedEPNS_4NodeES1_
__ZNK7WebCore7Element16childTypeAllowedENS_4Node8NodeTypeE
__ZN7WebCoreL18collectTargetNodesEPNS_4NodeERN3WTF6VectorINS2_6RefPtrIS0_EELm1EEE
__ZN3WTF6VectorINS_6RefPtrIN7WebCore4NodeEEELm1EE15reserveCapacityEm
__ZN7WebCore13ContainerNode11removeChildEPNS_4NodeERi
__ZN7WebCore8Document17nodeWillBeRemovedEPNS_4NodeE
__ZN7WebCore12EventHandler17nodeWillBeRemovedEPNS_4NodeE
__ZNK7WebCore4Node8containsEPKS0_
__ZN7WebCore14FrameSelection17nodeWillBeRemovedEPNS_4NodeE
__ZN7WebCore19DragCaretController17nodeWillBeRemovedEPNS_4NodeE
__ZN7WebCoreL26dispatchChildRemovalEventsEPNS_4NodeE
__ZN7WebCore8Document32removeFullScreenElementOfSubtreeEPNS_4NodeEb
__ZN7WebCore8Document19nodeChildrenChangedEPNS_13ContainerNodeE
__ZN7WebCore7Element15removedFromTreeEb
__ZN7WebCore13ContainerNode15removedFromTreeEb
__ZN7WebCore4Node15removedFromTreeEb
__ZN7WebCoreL19notifyChildInsertedEPNS_4NodeE
__ZN7WebCore4Node16insertedIntoTreeEb
__ZN7WebCoreL28dispatchChildInsertionEventsEPNS_4NodeE
__ZN7WebCore10TreeSharedINS_13ContainerNodeEE14removedLastRefEv
__ZThn8_N7WebCore16DocumentFragmentD0Ev
__ZN7WebCoreL33createHTMLParagraphElementWrapperEPN3JSC9ExecStateEPNS_17JSDOMGlobalObjectEN3WTF10PassRefPtrINS_11HTMLElementEEE
__ZN7WebCore13createWrapperINS_22JSHTMLParagraphElementENS_20HTMLParagraphElementEEEPNS_12JSDOMWrapperEPN3JSC9ExecStateEPNS_17JSDOMGlobalObjectEPT0_
__ZN7WebCore15getDOMStructureINS_22JSHTMLParagraphElementEEEPN3JSC9StructureEPNS2_9ExecStateEPNS_17JSDOMGlobalObjectE
__ZN7WebCore22JSHTMLParagraphElement15createPrototypeEPN3JSC9ExecStateEPNS1_14JSGlobalObjectE
__ZN7WebCore22JSHTMLParagraphElementC1EPN3JSC9StructureEPNS_17JSDOMGlobalObjectEN3WTF10PassRefPtrINS_20HTMLParagraphElementEEE
__ZN7WebCore12cacheWrapperINS_20HTMLParagraphElementEEEvPNS_15DOMWrapperWorldEPT_PNS_12JSDOMWrapperE
__ZN7WebCore22JSHTMLParagraphElement18getOwnPropertySlotEPN3JSC9ExecStateERKNS1_10IdentifierERNS1_12PropertySlotE
__ZN7WebCore16jsNodeFirstChildEPN3JSC9ExecStateENS0_7JSValueERKNS0_10IdentifierE
__ZN7WebCore15JSNodePrototype18getOwnPropertySlotEPN3JSC9ExecStateERKNS1_10IdentifierERNS1_12PropertySlotE
__ZN3JSC21getStaticPropertySlotIN7WebCore15JSNodePrototypeENS_8JSObjectEEEbPNS_9ExecStateEPKNS_9HashTableEPT_RKNS_10IdentifierERNS_12PropertySlotE
__ZN7WebCore34jsNodePrototypeFunctionAppendChildEPN3JSC9ExecStateE
__ZN7WebCore6JSNode11appendChildEPN3JSC9ExecStateE
__ZN7WebCore6toNodeEN3JSC7JSValueE
__ZN7WebCore4Node11appendChildEN3WTF10PassRefPtrIS0_EERib
__ZN7WebCore4Node10lazyAttachENS0_17ShouldSetAttachedE
__ZN7WebCore12RenderInlineC1EPNS_4NodeE
__ZN7WebCore12RenderInline14styleDidChangeENS_15StyleDifferenceEPKNS_11RenderStyleE
__ZN7WebCore12RenderInline15updateFromStyleEv
__ZNK7WebCore12RenderInline13requiresLayerEv
__ZNK7WebCore9LengthBox7nonZeroEv
__ZNK7WebCore12RenderInline15virtualChildrenEv
__ZN7WebCore12RenderInline8addChildEPNS_12RenderObjectES2_
__ZN7WebCore12RenderInline28addChildIgnoringContinuationEPNS_12RenderObjectES2_
__ZN7WebCore20RenderBoxModelObject15setContinuationEPS0_
__ZN7WebCore12RenderInline9splitFlowEPNS_12RenderObjectEPNS_11RenderBlockES2_PNS_20RenderBoxModelObjectE
__ZN7WebCore11RenderBlock17deleteLineBoxTreeEv
__ZN7WebCore12RenderObject24setNeedsBoundariesUpdateEv
__ZN7WebCore12RenderInline12splitInlinesEPNS_11RenderBlockES2_S2_PNS_12RenderObjectEPNS_20RenderBoxModelObjectE
__ZN7WebCore12RenderInline11cloneInlineEPS0_
__ZN7WebCore12RenderInline22addChildToContinuationEPNS_12RenderObjectES2_
__ZN7WebCore12RenderInline18continuationBeforeEPNS_12RenderObjectE
__ZN7WebCore20SpaceSplitStringData12createVectorEv
__ZN7WebCore12RenderInline15virtualChildrenEv
__ZN7WebCore12RenderInline26dirtyLinesFromChangedChildEPNS_12RenderObjectE
__ZNK7WebCore12RenderInline14isRenderInlineEv
__ZNK7WebCore12RenderInline24culledInlineFirstLineBoxEv
__ZNK7WebCore11RenderBlock14hasLineIfEmptyEv
__ZNK7WebCore11RenderTheme16baselinePositionEPKNS_12RenderObjectE
__ZNK7WebCore8ThemeMac26baselinePositionAdjustmentENS_11ControlPartE
__ZN7WebCore12RenderInline27updateAlwaysCreateLineBoxesEv
__ZN7WebCore12RenderInline14dirtyLineBoxesEb
__ZNK7WebCore20RenderBoxModelObject40hasInlineDirectionBordersPaddingOrMarginEv
__ZNK7WebCore20RenderBoxModelObject34hasInlineDirectionBordersOrPaddingEv
__ZNK7WebCore12RenderInline11marginStartEv
__ZNK7WebCore12RenderInline9marginEndEv
__ZNK7WebCore11FontMetrics35hasIdenticalAscentDescentAndLineGapERKS0_
__ZN7WebCore13AXObjectCache29handleFocusedUIElementChangedEPNS_12RenderObjectES2_
__ZNK7WebCore17CheckboxInputType10isCheckboxEv
__ZNK7WebCore25AccessibilityRenderObject19isProgressIndicatorEv
__ZNK7WebCore25AccessibilityRenderObject8isSliderEv
__ZNK7WebCore19AccessibilityObject10isCheckboxEv
__ZNK7WebCore25AccessibilityRenderObject20checkboxOrRadioValueEv
__ZNK7WebCore25AccessibilityRenderObject9isCheckedEv
__ZN7WebCoreL27createHTMLDivElementWrapperEPN3JSC9ExecStateEPNS_17JSDOMGlobalObjectEN3WTF10PassRefPtrINS_11HTMLElementEEE
__ZN7WebCore13createWrapperINS_16JSHTMLDivElementENS_14HTMLDivElementEEEPNS_12JSDOMWrapperEPN3JSC9ExecStateEPNS_17JSDOMGlobalObjectEPT0_
__ZN7WebCore15getDOMStructureINS_16JSHTMLDivElementEEEPN3JSC9StructureEPNS2_9ExecStateEPNS_17JSDOMGlobalObjectE
__ZN7WebCore16JSHTMLDivElement15createPrototypeEPN3JSC9ExecStateEPNS1_14JSGlobalObjectE
__ZN7WebCore16JSHTMLDivElementC1EPN3JSC9StructureEPNS_17JSDOMGlobalObjectEN3WTF10PassRefPtrINS_14HTMLDivElementEEE
__ZN7WebCore12cacheWrapperINS_14HTMLDivElementEEEvPNS_15DOMWrapperWorldEPT_PNS_12JSDOMWrapperE
__ZN7WebCore16JSHTMLDivElement18getOwnPropertySlotEPN3JSC9ExecStateERKNS1_10IdentifierERNS1_12PropertySlotE
__ZN7WebCore11LayoutStatenwEmPNS_11RenderArenaE
__ZN7WebCore11LayoutStateC1EPS0_PNS_9RenderBoxERKNS_7IntSizeEibPNS_10ColumnInfoE
__ZN7WebCore11LayoutStateC2EPS0_PNS_9RenderBoxERKNS_7IntSizeEibPNS_10ColumnInfoE
__ZNK7WebCore12RenderObject20localToContainerQuadERKNS_9FloatQuadEPNS_20RenderBoxModelObjectEb
__ZN7WebCoreL24fontDataForGenericFamilyEPNS_8DocumentERKNS_15FontDescriptionERKN3WTF12AtomicStringE
__ZN7WebCore9FontCache17getCachedFontDataERKNS_15FontDescriptionERKN3WTF12AtomicStringEbNS0_12ShouldRetainE
__ZNK7WebCore12RenderInline16baselinePositionENS_12FontBaselineEbNS_17LineDirectionModeENS_16LinePositionModeE
__ZNK7WebCore12RenderInline10lineHeightEbNS_17LineDirectionModeENS_16LinePositionModeE
__ZN7WebCore11LayoutState7destroyEPNS_11RenderArenaE
__ZN7WebCore12RenderObject26repaintAfterLayoutIfNeededEPNS_20RenderBoxModelObjectERKNS_7IntRectES5_PS4_S6_
__ZNK7WebCore12RenderObject29mustRepaintBackgroundOrBorderEv
__ZNK7WebCore11RenderStyle23getShadowVerticalExtentEPKNS_10ShadowDataERiS4_
__ZN7WebCoreL21mustRepaintFillLayersEPKNS_12RenderObjectEPKNS_9FillLayerE
__ZNK7WebCore22HTMLFormControlElement41wasChangedSinceLastFormControlChangeEventEv
__ZN7WebCore26HTMLTextFormControlElement17dispatchBlurEventEv
__ZN7WebCore16HTMLInputElement15handleBlurEventEv
__ZN7WebCore9InputType15handleBlurEventEv
__ZN7WebCore22HTMLFormControlElement17dispatchBlurEventEv
__ZN7WebCore4Node17dispatchBlurEventEv
__ZNK7WebCore12RenderInline23culledInlineLastLineBoxEv
__ZNK7WebCore4Node20shouldUseInputMethodEv
__ZN7WebCore19AccessibilityObject21ariaRoleToWebCoreRoleERKN3WTF6StringE
__ZN3WTF9HashTableINS_6StringESt4pairIS1_N7WebCore17AccessibilityRoleEENS_18PairFirstExtractorIS5_EENS_15CaseFoldingHashENS_14PairHashTraitsINS_10HashTraitsIS1_EENSA_IS4_EEEESB_E16lookupForWritingIS1_NS_22IdentityHashTranslatorIS1_S5_S8_EEEES2_IPS5_bERKT_
__ZN3WTF9HashTableINS_6StringESt4pairIS1_N7WebCore17AccessibilityRoleEENS_18PairFirstExtractorIS5_EENS_15CaseFoldingHashENS_14PairHashTraitsINS_10HashTraitsIS1_EENSA_IS4_EEEESB_E3addIS1_S4_NS_17HashMapTranslatorIS5_SD_S8_EEEES2_INS_17HashTableIteratorIS1_S5_S7_S8_SD_SB_EEbERKT_RKT0_
__ZN3WTF9HashTableINS_6StringESt4pairIS1_N7WebCore17AccessibilityRoleEENS_18PairFirstExtractorIS5_EENS_15CaseFoldingHashENS_14PairHashTraitsINS_10HashTraitsIS1_EENSA_IS4_EEEESB_E6lookupIS1_NS_22IdentityHashTranslatorIS1_S5_S8_EEEEPS5_RKT_
__ZN3WTF9HashTableINS_6StringESt4pairIS1_N7WebCore17AccessibilityRoleEENS_18PairFirstExtractorIS5_EENS_15CaseFoldingHashENS_14PairHashTraitsINS_10HashTraitsIS1_EENSA_IS4_EEEESB_E6rehashEi
__ZN7WebCore4Node14toInputElementEv
__ZNK7WebCore13RootInlineBox19lineBreakBidiStatusEv
__ZNK7WebCore13InlineFlowBox13lastLeafChildEv
__ZNK7WebCore9InlineBox6isLeafEv
__ZNK7WebCore7Element41wasChangedSinceLastFormControlChangeEventEv
__ZN3WTF5DequeIN7WebCore18SegmentedSubstringELm0EE9takeFirstEv
__ZN7WebCore25AccessibilityRenderObject15childrenChangedEv
__ZNK7WebCore25AccessibilityRenderObject20ariaLiveRegionStatusEv
__ZNK7WebCore25AccessibilityRenderObject20parentObjectIfExistsEv
__ZN7WebCore18HTMLPreloadScannerD1Ev
__ZN7WebCore11RenderBlock24repaintOverhangingFloatsEb
__ZN7WebCore11RenderBlock20hasOverhangingFloatsEv
__ZN7WebCore22HTMLFormControlElement19removedFromDocumentEv
__ZN7WebCore7Element19removedFromDocumentEv
__ZN7WebCore9TreeScope17removeElementByIdERKN3WTF12AtomicStringEPNS_7ElementE
__ZN7WebCore18DocumentOrderedMap6removeEPN3WTF16AtomicStringImplEPNS_7ElementE
__ZN7WebCore13ContainerNode19removedFromDocumentEv
__ZN7WebCore4Node19removedFromDocumentEv
__ZN7WebCore22HTMLFormControlElement15removedFromTreeEb
__ZN7WebCore21FormAssociatedElement15removedFromTreeEv
__ZN7WebCore21FormAssociatedElement19removedFromDocumentEv
__ZN7WebCore12NamedNodeMap17detachFromElementEv
__ZN7WebCore12NamedNodeMap15clearAttributesEv
__ZN7WebCore9AttributeD1Ev
__ZN7WebCore12NamedNodeMapD1Ev
__ZN7WebCore13HTMLBRElementD0Ev
__ZN7WebCore14HTMLDivElementD0Ev
__ZN7WebCore13JSHTMLElementD1Ev
__ZN7WebCore18JSHTMLInputElementD1Ev
__ZThn8_N7WebCore16HTMLInputElementD0Ev
__ZN7WebCore16HTMLInputElementD0Ev
__ZN7WebCore21FormAssociatedElement14removeFromFormEv
__ZN7WebCore15ButtonInputTypeD0Ev
__ZN7WebCore26HTMLTextFormControlElementD2Ev
__ZN3WTF11ListHashSetIPN7WebCore7ElementELm64ENS_7PtrHashIS3_EEE6removeERKS3_
__ZN7WebCore22HTMLFormControlElementD2Ev
__ZN7WebCore21FormAssociatedElementD2Ev
__ZN7WebCore15ElementRareDataD0Ev
__ZN7WebCore22JSHTMLParagraphElementD1Ev
__ZN7WebCore16JSHTMLDivElementD1Ev
__ZN7WebCore26CachedScriptSourceProviderD0Ev
__ZN7WebCore11MemoryCache27removeFromLiveResourcesSizeEPNS_14CachedResourceE
__ZN7WebCore11MemoryCache34removeFromLiveDecodedResourcesListEPNS_14CachedResourceE
__ZN7WebCore12CachedScript17allClientsRemovedEv
__ZNK7WebCore20ResourceResponseBase27cacheControlContainsNoStoreEv
__ZNK7WebCore20ResourceResponseBase27parseCacheControlDirectivesEv
__ZNK7WebCore13HTTPHeaderMap3getERKN3WTF12AtomicStringE
__ZN7WebCore16JSEventPrototypeD1Ev
__ZN7WebCore18JSElementPrototypeD1Ev
__ZN7WebCore22JSHTMLElementPrototypeD1Ev
__ZN7WebCore27JSHTMLInputElementPrototypeD1Ev
__ZN7WebCore18JSUIEventPrototypeD1Ev
__ZN7WebCore21JSMouseEventPrototypeD1Ev
__ZN7WebCore5TimerINS_12CachedScriptEE5firedEv
__ZN7WebCore12CachedScript29decodedDataDeletionTimerFiredEPNS_5TimerIS0_EE
__ZN7WebCore12CachedScript18destroyDecodedDataEv
__ZNK7WebCore14CachedResource21isSafeToMakePurgeableEv
__ZN7WebCore15PurgeableBuffer6createEPKcm
__ZNK7WebCore22BaseCheckableInputType20saveFormControlStateERN3WTF6StringE
__ZN7WebCore12RenderInline7destroyEv
__ZN7WebCore12RenderInlineD0Ev
__ZNK7WebCore11FrameLoader22subresourceCachePolicyEv
__ZNK7WebCore14CachedResource31mustRevalidateDueToCacheHeadersENS_11CachePolicyE
__ZNK7WebCore20ResourceResponseBase27cacheControlContainsNoCacheEv
__ZNK7WebCore14CachedResource10currentAgeEv
__ZNK7WebCore20ResourceResponseBase4dateEv
__ZN7WebCoreL22parseDateValueInHeaderERKNS_13HTTPHeaderMapERKN3WTF12AtomicStringE
__ZNK7WebCore20ResourceResponseBase3ageEv
__ZNK7WebCore14CachedResource17freshnessLifetimeEv
__ZN7WebCore11FrameLoader29loadedResourceFromMemoryCacheEPKNS_14CachedResourceE
__ZN7WebCore11FrameLoader19requestFromDelegateERNS_15ResourceRequestERmRNS_13ResourceErrorE
__ZN7WebCore24InspectorInstrumentation24markResourceAsCachedImplEPNS_19InstrumentingAgentsEm
__ZN7WebCore20ResourceLoadNotifier29sendRemainingDelegateMessagesEPNS_14DocumentLoaderEmRKNS_16ResourceResponseEiiRKNS_13ResourceErrorE
__ZNK7WebCore19AccessibilityObject21parentObjectUnignoredEv
__ZNK7WebCore19AccessibilityObject22supportsARIAAttributesEv
__ZNK7WebCore25AccessibilityRenderObject20supportsARIADraggingEv
__ZNK7WebCore25AccessibilityRenderObject20supportsARIADroppingEv
__ZNK7WebCore25AccessibilityRenderObject18supportsARIAFlowToEv
__ZNK7WebCore25AccessibilityRenderObject16supportsARIAOwnsEv
__ZNK7WebCore25AccessibilityRenderObject7isImageEv
__ZNK7WebCore25AccessibilityRenderObject8helpTextEv
__ZNK7WebCore25AccessibilityRenderObject5titleEv
__ZNK7WebCore25AccessibilityRenderObject22ariaLabeledByAttributeEv
__ZNK7WebCore25AccessibilityRenderObject21elementsFromAttributeERN3WTF6VectorIPNS_7ElementELm0EEERKNS_13QualifiedNameE
__ZNK7WebCore25AccessibilityRenderObject35accessibilityDescriptionForElementsERN3WTF6VectorIPNS_7ElementELm0EEE
__ZN7WebCoreL15labelForElementEPNS_7ElementE
__ZN7WebCore4Node20getElementsByTagNameERKN3WTF12AtomicStringE
__ZN7WebCore4Node14createRareDataEv
__ZN7WebCore15DynamicNodeList6Caches6createEv
__ZN3WTF9HashTableINS_12AtomicStringESt4pairIS1_PN7WebCore11TagNodeListEENS_18PairFirstExtractorIS6_EENS_16AtomicStringHashENS_14PairHashTraitsINS_10HashTraitsIS1_EENSB_IS5_EEEESC_E3addIS1_S5_NS_17HashMapTranslatorIS6_SE_S9_EEEES2_INS_17HashTableIteratorIS1_S6_S8_S9_SE_SC_EEbERKT_RKT0_
__ZN3WTF9HashTableINS_12AtomicStringESt4pairIS1_PN7WebCore11TagNodeListEENS_18PairFirstExtractorIS6_EENS_16AtomicStringHashENS_14PairHashTraitsINS_10HashTraitsIS1_EENSB_IS5_EEEESC_E4findIS1_NS_22IdentityHashTranslatorIS1_S6_S9_EEEENS_17HashTableIteratorIS1_S6_S8_S9_SE_SC_EERKT_
__ZN3WTF9HashTableINS_12AtomicStringESt4pairIS1_PN7WebCore11TagNodeListEENS_18PairFirstExtractorIS6_EENS_16AtomicStringHashENS_14PairHashTraitsINS_10HashTraitsIS1_EENSB_IS5_EEEESC_E6rehashEi
__ZN3WTF9HashTableINS_12AtomicStringESt4pairIS1_PN7WebCore11TagNodeListEENS_18PairFirstExtractorIS6_EENS_16AtomicStringHashENS_14PairHashTraitsINS_10HashTraitsIS1_EENSB_IS5_EEEESC_E6removeEPS6_
__ZN7WebCore11TagNodeListC1EN3WTF10PassRefPtrINS_4NodeEEERKNS1_12AtomicStringES7_
__ZN7WebCore11TagNodeListC2EN3WTF10PassRefPtrINS_4NodeEEERKNS1_12AtomicStringES7_
__ZN7WebCore15DynamicNodeListC2EN3WTF10PassRefPtrINS_4NodeEEE
__ZN7WebCore4Node23registerDynamicNodeListEPNS_15DynamicNodeListE
__ZN3WTF9HashTableIPN7WebCore15DynamicNodeListES3_NS_17IdentityExtractorIS3_EENS_7PtrHashIS3_EENS_10HashTraitsIS3_EES9_E3addIS3_S3_NS_22IdentityHashTranslatorIS3_S3_S7_EEEESt4pairINS_17HashTableIteratorIS3_S3_S5_S7_S9_S9_EEbERKT_RKT0_
__ZN3WTF9HashTableIPN7WebCore15DynamicNodeListES3_NS_17IdentityExtractorIS3_EENS_7PtrHashIS3_EENS_10HashTraitsIS3_EES9_E6expandEv
__ZNK7WebCore15DynamicNodeList6lengthEv
__ZNK7WebCore11TagNodeList11nodeMatchesEPNS_7ElementE
__ZN7WebCore11TagNodeListD0Ev
__ZN7WebCore4Node23removeCachedTagNodeListEPNS_11TagNodeListERKN3WTF12AtomicStringE
__ZN7WebCore15DynamicNodeListD2Ev
__ZN7WebCore4Node25unregisterDynamicNodeListEPNS_15DynamicNodeListE
__ZNK3WTF9HashTableIPN7WebCore15DynamicNodeListES3_NS_17IdentityExtractorIS3_EENS_7PtrHashIS3_EENS_10HashTraitsIS3_EES9_E4findIS3_NS_22IdentityHashTranslatorIS3_S3_S7_EEEENS_22HashTableConstIteratorIS3_S3_S5_S7_S9_S9_EERKT_
__ZN3WTF9HashTableIPN7WebCore15DynamicNodeListES3_NS_17IdentityExtractorIS3_EENS_7PtrHashIS3_EENS_10HashTraitsIS3_EES9_E6removeEPS3_
__ZNK7WebCore17NodeListsNodeData7isEmptyEv
__ZNK7WebCore25AccessibilityRenderObject16textUnderElementEv
__ZN7WebCore4Node30notifyNodeListsChildrenChangedEv
__ZN7WebCore4Node35notifyLocalNodeListsChildrenChangedEv
__ZN7WebCore17NodeListsNodeData16invalidateCachesEv
__ZN7WebCore15DynamicNodeList6Caches5resetEv
__ZN7WebCore17NodeListsNodeData38invalidateCachesThatDependOnAttributesEv
__ZNK7WebCore4Node15isAttributeNodeEv
__ZN3WTF6String7replaceEtt
__ZN7WebCore12RenderObject14paintFocusRingEPNS_15GraphicsContextEiiPNS_11RenderStyleE
__ZN7WebCore11RenderBlock17addFocusRingRectsERN3WTF6VectorINS_7IntRectELm0EEEii
__ZN7WebCore15GraphicsContext13drawFocusRingERKN3WTF6VectorINS_7IntRectELm0EEEiiRKNS_5ColorE
__ZN7WebCore4Node13aboutToUnloadEv
__ZN7WebCore13AXObjectCache24handleAriaExpandedChangeEPNS_12RenderObjectE
__ZN7WebCore13AXObjectCache14contentChangedEPNS_12RenderObjectE
__ZNK7WebCore12RenderObject36requiresForcedStyleRecalcPropagationEv
-[AccessibilityObjectWrapper role]
__ZN3WTF9HashTableIiSt4pairIiP8NSStringENS_18PairFirstExtractorIS4_EENS_7IntHashIjEENS_14PairHashTraitsINS_10HashTraitsIiEENSA_IS3_EEEESB_E16lookupForWritingERKi
__ZN3WTF9HashTableIiSt4pairIiP8NSStringENS_18PairFirstExtractorIS4_EENS_7IntHashIjEENS_14PairHashTraitsINS_10HashTraitsIiEENSA_IS3_EEEESB_E3addIiS3_NS_17HashMapTranslatorIS4_SD_S8_EEEES1_INS_17HashTableIteratorIiS4_S6_S8_SD_SB_EEbERKT_RKT0_
__ZN3WTF9HashTableIiSt4pairIiP8NSStringENS_18PairFirstExtractorIS4_EENS_7IntHashIjEENS_14PairHashTraitsINS_10HashTraitsIiEENSA_IS3_EEEESB_E4findIiNS_22IdentityHashTranslatorIiS4_S8_EEEENS_17HashTableIteratorIiS4_S6_S8_SD_SB_EERKT_
__ZN3WTF9HashTableIiSt4pairIiP8NSStringENS_18PairFirstExtractorIS4_EENS_7IntHashIjEENS_14PairHashTraitsINS_10HashTraitsIiEENSA_IS3_EEEESB_E6rehashEi
__ZNK3WTF7HashMapIiP8NSStringNS_7IntHashIjEENS_10HashTraitsIiEENS5_IS2_EEE3getERKi
__ZNK7WebCore19AccessibilityObject10isExpandedEv
-[AccessibilityObjectWrapper accessibilityPerformAction:]
-[AccessibilityObjectWrapper accessibilityPerformShowMenuAction]
__ZN7WebCore19AccessibilityObject13setIsExpandedEb
-[AccessibilityObjectWrapper accessibilityArrayAttributeValues:index:maxCount:]
__ZN7WebCore25AccessibilityRenderObject8childrenEv
__ZN7WebCore25AccessibilityRenderObject25updateChildrenIfNecessaryEv
__ZNK7WebCore19AccessibilityObject11hasChildrenEv
__ZN7WebCore25AccessibilityRenderObject11addChildrenEv
__ZNK7WebCore25AccessibilityRenderObject10firstChildEv
__ZN7WebCoreL33firstChildConsideringContinuationEPNS_12RenderObjectE
__ZN3WTF6VectorINS_6RefPtrIN7WebCore19AccessibilityObjectEEELm0EE14expandCapacityEm
__ZNK7WebCore25AccessibilityRenderObject11nextSiblingEv
__ZNK7WebCore12RenderObject13isRenderImageEv
__ZN7WebCore12DocumentTypeD0Ev
__ZN7WebCore15HTMLLinkElementD0Ev
__ZN7WebCore20HTMLParagraphElementD0Ev
__ZN3WTF6VectorINS_12AtomicStringELm8EED1Ev
__ZNK7WebCore4Node8rareDataEv
__ZN7WebCore12NodeRareDataD0Ev
__ZN7WebCore17NodeListsNodeDataD2Ev
__ZN7WebCore31JSHTMLParagraphElementPrototypeD1Ev
__ZN7WebCore25JSHTMLDivElementPrototypeD1Ev
__ZN3WTF6VectorItLm1024EE15reserveCapacityEm
__ZN7WebCoreL16ulistConstructorERKNS_13QualifiedNameEPNS_8DocumentEPNS_15HTMLFormElementEb
__ZN7WebCore16HTMLUListElement6createERKNS_13QualifiedNameEPNS_8DocumentE
__ZNK7WebCore16HTMLUListElement10mapToEntryERKNS_13QualifiedNameERNS_20MappedAttributeEntryE
__ZN7WebCore16HTMLUListElement20parseMappedAttributeEPNS_9AttributeE
__ZN7WebCore12_GLOBAL__N_113isSpecialNodeEPNS_4NodeE
__ZNK7WebCore7Element16virtualLocalNameEv
__ZN7WebCoreL13liConstructorERKNS_13QualifiedNameEPNS_8DocumentEPNS_15HTMLFormElementEb
__ZN7WebCore13HTMLLIElement6createERKNS_13QualifiedNameEPNS_8DocumentE
__ZNK7WebCore13HTMLLIElement10mapToEntryERKNS_13QualifiedNameERNS_20MappedAttributeEntryE
__ZN7WebCore13HTMLLIElement20parseMappedAttributeEPNS_9AttributeE
__ZN7WebCore13HTMLLIElement6attachEv
__ZN7WebCore14RenderListItemC1EPNS_4NodeE
__ZN7WebCore14RenderListItem14styleDidChangeENS_15StyleDifferenceEPKNS_11RenderStyleE
__ZN7WebCore16RenderListMarkerC1EPNS_14RenderListItemE
__ZN7WebCore16RenderListMarker15styleWillChangeENS_15StyleDifferenceEPKNS_11RenderStyleE
__ZN7WebCore16RenderListMarker14styleDidChangeENS_15StyleDifferenceEPKNS_11RenderStyleE
__ZNK7WebCore14RenderListItem10isListItemEv
__ZN7WebCore14RenderListItem23updateListMarkerNumbersEv
__ZN7WebCoreL6isListEPNS_4NodeE
__ZN7WebCore14RenderListItem18clearExplicitValueEv
__ZNK7WebCore16HTMLElementStack15inListItemScopeERKN3WTF12AtomicStringE
__ZN7WebCoreL18headingConstructorERKNS_13QualifiedNameEPNS_8DocumentEPNS_15HTMLFormElementEb
__ZN7WebCore18HTMLHeadingElement6createERKNS_13QualifiedNameEPNS_8DocumentE
__ZN7WebCore17CSSPrimitiveValue18computeLengthFloatEPNS_11RenderStyleES2_b
__ZNK7WebCore16HTMLElementStack31hasNumberedHeaderElementInScopeEv
__ZNK7WebCore4Node10hasTagNameERKNS_13QualifiedNameE
__ZN7WebCore16HTMLElementStack35popUntilNumberedHeaderElementPoppedEv
__ZN7WebCore14RenderListItem6layoutEv
__ZN7WebCore14RenderListItem20updateMarkerLocationEv
__ZN7WebCoreL23getParentOfFirstLineBoxEPNS_11RenderBlockEPNS_12RenderObjectE
__ZN7WebCore16RenderListMarker29computePreferredLogicalWidthsEv
__ZNK7WebCore16RenderListMarker7isImageEv
__ZN7WebCore14listMarkerTextENS_14EListStyleTypeEi
__ZN7WebCore16RenderListMarker13updateMarginsEv
__ZN7WebCore11RenderStyle14setMarginStartENS_6LengthE
__ZN7WebCore11RenderStyle12setMarginEndENS_6LengthE
__ZN7WebCore16RenderListMarker6layoutEv
__ZN7WebCore9RenderBox14setMarginStartEi
__ZN7WebCore9RenderBox12setMarginEndEi
__ZNK7WebCore16RenderListMarker12isListMarkerEv
__ZN7WebCoreL36shouldSkipWhitespaceAfterStartObjectEPNS_11RenderBlockEPNS_12RenderObjectERNS_13MidpointStateINS_14InlineIteratorEEE
__ZNK7WebCore16RenderListMarker8isInsideEv
__ZN7WebCore16RenderListMarker15createInlineBoxEv
__ZNK7WebCore16RenderListMarker16baselinePositionENS_12FontBaselineEbNS_17LineDirectionModeENS_16LinePositionModeE
__ZNK7WebCore16RenderListMarker10lineHeightEbNS_17LineDirectionModeENS_16LinePositionModeE
__ZN7WebCore14RenderListItem23addOverflowFromChildrenEv
__ZN7WebCore14RenderListItem18positionListMarkerEv
__ZN7WebCore13InlineFlowBox27setOverflowFromLogicalRectsERKNS_7IntRectES3_ii
__ZN7WebCore13InlineFlowBox17setLayoutOverflowERKNS_7IntRectEii
__ZN7WebCore13InlineFlowBox17setVisualOverflowERKNS_7IntRectEii
__ZNK7WebCore9RenderBox19shrinkToAvoidFloatsEv
-[AccessibilityObjectWrapper scrollViewParent]
__ZNK7WebCore19AccessibilityObject25isAccessibilityScrollViewEv
__ZNK7WebCore23AccessibilityScrollView22accessibilityIsIgnoredEv
-[AccessibilityObjectWrapper attachmentView]
__ZNK7WebCore23AccessibilityScrollView23widgetForAttachmentViewEv
-[AccessibilityObjectWrapper accessibilityIsIgnored]
__ZNK7WebCore25AccessibilityRenderObject19mouseButtonListenerEv
__ZNK7WebCore12RenderObject11isBlockFlowEv
__ZN3WTF6VectorINS_6RefPtrIN7WebCore19AccessibilityObjectEEELm0EEC2ERKS5_
__ZNK7WebCore12RenderObject16isBoxModelObjectEv
__ZNK7WebCore12RenderInline25inlineElementContinuationEv
__ZN7WebCoreL31createHTMLHeadingElementWrapperEPN3JSC9ExecStateEPNS_17JSDOMGlobalObjectEN3WTF10PassRefPtrINS_11HTMLElementEEE
__ZN7WebCore13createWrapperINS_20JSHTMLHeadingElementENS_18HTMLHeadingElementEEEPNS_12JSDOMWrapperEPN3JSC9ExecStateEPNS_17JSDOMGlobalObjectEPT0_
__ZN7WebCore15getDOMStructureINS_20JSHTMLHeadingElementEEEPN3JSC9StructureEPNS2_9ExecStateEPNS_17JSDOMGlobalObjectE
__ZN7WebCore20JSHTMLHeadingElement15createPrototypeEPN3JSC9ExecStateEPNS1_14JSGlobalObjectE
__ZN7WebCore20JSHTMLHeadingElementC1EPN3JSC9StructureEPNS_17JSDOMGlobalObjectEN3WTF10PassRefPtrINS_18HTMLHeadingElementEEE
__ZN7WebCore12cacheWrapperINS_18HTMLHeadingElementEEEvPNS_15DOMWrapperWorldEPT_PNS_12JSDOMWrapperE
__ZN7WebCore20JSHTMLHeadingElement18getOwnPropertySlotEPN3JSC9ExecStateERKNS1_10IdentifierERNS1_12PropertySlotE
__ZNK7WebCore25AccessibilityRenderObject10isSelectedEv
__ZNK7WebCore25AccessibilityRenderObject17isTabItemSelectedEv
__ZN3WTF6VectorIPN7WebCore7ElementELm0EE14expandCapacityEm
__ZN7WebCoreL26createHTMLLIElementWrapperEPN3JSC9ExecStateEPNS_17JSDOMGlobalObjectEN3WTF10PassRefPtrINS_11HTMLElementEEE
__ZN7WebCore13createWrapperINS_15JSHTMLLIElementENS_13HTMLLIElementEEEPNS_12JSDOMWrapperEPN3JSC9ExecStateEPNS_17JSDOMGlobalObjectEPT0_
__ZN7WebCore15getDOMStructureINS_15JSHTMLLIElementEEEPN3JSC9StructureEPNS2_9ExecStateEPNS_17JSDOMGlobalObjectE
__ZN7WebCore15JSHTMLLIElement15createPrototypeEPN3JSC9ExecStateEPNS1_14JSGlobalObjectE
__ZN7WebCore15JSHTMLLIElementC1EPN3JSC9StructureEPNS_17JSDOMGlobalObjectEN3WTF10PassRefPtrINS_13HTMLLIElementEEE
__ZN7WebCore12cacheWrapperINS_13HTMLLIElementEEEvPNS_15DOMWrapperWorldEPT_PNS_12JSDOMWrapperE
__ZN7WebCore15JSHTMLLIElement18getOwnPropertySlotEPN3JSC9ExecStateERKNS1_10IdentifierERNS1_12PropertySlotE
__ZN7WebCore13AXObjectCache23selectedChildrenChangedEPNS_12RenderObjectE
__ZNK7WebCore25AccessibilityRenderObject16observableObjectEv
__ZNK7WebCore25AccessibilityRenderObject24renderObjectIsObservableEPNS_12RenderObjectE
__ZN7WebCore14RenderListItem5paintERNS_9PaintInfoEii
__ZN7WebCore16RenderListMarker5paintERNS_9PaintInfoEii
__ZN7WebCore16RenderListMarker21getRelativeMarkerRectEv
__ZN7WebCore15GraphicsContext14setStrokeColorERKNS_5ColorENS_10ColorSpaceE
__ZN7WebCore15GraphicsContext22setPlatformStrokeColorERKNS_5ColorENS_10ColorSpaceE
__ZN7WebCore15GraphicsContext14setStrokeStyleENS_11StrokeStyleE
__ZN7WebCore15GraphicsContext18setStrokeThicknessEf
__ZN7WebCore15GraphicsContext26setPlatformStrokeThicknessEf
__ZN7WebCore15GraphicsContext11drawEllipseERKNS_7IntRectE
__ZN7WebCore4PathC1Ev
__ZN7WebCore4Path10addEllipseERKNS_9FloatRectE
__ZN7WebCore15GraphicsContext8drawPathERKNS_4PathE
__ZN7WebCore4PathD1Ev
__ZN7WebCore20JSHTMLHeadingElementD1Ev
__ZN7WebCore15JSHTMLLIElementD1Ev
__ZN7WebCore14RenderListItem7destroyEv
__ZN7WebCore16RenderListMarkerD0Ev
__ZN7WebCore14RenderListItemD0Ev
__ZN7WebCore18TextFieldInputType13sanitizeValueERKN3WTF6StringE
__ZN7WebCoreL24replaceEOLAndLimitLengthERKN3WTF6StringEi
__ZN3WTF6String7replaceERKS0_S2_
__ZN7WebCore31numCharactersInGraphemeClustersERKN3WTF6StringEj
__ZN7WebCore22characterBreakIteratorEPKti
__ZN7WebCore13textBreakNextEPNS_17TextBreakIteratorE
__ZNK7WebCore17BaseTextInputType10isTextTypeEv
__ZNK7WebCore16HTMLInputElement9maxLengthEv
__ZNK7WebCore17BaseTextInputType15patternMismatchERKN3WTF6StringE
__ZNK7WebCore14RenderThemeMac20adjustTextFieldStyleEPNS_16CSSStyleSelectorEPNS_11RenderStyleEPNS_7ElementE
__ZNK7WebCore18TextFieldInputType14createRendererEPNS_11RenderArenaEPNS_11RenderStyleE
__ZNK7WebCore26HTMLTextFormControlElement26placeholderShouldBeVisibleEv
__ZNK7WebCore16HTMLInputElement12isEmptyValueEv
__ZN7WebCore27RenderTextControlSingleLineC1EPNS_4NodeEb
__ZN7WebCore17RenderTextControlC2EPNS_4NodeEb
__ZN7WebCore27RenderTextControlSingleLine14styleDidChangeENS_15StyleDifferenceEPKNS_11RenderStyleE
__ZN7WebCore17RenderTextControl14styleDidChangeENS_15StyleDifferenceEPKNS_11RenderStyleE
__ZNK7WebCore17RenderTextControl12avoidsFloatsEv
__ZN7WebCore27RenderTextControlSingleLine17updateFromElementEv
__ZN7WebCore27RenderTextControlSingleLine21createSubtreeIfNeededEv
__ZNK7WebCore16HTMLInputElement13isSearchFieldEv
__ZNK7WebCore9InputType13isSearchFieldEv
__ZN7WebCore17RenderTextControl21createSubtreeIfNeededEPNS_23TextControlInnerElementE
__ZN7WebCore27TextControlInnerTextElement6createEPNS_8DocumentEPNS_11HTMLElementE
__ZN7WebCore14HTMLDivElementC2ERKNS_13QualifiedNameEPNS_8DocumentE
__ZN7WebCore4Node13setShadowHostEPNS_7ElementE
__ZNK7WebCore27RenderTextControlSingleLine20createInnerTextStyleEPKNS_11RenderStyleE
__ZNK7WebCore17RenderTextControl20adjustInnerTextStyleEPKNS_11RenderStyleEPS1_
__ZN7WebCore11RenderStyle11setOverflowWrapENS_9EOverflowWrapE
__ZNK7WebCore11RenderTheme20shouldHaveSpinButtonEPNS_16HTMLInputElementE
__ZNK7WebCore16HTMLInputElement11isSteppableEv
__ZNK7WebCore9InputType11isSteppableEv
__ZN7WebCore23TextControlInnerElement18attachInnerElementEPNS_4NodeEN3WTF10PassRefPtrINS_11RenderStyleEEEPNS_11RenderArenaE
__ZN7WebCore27TextControlInnerTextElement14createRendererEPNS_11RenderArenaEPNS_11RenderStyleE
__ZNK7WebCore12RenderObject22getUncachedPseudoStyleENS_8PseudoIdEPNS_11RenderStyleES3_
__ZN7WebCore16CSSStyleSelector21pseudoStyleForElementENS_8PseudoIdEPNS_7ElementEPNS_11RenderStyleEb
__ZN7WebCore11RenderLayer19dirtyNormalFlowListEv
__ZNK7WebCore17RenderTextControl13isTextControlEv
__ZN7WebCore9FrameView25scheduleRelayoutOfSubtreeEPNS_12RenderObjectE
__ZN7WebCore17RenderTextControl17updateFromElementEv
__ZNK7WebCore16HTMLInputElement14suggestedValueEv
__ZNK7WebCore22HTMLFormControlElement31formControlValueMatchesRendererEv
__ZNK7WebCore16HTMLInputElement12visibleValueEv
__ZNK7WebCore9InputType12visibleValueEv
__ZN7WebCore17RenderTextControl17setInnerTextValueERKN3WTF6StringE
__ZN7WebCore17RenderTextControl4textEv
__ZNK7WebCore17RenderTextControl10finishTextERN3WTF6VectorItLm0EEE
__ZN7WebCore11HTMLElement12setInnerTextERKN3WTF6StringERi
__ZNK7WebCore11HTMLElement19ieForbidsInsertHTMLEv
__ZN7WebCoreL23replaceChildrenWithTextEPNS_11HTMLElementERKN3WTF6StringERi
__ZN7WebCore4Text6createEPNS_8DocumentERKN3WTF6StringE
__ZNK7WebCore12RenderObject18previousInPreOrderEv
__ZN7WebCore27RenderTextControlSingleLine6layoutEv
__ZN7WebCore17RenderTextControl20computeLogicalHeightEv
__ZN7WebCore27RenderTextControlSingleLine36adjustControlHeightBasedOnLineHeightEi
__ZN7WebCore17RenderTextControl29computePreferredLogicalWidthsEv
__ZN7WebCore27RenderTextControlSingleLine15getAvgCharWidthEN3WTF12AtomicStringE
__ZNK7WebCore17RenderTextControl14scaleEmToUnitsEi
__ZNK7WebCore27RenderTextControlSingleLine21preferredContentWidthEf
__ZNK7WebCore16HTMLInputElement4sizeEv
__ZNK7WebCore17RenderTextControl16innerTextElementEv
__ZNK7WebCore17RenderTextControl15textBlockHeightEv
__ZNK7WebCore27RenderTextControlSingleLine14textBlockWidthEv
__ZNK7WebCore17RenderTextControl14textBlockWidthEv
__ZNK7WebCore27RenderTextControlSingleLine20decorationWidthRightEv
__ZNK7WebCore14ScrollableArea20hasOverlayScrollbarsEv
__ZNK7WebCore11RenderLayer17verticalScrollbarEv
__ZNK7WebCore11RenderLayer19horizontalScrollbarEv
__ZN7WebCore9RenderBox29computeInlineDirectionMarginsEPNS_11RenderBlockEii
__ZNK7WebCore11RenderStyle16marginStartUsingEPKS0_
__ZNK7WebCore11RenderStyle14marginEndUsingEPKS0_
__ZN7WebCore11RenderBlock22setMarginStartForChildEPNS_9RenderBoxEi
__ZN7WebCore11RenderBlock20setMarginEndForChildEPNS_9RenderBoxEi
__ZN7WebCore11RenderLayer27updateScrollInfoAfterLayoutEv
__ZN7WebCore11RenderLayer23computeScrollDimensionsEPbS1_
__ZN7WebCore14ScrollableArea30scrollToOffsetWithoutAnimationERKNS_10FloatPointE
__ZN7WebCore17ScrollAnimatorMac30scrollToOffsetWithoutAnimationERKNS_10FloatPointE
__ZNK7WebCore17ScrollAnimatorMac31adjustScrollPositionIfNecessaryERKNS_10FloatPointE
__ZNK7WebCore9RenderBox26logicalRightLayoutOverflowEv
__ZN7WebCore17RenderTextControl27updatePlaceholderVisibilityEbb
__ZNK7WebCore18TextFieldInputType11isTextFieldEv
__ZNK7WebCore9InputType15isPasswordFieldEv
__ZN7WebCore18TextFieldInputType22shouldSubmitImplicitlyEPNS_5EventE
__ZN7WebCore18TextFieldInputType12forwardEventEPNS_5EventE
__ZNK7WebCore5Event11isDragEventEv
__ZN7WebCore27RenderTextControlSingleLine12forwardEventEPNS_5EventE
__ZN7WebCore27RenderTextControlSingleLine27capsLockStateMayHaveChangedEv
__ZNK7WebCore16HTMLInputElement15isPasswordFieldEv
__ZN7WebCore17RenderTextControl12forwardEventEPNS_5EventE
__ZN7WebCore17RenderTextControl17setInnerTextStyleEN3WTF10PassRefPtrINS_11RenderStyleEEE
__ZNK7WebCore18TextFieldInputType20shouldUseInputMethodEv
__ZN7WebCore26HTMLTextFormControlElement6selectEv
__ZN7WebCore17setSelectionRangeEPNS_4NodeEii
__ZNK7WebCore17RenderTextControl23visiblePositionForIndexEi
__ZN7WebCore8PositionC1EN3WTF10PassRefPtrINS_4NodeEEEiNS0_10AnchorTypeE
__ZN7WebCore15VisiblePositionC1ERKNS_8PositionENS_9EAffinityE
__ZN7WebCore15VisiblePosition4initERKNS_8PositionENS_9EAffinityE
__ZN7WebCore15VisiblePosition17canonicalPositionERKNS_8PositionE
__ZNK7WebCore8Position8upstreamENS_27EditingBoundaryCrossingRuleE
__ZN7WebCoreL38endsOfNodeAreVisuallyDistinctPositionsEPNS_4NodeE
__ZNK7WebCore16PositionIterator7atStartEv
__ZNK7WebCore16PositionIteratorcvNS_8PositionEEv
__ZNK7WebCore7Element23canContainRangeEndPointEv
__ZNK7WebCore8Position11isCandidateEv
__ZN7WebCore14isTableElementEPNS_4NodeE
__ZN7WebCore8Position44hasRenderedNonAnonymousDescendantsWithHeightEPNS_12RenderObjectE
__ZNK7WebCore12RenderObject27nextInPreOrderAfterChildrenEv
__ZNK7WebCore10RenderText16linesBoundingBoxEv
__ZNK7WebCore8Position17atEditingBoundaryEv
__ZNK7WebCore8Position10downstreamENS_27EditingBoundaryCrossingRuleE
__ZNK7WebCore16PositionIterator5atEndEv
__ZN7WebCore12isAtomicNodeEPKNS_4NodeE
__ZNK7WebCore16PositionIterator13atStartOfNodeEv
__ZN7WebCore16PositionIterator9incrementEv
__ZNK7WebCore4Text23canContainRangeEndPointEv
__ZNK7WebCore10RenderText14caretMinOffsetEv
__ZN7WebCore20lastOffsetForEditingEPKNS_4NodeE
__ZNK7WebCore13ContainerNode14childNodeCountEv
__ZNK7WebCore8Position14inRenderedTextEv
__ZNK7WebCore13InlineTextBox19containsCaretOffsetEi
__ZN7WebCore5Range6createEN3WTF10PassRefPtrINS_8DocumentEEE
__ZN7WebCore17CharacterIteratorC1EPKNS_5RangeENS_20TextIteratorBehaviorE
__ZN7WebCore17CharacterIterator7advanceEi
__ZNK7WebCore17CharacterIterator5rangeEv
__ZNK7WebCore12TextIterator5rangeEv
__ZN7WebCore5Range6createEN3WTF10PassRefPtrINS_8DocumentEEENS2_INS_4NodeEEEiS6_i
__ZN7WebCore5RangeC2EN3WTF10PassRefPtrINS_8DocumentEEENS2_INS_4NodeEEEiS6_i
__ZN7WebCore5Range8setStartEN3WTF10PassRefPtrINS_4NodeEEEiRi
__ZN7WebCore5Range8collapseEbRi
__ZN7WebCore5Range6setEndEN3WTF10PassRefPtrINS_4NodeEEEiRi
__ZN7WebCore5Range21compareBoundaryPointsEPNS_4NodeEiS2_iRi
__ZNK7WebCore5Range12endContainerERi
__ZNK7WebCore5Range9endOffsetERi
__ZN7WebCore16PositionIterator9decrementEv
__ZNK7WebCore13CharacterData18offsetInCharactersEv
__ZNK7WebCore13CharacterData18maxCharacterOffsetEv
__ZNK7WebCore10RenderText14caretMaxOffsetEv
__ZNK7WebCore10RenderText14previousOffsetEi
__ZN7WebCore22cursorMovementIteratorEPKti
__ZN7WebCore18textBreakPrecedingEPNS_17TextBreakIteratorEi
__ZNK7WebCore10RenderText10nextOffsetEi
__ZN7WebCore10inSameLineERKNS_15VisiblePositionES2_
__ZN7WebCore11startOfLineERKNS_15VisiblePositionE
__ZN7WebCoreL14rootBoxForLineERKNS_15VisiblePositionE
__ZNK7WebCore8Position21getInlineBoxAndOffsetENS_9EAffinityERPNS_9InlineBoxERi
__ZNK7WebCore8Position21getInlineBoxAndOffsetENS_9EAffinityENS_13TextDirectionERPNS_9InlineBoxERi
__ZNK7WebCore13InlineTextBox14caretMinOffsetEv
__ZNK7WebCore13InlineTextBox14caretMaxOffsetEv
__ZNK7WebCore9InlineBox13nextLeafChildEv
__ZNK7WebCore13InlineFlowBox14firstLeafChildEv
__ZN7WebCore8PositionC1EN3WTF10PassRefPtrINS_4NodeEEEi
__ZN7WebCoreL36positionAvoidingFirstPositionInTableERKNS_15VisiblePositionE
__ZNK7WebCore15VisiblePosition8previousENS_27EditingBoundaryCrossingRuleE
__ZN7WebCore33previousVisuallyDistinctCandidateERKNS_8PositionE
__ZNK7WebCore8Position13atStartOfTreeEv
__ZNK7WebCore8Position8previousENS_16PositionMoveTypeE
__ZN7WebCore25isLastPositionBeforeTableERKNS_15VisiblePositionE
__ZNK7WebCore15VisiblePosition31honorEditableBoundaryAtOrBeforeERKS0_
__ZN7WebCore19highestEditableRootERKNS_8PositionE
__ZN7WebCoreeqERKNS_15VisiblePositionES2_
__ZN7WebCore16VisibleSelectionC1ERKNS_15VisiblePositionES3_
__ZN7WebCore16VisibleSelectionC2ERKNS_15VisiblePositionES3_
__ZN7WebCore16VisibleSelection8validateENS_15TextGranularityE
__ZN7WebCore16VisibleSelection33setBaseAndExtentToDeepEquivalentsEv
__ZN7WebCore16comparePositionsERKNS_8PositionES2_
__ZN7WebCore16VisibleSelection52setStartAndEndFromBaseAndExtentRespectingGranularityENS_15TextGranularityE
__ZN7WebCore16VisibleSelection46adjustSelectionToAvoidCrossingShadowBoundariesEv
__ZN7WebCore4Node10shadowRootEv
__ZN7WebCore16VisibleSelection47adjustSelectionToAvoidCrossingEditingBoundariesEv
__ZN7WebCore22lowestEditableAncestorEPNS_4NodeE
__ZN7WebCore16VisibleSelection19updateSelectionTypeEv
__ZN7WebCore16VisibleSelectionaSERKS0_
__ZN7WebCore14FrameSelection22setFocusedNodeIfNeededEv
__ZNK7WebCore23TextControlInnerElement16isMouseFocusableEv
__ZNK7WebCore16HTMLInputElement16isMouseFocusableEv
__ZN7WebCore10RenderText17setSelectionStateENS_12RenderObject14SelectionStateE
__ZNK7WebCore12RenderObject17selectionStartEndERiS1_
__ZNK7WebCore10RenderView17selectionStartEndERiS1_
__ZNK7WebCore13InlineTextBox10isSelectedEii
__ZN7WebCore20RenderBoxModelObject17setSelectionStateENS_12RenderObject14SelectionStateE
__ZNK7WebCore12RenderObject7childAtEj
__ZNK7WebCore12RenderObject14nextInPreOrderEv
__ZN7WebCore11RenderLayer29clearBlockSelectionGapsBoundsEv
__ZNK7WebCore11RenderLayer10firstChildEv
__ZNK7WebCore11RenderLayer11nextSiblingEv
__ZNK7WebCore10RenderText18canBeSelectionLeafEv
__ZN7WebCore10RenderText23selectionRectForRepaintEPNS_20RenderBoxModelObjectEb
__ZN7WebCore13InlineTextBox13selectionRectEiiii
__ZNK7WebCore4Font20selectionRectForTextERKNS_7TextRunERKNS_10FloatPointEiii
__ZNK7WebCore4Font26selectionRectForSimpleTextERKNS_7TextRunERKNS_10FloatPointEiii
__ZN7WebCoreL18ellipsisRectForBoxEPNS_13InlineTextBoxEjj
__ZN7WebCore12RenderObject21computeRectForRepaintEPNS_20RenderBoxModelObjectERNS_7IntRectEb
__ZN7WebCore11RenderBlock27selectionGapRectsForRepaintEPNS_20RenderBoxModelObjectE
__ZNK7WebCore11RenderBlock15isSelectionRootEv
__ZN7WebCore11RenderBlock26logicalLeftSelectionOffsetEPS0_i
__ZN7WebCore11RenderBlock27logicalRightSelectionOffsetEPS0_i
__ZN7WebCore11RenderBlock13selectionGapsEPS0_RKNS_8IntPointERKNS_7IntSizeERiS8_S8_PKNS_9PaintInfoE
__ZN7WebCore11RenderBlock19inlineSelectionGapsEPS0_RKNS_8IntPointERKNS_7IntSizeERiS8_S8_PKNS_9PaintInfoE
__ZN7WebCore13RootInlineBox16lineSelectionGapEPNS_11RenderBlockERKNS_8IntPointERKNS_7IntSizeEiiPKNS_9PaintInfoE
__ZN7WebCore13RootInlineBox14selectionStateEv
__ZN7WebCore11RenderBlock19getSelectionGapInfoENS_12RenderObject14SelectionStateERbS3_
__ZN7WebCore11RenderBlock18blockSelectionGapsEPS0_RKNS_8IntPointERKNS_7IntSizeERiS8_S8_PKNS_9PaintInfoE
__ZNK7WebCore12RenderObject18canBeSelectionLeafEv
__ZN7WebCore14FrameSelection41selectFrameElementInParentIfFullySelectedEv
__ZN7WebCore17RenderTextControl16selectionChangedEb
__ZNK7WebCore17RenderTextControl12selectionEndEv
__ZNK7WebCore17RenderTextControl23indexForVisiblePositionERKNS_15VisiblePositionE
__ZN7WebCore12TextIterator11rangeLengthEPKNS_5RangeEb
__ZNK7WebCore17RenderTextControl14selectionStartEv
__ZN7WebCore27RenderTextControlSingleLine14cacheSelectionEii
__ZN7WebCore16HTMLInputElement14cacheSelectionEii
__ZN7WebCore6Editor25respondToChangedSelectionERKNS_16VisibleSelectionEj
__ZN7WebCore28SpellingCorrectionController21stopPendingCorrectionERKNS_16VisibleSelectionE
__ZN7WebCore9endOfWordERKNS_15VisiblePositionENS_9EWordSideE
__ZN7WebCore14endOfParagraphERKNS_15VisiblePositionENS_27EditingBoundaryCrossingRuleE
__ZN7WebCore35isRenderedAsNonInlineTableImageOrHREPKNS_4NodeE
__ZN7WebCore14enclosingBlockEPNS_4NodeENS_27EditingBoundaryCrossingRuleE
__ZN7WebCore27firstPositionInOrBeforeNodeEPNS_4NodeE
__ZN7WebCore7isBlockEPKNS_4NodeE
__ZNK7WebCore10RenderText22caretMaxRenderedOffsetEv
__ZN7WebCoreL12nextBoundaryERKNS_15VisiblePositionEPFjPKtjjNS_33BoundarySearchContextAvailabilityERbE
__ZNK7WebCore8Position21parentEditingBoundaryEv
__ZN7WebCore8Document11createRangeEv
__ZNK7WebCore8Position24parentAnchoredEquivalentEv
__ZNK7WebCore15VisiblePosition14characterAfterEv
__ZN7WebCore12TextIteratorC1EPKNS_5RangeENS_20TextIteratorBehaviorE
__ZN7WebCoreL15endWordBoundaryEPKtjjNS_33BoundarySearchContextAvailabilityERb
__ZN7WebCore29endOfFirstWordBoundaryContextEPKti
__ZN7WebCore16findWordBoundaryEPKtiiPiS2_
__ZNK7WebCore5Range13startPositionEv
__ZN7WebCore11startOfWordERKNS_15VisiblePositionENS_9EWordSideE
__ZN7WebCoreL16previousBoundaryERKNS_15VisiblePositionEPFjPKtjjNS_33BoundarySearchContextAvailabilityERbE
__ZN7WebCore31SimplifiedBackwardsTextIteratorC1EPKNS_5RangeENS_20TextIteratorBehaviorE
__ZN7WebCore31SimplifiedBackwardsTextIteratorC2EPKNS_5RangeENS_20TextIteratorBehaviorE
__ZN7WebCore31SimplifiedBackwardsTextIterator7advanceEv
__ZNK7WebCore31SimplifiedBackwardsTextIterator5rangeEv
__ZN7WebCore8BitStackD1Ev
__ZN7WebCore13endOfSentenceERKNS_15VisiblePositionE
__ZN7WebCoreL19endSentenceBoundaryEPKtjjNS_33BoundarySearchContextAvailabilityERb
__ZN7WebCore21sentenceBreakIteratorEPKti
__ZN7WebCore15startOfSentenceERKNS_15VisiblePositionE
__ZNK7WebCore16VisibleSelection17toNormalizedRangeEv
__ZNK7WebCore8Position28computeOffsetInContainerNodeEv
__ZN7WebCore5Range6createEN3WTF10PassRefPtrINS_8DocumentEEERKNS_8PositionES7_
__ZN7WebCore24DocumentMarkerController13removeMarkersEPNS_5RangeENS_14DocumentMarker11MarkerTypesENS0_37RemovePartiallyOverlappingMarkerOrNotE
__ZNK7WebCore6Editor16fontForSelectionERb
__ZNK7WebCore5Range20editingStartPositionEv
__ZN7WebCore16isEndOfParagraphERKNS_15VisiblePositionENS_27EditingBoundaryCrossingRuleE
__ZNK7WebCore5Range12pastLastNodeEv
__ZN7WebCore22DeleteButtonController25respondToChangedSelectionERKNS_16VisibleSelectionE
__ZN7WebCoreL25enclosingDeletableElementERKNS_16VisibleSelectionE
__ZNK7WebCore5Range23commonAncestorContainerERi
__ZN7WebCore19enclosingNodeOfTypeERKNS_8PositionEPFbPKNS_4NodeEENS_27EditingBoundaryCrossingRuleE
__ZN7WebCoreL18isDeletableElementEPKNS_4NodeE
__ZN7WebCore28SpellingCorrectionController25respondToChangedSelectionERKNS_16VisibleSelectionE
__ZN7WebCore14FrameSelection37notifyAccessibilityForSelectionChangeEv
__ZN7WebCore8Document20enqueueDocumentEventEN3WTF10PassRefPtrINS_5EventEEE
__ZN7WebCore10EventQueue12enqueueEventEN3WTF10PassRefPtrINS_5EventEEE
__ZN3WTF21ListHashSetTranslatorINS_6RefPtrIN7WebCore5EventEEELm256ENS_7PtrHashIS4_EEE9translateERPNS_15ListHashSetNodeIS4_Lm256EEERKS4_PNS_24ListHashSetNodeAllocatorIS4_Lm256EEE
__ZN7WebCore14FrameSelection15revealSelectionERKNS_15ScrollAlignmentEb
__ZNK7WebCore12RenderObject19mapLocalToContainerEPNS_20RenderBoxModelObjectEbbRNS_14TransformStateE
__ZNK7WebCore11RenderBlock16adjustForColumnsERNS_7IntSizeERKNS_8IntPointE
__ZN7WebCore11RenderBlock23selectionRectForRepaintEPNS_20RenderBoxModelObjectEb
__ZNK7WebCore27RenderTextControlSingleLine11isTextFieldEv
__ZNK7WebCore25AccessibilityRenderObject24accessibilityDescriptionEv
__ZNK7WebCore25AccessibilityRenderObject28ariaAccessibilityDescriptionEv
__ZNK7WebCore25AccessibilityRenderObject24ariaDescribedByAttributeEv
__ZN7WebCoreL21accessibleNameForNodeEPNS_4NodeE
__ZN7WebCore16JSHTMLDivElement3putEPN3JSC9ExecStateERKNS1_10IdentifierENS1_7JSValueERNS1_15PutPropertySlotE
__ZN3JSC9lookupPutIN7WebCore16JSHTMLDivElementEEEbPNS_9ExecStateERKNS_10IdentifierENS_7JSValueEPKNS_9HashTableEPT_
__ZN7WebCore25setJSHTMLElementInnerTextEPN3JSC9ExecStateEPNS0_8JSObjectENS0_7JSValueE
__ZN7WebCore11HTMLElement14textToFragmentERKN3WTF6StringERi
__ZNK7WebCore16DocumentFragment16childTypeAllowedENS_4Node8NodeTypeE
__ZN7WebCore13HTMLBRElement6createEPNS_8DocumentE
__ZN7WebCore27RenderTextControlSingleLine5paintERNS_9PaintInfoEii
__ZN7WebCore17RenderTextControl11paintObjectERNS_9PaintInfoEii
__ZN7WebCore27RenderTextControlSingleLine19paintBoxDecorationsERNS_9PaintInfoEii
__ZN7WebCore11RenderTheme16paintDecorationsEPNS_12RenderObjectERKNS_9PaintInfoERKNS_7IntRectE
__ZN7WebCore11RenderTheme15paintBorderOnlyEPNS_12RenderObjectERKNS_9PaintInfoERKNS_7IntRectE
__ZN7WebCore14RenderThemeMac14paintTextFieldEPNS_12RenderObjectERKNS_9PaintInfoERKNS_7IntRectE
__ZNK7WebCore11RenderTheme9isEnabledEPKNS_12RenderObjectE
__ZNK7WebCore11RenderTheme17isReadOnlyControlEPKNS_12RenderObjectE
__ZNK7WebCore27RenderTextControlSingleLine14hasControlClipEv
__ZN7WebCore9RenderBox16overflowClipRectEiiNS_29OverlayScrollbarSizeRelevancyE
__ZNK7WebCore11RenderLayer22verticalScrollbarWidthENS_29OverlayScrollbarSizeRelevancyE
__ZNK7WebCore11RenderLayer25horizontalScrollbarHeightENS_29OverlayScrollbarSizeRelevancyE
__ZN7WebCore11RenderLayer21paintOverflowControlsEPNS_15GraphicsContextEiiRKNS_7IntRectEb
__ZNK7WebCore11RenderLayer20layerForScrollCornerEv
__ZN7WebCore11RenderLayer17paintScrollCornerEPNS_15GraphicsContextEiiRKNS_7IntRectE
__ZNK7WebCore11RenderLayer16scrollCornerRectEv
__ZN7WebCore11RenderLayer12paintResizerEPNS_15GraphicsContextEiiRKNS_7IntRectE
__ZN7WebCore13InlineTextBox14paintSelectionEPNS_15GraphicsContextERKNS_10FloatPointEPNS_11RenderStyleERKNS_4FontE
__ZN7WebCore13InlineTextBox17selectionStartEndERiS1_
__ZNK7WebCore12RenderObject24selectionBackgroundColorEv
__ZNK7WebCore11RenderTheme30activeSelectionBackgroundColorEv
__ZNK7WebCore14RenderThemeMac38platformActiveSelectionBackgroundColorEv
__ZNK7WebCore5Color14blendWithWhiteEv
__ZN7WebCore15GraphicsContext20drawHighlightForTextERKNS_4FontERKNS_7TextRunERKNS_10FloatPointEiRKNS_5ColorENS_10ColorSpaceEii
__ZNK7WebCore12RenderObject24selectionForegroundColorEv
__ZNK7WebCore12RenderObject14selectionColorEi
__ZNK7WebCore11RenderTheme30activeSelectionForegroundColorEv
__ZNK7WebCore14RenderThemeMac33supportsSelectionForegroundColorsEv
__ZNK7WebCore12RenderObject26selectionEmphasisMarkColorEv
__ZNK7WebCore12RenderObject20getCachedPseudoStyleENS_8PseudoIdEPNS_11RenderStyleE
__ZN7WebCore14FrameSelection10paintCaretEPNS_15GraphicsContextEiiRKNS_7IntRectE
__ZN7WebCore27RenderTextControlSingleLine17addFocusRingRectsERN3WTF6VectorINS_7IntRectELm0EEEii
__ZN7WebCore6Editor29markMisspellingsAndBadGrammarERKNS_16VisibleSelectionEbS3_
__ZN7WebCore6Editor40markAllMisspellingsAndBadGrammarInRangesEjPNS_5RangeES2_
__ZNK7WebCore7Element22isSpellCheckingEnabledEv
__ZNK7WebCore7Element24spellcheckAttributeStateEv
__ZN7WebCore21TextCheckingParagraphC1EN3WTF10PassRefPtrINS_5RangeEEE
__ZNK7WebCore21TextCheckingParagraph13checkingStartEv
__ZNK7WebCore21TextCheckingParagraph13offsetAsRangeEv
__ZNK7WebCore21TextCheckingParagraph14paragraphRangeEv
__ZNK7WebCore5Range10cloneRangeERi
__ZN7WebCore16startOfParagraphERKNS_15VisiblePositionENS_27EditingBoundaryCrossingRuleE
__ZNK7WebCore4Node29traversePreviousNodePostOrderEPKS0_
__ZN7WebCore8setStartEPNS_5RangeERKNS_15VisiblePositionE
__ZNK7WebCore5Range11endPositionEv
__ZN7WebCore6setEndEPNS_5RangeERKNS_15VisiblePositionE
__ZNK7WebCore5Range14startContainerERi
__ZNK7WebCore21TextCheckingParagraph11checkingEndEv
__ZN7WebCore6Editor27resolveTextCheckingTypeMaskEj
__ZNK7WebCore21TextCheckingParagraph4textEv
__ZN7WebCore21TextCheckingParagraphD1Ev
__ZN7WebCore17CheckboxInputTypeD0Ev
__ZN7WebCore19CachedCSSStyleSheet17allClientsRemovedEv
__ZN7WebCore16HTMLUListElementD0Ev
__ZN7WebCore18HTMLHeadingElementD0Ev
__ZN7WebCore13HTMLLIElementD0Ev
__ZThn8_N7WebCore18HTMLHeadingElementD0Ev
__ZN7WebCore29JSHTMLHeadingElementPrototypeD1Ev
__ZN7WebCore24JSHTMLLIElementPrototypeD1Ev
__ZN7WebCore15EventQueueTimer5firedEv
__ZN7WebCore10EventQueue22pendingEventTimerFiredEv
__ZN3WTF11ListHashSetINS_6RefPtrIN7WebCore5EventEEELm256ENS_7PtrHashIS4_EEE15unlinkAndDeleteEPNS_15ListHashSetNodeIS4_Lm256EEE
__ZN7WebCore10EventQueue13dispatchEventEN3WTF10PassRefPtrINS_5EventEEE
__ZN7WebCore11EventTarget11toDOMWindowEv
__ZN3WTF10RefCountedIN7WebCore10EventQueueEE5derefEv
__ZN7WebCore6Editor22textFieldDidEndEditingEPNS_7ElementE
__Z3kitPN7WebCore16HTMLInputElementE
__ZN7WebCore27RenderTextControlInnerBlockD0Ev
__ZN7WebCore27RenderTextControlSingleLineD0Ev
__ZN7WebCore17RenderTextControlD2Ev
__ZN7WebCore23TextControlInnerElement6detachEv
__ZNK7WebCore4Node10shadowHostEv
__ZThn8_N7WebCore27TextControlInnerTextElementD0Ev
__ZN7WebCore9InputType13fallbackValueEv
__ZNK7WebCore16HTMLInputElement21isEmptySuggestedValueEv
__ZN7WebCoreL28createHTMLBodyElementWrapperEPN3JSC9ExecStateEPNS_17JSDOMGlobalObjectEN3WTF10PassRefPtrINS_11HTMLElementEEE
__ZN7WebCore13createWrapperINS_17JSHTMLBodyElementENS_15HTMLBodyElementEEEPNS_12JSDOMWrapperEPN3JSC9ExecStateEPNS_17JSDOMGlobalObjectEPT0_
__ZN7WebCore15getDOMStructureINS_17JSHTMLBodyElementEEEPN3JSC9StructureEPNS2_9ExecStateEPNS_17JSDOMGlobalObjectE
__ZN7WebCore17JSHTMLBodyElement15createPrototypeEPN3JSC9ExecStateEPNS1_14JSGlobalObjectE
__ZN7WebCore17JSHTMLBodyElementC1EPN3JSC9StructureEPNS_17JSDOMGlobalObjectEN3WTF10PassRefPtrINS_15HTMLBodyElementEEE
__ZN7WebCore12cacheWrapperINS_15HTMLBodyElementEEEvPNS_15DOMWrapperWorldEPT_PNS_12JSDOMWrapperE
__ZN7WebCore17JSHTMLBodyElement18getOwnPropertySlotEPN3JSC9ExecStateERKNS1_10IdentifierERNS1_12PropertySlotE
__ZNK7WebCore27RenderTextControlInnerBlock14hasLineIfEmptyEv
__ZNK7WebCore25AccessibilityRenderObject9isEnabledEv
__ZThn8_N7WebCore14HTMLDivElementD0Ev
__ZN7WebCore12RenderInline29clippedOverflowRectForRepaintEPNS_20RenderBoxModelObjectE
__ZNK7WebCore12RenderInline30linesVisualOverflowBoundingBoxEv
__ZNK7WebCore12RenderInline37culledInlineVisualOverflowBoundingBoxEv
__ZNK7WebCore12RenderInline23culledInlineBoundingBoxEPKS0_
__ZN7WebCore9FloatRect14uniteIfNonZeroERKS0_
__ZN7WebCore7IntRectC1ERKNS_9FloatRectE
__ZNK7WebCore10RenderText30linesVisualOverflowBoundingBoxEv
__ZN7WebCore7IntRect14uniteIfNonZeroERKS0_
__ZN7WebCore17RenderLineBoxList14dirtyLineBoxesEv
__ZN7WebCore12RenderInline28createAndAppendInlineFlowBoxEv
__ZN7WebCore12RenderInline19createInlineFlowBoxEv
__ZNK7WebCore13InlineFlowBox17rendererLineBoxesEv
__ZNK7WebCore12RenderInline10marginLeftEv
__ZNK7WebCore12RenderInline11marginRightEv
__ZN7WebCore13InlineFlowBox14adjustPositionEff
__ZNK7WebCore12RenderInline19mapLocalToContainerEPNS_20RenderBoxModelObjectEbbRNS_14TransformStateE
__ZNK7WebCore12RenderInline19offsetFromContainerEPNS_12RenderObjectERKNS_8IntPointE
-[WebCoreResourceHandleAsDelegate connection:didFailWithError:]
__ZN7WebCore14ResourceLoader7didFailEPNS_14ResourceHandleERKNS_13ResourceErrorE
__ZN7WebCore20ApplicationCacheHost25maybeLoadFallbackForErrorEPNS_14ResourceLoaderERKNS_13ResourceErrorE
__ZN7WebCore20ApplicationCacheHost48scheduleLoadFallbackResourceFromApplicationCacheEPNS_14ResourceLoaderEPNS_16ApplicationCacheE
__ZN7WebCore20ApplicationCacheHost35getApplicationCacheFallbackResourceERKNS_15ResourceRequestERPNS_24ApplicationCacheResourceEPNS_16ApplicationCacheE
__ZN7WebCore17SubresourceLoader7didFailERKNS_13ResourceErrorE
__ZN7WebCore21CachedResourceRequest7didFailEPNS_17SubresourceLoaderERKNS_13ResourceErrorE
__ZN7WebCore21CachedResourceRequest7didFailEb
__ZN7WebCore12CachedScript5errorENS_14CachedResource6StatusE
__ZN7WebCore13ScriptElement18dispatchErrorEventEv
__ZN7WebCore11MemoryCache5evictEPNS_14CachedResourceE
__ZNK7WebCore9InlineBox15isRootInlineBoxEv
__ZN7WebCore12RenderInline12paintOutlineEPNS_15GraphicsContextEii
__ZN7WebCore12RenderInline17addFocusRingRectsERN3WTF6VectorINS_7IntRectELm0EEEii
__ZN7WebCore14ResourceLoader7didFailERKNS_13ResourceErrorE
__ZN7WebCore14ConsoleMessageC1ENS_13MessageSourceENS_11MessageTypeENS_12MessageLevelERKN3WTF6StringES7_m
__ZN7WebCore21InspectorConsoleAgent17addConsoleMessageEN3WTF10PassOwnPtrINS_14ConsoleMessageEEE
__ZN3WTF6VectorINS_6OwnPtrIN7WebCore14ConsoleMessageEEELm0EE14expandCapacityEm
__ZN7WebCore13InlineFlowBoxD0Ev
__ZN7WebCore14ConsoleMessageD1Ev
__ZNK7WebCore25AccessibilityRenderObject12ariaHasPopupEv
__ZN7WebCore12CachedScriptD0Ev
__ZN7WebCore14CachedResourceD2Ev
__ZN7WebCore20HTMLConstructionSite28insertHTMLHtmlStartTagInBodyERNS_15AtomicHTMLTokenE
__ZNK7WebCore16HTMLElementStack11htmlElementEv
__ZN7WebCore20HTMLConstructionSite35mergeAttributesFromTokenIntoElementERNS_15AtomicHTMLTokenEPNS_7ElementE
__ZN7WebCore20setJSDOMWindowParentEPN3JSC9ExecStateEPNS0_8JSObjectENS0_7JSValueE
__ZN3JSC8JSObject17putDirectInternalERNS_12VMERKNS_10IdentifierENS_7JSValueEjbRNS_15PutPropertySlotEPNS_6JSCellE
__ZN7WebCoreL16tableConstructorERKNS_13QualifiedNameEPNS_8DocumentEPNS_15HTMLFormElementEb
__ZN7WebCore16HTMLTableElement6createERKNS_13QualifiedNameEPNS_8DocumentE
__ZNK7WebCore16HTMLTableElement10mapToEntryERKNS_13QualifiedNameERNS_20MappedAttributeEntryE
__ZN7WebCore16HTMLTableElement20parseMappedAttributeEPNS_9AttributeE
__ZN7WebCore13StyledElement12addCSSLengthEPNS_9AttributeEiRKN3WTF6StringE
__ZN7WebCore13StyledElement16createMappedDeclEPNS_9AttributeE
__ZN7WebCore26CSSMutableStyleDeclarationC2EPNS_7CSSRuleE
__ZN7WebCore26CSSMutableStyleDeclaration17setLengthPropertyEiRKN3WTF6StringEbb
__ZN7WebCore26CSSMutableStyleDeclaration11setPropertyEiRKN3WTF6StringEbb
__ZN7WebCore9CSSParser10parseValueEPNS_26CSSMutableStyleDeclarationEiRKN3WTF6StringEbb
__ZN7WebCore9CSSParser10parseValueEPNS_26CSSMutableStyleDeclarationEiRKN3WTF6StringEb
__ZN7WebCore16HTMLTableElement6attachEv
__ZNK7WebCore16HTMLTableElement36canHaveAdditionalAttributeStyleDeclsEv
__ZN7WebCore16HTMLTableElement29additionalAttributeStyleDeclsERN3WTF6VectorIPNS_26CSSMutableStyleDeclarationELm0EEE
__ZN7WebCore13StyledElement22getMappedAttributeDeclENS_20MappedAttributeEntryERKNS_13QualifiedNameERKN3WTF12AtomicStringE
__ZN7WebCore26CSSMutableStyleDeclaration11setPropertyEiibb
__ZN7WebCore26CSSMutableStyleDeclaration19setPropertyInternalERKNS_11CSSPropertyEPS1_
__ZN3WTF6VectorIPN7WebCore26CSSMutableStyleDeclarationELm0EE14expandCapacityEm
__ZN7WebCore11RenderStyle26setHorizontalBorderSpacingEs
__ZN7WebCore11RenderStyle24setVerticalBorderSpacingEs
__ZN7WebCore11RenderTableC1EPNS_4NodeE
__ZN3WTF6VectorIiLm0EE4fillERKim
__ZN3WTF6VectorIN7WebCore11RenderTable12ColumnStructELm0EE4fillERKS3_m
__ZN3WTF6VectorIN7WebCore11RenderTable12ColumnStructELm0EE14shrinkCapacityEm
__ZN3WTF6VectorIN7WebCore11RenderTable12ColumnStructELm0EE15reserveCapacityEm
__ZN7WebCore11RenderTable14styleDidChangeENS_15StyleDifferenceEPKNS_11RenderStyleE
__ZNK7WebCore11RenderTable12avoidsFloatsEv
__ZN7WebCore15AutoTableLayoutC1EPNS_11RenderTableE
__ZN7WebCore15HTMLTreeBuilder21defaultForInTableTextEv
__ZNK7WebCore11RenderTable7isTableEv
__ZN7WebCore15HTMLTreeBuilder25processStartTagForInTableERNS_15AtomicHTMLTokenE
__ZN7WebCore15HTMLTreeBuilder19processFakeStartTagERKNS_13QualifiedNameEN3WTF10PassRefPtrINS_12NamedNodeMapEEE
__ZN7WebCore16HTMLElementStack24popUntilTableScopeMarkerEv
__ZN7WebCoreL23tablesectionConstructorERKNS_13QualifiedNameEPNS_8DocumentEPNS_15HTMLFormElementEb
__ZN7WebCore23HTMLTableSectionElement6createERKNS_13QualifiedNameEPNS_8DocumentE
__ZNK7WebCore23HTMLTableSectionElement36canHaveAdditionalAttributeStyleDeclsEv
__ZN7WebCore23HTMLTableSectionElement29additionalAttributeStyleDeclsERN3WTF6VectorIPNS_26CSSMutableStyleDeclarationELm0EEE
__ZN7WebCore16HTMLTableElement19addSharedGroupDeclsEbRN3WTF6VectorIPNS_26CSSMutableStyleDeclarationELm0EEE
__ZNK7WebCore17CSSInheritedValue12cssValueTypeEv
__ZNK7WebCore22ApplyPropertyExpandingILNS_19ExpandValueBehaviorE0EE17applyInheritValueEPNS_16CSSStyleSelectorE
__ZNK7WebCore18ApplyPropertyColorILNS_12ColorInheritE0EE17applyInheritValueEPNS_16CSSStyleSelectorE
__ZNK7WebCore11RenderStyle14borderTopColorEv
__ZNK7WebCore11RenderStyle16borderRightColorEv
__ZNK7WebCore11RenderStyle17borderBottomColorEv
__ZNK7WebCore11RenderStyle15borderLeftColorEv
__ZN7WebCore18RenderTableSectionC1EPNS_4NodeE
__ZN7WebCore11RenderTable8addChildEPNS_12RenderObjectES2_
__ZNK7WebCore18RenderTableSection14isTableSectionEv
__ZNK7WebCore18RenderTableSection15virtualChildrenEv
__ZN7WebCore16HTMLElementStack28popUntilTableBodyScopeMarkerEv
__ZN7WebCoreL19tablerowConstructorERKNS_13QualifiedNameEPNS_8DocumentEPNS_15HTMLFormElementEb
__ZN7WebCore19HTMLTableRowElement6createERKNS_13QualifiedNameEPNS_8DocumentE
__ZN7WebCore16CSSStyleSelector15SelectorChecker17fastCheckSelectorEPKNS_11CSSSelectorEPKNS_7ElementE
__ZN7WebCore14RenderTableRowC1EPNS_4NodeE
__ZN7WebCore14RenderTableRow15styleWillChangeENS_15StyleDifferenceEPKNS_11RenderStyleE
__ZN7WebCore14RenderTableRow14styleDidChangeENS_15StyleDifferenceEPKNS_11RenderStyleE
__ZNK7WebCore14RenderTableRow13requiresLayerEv
__ZN7WebCore18RenderTableSection8addChildEPNS_12RenderObjectES2_
__ZNK7WebCore14RenderTableRow10isTableRowEv
__ZN7WebCore18RenderTableSection10ensureRowsEi
__ZN3WTF6VectorIN7WebCore18RenderTableSection9RowStructELm0EE15reserveCapacityEm
__ZN3WTF6VectorIN7WebCore18RenderTableSection10CellStructELm0EEC2Em
__ZN7WebCore18RenderTableSection15virtualChildrenEv
__ZNK7WebCore14RenderTableRow15virtualChildrenEv
__ZN7WebCore14RenderTableRow27updateBeforeAndAfterContentEv
__ZN7WebCore16HTMLElementStack27popUntilTableRowScopeMarkerEv
__ZN7WebCoreL20tablecellConstructorERKNS_13QualifiedNameEPNS_8DocumentEPNS_15HTMLFormElementEb
__ZN7WebCore20HTMLTableCellElement6createERKNS_13QualifiedNameEPNS_8DocumentE
__ZNK7WebCore20HTMLTableCellElement36canHaveAdditionalAttributeStyleDeclsEv
__ZN7WebCore20HTMLTableCellElement29additionalAttributeStyleDeclsERN3WTF6VectorIPNS_26CSSMutableStyleDeclarationELm0EEE
__ZN7WebCore16HTMLTableElement18addSharedCellDeclsERN3WTF6VectorIPNS_26CSSMutableStyleDeclarationELm0EEE
__ZN7WebCore16HTMLTableElement24addSharedCellBordersDeclERN3WTF6VectorIPNS_26CSSMutableStyleDeclarationELm0EEE
__ZN7WebCore26CSSMutableStyleDeclaration21removePropertiesInSetEPKijb
__ZN3WTF9HashTableIiiNS_17IdentityExtractorIiEENS_7IntHashIjEENS_10HashTraitsIiEES6_E3addIiiNS_22IdentityHashTranslatorIiiS4_EEEESt4pairINS_17HashTableIteratorIiiS2_S4_S6_S6_EEbERKT_RKT0_
__ZN3WTF9HashTableIiiNS_17IdentityExtractorIiEENS_7IntHashIjEENS_10HashTraitsIiEES6_E6expandEv
__ZN3WTF6VectorIN7WebCore11CSSPropertyELm4EEaSERKS3_
__ZN7WebCore11CSSPropertyaSERKS0_
__ZN7WebCore16HTMLTableElement24addSharedCellPaddingDeclERN3WTF6VectorIPNS_26CSSMutableStyleDeclarationELm0EEE
__ZN7WebCore15RenderTableCellC1EPNS_4NodeE
__ZN7WebCore15RenderTableCell17updateFromElementEv
__ZN7WebCore15RenderTableCell15styleWillChangeENS_15StyleDifferenceEPKNS_11RenderStyleE
__ZN7WebCore15RenderTableCell14styleDidChangeENS_15StyleDifferenceEPKNS_11RenderStyleE
__ZN7WebCore14RenderTableRow8addChildEPNS_12RenderObjectES2_
__ZNK7WebCore15RenderTableCell11isTableCellEv
__ZN7WebCore18RenderTableSection7addCellEPNS_15RenderTableCellEPNS_14RenderTableRowE
__ZN7WebCore14RenderTableRow15virtualChildrenEv
__ZN7WebCore25HTMLFormattingElementList12appendMarkerEv
__ZN3WTF6VectorIN7WebCore25HTMLFormattingElementList5EntryELm0EE15reserveCapacityEm
__ZN7WebCore15HTMLTreeBuilder22processEndTagForInCellERNS_15AtomicHTMLTokenE
__ZNK7WebCore16HTMLElementStack12inTableScopeERKN3WTF12AtomicStringE
__ZN7WebCore25HTMLFormattingElementList17clearToLastMarkerEv
__ZN7WebCore11RenderTable12appendColumnEi
__ZN7WebCore18RenderTableSection12appendColumnEi
__ZN3WTF6VectorIN7WebCore18RenderTableSection10CellStructELm0EE6resizeEm
__ZN3WTF6VectorIN7WebCore18RenderTableSection10CellStructELm0EE15reserveCapacityEm
__ZN3WTF11VectorMoverILb0EN7WebCore18RenderTableSection10CellStructEE4moveEPKS3_S6_PS3_
__ZN3WTF6VectorIiLm0EE14expandCapacityEm
__ZN7WebCore15HTMLTreeBuilder21processEndTagForInRowERNS_15AtomicHTMLTokenE
__ZN7WebCore15HTMLTreeBuilder27processEndTagForInTableBodyERNS_15AtomicHTMLTokenE
__ZN7WebCore15HTMLTreeBuilder17processFakeEndTagERKNS_13QualifiedNameE
__ZN7WebCore15HTMLTreeBuilder23processEndTagForInTableERNS_15AtomicHTMLTokenE
__ZNK7WebCore16HTMLElementStack12inTableScopeERKNS_13QualifiedNameE
__ZN7WebCoreL17selectConstructorERKNS_13QualifiedNameEPNS_8DocumentEPNS_15HTMLFormElementEb
__ZN7WebCore17HTMLSelectElement6createERKNS_13QualifiedNameEPNS_8DocumentEPNS_15HTMLFormElementE
__ZN7WebCore31HTMLFormControlElementWithStateC2ERKNS_13QualifiedNameEPNS_8DocumentEPNS_15HTMLFormElementE
__ZN7WebCore17SelectElementDataC1Ev
__ZN7WebCore17HTMLSelectElement20parseMappedAttributeEPNS_9AttributeE
__ZNK7WebCore17HTMLSelectElement12valueMissingEv
__ZNK7WebCore17HTMLSelectElement21isRequiredFormControlEv
__ZN7WebCore22HTMLFormControlElement20insertedIntoDocumentEv
__ZN7WebCore17HTMLSelectElement16insertedIntoTreeEb
__ZN7WebCore13SelectElement16insertedIntoTreeERNS_17SelectElementDataEPNS_7ElementE
__ZN7WebCore13SelectElement15recalcListItemsERNS_17SelectElementDataEPKNS_7ElementEb
__ZNK7WebCore22HTMLFormControlElement13isRadioButtonEv
__ZN7WebCore11RenderStyle22setBorderTopLeftRadiusERKNS_10LengthSizeE
__ZN7WebCore11RenderStyle23setBorderTopRightRadiusERKNS_10LengthSizeE
__ZN7WebCore11RenderStyle26setBorderBottomRightRadiusERKNS_10LengthSizeE
__ZN7WebCore11RenderStyle25setBorderBottomLeftRadiusERKNS_10LengthSizeE
__ZN7WebCore11RenderStyle17resetBorderRadiusEv
__ZN7WebCore17HTMLSelectElement14createRendererEPNS_11RenderArenaEPNS_11RenderStyleE
__ZN7WebCore13RenderListBoxC1EPNS_7ElementE
__ZN7WebCore13RenderListBox17updateFromElementEv
__ZN7WebCore15toSelectElementEPNS_7ElementE
__ZThn160_NK7WebCore17HTMLSelectElement9listItemsEv
__ZNK7WebCore17SelectElementData9listItemsEPKNS_7ElementE
__ZN7WebCore13RenderListBox23setHasVerticalScrollbarEb
__ZN7WebCore13RenderListBox15createScrollbarEv
__ZN7WebCore14RenderThemeMac27scrollbarControlSizeForPartENS_11ControlPartE
__ZN7WebCore9Scrollbar21createNativeScrollbarEPNS_14ScrollableAreaENS_20ScrollbarOrientationENS_20ScrollbarControlSizeE
__ZN7WebCore9ScrollbarC2EPNS_14ScrollableAreaENS_20ScrollbarOrientationENS_20ScrollbarControlSizeEPNS_14ScrollbarThemeE
__ZN7WebCore14ScrollbarTheme11nativeThemeEv
__ZN7WebCore17ScrollbarThemeMacC1Ev
+[ScrollbarPrefsObserver registerAsObserver]
__ZN7WebCore17ScrollbarThemeMac17registerScrollbarEPNS_9ScrollbarE
__ZN7WebCore17ScrollbarThemeMac18scrollbarThicknessENS_20ScrollbarControlSizeE
__ZN7WebCore6Widget12setFrameRectERKNS_7IntRectE
__ZN7WebCore14ScrollableArea23didAddVerticalScrollbarEPNS_9ScrollbarE
__ZN7WebCore17ScrollAnimatorMac23didAddVerticalScrollbarEPNS_9ScrollbarE
__ZN7WebCore17ScrollbarThemeMac19painterForScrollbarEPNS_9ScrollbarE
__ZN7WebCore10ScrollView8addChildEN3WTF10PassRefPtrINS_6WidgetEEE
__ZN7WebCore9Scrollbar9setParentEPNS_10ScrollViewE
__ZN7WebCore6Widget9setParentEPNS_10ScrollViewE
__ZN7WebCore6Widget16setParentVisibleEb
__ZN3WTF9HashTableINS_6RefPtrIN7WebCore6WidgetEEES4_NS_17IdentityExtractorIS4_EENS_7PtrHashIS4_EENS_10HashTraitsIS4_EESA_E3addIS4_S4_NS_22IdentityHashTranslatorIS4_S4_S8_EEEESt4pairINS_17HashTableIteratorIS4_S4_S6_S8_SA_SA_EEbERKT_RKT0_
__ZN3WTF9HashTableINS_6RefPtrIN7WebCore6WidgetEEES4_NS_17IdentityExtractorIS4_EENS_7PtrHashIS4_EENS_10HashTraitsIS4_EESA_E6rehashEi
__ZN7WebCore9Scrollbar12styleChangedEv
__ZN7WebCore17HTMLSelectElement15childrenChangedEbPNS_4NodeES2_i
__ZN7WebCore13SelectElement18setRecalcListItemsERNS_17SelectElementDataEPNS_7ElementE
__ZNK7WebCore13RenderListBox15canHaveChildrenEv
__ZN7WebCoreL17optionConstructorERKNS_13QualifiedNameEPNS_8DocumentEPNS_15HTMLFormElementEb
__ZN7WebCore17HTMLOptionElement6createERKNS_13QualifiedNameEPNS_8DocumentEPNS_15HTMLFormElementE
__ZN7WebCore17OptionElementDataC1Ev
__ZN7WebCore17HTMLOptionElement16insertedIntoTreeEb
__ZNK7WebCore17HTMLOptionElement18ownerSelectElementEv
__ZN7WebCore17HTMLSelectElement18setRecalcListItemsEv
__ZN7WebCore17HTMLSelectElement17scrollToSelectionEv
__ZN7WebCore13SelectElement17scrollToSelectionERNS_17SelectElementDataEPNS_7ElementE
__ZN7WebCore13RenderListBox16selectionChangedEv
__ZN7WebCore17HTMLOptionElement6attachEv
__ZNK7WebCore17HTMLOptionElement8disabledEv
__ZN7WebCore17HTMLOptionElement14setRenderStyleEN3WTF10PassRefPtrINS_11RenderStyleEEE
__ZN7WebCore17HTMLOptionElement15childrenChangedEbPNS_4NodeES2_i
__ZNK7WebCore17HTMLOptionElement22nonRendererRenderStyleEv
__ZNK7WebCore16HTMLElementStack13inSelectScopeERKN3WTF12AtomicStringE
__ZN7WebCore17HTMLSelectElement11recalcStyleENS_4Node11StyleChangeE
__ZN7WebCore20isOptionGroupElementEPNS_7ElementE
__ZN7WebCore15toOptionElementEPNS_7ElementE
__ZThn160_NK7WebCore17HTMLOptionElement8selectedEv
__ZN7WebCore17HTMLSelectElement23recalcListItemsIfNeededEv
__ZThn160_NK7WebCore17HTMLOptionElement31textIndentedToRespectGroupLabelEv
__ZN7WebCore13OptionElement37collectOptionTextRespectingGroupLabelERKNS_17OptionElementDataEPKNS_7ElementE
__ZN7WebCore20toOptionGroupElementEPNS_7ElementE
__ZN7WebCore13OptionElement24collectOptionLabelOrTextERKNS_17OptionElementDataEPKNS_7ElementE
__ZN7WebCore13OptionElement22collectOptionInnerTextEPKNS_7ElementE
__ZNK7WebCore13CharacterData9nodeValueEv
__ZN7WebCore13OptionElement13normalizeTextEPKNS_8DocumentERKN3WTF6StringE
__ZNK7WebCore11RenderBlock28availableLogicalWidthForLineEib
__ZN7WebCore11RenderTable6layoutEv
__ZN7WebCore11RenderTable19computeLogicalWidthEv
__ZN7WebCore11RenderTable29computePreferredLogicalWidthsEv
__ZNK7WebCore11RenderTable15calcBorderStartEv
__ZNK7WebCore11RenderTable13calcBorderEndEv
__ZN7WebCore15AutoTableLayout29computePreferredLogicalWidthsERiS1_
__ZN7WebCore15AutoTableLayout10fullRecalcEv
__ZN3WTF6VectorIN7WebCore15AutoTableLayout6LayoutELm4EE4fillERKS3_m
__ZN3WTF6VectorIPN7WebCore15RenderTableCellELm4EE4fillERKS3_m
__ZN7WebCore15AutoTableLayout12recalcColumnEi
__ZN7WebCore15RenderTableCell29computePreferredLogicalWidthsEv
__ZNK7WebCore11RenderTable10borderLeftEv
__ZNK7WebCore11RenderTable11borderStartEv
__ZNK7WebCore11RenderTable11borderRightEv
__ZNK7WebCore11RenderTable9borderEndEv
__ZNK7WebCore15RenderTableCell22styleOrColLogicalWidthEv
__ZNK7WebCore11RenderTable10colElementEiPbS1_
__ZNK7WebCore15RenderTableCell11borderStartEv
__ZNK7WebCore15RenderTableCell9borderEndEv
__ZN7WebCore15AutoTableLayout25calcEffectiveLogicalWidthEv
__ZNK7WebCore11RenderTable38bordersPaddingAndSpacingInRowDirectionEv
__ZN7WebCore15AutoTableLayout6layoutEv
__ZN7WebCore11RenderTable20setCellLogicalWidthsEv
__ZN7WebCore18RenderTableSection20setCellLogicalWidthsEv
__ZN7WebCore15RenderTableCell18updateLogicalWidthEi
__ZN7WebCore18RenderTableSection6layoutEv
__ZN7WebCore14RenderTableRow6layoutEv
__ZN7WebCore15RenderTableCell6layoutEv
__ZNK7WebCore15RenderTableCell10borderLeftEv
__ZNK7WebCore15RenderTableCell11borderRightEv
__ZNK7WebCore15RenderTableCell11paddingLeftEb
__ZNK7WebCore15RenderTableCell12paddingRightEb
__ZN7WebCore15RenderTableCell19computeLogicalWidthEv
__ZNK7WebCore15RenderTableCell12borderBeforeEv
__ZNK7WebCore15RenderTableCell13paddingBeforeEb
__ZNK7WebCore15RenderTableCell12paddingAfterEb
__ZNK7WebCore15RenderTableCell11borderAfterEv
__ZNK7WebCore15RenderTableCell9borderTopEv
__ZNK7WebCore15RenderTableCell12borderBottomEv
__ZN7WebCore18RenderTableSection20calcRowLogicalHeightEv
__ZNK7WebCore9RenderBox12overrideSizeEv
__ZNK7WebCore11RenderTable12borderBeforeEv
__ZNK7WebCore11RenderTable11borderAfterEv
__ZN7WebCore18RenderTableSection10layoutRowsEi
__ZNK7WebCore11RenderBlock24percentHeightDescendantsEv
__ZNK7WebCore11RenderTable12sectionBelowEPKNS_18RenderTableSectionEb
__ZNK7WebCore11RenderTable9borderTopEv
__ZNK7WebCore11RenderTable12borderBottomEv
__ZN7WebCore11RenderTable23addOverflowFromChildrenEv
__ZN7WebCore13RenderListBox6layoutEv
__ZNK7WebCore13RenderListBox22verticalScrollbarWidthEv
__ZNK7WebCore9Scrollbar18isOverlayScrollbarEv
__ZNK7WebCore17ScrollbarThemeMac21usesOverlayScrollbarsEv
__ZN7WebCore13RenderListBox29computePreferredLogicalWidthsEv
__ZN7WebCore13RenderListBox20computeLogicalHeightEv
__ZNK7WebCore13RenderListBox4sizeEv
__ZThn160_NK7WebCore17HTMLSelectElement4sizeEv
__ZNK7WebCore13RenderListBox15numVisibleItemsEv
__ZN7WebCore9Scrollbar10setEnabledEb
__ZN7WebCore9Scrollbar14invalidateRectERKNS_7IntRectE
__ZN7WebCore14ScrollableArea19invalidateScrollbarEPNS_9ScrollbarERKNS_7IntRectE
__ZNK7WebCore14ScrollableArea19horizontalScrollbarEv
__ZThn184_NK7WebCore13RenderListBox17verticalScrollbarEv
__ZNK7WebCore14ScrollableArea25layerForVerticalScrollbarEv
__ZThn184_N7WebCore13RenderListBox23invalidateScrollbarRectEPNS_9ScrollbarERKNS_7IntRectE
__ZN7WebCore9Scrollbar8setStepsEiii
__ZN7WebCore9Scrollbar13setProportionEii
__ZN7WebCore9Scrollbar21updateThumbProportionEv
__ZN7WebCore14ScrollbarTheme15invalidatePartsEPNS_9ScrollbarEj
__ZN7WebCore23ScrollbarThemeComposite14invalidatePartEPNS_9ScrollbarENS_13ScrollbarPartE
__ZN7WebCore17ScrollbarThemeMac9trackRectEPNS_9ScrollbarEb
__ZN7WebCore17ScrollbarThemeMac10hasButtonsEPNS_9ScrollbarE
__ZN7WebCore23ScrollbarThemeComposite10splitTrackEPNS_9ScrollbarERKNS_7IntRectERS3_S6_S6_
__ZN7WebCore23ScrollbarThemeComposite31constrainTrackRectToTrackPiecesEPNS_9ScrollbarERKNS_7IntRectE
__ZN7WebCore23ScrollbarThemeComposite13thumbPositionEPNS_9ScrollbarE
__ZN7WebCore23ScrollbarThemeComposite11thumbLengthEPNS_9ScrollbarE
__ZNK7WebCore13RenderListBox14hasControlClipEv
__ZN7WebCore13RenderListBox23scrollToRevealSelectionEv
__ZThn160_NK7WebCore17HTMLSelectElement29activeSelectionStartListIndexEv
__ZNK7WebCore17HTMLSelectElement13selectedIndexEv
__ZN7WebCore13SelectElement13selectedIndexERKNS_17SelectElementDataEPKNS_7ElementE
__ZNK7WebCore17HTMLSelectElement17optionToListIndexEi
__ZN7WebCore13SelectElement17optionToListIndexERKNS_17SelectElementDataEPKNS_7ElementEi
__ZNK7WebCore13RenderListBox16baselinePositionENS_12FontBaselineEbNS_17LineDirectionModeENS_16LinePositionModeE
__ZNK7WebCore9RenderBox16baselinePositionENS_12FontBaselineEbNS_17LineDirectionModeENS_16LinePositionModeE
__ZN7WebCore18AccessibilityTableC2EPNS_12RenderObjectE
__ZNK7WebCore18AccessibilityTable11isDataTableEv
__ZNK7WebCore16HTMLTableElement7summaryEv
__ZNK7WebCore18AccessibilityTable22accessibilityIsIgnoredEv
__ZN7WebCore18AccessibilityTable11addChildrenEv
__ZNK7WebCore18AccessibilityTable20isAccessibilityTableEv
__ZNK7WebCore18RenderTableSection10numColumnsEv
__ZNK7WebCore21AccessibilityTableRow10isTableRowEv
__ZNK7WebCore21AccessibilityTableRow11parentTableEv
__ZNK3WTF9HashTableIPN7WebCore19AccessibilityObjectES3_NS_17IdentityExtractorIS3_EENS_7PtrHashIS3_EENS_10HashTraitsIS3_EES9_E8containsIS3_NS_22IdentityHashTranslatorIS3_S3_S7_EEEEbRKT_
__ZNK7WebCore21AccessibilityTableRow22accessibilityIsIgnoredEv
__ZN3WTF9HashTableIPN7WebCore19AccessibilityObjectES3_NS_17IdentityExtractorIS3_EENS_7PtrHashIS3_EENS_10HashTraitsIS3_EES9_E3addIS3_S3_NS_22IdentityHashTranslatorIS3_S3_S7_EEEESt4pairINS_17HashTableIteratorIS3_S3_S5_S7_S9_S9_EEbERKT_RKT0_
__ZN3WTF9HashTableIPN7WebCore19AccessibilityObjectES3_NS_17IdentityExtractorIS3_EENS_7PtrHashIS3_EENS_10HashTraitsIS3_EES9_E6expandEv
__ZN7WebCore13AXObjectCache11getOrCreateENS_17AccessibilityRoleE
__ZN7WebCore19AccessibilityObject13clearChildrenEv
__ZNK7WebCore24AccessibilityTableColumn22accessibilityIsIgnoredEv
__ZNK7WebCore33AccessibilityTableHeaderContainer22accessibilityIsIgnoredEv
__ZN7WebCore21AccessibilityARIAGrid11addChildrenEv
__ZNK7WebCore24AccessibilityARIAGridRow11parentTableEv
__ZN7WebCore21AccessibilityARIAGrid8addChildEPNS_19AccessibilityObjectERN3WTF7HashSetIS2_NS3_7PtrHashIS2_EENS3_10HashTraitsIS2_EEEERj
__ZNK7WebCore17AccessibilityList22accessibilityIsIgnoredEv
__ZNK7WebCore17AccessibilityList9roleValueEv
__ZN3WTF9HashTableIjjNS_17IdentityExtractorIjEENS_7IntHashIjEENS_10HashTraitsIjEES6_E16lookupForWritingERKj
__ZN3WTF9HashTableIjjNS_17IdentityExtractorIjEENS_7IntHashIjEENS_10HashTraitsIjEES6_E4findIjNS_22IdentityHashTranslatorIjjS4_EEEENS_17HashTableIteratorIjjS2_S4_S6_S6_EERKT_
__ZN3WTF9HashTableIjSt4pairIjNS_6RefPtrIN7WebCore19AccessibilityObjectEEEENS_18PairFirstExtractorIS6_EENS_7IntHashIjEENS_14PairHashTraitsINS_10HashTraitsIjEENSC_IS5_EEEESD_E16lookupForWritingERKj
__ZN3WTF9HashTableIjSt4pairIjNS_6RefPtrIN7WebCore19AccessibilityObjectEEEENS_18PairFirstExtractorIS6_EENS_7IntHashIjEENS_14PairHashTraitsINS_10HashTraitsIjEENSC_IS5_EEEESD_E3addIjS5_NS_17HashMapTranslatorIS6_SF_SA_EEEES1_INS_17HashTableIteratorIjS6_S8_SA_SF_SD_EEbERKT_RKT0_
__ZN3WTF9HashTableIjSt4pairIjNS_6RefPtrIN7WebCore19AccessibilityObjectEEEENS_18PairFirstExtractorIS6_EENS_7IntHashIjEENS_14PairHashTraitsINS_10HashTraitsIjEENSC_IS5_EEEESD_E4findIjNS_22IdentityHashTranslatorIjS6_SA_EEEENS_17HashTableIteratorIjS6_S8_SA_SF_SD_EERKT_
__ZN3WTF9HashTableIjSt4pairIjNS_6RefPtrIN7WebCore19AccessibilityObjectEEEENS_18PairFirstExtractorIS6_EENS_7IntHashIjEENS_14PairHashTraitsINS_10HashTraitsIjEENSC_IS5_EEEESD_E6rehashEi
__ZNK7WebCore13RenderListBox9isListBoxEv
__ZNK7WebCore20AccessibilityListBox22accessibilityIsIgnoredEv
__ZN7WebCore20AccessibilityListBox11addChildrenEv
__ZNK7WebCore17HTMLSelectElement9listItemsEv
__ZNK7WebCore26AccessibilityListBoxOption22accessibilityIsIgnoredEv
__ZNK7WebCore26AccessibilityListBoxOption4nodeEv
__ZNK7WebCore26AccessibilityListBoxOption12parentObjectEv
-[AccessibilityObjectWrapper renderWidgetChildren]
__ZNK7WebCore25AccessibilityRenderObject6widgetEv
__ZL16convertToNSArrayRKN3WTF6VectorINS_6RefPtrIN7WebCore19AccessibilityObjectEEELm0EEE
__ZNK7WebCore6Widget11isFrameViewEv
__ZN7WebCore11RenderTable5paintERNS_9PaintInfoEii
__ZN7WebCore11RenderTable11paintObjectERNS_9PaintInfoEii
__ZN7WebCore11RenderTable19paintBoxDecorationsERNS_9PaintInfoEii
__ZNK7WebCore11RenderTable19subtractCaptionRectERNS_7IntRectE
__ZN7WebCore20RenderBoxModelObject11paintBorderEPNS_15GraphicsContextERKNS_7IntRectEPKNS_11RenderStyleENS_24BackgroundBleedAvoidanceEbb
__ZN7WebCore20RenderBoxModelObject19paintNinePieceImageEPNS_15GraphicsContextERKNS_7IntRectEPKNS_11RenderStyleERKNS_14NinePieceImageENS_17CompositeOperatorE
__ZNK7WebCore20RenderBoxModelObject17getBorderEdgeInfoEPNS_10BorderEdgeEbb
__ZNK7WebCore11RenderStyle19getRoundedBorderForERKNS_7IntRectEbb
__ZN7WebCore14RoundedRectC1ERKNS_7IntRectERKNS0_5RadiiE
__ZNK7WebCore11RenderStyle24getRoundedInnerBorderForERKNS_7IntRectEbb
__ZNK7WebCore11RenderStyle24getRoundedInnerBorderForERKNS_7IntRectEiiiibb
__ZNK7WebCore15GraphicsContext6getCTMEv
__ZN7WebCore15AffineTransformC1Edddddd
__ZNK7WebCore14RoundedRect5Radii6isZeroEv
__ZN7WebCore20RenderBoxModelObject16paintBorderSidesEPNS_15GraphicsContextEPKNS_11RenderStyleERKNS_14RoundedRectES8_PKNS_10BorderEdgeEjNS_24BackgroundBleedAvoidanceEbbbPKNS_5ColorE
__ZN7WebCore20RenderBoxModelObject18paintOneBorderSideEPNS_15GraphicsContextEPKNS_11RenderStyleERKNS_14RoundedRectES8_RKNS_7IntRectENS_7BoxSideESC_SC_PKNS_10BorderEdgeEPKNS_4PathENS_24BackgroundBleedAvoidanceEbbbPKNS_5ColorE
__ZN7WebCoreL17joinRequiresMitreENS_7BoxSideES0_PKNS_10BorderEdgeEb
__ZN7WebCore12RenderObject18drawLineForBoxSideEPNS_15GraphicsContextEiiiiNS_7BoxSideENS_5ColorENS_12EBorderStyleEiib
__ZNK7WebCore15GraphicsContext15shouldAntialiasEv
__ZN7WebCore15GraphicsContext18setShouldAntialiasEb
__ZN7WebCore15GraphicsContext26setPlatformShouldAntialiasEb
__ZN7WebCore15GraphicsContext8drawRectERKNS_7IntRectE
__ZNK7WebCore15GraphicsContext11strokeStyleEv
__ZNK7WebCore5Color4darkEv
__ZN7WebCore15GraphicsContext17drawConvexPolygonEmPKNS_10FloatPointEb
__ZN7WebCore4Path6moveToERKNS_10FloatPointE
__ZN7WebCore4Path9addLineToERKNS_10FloatPointE
__ZN7WebCore4Path12closeSubpathEv
__ZN7WebCore18RenderTableSection5paintERNS_9PaintInfoEii
__ZN7WebCore18RenderTableSection11paintObjectERNS_9PaintInfoEii
__ZN7WebCore18RenderTableSection9paintCellEPNS_15RenderTableCellERNS_9PaintInfoEii
__ZN7WebCore15RenderTableCell26paintBackgroundsBehindCellERNS_9PaintInfoEiiPNS_12RenderObjectE
__ZN7WebCore15RenderTableCell5paintERNS_9PaintInfoEii
__ZN7WebCore15RenderTableCell19paintBoxDecorationsERNS_9PaintInfoEii
__ZN7WebCore13RenderListBox11paintObjectERNS_9PaintInfoEii
__ZN7WebCore14RenderThemeMac13paintTextAreaEPNS_12RenderObjectERKNS_9PaintInfoERKNS_7IntRectE
__ZN7WebCore13RenderListBox14paintScrollbarERNS_9PaintInfoEii
__ZN7WebCore9Scrollbar12setFrameRectERKNS_7IntRectE
__ZNK7WebCore9FrameView17windowResizerRectEv
__ZNK7WebCore6Chrome17windowResizerRectEv
__ZN7WebCore9Scrollbar5paintEPNS_15GraphicsContextERKNS_7IntRectE
__ZN7WebCore17ScrollbarThemeMac5paintEPNS_9ScrollbarEPNS_15GraphicsContextERKNS_7IntRectE
__ZNK7WebCore15GraphicsContext16isCALayerContextEv
__ZNK7WebCore14ScrollableArea32recommendedScrollbarOverlayStyleEv
__ZN7WebCore15GraphicsContext9translateEff
-[ScrollbarPainterDelegate convertRectToBacking:]
-[ScrollbarPainterDelegate convertRectFromBacking:]
__ZNK7WebCore13RenderListBox15controlClipRectEii
__ZNK7WebCore9RenderBox14contentBoxRectEv
__ZN7WebCore13RenderListBox19paintItemBackgroundERNS_9PaintInfoEiii
__ZN7WebCore13RenderListBox19itemBoundingBoxRectEiii
__ZN7WebCore13RenderListBox19paintItemForegroundERNS_9PaintInfoEiii
__ZN7WebCore15GraphicsContext12drawBidiTextERKNS_4FontERKNS_7TextRunERKNS_10FloatPointE
__ZN3WTF10RefCountedIN7WebCore11BidiContextEE5derefEv
__ZN7WebCore12BidiResolverINS_15TextRunIteratorENS_16BidiCharacterRunEE21createBidiRunsForLineERKS1_NS_23VisualDirectionOverrideEb
__ZN7WebCore12BidiResolverINS_15TextRunIteratorENS_16BidiCharacterRunEE9appendRunEv
__ZN7WebCore12BidiResolverINS_15TextRunIteratorENS_16BidiCharacterRunEE21reorderRunsFromLevelsEv
__ZNK7WebCore11RenderTable10cellBeforeEPKNS_15RenderTableCellE
__ZNK7WebCore11RenderTable9cellAboveEPKNS_15RenderTableCellE
__ZNK7WebCore11RenderTable12sectionAboveEPKNS_18RenderTableSectionEb
__ZNK7WebCore17HTMLSelectElement20saveFormControlStateERN3WTF6StringE
__ZN7WebCore13SelectElement20saveFormControlStateERKNS_17SelectElementDataEPKNS_7ElementERN3WTF6StringE
__ZNK7WebCore22HTMLFormControlElement15formControlNameEv
__ZNK7WebCore17HTMLSelectElement15formControlTypeEv
__ZN7WebCore18AccessibilityTable13clearChildrenEv
__ZN7WebCore26AccessibilityListBoxOptionD0Ev
__ZN7WebCore17AccessibilityListD0Ev
__ZN7WebCore24AccessibilityARIAGridRowD0Ev
__ZN7WebCore24AccessibilityTableColumnD0Ev
__ZN7WebCore18AccessibilityTableD0Ev
__ZN7WebCore20AccessibilityListBoxD0Ev
__ZN7WebCore21AccessibilityARIAGridD0Ev
__ZN7WebCore18AccessibilityTableD2Ev
__ZN7WebCore21AccessibilityTableRowD0Ev
__ZN7WebCore33AccessibilityTableHeaderContainerD0Ev
__ZN7WebCore15RenderTableCell7destroyEv
__ZN7WebCore15RenderTableCellD0Ev
__ZN7WebCore18RenderTableSection18setNeedsCellRecalcEv
__ZN7WebCore14RenderTableRow7destroyEv
__ZN7WebCore18RenderTableSection11removeChildEPNS_12RenderObjectE
__ZN7WebCore14RenderTableRowD0Ev
__ZN7WebCore18RenderTableSection7destroyEv
__ZN7WebCore11RenderTable11removeChildEPNS_12RenderObjectE
__ZN7WebCore18RenderTableSectionD0Ev
__ZN7WebCore18RenderTableSection9clearGridEv
__ZN7WebCore11RenderTableD0Ev
__ZN7WebCore15AutoTableLayoutD0Ev
__ZN7WebCore17HTMLOptionElement6detachEv
__ZN7WebCore13RenderListBoxD0Ev
__ZN7WebCore13RenderListBox16destroyScrollbarEv
__ZNK7WebCore9Scrollbar17isCustomScrollbarEv
__ZN7WebCore14ScrollableArea27willRemoveVerticalScrollbarEPNS_9ScrollbarE
__ZN7WebCore17ScrollAnimatorMac27willRemoveVerticalScrollbarEPNS_9ScrollbarE
__ZN7WebCore6Widget16removeFromParentEv
__ZN7WebCore10ScrollView11removeChildEPNS_6WidgetE
__ZNK3WTF9HashTableINS_6RefPtrIN7WebCore6WidgetEEES4_NS_17IdentityExtractorIS4_EENS_7PtrHashIS4_EENS_10HashTraitsIS4_EESA_E4findIS4_NS_22IdentityHashTranslatorIS4_S4_S8_EEEENS_22HashTableConstIteratorIS4_S4_S6_S8_SA_SA_EERKT_
__ZN7WebCore9ScrollbarD0Ev
__ZN7WebCore17ScrollbarThemeMac19unregisterScrollbarEPNS_9ScrollbarE
__ZN7WebCore20HTMLConstructionSite23insertFormattingElementERNS_15AtomicHTMLTokenE
__ZNK7WebCore15FontDescription12bolderWeightEv
__ZN7WebCore25HTMLFormattingElementList6appendEPNS_7ElementE
__ZNK7WebCore16HTMLElementStack8containsEPNS_7ElementE
__ZN7WebCore15HTMLTreeBuilder21callTheAdoptionAgencyERNS_15AtomicHTMLTokenE
__ZN7WebCore25HTMLFormattingElementList29closestElementInScopeWithNameERKN3WTF12AtomicStringE
__ZNK7WebCore16HTMLElementStack7inScopeEPNS_7ElementE
__ZNK7WebCore16HTMLElementStack4findEPNS_7ElementE
__ZN7WebCore25HTMLFormattingElementList6removeEPNS_7ElementE
__ZN3WTF11VectorMoverILb0EN7WebCore25HTMLFormattingElementList5EntryEE15moveOverlappingEPKS3_S6_PS3_
-[AccessibilityObjectWrapper accessibilityAttributeNames]
__ZNK7WebCore25AccessibilityRenderObject15isPasswordFieldEv
__ZNK7WebCore25AccessibilityRenderObject8isAnchorEv
__ZNK7WebCore25AccessibilityRenderObject13isNativeImageEv
__ZNK7WebCore19AccessibilityObject10isTableRowEv
__ZNK7WebCore25AccessibilityRenderObject12isInputImageEv
__ZNK7WebCore25AccessibilityRenderObject7isGroupEv
__ZNK7WebCore25AccessibilityRenderObject6isMenuEv
__ZNK7WebCore25AccessibilityRenderObject9isMenuBarEv
__ZNK7WebCore25AccessibilityRenderObject12isMenuButtonEv
__ZNK7WebCore25AccessibilityRenderObject10isMenuItemEv
-[AccessibilityObjectWrapper additionalAccessibilityAttributeNames]
__ZNK7WebCore19AccessibilityObject20supportsARIAExpandedEv
__ZNK7WebCore19AccessibilityObject22supportsARIALiveRegionEv
__ZNK7WebCore19AccessibilityObject13sortDirectionEv
__ZNK7WebCore19AccessibilityObject22isInsideARIALiveRegionEv
__ZNK7WebCore19AccessibilityObject20ariaLiveRegionStatusEv
-[AccessibilityObjectWrapper subrole]
__ZNK7WebCore19AccessibilityObject15isMediaTimelineEv
-[AccessibilityObjectWrapper roleDescription]
__ZN7WebCore13AXHeadingTextEv
__ZN7WebCore21hasPlatformStrategiesEv
__ZNK7WebCore25AccessibilityRenderObject4sizeEv
__ZNK7WebCore25AccessibilityRenderObject11elementRectEv
__ZNK7WebCore19AccessibilityObject13isRadioButtonEv
__ZNK7WebCore25AccessibilityRenderObject15boundingBoxRectEv
__ZN7WebCore12RenderObject22absoluteFocusRingQuadsERN3WTF6VectorINS_9FloatQuadELm0EEE
__ZN3WTF6VectorIN7WebCore9FloatQuadELm0EE15reserveCapacityEm
__ZNK7WebCore25AccessibilityRenderObject9isFocusedEv
__ZNK7WebCore7Element20isEnabledFormControlEv
-[AccessibilityObjectWrapper remoteAccessibilityParentObject]
__ZNK7WebCore25AccessibilityRenderObject17documentFrameViewEv
-[AccessibilityObjectWrapper textMarkerRangeForSelection]
__ZNK7WebCore25AccessibilityRenderObject9selectionEv
__ZN7WebCore15startOfDocumentEPKNS_4NodeE
__ZN7WebCore8Position19uncheckedNextOffsetEPKNS_4NodeEi
__ZNK7WebCore16PositionIterator11atEndOfNodeEv
__ZN7WebCore13nextCandidateERKNS_8PositionE
__ZN7WebCore16PositionIteratorC1ERKNS_8PositionE
__ZNK7WebCore16PositionIterator11isCandidateEv
__ZN7WebCore8Position20nodeIsUserSelectNoneEPNS_4NodeE
__ZN7WebCoreL21canonicalizeCandidateERKNS_8PositionE
__ZN7WebCore17previousCandidateERKNS_8PositionE
__ZNK7WebCore8Document23canContainRangeEndPointEv
__ZNK7WebCore4Node23canContainRangeEndPointEv
__ZN7WebCore8Position23uncheckedPreviousOffsetEPKNS_4NodeEi
-[AccessibilityObjectWrapper textMarkerForVisiblePosition:]
__ZN7WebCore13AXObjectCache32textMarkerDataForVisiblePositionERNS_14TextMarkerDataERKNS_15VisiblePositionE
__ZN7WebCore13endOfDocumentEPKNS_4NodeE
__ZN7WebCore18lastPositionInNodeEPNS_4NodeE
__ZNK7WebCore25AccessibilityRenderObject9isVisitedEv
__ZNK7WebCore25AccessibilityRenderObject16linkedUIElementsERN3WTF6VectorINS1_6RefPtrINS_19AccessibilityObjectEEELm0EEE
__ZNK7WebCore25AccessibilityRenderObject18ariaFlowToElementsERN3WTF6VectorINS1_6RefPtrINS_19AccessibilityObjectEEELm0EEE
__ZN3WTF6VectorINS_6RefPtrIN7WebCore19AccessibilityObjectEEELm0EED1Ev
__ZN7WebCore16HTMLTableElementD0Ev
__ZN7WebCore13StyledElement25removeMappedAttributeDeclENS_20MappedAttributeEntryERKNS_13QualifiedNameERKN3WTF12AtomicStringE
__ZN7WebCore26CSSMutableStyleDeclarationD2Ev
__ZN7WebCore17HTMLSelectElementD0Ev
__ZN7WebCore17SelectElementDataD1Ev
__ZN7WebCore31HTMLFormControlElementWithStateD2Ev
__ZN7WebCore23HTMLTableSectionElementD0Ev
__ZN7WebCore17HTMLOptionElementD0Ev
__ZN7WebCore17OptionElementDataD1Ev
__ZN7WebCore19HTMLTableRowElementD0Ev
__ZN7WebCore20HTMLTableCellElementD0Ev
__ZN7WebCoreL17anchorConstructorERKNS_13QualifiedNameEPNS_8DocumentEPNS_15HTMLFormElementEb
__ZN7WebCore17HTMLAnchorElement6createERKNS_13QualifiedNameEPNS_8DocumentE
__ZN7WebCore17HTMLAnchorElement20parseMappedAttributeEPNS_9AttributeE
__ZNK7WebCore4Page24javaScriptURLsAreAllowedEv
__ZNK7WebCore16CSSStyleSelector15SelectorChecker26determineLinkStateSlowCaseEPNS_7ElementE
__ZN7WebCore15visitedLinkHashERKNS_4KURLERKN3WTF12AtomicStringE
__ZN3WTF6VectorItLm512EE6appendItEEvPKT_m
__ZN3WTF9HashTableIyyNS_17IdentityExtractorIyEEN7WebCore12LinkHashHashENS_10HashTraitsIyEES6_E3addIyyNS_22IdentityHashTranslatorIyyS4_EEEESt4pairINS_17HashTableIteratorIyyS2_S4_S6_S6_EEbERKT_RKT0_
__ZN3WTF9HashTableIyyNS_17IdentityExtractorIyEEN7WebCore12LinkHashHashENS_10HashTraitsIyEES6_E6rehashEi
__ZN7WebCore9PageGroup13isLinkVisitedEy
__ZN7WebCore11RenderStyle17setTextDecorationEi
__ZN7WebCore15StyleVisualDataC1ERKS0_
__ZN7WebCore13InlineTextBox15paintDecorationEPNS_15GraphicsContextERKNS_10FloatPointEiPKNS_10ShadowDataE
__ZN7WebCore12RenderObject23getTextDecorationColorsEiRNS_5ColorES2_S2_b
__ZN7WebCoreL15decorationColorEPNS_12RenderObjectE
__ZN7WebCore15GraphicsContext15drawLineForTextERKNS_10FloatPointEfb
__ZNK7WebCore15GraphicsContext15strokeThicknessEv
__ZN7WebCore15GraphicsContext19roundToDevicePixelsERKNS_9FloatRectENS0_12RoundingModeE
__ZN7WebCore17HTMLScriptElement19removedFromDocumentEv
__ZN7WebCore13ScriptElement19removedFromDocumentEv
__ZN7WebCore17JSHTMLBodyElementD1Ev
__ZThn8_N7WebCore15HTMLBodyElementD0Ev
__ZN7WebCore26JSHTMLBodyElementPrototypeD1Ev
__ZN7WebCore15StyleVisualDataD1Ev
__ZN7WebCore17HTMLAnchorElementD0Ev
__ZN7WebCoreL16labelConstructorERKNS_13QualifiedNameEPNS_8DocumentEPNS_15HTMLFormElementEb
__ZN7WebCore16HTMLLabelElement6createERKNS_13QualifiedNameEPNS_8DocumentE
__ZN7WebCore16HTMLLabelElement20parseMappedAttributeEPNS_9AttributeE
__ZN7WebCore4Node32notifyLocalNodeListsLabelChangedEv
__ZNK7WebCore25AccessibilityRenderObject14titleUIElementEv
__ZNK7WebCore25AccessibilityRenderObject10isFieldsetEv
__ZNK7WebCore25AccessibilityRenderObject21exposesTitleUIElementEv
__ZNK7WebCore25AccessibilityRenderObject18hasTextAlternativeEv
__ZN7WebCore16HTMLLabelElement7controlEv
__ZNK7WebCore22HTMLFormControlElement11isLabelableEv
__ZN7WebCore9HTMLToken15appendToCommentEt
__ZN7WebCore15HTMLTreeBuilder14processCommentERNS_15AtomicHTMLTokenE
__ZN7WebCore20HTMLConstructionSite13insertCommentERNS_15AtomicHTMLTokenE
__ZN7WebCore7Comment6createEPNS_8DocumentERKN3WTF6StringE
__ZN7WebCore20HTMLConstructionSite6attachINS_7CommentEEEN3WTF10PassRefPtrIT_EEPNS_13ContainerNodeES6_
__ZNK7WebCore11RenderStyle20getCachedPseudoStyleENS_8PseudoIdE
__ZN7WebCore11RenderStyle20addCachedPseudoStyleEN3WTF10PassRefPtrIS0_EE
__ZN7WebCoreL30createHTMLAnchorElementWrapperEPN3JSC9ExecStateEPNS_17JSDOMGlobalObjectEN3WTF10PassRefPtrINS_11HTMLElementEEE
__ZN7WebCore13createWrapperINS_19JSHTMLAnchorElementENS_17HTMLAnchorElementEEEPNS_12JSDOMWrapperEPN3JSC9ExecStateEPNS_17JSDOMGlobalObjectEPT0_
__ZN7WebCore15getDOMStructureINS_19JSHTMLAnchorElementEEEPN3JSC9StructureEPNS2_9ExecStateEPNS_17JSDOMGlobalObjectE
__ZN7WebCore19JSHTMLAnchorElement15createPrototypeEPN3JSC9ExecStateEPNS1_14JSGlobalObjectE
__ZN7WebCore19JSHTMLAnchorElementC1EPN3JSC9StructureEPNS_17JSDOMGlobalObjectEN3WTF10PassRefPtrINS_17HTMLAnchorElementEEE
__ZN7WebCore12cacheWrapperINS_17HTMLAnchorElementEEEvPNS_15DOMWrapperWorldEPT_PNS_12JSDOMWrapperE
__ZN7WebCore19JSHTMLAnchorElement18getOwnPropertySlotEPN3JSC9ExecStateERKNS1_10IdentifierERNS1_12PropertySlotE
__ZN7WebCore28JSHTMLAnchorElementPrototype18getOwnPropertySlotEPN3JSC9ExecStateERKNS1_10IdentifierERNS1_12PropertySlotE
__ZN7WebCore11RenderBlock32generatesLineBoxesForInlineChildEPNS_12RenderObjectE
__ZNK7WebCore17HTMLAnchorElement13supportsFocusEv
__ZN7WebCore17HTMLAnchorElement19defaultEventHandlerEPNS_5EventE
__ZN3WTF6VectorINS_6RefPtrIN7WebCore11RenderStyleEEELm4EE6shrinkEm
__ZN3WTF16VectorDestructorILb1ENS_6RefPtrIN7WebCore11RenderStyleEEEE8destructEPS4_S6_
__ZN3WTF14derefIfNotNullIN7WebCore11RenderStyleEEEvPT_
__ZN7WebCore9InlineBox10deleteLineEPNS_11RenderArenaE
__ZNK3WTF9HashTableIPN7WebCore12RenderObjectESt4pairIS3_iENS_18PairFirstExtractorIS5_EENS_7PtrHashIS3_EENS_14PairHashTraitsINS_10HashTraitsIS3_EENSB_IiEEEESC_E4findIS3_NS_22IdentityHashTranslatorIS3_S5_S9_EEEENS_22HashTableConstIteratorIS3_S5_S7_S9_SE_SC_EERKT_
__ZNK7WebCore12RenderObject16adjustForColumnsERNS_7IntSizeERKNS_8IntPointE
__ZN7WebCore16HTMLLabelElementD0Ev
-[AccessibilityObjectWrapper accessibilityActionNames]
__ZNK7WebCore25AccessibilityRenderObject13actionElementEv
__ZNK7WebCore25AccessibilityRenderObject13isImageButtonEv
__ZNK7WebCore25AccessibilityRenderObject13anchorElementEv
__ZN7WebCore13CharacterData7setDataERKN3WTF6StringERi
__ZN7WebCore13CharacterData16setDataAndUpdateEN3WTF10PassRefPtrINS1_10StringImplEEEjjj
__ZN7WebCore14FrameSelection18textWillBeReplacedEPNS_13CharacterDataEjjj
__ZN7WebCore9InlineBox14dirtyLineBoxesEv
__ZN7WebCore25AccessibilityRenderObject14contentChangedEv
__ZN7WebCore13CharacterData21dispatchModifiedEventEPN3WTF10StringImplE
__ZN7WebCore8Document11textRemovedEPNS_4NodeEjj
__ZN7WebCore24DocumentMarkerController13removeMarkersEPNS_4NodeEjiNS_14DocumentMarker11MarkerTypesENS0_37RemovePartiallyOverlappingMarkerOrNotE
__ZN7WebCore24DocumentMarkerController12shiftMarkersEPNS_4NodeEji
__ZN7WebCore7CommentD0Ev
__ZN7WebCore19JSHTMLAnchorElementD1Ev
__ZThn8_N7WebCore17HTMLAnchorElementD0Ev
__ZN7WebCore28JSHTMLAnchorElementPrototypeD1Ev
__ZN7WebCoreL16imageConstructorERKNS_13QualifiedNameEPNS_8DocumentEPNS_15HTMLFormElementEb
__ZN7WebCore16HTMLImageElement6createERKNS_13QualifiedNameEPNS_8DocumentEPNS_15HTMLFormElementE
__ZN7WebCore16HTMLImageElementC2ERKNS_13QualifiedNameEPNS_8DocumentEPNS_15HTMLFormElementE
__ZN7WebCore15HTMLImageLoaderC1EPNS_7ElementE
__ZN7WebCore11ImageLoaderC2EPNS_7ElementE
__ZNK7WebCore16HTMLImageElement10mapToEntryERKNS_13QualifiedNameERNS_20MappedAttributeEntryE
__ZN7WebCore16HTMLImageElement20parseMappedAttributeEPNS_9AttributeE
__ZN7WebCore11ImageLoader38updateFromElementIgnoringPreviousErrorEv
__ZN7WebCore11ImageLoader17updateFromElementEv
__ZNK7WebCore7Element24imageSourceAttributeNameEv
__ZNK7WebCore15HTMLImageLoader9sourceURIERKN3WTF12AtomicStringE
__ZN7WebCore20CachedResourceLoader12requestImageERKN3WTF6StringE
__ZN7WebCoreL11appendASCIIERKN3WTF6StringEPKcmRNS0_6VectorIcLm512EEE
__ZN7WebCore11FrameLoader29checkIfDisplayInsecureContentEPNS_14SecurityOriginERKNS_4KURLE
__ZNK7WebCore21ContentSecurityPolicy20allowImageFromSourceERKNS_4KURLE
__ZN7WebCore11CachedImageC1ERKN3WTF6StringE
__ZN7WebCore11CachedImage4loadEPNS_20CachedResourceLoaderE
__ZN7WebCore14CachedResource4loadEPNS_20CachedResourceLoaderEbNS_19SecurityCheckPolicyEb
__ZN7WebCore11CachedImage12didAddClientEPNS_20CachedResourceClientE
__ZN7WebCore11ImageLoader30dispatchPendingBeforeLoadEventEv
__ZN7WebCore11ImageLoader14updateRendererEv
__ZN7WebCore16HTMLImageElement20insertedIntoDocumentEv
__ZN7WebCore12HTMLDocument12addNamedItemERKN3WTF12AtomicStringE
__ZN7WebCore12HTMLDocument17addExtraNamedItemERKN3WTF12AtomicStringE
__ZN7WebCore16HTMLImageElement16insertedIntoTreeEb
__ZN7WebCore16HTMLImageElement6attachEv
__ZNK7WebCore19ApplyPropertyLengthILNS_10LengthAutoE1ELNS_15LengthIntrinsicE1ELNS_18LengthMinIntrinsicE1ELNS_10LengthNoneE0ELNS_15LengthUndefinedE0EE10applyValueEPNS_16CSSStyleSelectorEPNS_8CSSValueE
__ZN7WebCore16HTMLImageElement14createRendererEPNS_11RenderArenaEPNS_11RenderStyleE
__ZN7WebCore11RenderImageC1EPNS_4NodeE
__ZN7WebCore14RenderReplacedC2EPNS_4NodeERKNS_7IntSizeE
__ZN7WebCore11RenderImage13updateAltTextEv
__ZNK7WebCore16HTMLImageElement7altTextEv
__ZN7WebCore19RenderImageResourceC1Ev
__ZN7WebCore11RenderImage16setImageResourceEN3WTF10PassOwnPtrINS_19RenderImageResourceEEE
__ZN7WebCore19RenderImageResource10initializeEPNS_12RenderObjectE
__ZN7WebCore11RenderImage14styleDidChangeENS_15StyleDifferenceEPKNS_11RenderStyleE
__ZN7WebCore14RenderReplaced14styleDidChangeENS_15StyleDifferenceEPKNS_11RenderStyleE
__ZNK7WebCore11RenderImage7isImageEv
__ZNK7WebCore19RenderImageResource8hasImageEv
__ZN7WebCore19RenderImageResource14setCachedImageEPNS_11CachedImageE
__ZN7WebCore14RenderReplaced6layoutEv
__ZNK7WebCore11RenderImage21minimumReplacedHeightEv
__ZNK7WebCore19RenderImageResource13errorOccurredEv
__ZNK7WebCore12RenderObject26isInlineBlockOrInlineTableEv
__ZNK7WebCore11RenderImage27computeReplacedLogicalWidthEb
__ZNK7WebCore19RenderImageResource21imageHasRelativeWidthEv
__ZNK7WebCore11CachedImage21imageHasRelativeWidthEv
__ZNK7WebCore9RenderBox32computeReplacedLogicalWidthUsingENS_6LengthE
__ZNK7WebCore9RenderBox29computeContentBoxLogicalWidthEi
__ZN7WebCore14RenderReplaced29computePreferredLogicalWidthsEv
__ZNK7WebCore11RenderImage28computeReplacedLogicalHeightEv
__ZNK7WebCore9RenderBox33computeReplacedLogicalHeightUsingENS_6LengthE
__ZNK7WebCore9RenderBox30computeContentBoxLogicalHeightEi
__ZN3WTF9HashTableIN7WebCore13QualifiedNameES2_NS_17IdentityExtractorIS2_EENS1_17QualifiedNameHashENS_10HashTraitsIS2_EES7_E3addIS2_S2_NS_22IdentityHashTranslatorIS2_S2_S5_EEEESt4pairINS_17HashTableIteratorIS2_S2_S4_S5_S7_S7_EEbERKT_RKT0_
__ZN3WTF9HashTableIN7WebCore13QualifiedNameES2_NS_17IdentityExtractorIS2_EENS1_17QualifiedNameHashENS_10HashTraitsIS2_EES7_E6rehashEi
__ZN3WTF9HashTableIN7WebCore13QualifiedNameES2_NS_17IdentityExtractorIS2_EENS1_17QualifiedNameHashENS_10HashTraitsIS2_EES7_E6lookupIS2_NS_22IdentityHashTranslatorIS2_S2_S5_EEEEPS2_RKT_
__ZN7WebCore11CachedImage4dataEN3WTF10PassRefPtrINS_12SharedBufferEEEb
__ZN7WebCore11CachedImage11createImageEv
__ZThn440_N7WebCore11CachedImage18decodedSizeChangedEPKNS_5ImageEi
__ZNK7WebCore20CachedResourceLoader5frameEv
__ZNK7WebCore11CachedImage9imageSizeEf
__ZNK7WebCore11BitmapImage4sizeEv
__ZN7WebCore11CachedImage5errorENS_14CachedResource6StatusE
__ZN7WebCore11CachedImage27checkShouldPaintBrokenImageEv
__ZN7WebCore11CachedImage18destroyDecodedDataEv
__ZNK7WebCore11BitmapImage13isBitmapImageEv
__ZN7WebCore11BitmapImage18destroyDecodedDataEb
__ZN7WebCore11ImageSource5clearEbmPNS_12SharedBufferEb
__ZN7WebCore11CachedImage15notifyObserversEPKNS_7IntRectE
__ZN7WebCore20CachedResourceClient12imageChangedEPNS_11CachedImageEPKNS_7IntRectE
__ZN7WebCore12RenderObject12imageChangedEPNS_11CachedImageEPKNS_7IntRectE
__ZN7WebCore11RenderImage12imageChangedEPvPKNS_7IntRectE
__ZNK7WebCore19RenderImageResource8imagePtrEv
__ZN7WebCore11RenderImage22setImageSizeForAltTextEPNS_11CachedImageE
__ZNK7WebCore11CachedImage5imageEv
__ZN7WebCore5Image20loadPlatformResourceEPKc
__ZNK7WebCore12SharedBuffer16platformDataSizeEv
__ZNK7WebCore11ImageSource4sizeEv
__ZNK7WebCore14RenderReplaced13intrinsicSizeEv
__ZN7WebCore14RenderReplaced16setIntrinsicSizeERKNS_7IntSizeE
__ZN7WebCore11RenderImage22imageDimensionsChangedEbPKNS_7IntRectE
__ZNK7WebCore19RenderImageResource9imageSizeEf
__ZN7WebCore15HTMLImageLoader14notifyFinishedEPNS_14CachedResourceE
__ZN7WebCore11ImageLoader14notifyFinishedEPNS_14CachedResourceE
__ZN7WebCore16ImageEventSender17dispatchEventSoonEPNS_11ImageLoaderE
__ZN3WTF6VectorIPN7WebCore11ImageLoaderELm0EE14expandCapacityEm
__ZN7WebCore11RenderImage14notifyFinishedEPNS_14CachedResourceE
__ZN7WebCore15HTMLImageLoader17dispatchLoadEventEv
__ZN7WebCore14RenderReplaced29clippedOverflowRectForRepaintEPNS_20RenderBoxModelObjectE
__ZNK7WebCore14RenderReplaced18localSelectionRectEb
__ZNK7WebCore13RootInlineBox5blockEv
__ZNK7WebCore12RenderObject22outlineStyleForRepaintEv
__ZN7WebCore11RenderImage5paintERNS_9PaintInfoEii
__ZN7WebCore14RenderReplaced5paintERNS_9PaintInfoEii
__ZN7WebCore14RenderReplaced11shouldPaintERNS_9PaintInfoERiS3_
__ZNK7WebCore14RenderReplaced10isSelectedEv
__ZN7WebCore11RenderImage13paintReplacedERNS_9PaintInfoEii
__ZNK7WebCore19RenderImageResource5imageEii
__ZN7WebCore15GraphicsContext9drawImageEPNS_5ImageENS_10ColorSpaceERKNS_8IntPointENS_17CompositeOperatorE
__ZN7WebCore15GraphicsContext9drawImageEPNS_5ImageENS_10ColorSpaceERKNS_9FloatRectES6_NS_17CompositeOperatorEb
__ZN7WebCore11BitmapImage4drawEPNS_15GraphicsContextERKNS_9FloatRectES5_NS_10ColorSpaceENS_17CompositeOperatorE
__ZN7WebCore11BitmapImage14startAnimationEb
__ZN7WebCore11BitmapImage21mayFillWithSolidColorEv
__ZNK7WebCore11BitmapImage16currentFrameSizeEv
__ZN7WebCoreL19imageWithColorSpaceEP7CGImageNS_10ColorSpaceE
__ZN7WebCore11RenderImage25paintAreaElementFocusRingERNS_9PaintInfoE
__ZThn8_N7WebCore11HTMLElementD0Ev
__ZN7WebCore11RenderImageD0Ev
__ZN7WebCore19RenderImageResource8shutdownEv
__ZN7WebCore19RenderImageResourceD0Ev
__ZN7WebCore14RenderReplacedD2Ev
__ZN7WebCoreL19textareaConstructorERKNS_13QualifiedNameEPNS_8DocumentEPNS_15HTMLFormElementEb
__ZN7WebCore19HTMLTextAreaElement6createERKNS_13QualifiedNameEPNS_8DocumentEPNS_15HTMLFormElementE
__ZN7WebCore19HTMLTextAreaElement20parseMappedAttributeEPNS_9AttributeE
__ZNK7WebCore19HTMLTextAreaElement5valueEv
__ZNK7WebCore19HTMLTextAreaElement11updateValueEv
__ZN7WebCore11RenderStyle9setResizeENS_7EResizeE
__ZNK7WebCore14RenderThemeMac19adjustTextAreaStyleEPNS_16CSSStyleSelectorEPNS_11RenderStyleEPNS_7ElementE
__ZN7WebCore19HTMLTextAreaElement14createRendererEPNS_11RenderArenaEPNS_11RenderStyleE
__ZNK7WebCore19HTMLTextAreaElement19supportsPlaceholderEv
__ZNK7WebCore19HTMLTextAreaElement12isEmptyValueEv
__ZNK7WebCore26HTMLTextFormControlElement21isEmptySuggestedValueEv
__ZN7WebCore26RenderTextControlMultiLineC1EPNS_4NodeEb
__ZN7WebCore26RenderTextControlMultiLine17updateFromElementEv
__ZNK7WebCore26RenderTextControlMultiLine20createInnerTextStyleEPKNS_11RenderStyleE
__ZNK7WebCore26RenderTextControlMultiLine10isTextAreaEv
__ZN7WebCore26RenderTextControlMultiLine15getAvgCharWidthEN3WTF12AtomicStringE
__ZNK7WebCore26RenderTextControlMultiLine21preferredContentWidthEf
__ZNK7WebCore17RenderTextControl18scrollbarThicknessEv
__ZN7WebCore26RenderTextControlMultiLine36adjustControlHeightBasedOnLineHeightEi
__ZNK7WebCore26RenderTextControlMultiLine16baselinePositionENS_12FontBaselineEbNS_17LineDirectionModeENS_16LinePositionModeE
-[AccessibilityObjectWrapper accessibilityIsAttributeSettable:]
__ZNK7WebCore25AccessibilityRenderObject20canSetValueAttributeEv
__ZNK7WebCore25AccessibilityRenderObject10isReadOnlyEv
__ZNK7WebCore19HTMLTextAreaElement20saveFormControlStateERN3WTF6StringE
__ZNK7WebCore19HTMLTextAreaElement12defaultValueEv
__ZNK7WebCore19HTMLTextAreaElement15formControlTypeEv
__ZN7WebCore26RenderTextControlMultiLineD0Ev
__ZN7WebCore19HTMLTextAreaElement23rendererWillBeDestroyedEv
__ZN7WebCoreL16titleConstructorERKNS_13QualifiedNameEPNS_8DocumentEPNS_15HTMLFormElementEb
__ZN7WebCore16HTMLTitleElement6createERKNS_13QualifiedNameEPNS_8DocumentE
__ZN7WebCore16HTMLTitleElement20insertedIntoDocumentEv
__ZN7WebCore8Document15setTitleElementERKNS_19StringWithDirectionEPNS_7ElementE
__ZN7WebCore8Document11updateTitleERKNS_19StringWithDirectionE
__ZN7WebCore16HTMLTitleElement15childrenChangedEbPNS_4NodeES2_i
__ZN7WebCore16HTMLTitleElement17textWithDirectionEv
__ZN7WebCore7Element13computedStyleENS_8PseudoIdE
__ZN7WebCore8Document41styleForElementIgnoringPendingStylesheetsEPNS_7ElementE
__ZN7WebCore7Element20virtualComputedStyleENS_8PseudoIdE
__ZNK7WebCore16HTMLTitleElement4textEv
__ZN7WebCore11FrameLoader8setTitleERKNS_19StringWithDirectionE
__ZN7WebCore11FrameLoader15willChangeTitleEPNS_14DocumentLoaderE
__ZN7WebCore11FrameLoader14didChangeTitleEPNS_14DocumentLoaderE
__ZN7WebCore17HistoryController19setCurrentItemTitleERKNS_19StringWithDirectionE
__ZN7WebCoreL16styleConstructorERKNS_13QualifiedNameEPNS_8DocumentEPNS_15HTMLFormElementEb
__ZN7WebCore16HTMLStyleElement6createERKNS_13QualifiedNameEPNS_8DocumentEb
__ZN7WebCore12StyleElementC2EPNS_8DocumentEb
__ZN7WebCore16HTMLStyleElement20insertedIntoDocumentEv
__ZN7WebCore12StyleElement20insertedIntoDocumentEPNS_8DocumentEPNS_7ElementE
__ZN7WebCore16HTMLStyleElement15childrenChangedEbPNS_4NodeES2_i
__ZN7WebCore12StyleElement15childrenChangedEPNS_7ElementE
__ZN7WebCore16HTMLStyleElement21finishParsingChildrenEv
__ZN7WebCore12StyleElement21finishParsingChildrenEPNS_7ElementE
__ZN7WebCore12StyleElement7processEPNS_7ElementE
__ZN7WebCore12StyleElement11createSheetEPNS_7ElementEiRKN3WTF6StringE
__ZThn120_NK7WebCore16HTMLStyleElement4typeEv
__ZThn120_NK7WebCore16HTMLStyleElement5mediaEv
__ZN7WebCore13CSSStyleSheet17parseStringAtLineERKN3WTF6StringEbi
__ZN7WebCore16HTMLStyleElement11sheetLoadedEv
__ZN7WebCore12StyleElement11sheetLoadedEPNS_8DocumentE
__ZN7WebCore20HTMLConstructionSite21insertHTMLFormElementERNS_15AtomicHTMLTokenEb
__ZN7WebCoreL15formConstructorERKNS_13QualifiedNameEPNS_8DocumentEPNS_15HTMLFormElementEb
__ZN7WebCore15HTMLFormElement6createERKNS_13QualifiedNameEPNS_8DocumentE
__ZN7WebCore15HTMLFormElementC2ERKNS_13QualifiedNameEPNS_8DocumentE
__ZN7WebCore15HTMLFormElement20insertedIntoDocumentEv
__ZN7WebCore15HTMLFormElement16rendererIsNeededEPNS_11RenderStyleE
__ZN7WebCore15HTMLFormElement19registerFormElementEPNS_21FormAssociatedElementE
__ZThn120_NK7WebCore22HTMLFormControlElement15formControlNameEv
__ZN7WebCore15HTMLFormElement16formElementIndexEPNS_21FormAssociatedElementE
__ZN3WTF6VectorIPN7WebCore21FormAssociatedElementELm0EE14expandCapacityEm
__ZNK7WebCore15HTMLFormElement12autoCompleteEv
__ZN7WebCore20HTMLConstructionSite8takeFormEv
__ZN7WebCore16HTMLElementStack6removeEPNS_7ElementE
__ZN7WebCore15HTMLFormElement17handleLocalEventsEPNS_5EventE
__ZNK7WebCore16HTMLElementStack7inScopeERKNS_13QualifiedNameE
__ZN7WebCoreL17buttonConstructorERKNS_13QualifiedNameEPNS_8DocumentEPNS_15HTMLFormElementEb
__ZN7WebCore17HTMLButtonElement6createERKNS_13QualifiedNameEPNS_8DocumentEPNS_15HTMLFormElementE
__ZN7WebCore17HTMLButtonElement20parseMappedAttributeEPNS_9AttributeE
__ZNK7WebCore17HTMLButtonElement18recalcWillValidateEv
__ZN7WebCore11RenderStyle12setMinHeightENS_6LengthE
__ZN7WebCore17HTMLButtonElement14createRendererEPNS_11RenderArenaEPNS_11RenderStyleE
__ZNK7WebCore12RenderButton15canHaveChildrenEv
__ZN7WebCoreL30createHTMLButtonElementWrapperEPN3JSC9ExecStateEPNS_17JSDOMGlobalObjectEN3WTF10PassRefPtrINS_11HTMLElementEEE
__ZN7WebCore13createWrapperINS_19JSHTMLButtonElementENS_17HTMLButtonElementEEEPNS_12JSDOMWrapperEPN3JSC9ExecStateEPNS_17JSDOMGlobalObjectEPT0_
__ZN7WebCore15getDOMStructureINS_19JSHTMLButtonElementEEEPN3JSC9StructureEPNS2_9ExecStateEPNS_17JSDOMGlobalObjectE
__ZN7WebCore19JSHTMLButtonElement15createPrototypeEPN3JSC9ExecStateEPNS1_14JSGlobalObjectE
__ZN7WebCore19JSHTMLButtonElementC1EPN3JSC9StructureEPNS_17JSDOMGlobalObjectEN3WTF10PassRefPtrINS_17HTMLButtonElementEEE
__ZN7WebCore12cacheWrapperINS_17HTMLButtonElementEEEvPNS_15DOMWrapperWorldEPT_PNS_12JSDOMWrapperE
__ZN7WebCore19JSHTMLButtonElement18getOwnPropertySlotEPN3JSC9ExecStateERKNS1_10IdentifierERNS1_12PropertySlotE
__ZN7WebCore28JSHTMLButtonElementPrototype18getOwnPropertySlotEPN3JSC9ExecStateERKNS1_10IdentifierERNS1_12PropertySlotE
__ZN7WebCore22HTMLFormControlElement18dispatchFocusEventEv
__ZN7WebCore17HTMLButtonElement19defaultEventHandlerEPNS_5EventE
__ZN3WTF9HashTableIPKN7WebCore4NodeESt4pairIS4_PNS1_12NodeRareDataEENS_18PairFirstExtractorIS8_EENS_7PtrHashIS4_EENS_14PairHashTraitsINS_10HashTraitsIS4_EENSE_IS7_EEEESF_E16lookupForWritingERKS4_
__ZN3WTF9HashTableIPKN7WebCore4NodeESt4pairIS4_PNS1_12NodeRareDataEENS_18PairFirstExtractorIS8_EENS_7PtrHashIS4_EENS_14PairHashTraitsINS_10HashTraitsIS4_EENSE_IS7_EEEESF_E3addIS4_S7_NS_17HashMapTranslatorIS8_SH_SC_EEEES5_INS_17HashTableIteratorIS4_S8_SA_SC_SH_SF_EEbERKT_RKT0_
__ZN3WTF9HashTableIPKN7WebCore4NodeESt4pairIS4_PNS1_12NodeRareDataEENS_18PairFirstExtractorIS8_EENS_7PtrHashIS4_EENS_14PairHashTraitsINS_10HashTraitsIS4_EENSE_IS7_EEEESF_E4findIS4_NS_22IdentityHashTranslatorIS4_S8_SC_EEEENS_17HashTableIteratorIS4_S8_SA_SC_SH_SF_EERKT_
__ZN3WTF9HashTableIPKN7WebCore4NodeESt4pairIS4_PNS1_12NodeRareDataEENS_18PairFirstExtractorIS8_EENS_7PtrHashIS4_EENS_14PairHashTraitsINS_10HashTraitsIS4_EENSE_IS7_EEEESF_E6lookupERKS4_
__ZN3WTF9HashTableIPKN7WebCore4NodeESt4pairIS4_PNS1_12NodeRareDataEENS_18PairFirstExtractorIS8_EENS_7PtrHashIS4_EENS_14PairHashTraitsINS_10HashTraitsIS4_EENSE_IS7_EEEESF_E6rehashEi
__ZNK7WebCore9FrameView28isEnclosedInCompositingLayerEv
__ZN7WebCore9FrameView38scrollPositionChangedViaPlatformWidgetEv
__ZN7WebCore9FrameView34repaintFixedElementsAfterScrollingEv
__ZN7WebCore9FrameView21scrollPositionChangedEv
__ZN7WebCore12EventHandler15sendScrollEventEv
__ZN7WebCore9FrameView20setWasScrolledByUserEb
__ZN7WebCore10EventQueue28enqueueOrDispatchScrollEventEN3WTF10PassRefPtrINS_4NodeEEENS0_21ScrollEventTargetTypeE
__ZN7WebCore19applicationIsSafariEv
__ZN7WebCore14RadioInputType6createEPNS_16HTMLInputElementE
__ZNK7WebCore14RadioInputType15formControlTypeEv
__ZN7WebCore14InputTypeNames5radioEv
__ZNK7WebCore14RadioInputType13isRadioButtonEv
__ZN7WebCore14RadioInputType6attachEv
__ZN7WebCoreL5radioEjRKNS_7IntRectEf
__ZN7WebCore13InlineFlowBox29removeLineBoxFromRenderObjectEv
__ZN7WebCore19HTMLTextAreaElement15childrenChangedEbPNS_4NodeES2_i
__ZN7WebCore19HTMLTextAreaElement16setNonDirtyValueERKN3WTF6StringE
__ZN7WebCore19HTMLTextAreaElement14setValueCommonERKN3WTF6StringE
__ZN7WebCore26HTMLTextFormControlElement27updatePlaceholderVisibilityEb
__ZNK7WebCore19HTMLTextAreaElement7tooLongERKN3WTF6StringENS_26HTMLTextFormControlElement21NeedsToCheckDirtyFlagE
__ZNK7WebCore19HTMLTextAreaElement21isRequiredFormControlEv
__ZNK7WebCore17RenderTextControl15canHaveChildrenEv
__ZN7WebCoreL32createHTMLTextAreaElementWrapperEPN3JSC9ExecStateEPNS_17JSDOMGlobalObjectEN3WTF10PassRefPtrINS_11HTMLElementEEE
__ZN7WebCore13createWrapperINS_21JSHTMLTextAreaElementENS_19HTMLTextAreaElementEEEPNS_12JSDOMWrapperEPN3JSC9ExecStateEPNS_17JSDOMGlobalObjectEPT0_
__ZN7WebCore15getDOMStructureINS_21JSHTMLTextAreaElementEEEPN3JSC9StructureEPNS2_9ExecStateEPNS_17JSDOMGlobalObjectE
__ZN7WebCore21JSHTMLTextAreaElement15createPrototypeEPN3JSC9ExecStateEPNS1_14JSGlobalObjectE
__ZN7WebCore21JSHTMLTextAreaElementC1EPN3JSC9StructureEPNS_17JSDOMGlobalObjectEN3WTF10PassRefPtrINS_19HTMLTextAreaElementEEE
__ZN7WebCore12cacheWrapperINS_19HTMLTextAreaElementEEEvPNS_15DOMWrapperWorldEPT_PNS_12JSDOMWrapperE
__ZN7WebCore21JSHTMLTextAreaElement18getOwnPropertySlotEPN3JSC9ExecStateERKNS1_10IdentifierERNS1_12PropertySlotE
__ZN7WebCore30JSHTMLTextAreaElementPrototype18getOwnPropertySlotEPN3JSC9ExecStateERKNS1_10IdentifierERNS1_12PropertySlotE
__ZN7WebCore26HTMLTextFormControlElement16handleFocusEventEv
__ZN7WebCore19HTMLTextAreaElement19defaultEventHandlerEPNS_5EventE
__ZNK7WebCore19HTMLTextAreaElement20shouldUseInputMethodEv
__ZN7WebCore19HTMLTextAreaElement21updateFocusAppearanceEb
__ZN7WebCore26HTMLTextFormControlElement17setSelectionRangeEii
__ZNK7WebCore19HTMLTextAreaElement16isMouseFocusableEv
__ZN7WebCore9CaretBase15updateCaretRectEPNS_8DocumentERKNS_15VisiblePositionE
__ZNK7WebCore15VisiblePosition14localCaretRectERPNS_12RenderObjectE
__ZNK7WebCore9InlineBox13prevLeafChildEv
__ZN7WebCore10RenderText14localCaretRectEPNS_9InlineBoxEiPi
__ZNK7WebCore13InlineTextBox17positionForOffsetEi
__ZNK7WebCore12RenderObject19offsetFromContainerEPS0_RKNS_8IntPointE
__ZNK7WebCore11RenderTheme18caretBlinkIntervalEv
__ZN7WebCore9CaretBase19invalidateCaretRectEPNS_4NodeEb
__ZNK7WebCore4Node17isContentEditableEv
__ZN7WebCore26RenderTextControlMultiLine14cacheSelectionEii
__ZNK7WebCore6Editor22styleForSelectionStartERPNS_4NodeE
__ZN7WebCore16isMailBlockquoteEPKNS_4NodeE
__ZN7WebCoreL29createHTMLImageElementWrapperEPN3JSC9ExecStateEPNS_17JSDOMGlobalObjectEN3WTF10PassRefPtrINS_11HTMLElementEEE
__ZN7WebCore13createWrapperINS_18JSHTMLImageElementENS_16HTMLImageElementEEEPNS_12JSDOMWrapperEPN3JSC9ExecStateEPNS_17JSDOMGlobalObjectEPT0_
__ZN7WebCore15getDOMStructureINS_18JSHTMLImageElementEEEPN3JSC9StructureEPNS2_9ExecStateEPNS_17JSDOMGlobalObjectE
__ZN7WebCore18JSHTMLImageElement15createPrototypeEPN3JSC9ExecStateEPNS1_14JSGlobalObjectE
__ZN7WebCore18JSHTMLImageElementC1EPN3JSC9StructureEPNS_17JSDOMGlobalObjectEN3WTF10PassRefPtrINS_16HTMLImageElementEEE
__ZN7WebCore12cacheWrapperINS_16HTMLImageElementEEEvPNS_15DOMWrapperWorldEPT_PNS_12JSDOMWrapperE
__ZNK7WebCore19RenderImageResource22usesImageContainerSizeEv
__ZNK7WebCore11CachedImage22usesImageContainerSizeEv
__ZNK7WebCore11RenderImage27calcAspectRatioLogicalWidthEv
__ZNK7WebCore19RenderImageResource22imageHasRelativeHeightEv
__ZNK7WebCore11CachedImage22imageHasRelativeHeightEv
__ZNK7WebCore11RenderImage28calcAspectRatioLogicalHeightEv
__ZNK7WebCore12EventHandler14mousePressNodeEv
__ZN7WebCore26HTMLTextFormControlElement15handleBlurEventEv
__ZN7WebCore26RenderTextControlMultiLine12forwardEventEPNS_5EventE
__ZN3WTF9HashTableIPN7WebCore12RenderObjectESt4pairIS3_jENS_18PairFirstExtractorIS5_EENS_7PtrHashIS3_EENS_14PairHashTraitsINS_10HashTraitsIS3_EENSB_IjEEEESC_E16lookupForWritingERKS3_
__ZN3WTF9HashTableIPN7WebCore12RenderObjectESt4pairIS3_jENS_18PairFirstExtractorIS5_EENS_7PtrHashIS3_EENS_14PairHashTraitsINS_10HashTraitsIS3_EENSB_IjEEEESC_E3addIS3_jNS_17HashMapTranslatorIS5_SE_S9_EEEES4_INS_17HashTableIteratorIS3_S5_S7_S9_SE_SC_EEbERKT_RKT0_
__ZN3WTF9HashTableIPN7WebCore12RenderObjectESt4pairIS3_jENS_18PairFirstExtractorIS5_EENS_7PtrHashIS3_EENS_14PairHashTraitsINS_10HashTraitsIS3_EENSB_IjEEEESC_E4findIS3_NS_22IdentityHashTranslatorIS3_S5_S9_EEEENS_17HashTableIteratorIS3_S5_S7_S9_SE_SC_EERKT_
__ZN3WTF9HashTableIPN7WebCore12RenderObjectESt4pairIS3_jENS_18PairFirstExtractorIS5_EENS_7PtrHashIS3_EENS_14PairHashTraitsINS_10HashTraitsIS3_EENSB_IjEEEESC_E6expandEv
__ZN3WTF9HashTableIPN7WebCore12RenderObjectESt4pairIS3_jENS_18PairFirstExtractorIS5_EENS_7PtrHashIS3_EENS_14PairHashTraitsINS_10HashTraitsIS3_EENSB_IjEEEESC_E6lookupERKS3_
__ZN3WTF9HashTableIPN7WebCore12RenderObjectESt4pairIS3_jENS_18PairFirstExtractorIS5_EENS_7PtrHashIS3_EENS_14PairHashTraitsINS_10HashTraitsIS3_EENSB_IjEEEESC_E6shrinkEv
__ZN7WebCore18JSHTMLImageElement18getOwnPropertySlotEPN3JSC9ExecStateERKNS1_10IdentifierERNS1_12PropertySlotE
__ZN7WebCoreL29createHTMLUListElementWrapperEPN3JSC9ExecStateEPNS_17JSDOMGlobalObjectEN3WTF10PassRefPtrINS_11HTMLElementEEE
__ZN7WebCore13createWrapperINS_18JSHTMLUListElementENS_16HTMLUListElementEEEPNS_12JSDOMWrapperEPN3JSC9ExecStateEPNS_17JSDOMGlobalObjectEPT0_
__ZN7WebCore15getDOMStructureINS_18JSHTMLUListElementEEEPN3JSC9StructureEPNS2_9ExecStateEPNS_17JSDOMGlobalObjectE
__ZN7WebCore18JSHTMLUListElement15createPrototypeEPN3JSC9ExecStateEPNS1_14JSGlobalObjectE
__ZN7WebCore18JSHTMLUListElementC1EPN3JSC9StructureEPNS_17JSDOMGlobalObjectEN3WTF10PassRefPtrINS_16HTMLUListElementEEE
__ZN7WebCore12cacheWrapperINS_16HTMLUListElementEEEvPNS_15DOMWrapperWorldEPT_PNS_12JSDOMWrapperE
__ZN7WebCore18JSHTMLUListElement18getOwnPropertySlotEPN3JSC9ExecStateERKNS1_10IdentifierERNS1_12PropertySlotE
__ZN7WebCore16HTMLImageElementD0Ev
__ZN7WebCore15HTMLImageLoaderD1Ev
__ZN7WebCore11ImageLoaderD2Ev
__ZN7WebCore11CachedImageD0Ev
__ZN7WebCore19HTMLTextAreaElementD0Ev
__ZN7WebCore19JSHTMLButtonElementD1Ev
__ZN7WebCore21JSHTMLTextAreaElementD1Ev
__ZN7WebCore18JSHTMLImageElementD1Ev
__ZN7WebCore18JSHTMLUListElementD1Ev
__ZNK7WebCore5Image16hasRelativeWidthEv
__ZNK7WebCore5Image17usesContainerSizeEv
__ZNK7WebCore9RenderBox28computeReplacedLogicalHeightEv
__ZNK7WebCore5Image17hasRelativeHeightEv
__ZNK7WebCore9RenderBox27computeReplacedLogicalWidthEb
__ZN7WebCore9RenderBox26repaintDuringLayoutIfMovedERKNS_7IntRectE
__ZNK7WebCore14RoundedRect12isRenderableEv
__ZN7WebCore11RenderImage13paintIntoRectEPNS_15GraphicsContextERKNS_7IntRectE
__ZN7WebCore20RenderBoxModelObject23shouldPaintAtLowQualityEPNS_15GraphicsContextEPNS_5ImageEPKvRKNS_7IntSizeE
__ZN7WebCore22ImageQualityController23shouldPaintAtLowQualityEPNS_15GraphicsContextEPNS_20RenderBoxModelObjectEPNS_5ImageEPKvRKNS_7IntSizeE
__ZN7WebCore22ImageQualityController11removeLayerEPNS_20RenderBoxModelObjectEPN3WTF7HashMapIPKvNS_7IntSizeENS3_7PtrHashIS6_EENS3_10HashTraitsIS6_EENSA_IS7_EEEES6_
__ZN7WebCore15GraphicsContext9drawImageEPNS_5ImageENS_10ColorSpaceERKNS_7IntRectENS_17CompositeOperatorEb
__ZThn440_N7WebCore11CachedImage7didDrawEPKNS_5ImageE
__ZN7WebCore14CachedResource20didAccessDecodedDataEd
__ZN7WebCore22ImageQualityController15objectDestroyedEPNS_20RenderBoxModelObjectE
__ZNK7WebCore25AccessibilityRenderObject13valueForRangeEv
__ZNK7WebCore25AccessibilityRenderObject11orientationEv
__ZN7WebCore16HTMLTitleElementD0Ev
__ZN7WebCore16HTMLStyleElementD0Ev
__ZN7WebCore12StyleElementD2Ev
__ZN7WebCore15HTMLFormElementD0Ev
__ZN7WebCore21FormAssociatedElement13formDestroyedEv
__ZN7WebCore14FormSubmission10AttributesD1Ev
__ZN7WebCore17HTMLButtonElementD0Ev
__ZN7WebCore11CachedImage17allClientsRemovedEv
__ZN7WebCore11BitmapImage14resetAnimationEv
__ZN7WebCore11BitmapImage13stopAnimationEv
__ZN7WebCore14RadioInputTypeD0Ev
__ZN7WebCore28JSHTMLButtonElementPrototypeD1Ev
__ZN7WebCore30JSHTMLTextAreaElementPrototypeD1Ev
__ZN7WebCore27JSHTMLImageElementPrototypeD1Ev
__ZN7WebCore27JSHTMLUListElementPrototypeD1Ev
__ZN3WTF9HashTableIPN7WebCore12FontSelectorES3_NS_17IdentityExtractorIS3_EENS_7PtrHashIS3_EENS_10HashTraitsIS3_EES9_E16lookupForWritingERKS3_
__ZN3WTF9HashTableIPN7WebCore12FontSelectorES3_NS_17IdentityExtractorIS3_EENS_7PtrHashIS3_EENS_10HashTraitsIS3_EES9_E4findIS3_NS_22IdentityHashTranslatorIS3_S3_S7_EEEENS_17HashTableIteratorIS3_S3_S5_S7_S9_S9_EERKT_
__ZNK7WebCore20HTMLTablePartElement10mapToEntryERKNS_13QualifiedNameERNS_20MappedAttributeEntryE
__ZN7WebCore20HTMLTablePartElement20parseMappedAttributeEPNS_9AttributeE
__ZNK7WebCore20HTMLTableCellElement10mapToEntryERKNS_13QualifiedNameERNS_20MappedAttributeEntryE
__ZN7WebCore20HTMLTableCellElement20parseMappedAttributeEPNS_9AttributeE
__ZNK7WebCore18AccessibilityTable9roleValueEv
__ZN7WebCore22jsHTMLElementInnerTextEPN3JSC9ExecStateENS0_7JSValueERKNS0_10IdentifierE
__ZN7WebCore8Document25nodeChildrenWillBeRemovedEPNS_13ContainerNodeE
__ZN7WebCore9InlineBox6removeEv
__ZN7WebCore13InlineFlowBox11removeChildEPNS_9InlineBoxE
__ZN7WebCore13RootInlineBox12childRemovedEPNS_9InlineBoxE
__ZN7WebCore10RenderText29clippedOverflowRectForRepaintEPNS_20RenderBoxModelObjectE
__ZThn8_N7WebCore4TextD0Ev
__ZThn8_N7WebCore13HTMLBRElementD0Ev
-[AccessibilityObjectWrapper accessibilityAttributeValue:forParameter:]
__ZN7WebCore21AccessibilityARIAGrid19cellForColumnAndRowEjj
__ZNK7WebCore21AccessibilityTableRow9roleValueEv
__ZNK7WebCore22AccessibilityTableCell22accessibilityIsIgnoredEv
__ZNK7WebCore22AccessibilityTableCell9roleValueEv
__ZNK7WebCore22AccessibilityTableCell11isTableCellEv
__ZNK7WebCore25AccessibilityARIAGridCell11parentTableEv
__ZN7WebCore25AccessibilityARIAGridCell16columnIndexRangeERSt4pairIiiE
__ZN7WebCore25AccessibilityARIAGridCell13rowIndexRangeERSt4pairIiiE
__ZN7WebCore18AccessibilityTable13columnHeadersERN3WTF6VectorINS1_6RefPtrINS_19AccessibilityObjectEEELm0EEE
__ZN7WebCore24AccessibilityTableColumn12headerObjectEv
__ZNK7WebCore21AccessibilityARIAGrid11isAriaTableEv
__ZN7WebCore24AccessibilityTableColumn8childrenEv
__ZN7WebCore24AccessibilityTableColumn11addChildrenEv
__ZNK7WebCore25AccessibilityRenderObject11stringValueEv
__ZNK7WebCore12RenderObject14isRenderButtonEv
__ZNK7WebCore13HTMLBRElement23canContainRangeEndPointEv
__ZNK7WebCore15RenderTableCell19offsetFromContainerEPNS_12RenderObjectERKNS_8IntPointE
__ZN7WebCore18AccessibilityTable10rowHeadersERN3WTF6VectorINS1_6RefPtrINS_19AccessibilityObjectEEELm0EEE
__ZN7WebCore24AccessibilityARIAGridRow12headerObjectEv
__ZN7WebCore18AccessibilityTable7columnsEv
__ZNK7WebCore19AccessibilityObject12isAttachmentEv
__ZNK7WebCore19AccessibilityObject17documentFrameViewEv
__ZNK7WebCore24AccessibilityTableColumn12parentObjectEv
__ZNK7WebCore19AccessibilityObject15isPasswordFieldEv
__ZNK7WebCore19AccessibilityObject9isWebAreaEv
__ZNK7WebCore24AccessibilityTableColumn9roleValueEv
__ZNK7WebCore19AccessibilityObject8isAnchorEv
__ZNK7WebCore19AccessibilityObject7isImageEv
__ZNK7WebCore19AccessibilityObject6isLinkEv
__ZNK7WebCore24AccessibilityTableColumn13isTableColumnEv
__ZNK7WebCore19AccessibilityObject16supportsARIAOwnsEv
__ZNK7WebCore19AccessibilityObject4nodeEv
__ZNK7WebCore19AccessibilityObject20supportsARIADraggingEv
__ZNK7WebCore19AccessibilityObject20supportsARIADroppingEv
__ZNK7WebCore19AccessibilityObject12ariaHasPopupEv
__ZNK7WebCore19AccessibilityObject8helpTextEv
__ZNK7WebCore19AccessibilityObject5titleEv
__ZNK7WebCore24AccessibilityTableColumn4sizeEv
__ZNK7WebCore24AccessibilityTableColumn11elementRectEv
__ZNK7WebCore19AccessibilityObject24accessibilityDescriptionEv
__ZNK7WebCore19AccessibilityObject19isProgressIndicatorEv
__ZNK7WebCore19AccessibilityObject8isSliderEv
__ZNK7WebCore19AccessibilityObject9isHeadingEv
__ZNK7WebCore19AccessibilityObject11stringValueEv
__ZNK7WebCore19AccessibilityObject9isFocusedEv
__ZNK7WebCore19AccessibilityObject9isEnabledEv
__ZNK7WebCore19AccessibilityObject9selectionEv
__ZNK7WebCore19AccessibilityObject9isVisitedEv
__ZNK7WebCore19AccessibilityObject16linkedUIElementsERN3WTF6VectorINS1_6RefPtrIS0_EELm0EEE
__ZNK7WebCore19AccessibilityObject10isSelectedEv
__ZN7WebCore18AccessibilityTable4rowsEv
__ZNK7WebCore24AccessibilityARIAGridRow17isARIATreeGridRowEv
__ZN7WebCore9RenderBox17addFocusRingRectsERN3WTF6VectorINS_7IntRectELm0EEEii
__ZN7WebCore18AccessibilityTable15headerContainerEv
__ZNK7WebCore33AccessibilityTableHeaderContainer12parentObjectEv
__ZNK7WebCore33AccessibilityTableHeaderContainer9roleValueEv
__ZNK7WebCore19AccessibilityObject12isInputImageEv
__ZNK7WebCore19AccessibilityObject9isControlEv
__ZNK7WebCore19AccessibilityObject7isGroupEv
__ZNK7WebCore19AccessibilityObject6isMenuEv
__ZNK7WebCore19AccessibilityObject9isMenuBarEv
__ZNK7WebCore19AccessibilityObject12isMenuButtonEv
__ZNK7WebCore19AccessibilityObject10isMenuItemEv
__ZN7WebCore33AccessibilityTableHeaderContainer8childrenEv
__ZN7WebCore33AccessibilityTableHeaderContainer11addChildrenEv
__ZNK7WebCore33AccessibilityTableHeaderContainer4sizeEv
__ZNK7WebCore33AccessibilityTableHeaderContainer11elementRectEv
__ZN3WTF7HashMapIjNS_6RefPtrIN7WebCore19AccessibilityObjectEEENS_7IntHashIjEENS_10HashTraitsIjEENS7_IS4_EEE4takeERKj
__ZN7WebCore25AccessibilityARIAGridCellD0Ev
__ZNK7WebCore25AccessibilityRenderObject4textEv
__ZNK7WebCore25AccessibilityRenderObject10clickPointEv
-[AccessibilityObjectWrapper accessibilityHitTest:]
__ZNK7WebCore25AccessibilityRenderObject20accessibilityHitTestERKNS_8IntPointE
__ZN7WebCoreL14mapConstructorERKNS_13QualifiedNameEPNS_8DocumentEPNS_15HTMLFormElementEb
__ZN7WebCore14HTMLMapElement6createERKNS_13QualifiedNameEPNS_8DocumentE
__ZN7WebCore14HTMLMapElement20parseMappedAttributeEPNS_9AttributeE
__ZN7WebCore14HTMLMapElement20insertedIntoDocumentEv
__ZN7WebCore9TreeScope11addImageMapEPNS_14HTMLMapElementE
__ZN7WebCoreL15areaConstructorERKNS_13QualifiedNameEPNS_8DocumentEPNS_15HTMLFormElementEb
__ZN7WebCore15HTMLAreaElement6createERKNS_13QualifiedNameEPNS_8DocumentE
__ZN7WebCore17HTMLAnchorElementC2ERKNS_13QualifiedNameEPNS_8DocumentE
__ZN7WebCore15HTMLAreaElement20parseMappedAttributeEPNS_9AttributeE
__ZN7WebCore14newCoordsArrayERKN3WTF6StringERi
__ZN7WebCoreL11parseLengthEPKtj
__ZNK7WebCore11RenderImage13isRenderImageEv
__ZNK7WebCore11RenderImage8imageMapEv
__ZNK7WebCore9TreeScope11getImageMapERKN3WTF6StringE
__ZNK7WebCore18DocumentOrderedMap29getElementByLowercasedMapNameEPN3WTF16AtomicStringImplEPKNS_9TreeScopeE
__ZNK7WebCore18DocumentOrderedMap3getIXadL_ZNS_27keyMatchesLowercasedMapNameEPN3WTF16AtomicStringImplEPNS_7ElementEEEEES6_S4_PKNS_9TreeScopeE
__ZNK7WebCore25AccessibilityImageMapLink12parentObjectEv
__ZNK7WebCore25AccessibilityImageMapLink9roleValueEv
__ZNK7WebCore25AccessibilityImageMapLink4nodeEv
__ZN3WTF9HashTableIPN7WebCore20CachedResourceClientESt4pairIS3_jENS_18PairFirstExtractorIS5_EENS_7PtrHashIS3_EENS_14PairHashTraitsINS_10HashTraitsIS3_EENSB_IjEEEESC_E16lookupForWritingERKS3_
__ZN3WTF9HashTableIPN7WebCore20CachedResourceClientESt4pairIS3_jENS_18PairFirstExtractorIS5_EENS_7PtrHashIS3_EENS_14PairHashTraitsINS_10HashTraitsIS3_EENSB_IjEEEESC_E3addIS3_jNS_17HashMapTranslatorIS5_SE_S9_EEEES4_INS_17HashTableIteratorIS3_S5_S7_S9_SE_SC_EEbERKT_RKT0_
__ZN3WTF9HashTableIPN7WebCore20CachedResourceClientESt4pairIS3_jENS_18PairFirstExtractorIS5_EENS_7PtrHashIS3_EENS_14PairHashTraitsINS_10HashTraitsIS3_EENSB_IjEEEESC_E4findIS3_NS_22IdentityHashTranslatorIS3_S5_S9_EEEENS_17HashTableIteratorIS3_S5_S7_S9_SE_SC_EERKT_
__ZN3WTF9HashTableIPN7WebCore20CachedResourceClientESt4pairIS3_jENS_18PairFirstExtractorIS5_EENS_7PtrHashIS3_EENS_14PairHashTraitsINS_10HashTraitsIS3_EENSB_IjEEEESC_E6expandEv
__ZN3WTF9HashTableIPN7WebCore20CachedResourceClientESt4pairIS3_jENS_18PairFirstExtractorIS5_EENS_7PtrHashIS3_EENS_14PairHashTraitsINS_10HashTraitsIS3_EENSB_IjEEEESC_E6shrinkEv
__ZNK7WebCore4Page34inLowQualityImageInterpolationModeEv
__ZN7WebCore22ImageQualityController3setEPNS_20RenderBoxModelObjectEPN3WTF7HashMapIPKvNS_7IntSizeENS3_7PtrHashIS6_EENS3_10HashTraitsIS6_EENSA_IS7_EEEES6_RKS7_
__ZN7WebCore11ImageSource20frameDurationAtIndexEm
__ZNK7WebCore11BitmapImage10solidColorEv
__ZN7WebCore5Image18fillWithSolidColorEPNS_15GraphicsContextERKNS_9FloatRectERKNS_5ColorENS_10ColorSpaceENS_17CompositeOperatorE
__ZN7WebCore5TimerINS_22ImageQualityControllerEE5firedEv
__ZN7WebCore22ImageQualityController28highQualityRepaintTimerFiredEPNS_5TimerIS0_EE
__ZN7WebCore25AccessibilityImageMapLinkD0Ev
__ZN7WebCore14HTMLMapElementD0Ev
__ZN7WebCore15HTMLAreaElementD0Ev
__ZN7WebCore16MIMETypeRegistry29isSupportedJavaScriptMIMETypeERKN3WTF6StringE
__ZN7WebCoreL17canvasConstructorERKNS_13QualifiedNameEPNS_8DocumentEPNS_15HTMLFormElementEb
__ZN7WebCore17HTMLCanvasElement6createERKNS_13QualifiedNameEPNS_8DocumentE
__ZN7WebCore17HTMLCanvasElementC2ERKNS_13QualifiedNameEPNS_8DocumentE
__ZN7WebCore6Chrome11scaleFactorEv
__ZN7WebCore17HTMLCanvasElement20parseMappedAttributeEPNS_9AttributeE
__ZN7WebCore17HTMLCanvasElement5resetEv
__ZN7WebCore17HTMLCanvasElement14createRendererEPNS_11RenderArenaEPNS_11RenderStyleE
__ZN7WebCore16RenderHTMLCanvasC1EPNS_17HTMLCanvasElementE
__ZNK7WebCore16RenderHTMLCanvas13requiresLayerEv
__ZNK7WebCore14RenderReplaced21minimumReplacedHeightEv
__ZNK7WebCore14RenderReplaced27computeReplacedLogicalWidthEb
__ZNK7WebCore14RenderReplaced28computeReplacedLogicalHeightEv
__ZNK7WebCore25AccessibilityRenderObject3urlEv
__ZNK7WebCore25AccessibilityRenderObject9accessKeyEv
__ZN7WebCoreL30createHTMLCanvasElementWrapperEPN3JSC9ExecStateEPNS_17JSDOMGlobalObjectEN3WTF10PassRefPtrINS_11HTMLElementEEE
__ZN7WebCore13createWrapperINS_19JSHTMLCanvasElementENS_17HTMLCanvasElementEEEPNS_12JSDOMWrapperEPN3JSC9ExecStateEPNS_17JSDOMGlobalObjectEPT0_
__ZN7WebCore15getDOMStructureINS_19JSHTMLCanvasElementEEEPN3JSC9StructureEPNS2_9ExecStateEPNS_17JSDOMGlobalObjectE
__ZN7WebCore19JSHTMLCanvasElement15createPrototypeEPN3JSC9ExecStateEPNS1_14JSGlobalObjectE
__ZN7WebCore19JSHTMLCanvasElementC1EPN3JSC9StructureEPNS_17JSDOMGlobalObjectEN3WTF10PassRefPtrINS_17HTMLCanvasElementEEE
__ZN7WebCore12cacheWrapperINS_17HTMLCanvasElementEEEvPNS_15DOMWrapperWorldEPT_PNS_12JSDOMWrapperE
__ZN7WebCore19JSHTMLCanvasElement18getOwnPropertySlotEPN3JSC9ExecStateERKNS1_10IdentifierERNS1_12PropertySlotE
__ZN7WebCore28JSHTMLCanvasElementPrototype18getOwnPropertySlotEPN3JSC9ExecStateERKNS1_10IdentifierERNS1_12PropertySlotE
__ZN7WebCore46jsHTMLCanvasElementPrototypeFunctionGetContextEPN3JSC9ExecStateE
__ZN7WebCore19JSHTMLCanvasElement10getContextEPN3JSC9ExecStateE
__ZN7WebCore17HTMLCanvasElement10getContextERKN3WTF6StringEPNS_23CanvasContextAttributesE
__ZN7WebCore24CanvasRenderingContext2DC1EPNS_17HTMLCanvasElementEbb
__ZN7WebCore24CanvasRenderingContext2DC2EPNS_17HTMLCanvasElementEbb
__ZN7WebCore22CanvasRenderingContextC2EPNS_17HTMLCanvasElementE
__ZN3WTF17VectorInitializerILb1ELb0EN7WebCore24CanvasRenderingContext2D5StateEE10initializeEPS3_S5_
__ZN7WebCore11CanvasStyleC1Ej
__ZN7WebCore15AffineTransformC1Ev
__ZNK7WebCore17HTMLCanvasElement14drawingContextEv
__ZNK7WebCore17HTMLCanvasElement17createImageBufferEv
__ZN7WebCore11ImageBufferC1ERKNS_7IntSizeENS_10ColorSpaceENS_13RenderingModeERb
__ZN7WebCore11ImageBufferC2ERKNS_7IntSizeENS_10ColorSpaceENS_13RenderingModeERb
__ZN7WebCore15ImageBufferDataC1ERKNS_7IntSizeE
__ZN7WebCore15GraphicsContext5scaleERKNS_9FloatSizeE
__ZNK7WebCore11ImageBuffer7contextEv
__ZN7WebCore15GraphicsContext26setShadowsIgnoreTransformsEb
__ZN7WebCore15GraphicsContext28setImageInterpolationQualityENS_20InterpolationQualityE
__ZNK7WebCore11ImageBuffer8dataSizeEv
__ZN7WebCore4toJSEPN3JSC9ExecStateEPNS_17JSDOMGlobalObjectEPNS_22CanvasRenderingContextE
__ZNK7WebCore22CanvasRenderingContext4is3dEv
__ZN7WebCore13createWrapperINS_26JSCanvasRenderingContext2DENS_24CanvasRenderingContext2DEEEPNS_12JSDOMWrapperEPN3JSC9ExecStateEPNS_17JSDOMGlobalObjectEPT0_
__ZN7WebCore15getDOMStructureINS_26JSCanvasRenderingContext2DEEEPN3JSC9StructureEPNS2_9ExecStateEPNS_17JSDOMGlobalObjectE
__ZN7WebCore26JSCanvasRenderingContext2D15createPrototypeEPN3JSC9ExecStateEPNS1_14JSGlobalObjectE
__ZN7WebCore33JSCanvasRenderingContextPrototype4selfEPN3JSC9ExecStateEPNS1_14JSGlobalObjectE
__ZN7WebCore15getDOMStructureINS_24JSCanvasRenderingContextEEEPN3JSC9StructureEPNS2_9ExecStateEPNS_17JSDOMGlobalObjectE
__ZN7WebCore24JSCanvasRenderingContext15createPrototypeEPN3JSC9ExecStateEPNS1_14JSGlobalObjectE
__ZN7WebCore26JSCanvasRenderingContext2DC1EPN3JSC9StructureEPNS_17JSDOMGlobalObjectEN3WTF10PassRefPtrINS_24CanvasRenderingContext2DEEE
__ZN7WebCore24JSCanvasRenderingContextC2EPN3JSC9StructureEPNS_17JSDOMGlobalObjectEN3WTF10PassRefPtrINS_22CanvasRenderingContextEEE
__ZN7WebCore12cacheWrapperINS_24CanvasRenderingContext2DEEEvPNS_15DOMWrapperWorldEPT_PNS_12JSDOMWrapperE
__ZN7WebCore26JSCanvasRenderingContext2D3putEPN3JSC9ExecStateERKNS1_10IdentifierENS1_7JSValueERNS1_15PutPropertySlotE
__ZN3JSC9lookupPutIN7WebCore26JSCanvasRenderingContext2DEEEbPNS_9ExecStateERKNS_10IdentifierENS_7JSValueEPKNS_9HashTableEPT_
__ZN7WebCore38setJSCanvasRenderingContext2DLineWidthEPN3JSC9ExecStateEPNS0_8JSObjectENS0_7JSValueE
__ZN7WebCore24CanvasRenderingContext2D12setLineWidthEf
__ZN7WebCore36setJSCanvasRenderingContext2DLineCapEPN3JSC9ExecStateEPNS0_8JSObjectENS0_7JSValueE
__ZN7WebCore24CanvasRenderingContext2D10setLineCapERKN3WTF6StringE
__ZN7WebCore12parseLineCapERKN3WTF6StringERNS_7LineCapE
__ZN7WebCore15GraphicsContext10setLineCapENS_7LineCapE
__ZN7WebCore26JSCanvasRenderingContext2D18getOwnPropertySlotEPN3JSC9ExecStateERKNS1_10IdentifierERNS1_12PropertySlotE
__ZN7WebCore24JSCanvasRenderingContext18getOwnPropertySlotEPN3JSC9ExecStateERKNS1_10IdentifierERNS1_12PropertySlotE
__ZN3JSC18getStaticValueSlotIN7WebCore24JSCanvasRenderingContextENS1_12JSDOMWrapperEEEbPNS_9ExecStateEPKNS_9HashTableEPT_RKNS_10IdentifierERNS_12PropertySlotE
__ZN7WebCore35JSCanvasRenderingContext2DPrototype18getOwnPropertySlotEPN3JSC9ExecStateERKNS1_10IdentifierERNS1_12PropertySlotE
__ZN7WebCore52jsCanvasRenderingContext2DPrototypeFunctionBeginPathEPN3JSC9ExecStateE
__ZN7WebCore24CanvasRenderingContext2D9beginPathEv
__ZN7WebCore4Path5clearEv
__ZN7WebCore53jsCanvasRenderingContext2DPrototypeFunctionStrokeRectEPN3JSC9ExecStateE
__ZN7WebCore26JSCanvasRenderingContext2D10strokeRectEPN3JSC9ExecStateE
__ZN7WebCore24CanvasRenderingContext2D10strokeRectEffff
__ZN7WebCore24CanvasRenderingContext2D10strokeRectEfffff
__ZN7WebCore15GraphicsContext10strokeRectERKNS_9FloatRectEf
__ZN7WebCore24CanvasRenderingContext2D7didDrawERKNS_9FloatRectEj
__ZNK7WebCore15AffineTransform7mapRectERKNS_9FloatRectE
__ZN7WebCore17HTMLCanvasElement7didDrawERKNS_9FloatRectE
__ZN7WebCore7mapRectERKNS_9FloatRectES2_S2_
__ZN7WebCore9FloatRect9intersectERKS0_
__ZNK7WebCore9FloatRect8containsERKS0_
__ZN7WebCore9FloatRect5uniteERKS0_
__ZN7WebCore40setJSCanvasRenderingContext2DStrokeStyleEPN3JSC9ExecStateEPNS0_8JSObjectENS0_7JSValueE
__ZN7WebCore26JSCanvasRenderingContext2D14setStrokeStyleEPN3JSC9ExecStateENS1_7JSValueE
__ZN7WebCore24CanvasRenderingContext2D14setStrokeColorERKN3WTF6StringE
__ZN7WebCore11CanvasStyle16createFromStringERKN3WTF6StringEPNS_8DocumentE
__ZN7WebCore9CSSParser10parseColorERjRKN3WTF6StringEb
__ZN7WebCore24CanvasRenderingContext2D14setStrokeStyleEN3WTF10PassRefPtrINS_11CanvasStyleEEE
__ZNK7WebCore11CanvasStyle17isEquivalentColorERKS0_
__ZN7WebCore22CanvasRenderingContext11checkOriginEPKNS_13CanvasPatternE
__ZN7WebCore11CanvasStyleD1Ev
__ZN7WebCore11CanvasStyle16applyStrokeColorEPNS_15GraphicsContextE
__ZN7WebCore49jsCanvasRenderingContext2DPrototypeFunctionMoveToEPN3JSC9ExecStateE
__ZN7WebCore24CanvasRenderingContext2D6moveToEff
__ZN7WebCore49jsCanvasRenderingContext2DPrototypeFunctionLineToEPN3JSC9ExecStateE
__ZN7WebCore24CanvasRenderingContext2D6lineToEff
__ZNK7WebCore4Path15hasCurrentPointEv
__ZNK7WebCore4Path12currentPointEv
__ZN7WebCore49jsCanvasRenderingContext2DPrototypeFunctionStrokeEPN3JSC9ExecStateE
__ZN7WebCore24CanvasRenderingContext2D6strokeEv
__ZNK7WebCore4Path7isEmptyEv
__ZNK7WebCore4Path18strokeBoundingRectEPNS_18StrokeStyleApplierE
__ZN7WebCoreL15putBytesNowhereEPvPKvm
__ZN7WebCore24CanvasStrokeStyleApplier11strokeStyleEPNS_15GraphicsContextE
__ZN7WebCore15GraphicsContext11setLineJoinENS_8LineJoinE
__ZN7WebCore15GraphicsContext13setMiterLimitEf
__ZN7WebCore15GraphicsContext10strokePathERKNS_4PathE
__ZNK7WebCore24CanvasRenderingContext2D13isAcceleratedEv
__ZNK7WebCore17HTMLCanvasElement6bufferEv
__ZNK7WebCore16RenderHTMLCanvas8isCanvasEv
__ZN7WebCore21RenderLayerCompositor23ensureRootPlatformLayerEv
__ZNK7WebCore21RenderLayerCompositor42shouldPropagateCompositingToEnclosingFrameEv
__ZNK7WebCore21RenderLayerCompositor21enclosingFrameElementEv
__ZN7WebCore13GraphicsLayer6createEPNS_19GraphicsLayerClientE
__ZN7WebCore15GraphicsLayerCAC2EPNS_19GraphicsLayerClientE
__ZN7WebCore13GraphicsLayerC2EPNS_19GraphicsLayerClientE
__ZN7WebCore15PlatformCALayer6createENS0_9LayerTypeEPNS_21PlatformCALayerClientE
__ZN7WebCore15PlatformCALayerC2ENS0_9LayerTypeEP7CALayerPNS_21PlatformCALayerClientE
-[WebLayer actionForKey:]
__ZN7WebCore13GraphicsLayer21updateDebugIndicatorsEv
__ZN7WebCore15GraphicsLayerCA7setSizeERKNS_9FloatSizeE
__ZN7WebCore15GraphicsLayerCA11setPositionERKNS_10FloatPointE
__ZN7WebCore15GraphicsLayerCA16setMasksToBoundsEb
__ZN7WebCore21RenderLayerCompositor23attachRootPlatformLayerENS0_19RootLayerAttachmentE
__ZNK7WebCore15GraphicsLayerCA13platformLayerEv
__ZNK7WebCore15PlatformCALayer13platformLayerEv
__ZN7WebCore21RenderLayerCompositor32notifyIFramesOfCompositingChangeEv
__ZNK7WebCore11RenderLayer25enclosingCompositingLayerEb
__ZN7WebCore11RenderLayer41repaintIncludingNonCompositingDescendantsEPNS_20RenderBoxModelObjectE
__ZN7WebCore9FrameView37setNeedsOneShotDrawingSynchronizationEv
__ZN7WebCore11RenderLayer13ensureBackingEv
__ZN7WebCore18RenderLayerBackingC1EPNS_11RenderLayerE
__ZN7WebCore18RenderLayerBacking19createGraphicsLayerEv
__ZNK7WebCore18RenderLayerBacking16showDebugBordersEv
__ZNK7WebCore11RenderLayer10compositorEv
__ZN7WebCore15GraphicsLayerCA16setContentsScaleEf
__ZN7WebCore15GraphicsLayerCA10setOpacityEf
__ZN7WebCore18RenderLayerBacking20updateLayerTransformEPKNS_11RenderStyleE
__ZN7WebCore15GraphicsLayerCA12setTransformERKNS_20TransformationMatrixE
__ZNK7WebCore20TransformationMatrixeqERKS0_
__ZN7WebCore15GraphicsLayerCA21setAcceleratesDrawingEb
__ZN7WebCore18RenderLayerBacking18notifySyncRequiredEPKNS_13GraphicsLayerE
__ZN7WebCore21RenderLayerCompositor18scheduleLayerFlushEv
__ZN7WebCore18RenderLayerBacking32updateGraphicsLayerConfigurationEv
__ZNK7WebCore21RenderLayerCompositor29needsContentsCompositingLayerEPKNS_11RenderLayerE
__ZN7WebCore18RenderLayerBacking21updateForegroundLayerEb
__ZNK7WebCore21RenderLayerCompositor27clipsCompositingDescendantsEPKNS_11RenderLayerE
__ZNK7WebCore21RenderLayerCompositor17clippedByAncestorEPNS_11RenderLayerE
__ZN7WebCore18RenderLayerBacking20updateClippingLayersEbb
__ZN7WebCore18RenderLayerBacking28updateOverflowControlsLayersEbbb
__ZN7WebCore18RenderLayerBacking15updateMaskLayerEb
__ZN7WebCore15GraphicsLayerCA20setReplicatedByLayerEPNS_13GraphicsLayerE
__ZNK7WebCore18RenderLayerBacking25isDirectlyCompositedImageEv
__ZNK7WebCore22CanvasRenderingContext13platformLayerEv
__ZN7WebCore15GraphicsLayerCA19setContentsToCanvasEP7CALayer
__ZN7WebCore15GraphicsLayerCA20noteSublayersChangedEv
__ZN7WebCore18RenderLayerBacking22setContentsNeedDisplayEv
__ZN7WebCore9InlineBox26clearKnownToHaveNoOverflowEv
__ZN7WebCore13InlineFlowBox26addBoxShadowVisualOverflowERNS_7IntRectE
__ZN7WebCore13InlineFlowBox24addReplacedChildOverflowEPKNS_9InlineBoxERNS_7IntRectES5_
__ZNK7WebCore9RenderBox39logicalLayoutOverflowRectForPropagationEPNS_11RenderStyleE
__ZN7WebCore11RenderLayer28setBackingNeedsRepaintInRectERKNS_7IntRectE
__ZNK7WebCore18RenderLayerBacking20paintingGoesToWindowEv
__ZN7WebCore18RenderLayerBacking28setContentsNeedDisplayInRectERKNS_7IntRectE
__ZNK7WebCore11RenderStyle25getShadowHorizontalExtentEPKNS_10ShadowDataERiS4_
__ZN7WebCore18RenderLayerBacking17updateAfterLayoutENS0_11UpdateDepthEb
__ZN7WebCore21RenderLayerCompositor30computeCompositingRequirementsEPNS_11RenderLayerEPN3WTF7HashMapIS2_NS_7IntRectENS3_7PtrHashIS2_EENS3_10HashTraitsIS2_EENS8_IS5_EEEERNS_16CompositingStateERb
__ZN7WebCore21RenderLayerCompositor15addToOverlapMapERN3WTF7HashMapIPNS_11RenderLayerENS_7IntRectENS1_7PtrHashIS4_EENS1_10HashTraitsIS4_EENS8_IS5_EEEES4_RS5_Rb
__ZNK7WebCore11RenderLayer15reflectionLayerEv
__ZN7WebCore21RenderLayerCompositor27rebuildCompositingLayerTreeEPNS_11RenderLayerERKNS_16CompositingStateERN3WTF6VectorIPNS_13GraphicsLayerELm0EEE
__ZN7WebCore18RenderLayerBacking22updateCompositedBoundsEv
__ZN7WebCore21RenderLayerCompositor25calculateCompositedBoundsEPKNS_11RenderLayerES3_
__ZNK7WebCore11RenderLayer19paintsWithTransformEj
__ZN7WebCore18RenderLayerBacking27updateGraphicsLayerGeometryEv
__ZNK7WebCore19AnimationController39isRunningAcceleratedAnimationOnRendererEPNS_12RenderObjectENS_13CSSPropertyIDEb
__ZNK7WebCore26AnimationControllerPrivate39isRunningAcceleratedAnimationOnRendererEPNS_12RenderObjectENS_13CSSPropertyIDEb
__ZN7WebCore15GraphicsLayerCA14setPreserves3DEb
__ZN7WebCore15GraphicsLayerCA21setBackfaceVisibilityEb
__ZN7WebCore15GraphicsLayerCA15setNeedsDisplayEv
__ZN7WebCore15GraphicsLayerCA21setNeedsDisplayInRectERKNS_9FloatRectE
__ZN7WebCore15GraphicsLayerCA14setAnchorPointERKNS_12FloatPoint3DE
__ZNK7WebCore18RenderLayerBacking11contentsBoxEv
__ZN7WebCore15GraphicsLayerCA15setContentsRectERKNS_7IntRectE
__ZNK7WebCore18RenderLayerBacking22containsPaintedContentEv
__ZNK7WebCore18RenderLayerBacking33isSimpleContainerCompositingLayerEv
__ZN7WebCoreL24hasBorderOutlineOrShadowEPKNS_11RenderStyleE
__ZNK7WebCore11RenderLayer19hasOverflowControlsEv
__ZNK7WebCore18RenderLayerBacking28hasNonCompositingDescendantsEv
__ZN7WebCore15GraphicsLayerCA15setDrawsContentEb
__ZN7WebCore18RenderLayerBacking23updateAfterWidgetResizeEv
__ZN7WebCore21RenderLayerCompositor23updateRootLayerPositionEv
__ZN7WebCore15GraphicsLayerCA11setChildrenERKN3WTF6VectorIPNS_13GraphicsLayerELm0EEE
__ZN7WebCore13GraphicsLayer11setChildrenERKN3WTF6VectorIPS0_Lm0EEE
__ZN3WTF6VectorIPN7WebCore13GraphicsLayerELm0EE14expandCapacityEm
__ZN7WebCore15GraphicsLayerCA8addChildEPNS_13GraphicsLayerE
__ZN7WebCore13GraphicsLayer8addChildEPS0_
__ZN7WebCore15GraphicsLayerCA20syncCompositingStateEv
__ZN7WebCore15GraphicsLayerCA22recursiveCommitChangesEv
__ZN7WebCore15GraphicsLayerCA33commitLayerChangesBeforeSublayersEv
__ZN7WebCore15GraphicsLayerCA18updateSublayerListEv
__ZN3WTF6VectorINS_6RefPtrIN7WebCore15PlatformCALayerEEELm0EE14expandCapacityEm
__ZN7WebCore15PlatformCALayer20removeFromSuperlayerEv
__ZN7WebCore15PlatformCALayer12setSublayersERKN3WTF6VectorINS1_6RefPtrIS0_EELm0EEE
__ZN7WebCore15GraphicsLayerCA15updateLayerSizeEv
__ZN7WebCore15PlatformCALayer9setBoundsERKNS_9FloatRectE
__ZN7WebCore15GraphicsLayerCA19updateLayerPositionEv
__ZN7WebCore15PlatformCALayer11setPositionERKNS_12FloatPoint3DE
__ZN7WebCore15GraphicsLayerCA19updateMasksToBoundsEv
__ZN7WebCore15PlatformCALayer16setMasksToBoundsEb
__ZN7WebCore15GraphicsLayerCA18updateContentsRectEv
__ZN7WebCore15PlatformCALayer18removeAllSublayersEv
__ZN7WebCore15GraphicsLayerCA23updateLayerDrawsContentEv
__ZN7WebCore15PlatformCALayer15setNeedsDisplayEPKNS_9FloatRectE
-[WebLayer setNeedsDisplay]
__ZN7WebCore15PlatformCALayer15platformCALayerEPv
__ZThn440_NK7WebCore15GraphicsLayerCA27platformCALayerDrawsContentEv
-[WebLayer setNeedsDisplayInRect:]
__Z26setLayerNeedsDisplayInRectP7CALayerPN7WebCore21PlatformCALayerClientE6CGRect
__ZThn440_NK7WebCore15GraphicsLayerCA34platformCALayerContentsOrientationEv
__ZN7WebCore15PlatformCALayer21setAcceleratesDrawingEb
-[WebLayer display]
-[WebLayer drawInContext:]
__Z17drawLayerContentsP9CGContextP7CALayerPN7WebCore15PlatformCALayerE
__ZN7WebCore15GraphicsContext19setIsCALayerContextEb
__ZNK7WebCore15PlatformCALayer18acceleratesDrawingEv
__ZN7WebCore15GraphicsContext23setIsAcceleratedContextEb
__ZThn440_NK7WebCore15GraphicsLayerCA29platformCALayerContentsOpaqueEv
__ZN7WebCore15GraphicsContext20setShouldSmoothFontsEb
__ZN7WebCore15GraphicsContext28setPlatformShouldSmoothFontsEb
__ZThn440_N7WebCore15GraphicsLayerCA28platformCALayerPaintContentsERNS_15GraphicsContextERKNS_7IntRectE
__ZN7WebCore13GraphicsLayer26paintGraphicsLayerContentsERNS_15GraphicsContextERKNS_7IntRectE
__ZN7WebCore18RenderLayerBacking13paintContentsEPKNS_13GraphicsLayerERNS_15GraphicsContextENS_26GraphicsLayerPaintingPhaseERKNS_7IntRectE
__ZN7WebCore18RenderLayerBacking14paintIntoLayerEPNS_11RenderLayerEPNS_15GraphicsContextERKNS_7IntRectEjNS_26GraphicsLayerPaintingPhaseEPNS_12RenderObjectE
__ZN7WebCore11RenderLayer24updateLayerListsIfNeededEv
__ZNK7WebCore12RenderObject14isDescendantOfEPKS0_
__ZN7WebCore11RenderLayer9paintListEPN3WTF6VectorIPS0_Lm0EEES3_PNS_15GraphicsContextERKNS_7IntRectEjPNS_12RenderObjectEPNS1_7HashMapIPNS_24OverlapTestRequestClientES8_NS1_7PtrHashISF_EENS1_10HashTraitsISF_EENSI_IS8_EEEEj
__ZN7WebCore16RenderHTMLCanvas13paintReplacedERNS_9PaintInfoEii
__ZN7WebCore17HTMLCanvasElement5paintEPNS_15GraphicsContextERKNS_7IntRectE
__ZNK7WebCore24CanvasRenderingContext2D22paintsIntoCanvasBufferEv
__ZN7WebCore24CanvasRenderingContext2D29paintRenderingResultsToCanvasEv
__ZNK7WebCore11ImageBuffer14drawsUsingCopyEv
__ZN7WebCore15GraphicsContext15drawImageBufferEPNS_11ImageBufferENS_10ColorSpaceERKNS_7IntRectENS_17CompositeOperatorEb
__ZN7WebCore15GraphicsContext15drawImageBufferEPNS_11ImageBufferENS_10ColorSpaceERKNS_9FloatRectES6_NS_17CompositeOperatorEb
__ZN7WebCore11ImageBuffer4drawEPNS_15GraphicsContextENS_10ColorSpaceERKNS_9FloatRectES6_NS_17CompositeOperatorEb
__ZNK7WebCore11ImageBuffer9copyImageEv
__ZN7WebCore11BitmapImageC1EP7CGImagePNS_13ImageObserverE
__ZN7WebCore11BitmapImageC2EP7CGImagePNS_13ImageObserverE
__ZThn440_NK7WebCore15GraphicsLayerCA33platformCALayerShowRepaintCounterEv
__ZNK7WebCore18RenderLayerBacking18showRepaintCounterEv
__ZThn440_N7WebCore15GraphicsLayerCA30platformCALayerLayerDidDisplayEP7CALayer
__ZN7WebCore15GraphicsLayerCA15layerDidDisplayEP7CALayer
__ZN7WebCore29JSCanvasRenderingContextOwner26isReachableFromOpaqueRootsEN3JSC6HandleINS1_7UnknownEEEPvRNS1_9MarkStackE
__ZN7WebCore29JSCanvasRenderingContextOwner8finalizeEN3JSC6HandleINS1_7UnknownEEEPv
__ZN7WebCore19JSHTMLCanvasElementD1Ev
__ZN7WebCore26JSCanvasRenderingContext2DD1Ev
__ZN7WebCore9FrameView38syncCompositingStateIncludingSubframesEv
__ZN7WebCore21RenderLayerCompositor23detachRootPlatformLayerEv
__ZN7WebCore18RenderLayerBacking18updateDrawsContentEv
__ZN7WebCore18RenderLayerBackingD0Ev
__ZN7WebCore18RenderLayerBacking20destroyGraphicsLayerEv
__ZN7WebCore15GraphicsLayerCA16removeFromParentEv
__ZN7WebCore13GraphicsLayer16removeFromParentEv
__ZN7WebCore15GraphicsLayerCAD0Ev
__ZN7WebCore15PlatformCALayer8setOwnerEPNS_21PlatformCALayerClientE
__ZN7WebCore15GraphicsLayerCA17removeCloneLayersEv
__ZN7WebCore15PlatformCALayerD1Ev
__ZN7WebCore15PlatformCALayerD2Ev
__ZN7WebCore13GraphicsLayerD2Ev
__ZN7WebCore16RenderHTMLCanvasD0Ev
__ZN7WebCore11HTMLElement18setContentEditableEPNS_9AttributeE
__ZN7WebCore13StyledElement14addCSSPropertyEPNS_9AttributeEii
__ZN7WebCore11RenderStyle11setNBSPModeENS_9ENBSPModeE
__ZN7WebCore11RenderStyle17setKHTMLLineBreakENS_15EKHTMLLineBreakE
__ZN7WebCore17HTMLCanvasElementD0Ev
__ZN7WebCore24CanvasRenderingContext2DD0Ev
__ZN7WebCore24CanvasRenderingContext2D5StateD1Ev
__ZN7WebCore24CanvasRenderingContext2D5StateD2Ev
__ZN7WebCore11ImageBufferD1Ev
__ZN7WebCore28JSHTMLCanvasElementPrototypeD1Ev
__ZN7WebCore33JSCanvasRenderingContextPrototypeD1Ev
__ZN7WebCore35JSCanvasRenderingContext2DPrototypeD1Ev
__ZN3WTF9HashTableINS_6RefPtrIN7WebCore11HistoryItemEEES4_NS_17IdentityExtractorIS4_EENS_7PtrHashIS4_EENS_10HashTraitsIS4_EESA_E16lookupForWritingERKS4_
__ZN3WTF9HashTableINS_6RefPtrIN7WebCore11HistoryItemEEES4_NS_17IdentityExtractorIS4_EENS_7PtrHashIS4_EENS_10HashTraitsIS4_EESA_E3addIS4_S4_NS_22IdentityHashTranslatorIS4_S4_S8_EEEESt4pairINS_17HashTableIteratorIS4_S4_S6_S8_SA_SA_EEbERKT_RKT0_
__ZN3WTF9HashTableINS_6RefPtrIN7WebCore11HistoryItemEEES4_NS_17IdentityExtractorIS4_EENS_7PtrHashIS4_EENS_10HashTraitsIS4_EESA_E4findIS4_NS_22IdentityHashTranslatorIS4_S4_S8_EEEENS_17HashTableIteratorIS4_S4_S6_S8_SA_SA_EERKT_
__ZN3WTF9HashTableINS_6RefPtrIN7WebCore11HistoryItemEEES4_NS_17IdentityExtractorIS4_EENS_7PtrHashIS4_EENS_10HashTraitsIS4_EESA_E6rehashEi
__ZN3WTF9HashTableINS_6RefPtrIN7WebCore11HistoryItemEEES4_NS_17IdentityExtractorIS4_EENS_7PtrHashIS4_EENS_10HashTraitsIS4_EESA_E6removeEPS4_
__ZNK7WebCore14RenderThemeMac19adjustMenuListStyleEPNS_16CSSStyleSelectorEPNS_11RenderStyleEPNS_7ElementE
__ZN7WebCore11RenderStyle11resetBorderEv
__ZN7WebCore11RenderStyle16resetBorderImageEv
__Z12compareEqualIN7WebCore14NinePieceImageES1_EbRKT_RKT0_
__ZN7WebCore11RenderStyle12resetPaddingEv
__ZNK7WebCore14RenderThemeMac15setSizeFromFontEPNS_11RenderStyleEPKNS_7IntSizeE
__ZN7WebCore7DataRefINS_12StyleBoxDataEE6accessEv
__ZNK7WebCore14RenderThemeMac22setFontFromControlSizeEPNS_16CSSStyleSelectorEPNS_11RenderStyleEm
__ZN7WebCore14RenderMenuListC1EPNS_7ElementE
__ZN7WebCore14RenderMenuList14styleDidChangeENS_15StyleDifferenceEPKNS_11RenderStyleE
__ZN7WebCore14RenderMenuList18updateOptionsWidthEv
__ZN7WebCore14RenderMenuList17updateFromElementEv
__ZThn160_NK7WebCore17HTMLSelectElement13selectedIndexEv
__ZN7WebCore14RenderMenuList17setTextFromOptionEi
__ZThn160_NK7WebCore17HTMLSelectElement17optionToListIndexEi
__ZN7WebCore14RenderMenuList7setTextERKN3WTF6StringE
__ZN7WebCore14RenderMenuList8addChildEPNS_12RenderObjectES2_
__ZN7WebCore14RenderMenuList16adjustInnerStyleEv
__ZNK7WebCore14RenderThemeMac24popupInternalPaddingLeftEPNS_11RenderStyleE
__ZNK7WebCore14RenderThemeMac25popupInternalPaddingRightEPNS_11RenderStyleE
__ZNK7WebCore14RenderThemeMac23popupInternalPaddingTopEPNS_11RenderStyleE
__ZNK7WebCore14RenderThemeMac26popupInternalPaddingBottomEPNS_11RenderStyleE
__ZN7WebCore6Chrome35selectItemWritingDirectionIsNaturalEv
__ZNK7WebCore14RenderMenuList15canHaveChildrenEv
__ZN7WebCoreL30createHTMLSelectElementWrapperEPN3JSC9ExecStateEPNS_17JSDOMGlobalObjectEN3WTF10PassRefPtrINS_11HTMLElementEEE
__ZN7WebCore13createWrapperINS_19JSHTMLSelectElementENS_17HTMLSelectElementEEEPNS_12JSDOMWrapperEPN3JSC9ExecStateEPNS_17JSDOMGlobalObjectEPT0_
__ZN7WebCore15getDOMStructureINS_19JSHTMLSelectElementEEEPN3JSC9StructureEPNS2_9ExecStateEPNS_17JSDOMGlobalObjectE
__ZN7WebCore19JSHTMLSelectElement15createPrototypeEPN3JSC9ExecStateEPNS1_14JSGlobalObjectE
__ZN7WebCore19JSHTMLSelectElementC1EPN3JSC9StructureEPNS_17JSDOMGlobalObjectEN3WTF10PassRefPtrINS_17HTMLSelectElementEEE
__ZN7WebCore12cacheWrapperINS_17HTMLSelectElementEEEvPNS_15DOMWrapperWorldEPT_PNS_12JSDOMWrapperE
__ZN7WebCore19JSHTMLSelectElement18getOwnPropertySlotEPN3JSC9ExecStateERKNS1_10IdentifierERNS1_12PropertySlotE
__ZN7WebCore28JSHTMLSelectElementPrototype18getOwnPropertySlotEPN3JSC9ExecStateERKNS1_10IdentifierERNS1_12PropertySlotE
__ZN7WebCore14RenderMenuList29computePreferredLogicalWidthsEv
__ZNK7WebCore14RenderThemeMac19minimumMenuListSizeEPNS_11RenderStyleE
__ZNK7WebCore14RenderThemeMac17sizeForSystemFontEPNS_11RenderStyleEPKNS_7IntSizeE
__ZN7WebCore17RenderDeprecatedFlexibleBox16allowedChildFlexEPNS_9RenderBoxEbj
__ZNK7WebCore9RenderBox13overrideWidthEv
__ZNK7WebCore17RenderDeprecatedFlexibleBox17isFlexingChildrenEv
__ZNK7WebCore14RenderMenuList14hasControlClipEv
__ZN7WebCore17HTMLSelectElement18dispatchFocusEventEv
__ZN7WebCore13SelectElement18dispatchFocusEventERNS_17SelectElementDataEPNS_7ElementE
__ZN7WebCore13SelectElement17saveLastSelectionERNS_17SelectElementDataEPNS_7ElementE
__ZN7WebCore17HTMLSelectElement19defaultEventHandlerEPNS_5EventE
__ZN7WebCore13SelectElement19defaultEventHandlerERNS_17SelectElementDataEPNS_7ElementEPNS_5EventEPNS_15HTMLFormElementE
__ZN7WebCore13SelectElement27menuListDefaultEventHandlerERNS_17SelectElementDataEPNS_7ElementEPNS_5EventEPNS_15HTMLFormElementE
__ZN7WebCore14RenderThemeMac23setPopupButtonCellStateEPKNS_12RenderObjectERKNS_7IntRectE
__ZNK7WebCore14RenderThemeMac11popupButtonEv
__ZN7WebCore14RenderThemeMac17updateActiveStateEP6NSCellPKNS_12RenderObjectE
__ZN7WebCore14RenderThemeMac18updateCheckedStateEP6NSCellPKNS_12RenderObjectE
__ZNK7WebCore11RenderTheme15isIndeterminateEPKNS_12RenderObjectE
__ZNK7WebCore11RenderTheme9isCheckedEPKNS_12RenderObjectE
__ZNK7WebCore11RenderTheme9isFocusedEPKNS_12RenderObjectE
__ZNK7WebCore14RenderThemeMac11inflateRectERKNS_7IntRectERKNS_7IntSizeEPKif
__ZNK7WebCore14RenderMenuList10isMenuListEv
__ZN7WebCore21AccessibilityMenuListC1EPNS_14RenderMenuListE
__ZN7WebCore25AccessibilityRenderObjectC2EPNS_12RenderObjectE
__ZNK7WebCore21AccessibilityMenuList22accessibilityIsIgnoredEv
__ZNK7WebCore21AccessibilityMenuList9roleValueEv
__ZNK7WebCore14RenderMenuList4textEv
__ZN7WebCore14RenderThemeMac13paintMenuListEPNS_12RenderObjectERKNS_9PaintInfoERKNS_7IntRectE
__ZNK7WebCore14RenderThemeMac15documentViewForEPNS_12RenderObjectE
__ZN7WebCore8ThemeMac11ensuredViewEPNS_10ScrollViewE
__ZNK7WebCore14RenderMenuList15controlClipRectEii
__ZN7WebCore19JSHTMLSelectElementD1Ev
__ZN7WebCore21AccessibilityMenuListD0Ev
__ZN7WebCore25AccessibilityRenderObjectD2Ev
__ZN7WebCore14RenderMenuList11removeChildEPNS_12RenderObjectE
__ZN7WebCore14RenderMenuListD0Ev
__ZN7WebCore11RenderLayer7hitTestERKNS_14HitTestRequestERNS_13HitTestResultE
__ZN7WebCore11RenderLayer12hitTestLayerEPS0_S1_RKNS_14HitTestRequestERNS_13HitTestResultERKNS_7IntRectERKNS_8IntPointEbPKNS_24HitTestingTransformStateEPd
__ZN7WebCore13HitTestResult12rectForPointERKNS_8IntPointEjjjj
__ZN7WebCore11RenderLayer35update3DTransformedDescendantStatusEv
__ZN7WebCore11RenderLayer11hitTestListEPN3WTF6VectorIPS0_Lm0EEES3_RKNS_14HitTestRequestERNS_13HitTestResultERKNS_7IntRectERKNS_8IntPointEPKNS_24HitTestingTransformStateEPdSK_SJ_b
__ZNK7WebCore11RenderLayer15hitTestContentsERKNS_14HitTestRequestERNS_13HitTestResultERKNS_7IntRectERKNS_8IntPointENS_13HitTestFilterE
__ZN7WebCore12RenderObject7hitTestERKNS_14HitTestRequestERNS_13HitTestResultERKNS_8IntPointEiiNS_13HitTestFilterE
__ZN7WebCore11RenderBlock11nodeAtPointERKNS_14HitTestRequestERNS_13HitTestResultERKNS_8IntPointEiiNS_13HitTestActionE
__ZN7WebCore11RenderBlock15hitTestContentsERKNS_14HitTestRequestERNS_13HitTestResultEiiiiNS_13HitTestActionE
__ZNK7WebCore17RenderLineBoxList7hitTestEPNS_20RenderBoxModelObjectERKNS_14HitTestRequestERNS_13HitTestResultEiiiiNS_13HitTestActionE
__ZN7WebCore13RootInlineBox11nodeAtPointERKNS_14HitTestRequestERNS_13HitTestResultERKNS_8IntPointEiiii
__ZN7WebCore13InlineFlowBox11nodeAtPointERKNS_14HitTestRequestERNS_13HitTestResultERKNS_8IntPointEiiii
__ZN7WebCore9InlineBox11nodeAtPointERKNS_14HitTestRequestERNS_13HitTestResultERKNS_8IntPointEiiii
__ZN7WebCore11RenderImage11nodeAtPointERKNS_14HitTestRequestERNS_13HitTestResultERKNS_8IntPointEiiNS_13HitTestActionE
__ZN7WebCore9RenderBox11nodeAtPointERKNS_14HitTestRequestERNS_13HitTestResultERKNS_8IntPointEiiNS_13HitTestActionE
__ZN7WebCore12RenderObject19updateHitTestResultERNS_13HitTestResultERKNS_8IntPointE
__ZN7WebCore13HitTestResult12setInnerNodeEPNS_4NodeE
__ZN7WebCore13HitTestResult21setInnerNonSharedNodeEPNS_4NodeE
__ZN7WebCore13HitTestResult28addNodeToRectBasedTestResultEPNS_4NodeEiiRKNS_7IntRectE
__ZN7WebCore14HTMLMapElement13mapMouseEventEiiRKNS_7IntSizeERNS_13HitTestResultE
__ZN7WebCore15HTMLAreaElement13mapMouseEventEiiRKNS_7IntSizeERNS_13HitTestResultE
__ZNK7WebCore15HTMLAreaElement9getRegionERKNS_7IntSizeE
__ZN7WebCore4Path7addRectERKNS_9FloatRectE
__ZN7WebCore4PathC1ERKS0_
__ZNK7WebCore4Path8containsERKNS_10FloatPointENS_8WindRuleE
__ZN7WebCore13HitTestResult13setURLElementEPNS_7ElementE
__ZN7WebCore13HitTestResultaSERKS0_
__ZN7WebCore11RenderBlock19updateHitTestResultERNS_13HitTestResultERKNS_8IntPointE
__ZN7WebCoreL14isHitCandidateEPKNS_11RenderLayerEbPdPKNS_24HitTestingTransformStateE
__ZN7WebCore11RenderLayer22updateHoverActiveStateERKNS_14HitTestRequestERNS_13HitTestResultE
__ZNK7WebCore25AccessibilityRenderObject28accessibilityImageMapHitTestEPNS_15HTMLAreaElementERKNS_8IntPointE
__ZNK7WebCore14HTMLMapElement12imageElementEv
__ZN7WebCore8Document6imagesEv
__ZN7WebCore14HTMLCollection6createEN3WTF10PassRefPtrINS_4NodeEEENS_14CollectionTypeE
__ZNK7WebCore14HTMLCollection9firstItemEv
__ZNK7WebCore14HTMLCollection4itemEj
__ZN7WebCore15CollectionCache5resetEv
__ZNK7WebCore14HTMLCollection9itemAfterEPNS_7ElementE
__ZN7WebCore14HTMLCollectionD0Ev
__ZNK7WebCore25AccessibilityImageMapLink11elementRectEv
__ZNK7WebCore15HTMLAreaElement11computeRectEPNS_12RenderObjectE
__ZNK7WebCore15HTMLAreaElement11computePathEPNS_12RenderObjectE
__ZN7WebCore4Path9translateERKNS_9FloatSizeE
__ZNK7WebCore4Path12boundingRectEv
__ZN7WebCore28JSHTMLSelectElementPrototypeD1Ev
__ZN7WebCore11RenderBlock13FloatWithRectC2EPNS_9RenderBoxE
__ZN3WTF6VectorIN7WebCore11RenderBlock13FloatWithRectELm0EE15reserveCapacityEm
__ZN7WebCore11RenderBlock20insertFloatingObjectEPNS_9RenderBoxE
__ZN3WTF10PassOwnPtrIN7WebCore11RenderBlock15FloatingObjectsEED1Ev
__ZN7WebCore11RenderBlock22positionNewFloatOnLineEPNS0_14FloatingObjectES2_RNS_9LineWidthE
__ZNK7WebCore11RenderBlock19marginAfterForChildEPNS_20RenderBoxModelObjectE
__ZN7WebCore13RootInlineBox11appendFloatEPNS_9RenderBoxE
__ZN7WebCore11RenderBlock20addOverhangingFloatsEPS0_iib
__ZNK7WebCore20RenderBoxModelObject23relativePositionOffsetYEv
__ZNK7WebCore20RenderBoxModelObject23relativePositionOffsetXEv
__ZN7WebCore12RenderInline21computeRectForRepaintEPNS_20RenderBoxModelObjectERNS_7IntRectEb
__ZNK7WebCore9RenderBox39logicalVisualOverflowRectForPropagationEPNS_11RenderStyleE
__ZN7WebCore11RenderBlock25rectWithOutlineForRepaintEPNS_20RenderBoxModelObjectEi
__ZN7WebCore12RenderObject25rectWithOutlineForRepaintEPNS_20RenderBoxModelObjectEi
__ZNK7WebCore11RenderBlock23flipFloatForWritingModeEPKNS0_14FloatingObjectERKNS_8IntPointE
__ZN7WebCore16HTMLImageElement19removedFromDocumentEv
__ZN7WebCore12HTMLDocument15removeNamedItemERKN3WTF12AtomicStringE
__ZN7WebCore12HTMLDocument17removeItemFromMapERN3WTF14HashCountedSetIPNS1_16AtomicStringImplENS1_7PtrHashIS4_EENS1_10HashTraitsIS4_EEEERKNS1_12AtomicStringE
__ZN7WebCore12HTMLDocument20removeExtraNamedItemERKN3WTF12AtomicStringE
__ZN7WebCore16HTMLImageElement15removedFromTreeEb
__ZN7WebCore14HTMLMapElement19removedFromDocumentEv
__ZN7WebCore9TreeScope14removeImageMapEPNS_14HTMLMapElementE
__ZN7WebCore9RenderBox45removeFloatingOrPositionedChildFromBlockListsEv
__ZN3WTF9HashTableIPKN7WebCore20RenderBoxModelObjectESt4pairIS4_PS2_ENS_18PairFirstExtractorIS7_EENS_7PtrHashIS4_EENS_14PairHashTraitsINS_10HashTraitsIS4_EENSD_IS6_EEEESE_E16lookupForWritingERKS4_
__ZN3WTF9HashTableIPKN7WebCore20RenderBoxModelObjectESt4pairIS4_PS2_ENS_18PairFirstExtractorIS7_EENS_7PtrHashIS4_EENS_14PairHashTraitsINS_10HashTraitsIS4_EENSD_IS6_EEEESE_E3addIS4_S6_NS_17HashMapTranslatorIS7_SG_SB_EEEES5_INS_17HashTableIteratorIS4_S7_S9_SB_SG_SE_EEbERKT_RKT0_
__ZN3WTF9HashTableIPKN7WebCore20RenderBoxModelObjectESt4pairIS4_PS2_ENS_18PairFirstExtractorIS7_EENS_7PtrHashIS4_EENS_14PairHashTraitsINS_10HashTraitsIS4_EENSD_IS6_EEEESE_E4findIS4_NS_22IdentityHashTranslatorIS4_S7_SB_EEEENS_17HashTableIteratorIS4_S7_S9_SB_SG_SE_EERKT_
__ZN3WTF9HashTableIPKN7WebCore20RenderBoxModelObjectESt4pairIS4_PS2_ENS_18PairFirstExtractorIS7_EENS_7PtrHashIS4_EENS_14PairHashTraitsINS_10HashTraitsIS4_EENSD_IS6_EEEESE_E6lookupERKS4_
__ZN3WTF9HashTableIPKN7WebCore20RenderBoxModelObjectESt4pairIS4_PS2_ENS_18PairFirstExtractorIS7_EENS_7PtrHashIS4_EENS_14PairHashTraitsINS_10HashTraitsIS4_EENSD_IS6_EEEESE_E6rehashEi
__ZN7WebCore6Editor18shouldBeginEditingEPNS_5RangeE
__Z3kitPN7WebCore5RangeE
__ZN7WebCore6Editor15didBeginEditingEv
__ZN7WebCore16VisibleSelectionC1ERKNS_8PositionENS_9EAffinityE
__ZN7WebCore16VisibleSelectionC2ERKNS_8PositionENS_9EAffinityE
__ZNK7WebCore14FrameSelection21shouldChangeSelectionERKNS_16VisibleSelectionE
__ZNK7WebCore6Editor21shouldChangeSelectionERKNS_16VisibleSelectionES3_NS_9EAffinityEb
__ZNK7WebCore4Node16isMouseFocusableEv
__ZN7WebCore25lastPositionInOrAfterNodeEPNS_4NodeE
__ZN7WebCore31SimplifiedBackwardsTextIterator14handleTextNodeEv
__ZN3WTF6VectorItLm1024EE6insertItEEvmPKT_m
__ZN7WebCoreL17startWordBoundaryEPKtjjNS_33BoundarySearchContextAvailabilityERb
__ZN7WebCore30startOfLastWordBoundaryContextEPKti
__ZN7WebCoreL21startSentenceBoundaryEPKtjjNS_33BoundarySearchContextAvailabilityERb
__ZN7WebCore19jsElementOffsetLeftEPN3JSC9ExecStateENS0_7JSValueERKNS0_10IdentifierE
__ZN7WebCore7Element10offsetLeftEv
__ZNK7WebCore4Node20renderBoxModelObjectEv
__ZNK7WebCore20RenderBoxModelObject10offsetLeftEv
__ZN7WebCore18jsElementOffsetTopEPN3JSC9ExecStateENS0_7JSValueERKNS0_10IdentifierE
__ZN7WebCore7Element9offsetTopEv
__ZNK7WebCore20RenderBoxModelObject9offsetTopEv
__ZN3JSC8Bindings13RuntimeObject18getOwnPropertySlotEPNS_9ExecStateERKNS_10IdentifierERNS_12PropertySlotE
__ZN3JSC8Bindings8Instance5beginEv
__ZN3JSC8Bindings12ObjcInstance12virtualBeginEv
__ZNK3JSC8Bindings12ObjcInstance8getClassEv
__ZN3JSC8Bindings9ObjcClass11classForIsAEP10objc_class
__ZN3JSC8Bindings9ObjcClassC2EP10objc_class
__ZNK3JSC8Bindings9ObjcClass10fieldNamedERKNS_10IdentifierEPNS0_8InstanceE
__ZN3WTF10RefCountedINS_13CStringBufferEE5derefEv
__ZNK3JSC8Bindings9ObjcClass12methodsNamedERKNS_10IdentifierEPNS0_8InstanceE
__ZN3JSC8Bindings25convertJSMethodNameToObjcEPKcPcm
__ZN3JSC8Bindings10ObjcMethodC1EP10objc_classP13objc_selector
__ZN3WTF6VectorIPN3JSC8Bindings6MethodELm0EE14expandCapacityEm
__ZN3JSC8Bindings8Instance3endEv
__ZN3JSC8Bindings12ObjcInstance10virtualEndEv
__ZN3JSC8Bindings13RuntimeObject12methodGetterEPNS_9ExecStateENS_7JSValueERKNS_10IdentifierE
__ZN3JSC8Bindings12ObjcInstance9getMethodEPNS_9ExecStateERKNS_10IdentifierE
__ZN17ObjCRuntimeMethodC1EPN3JSC9ExecStateEPNS0_14JSGlobalObjectERKNS0_10IdentifierERN3WTF6VectorIPNS0_8Bindings6MethodELm0EEE
__ZN3JSC13RuntimeMethodC2EPNS_9ExecStateEPNS_14JSGlobalObjectEPNS_9StructureERKNS_10IdentifierERN3WTF6VectorIPNS_8Bindings6MethodELm0EEE
__ZN3JSC13RuntimeMethod11getCallDataERNS_8CallDataE
__ZN3JSCL17callRuntimeMethodEPNS_9ExecStateE
__ZN3JSC8Bindings12ObjcInstance12invokeMethodEPNS_9ExecStateEPNS_13RuntimeMethodE
__ZN3JSC8Bindings12ObjcInstance16invokeObjcMethodEPNS_9ExecStateEPNS0_10ObjcMethodE
__ZNK3JSC8Bindings10ObjcMethod18getMethodSignatureEv
__ZN3JSC8Bindings20objcValueTypeForTypeEPKc
__ZN3JSC8Bindings23convertValueToObjcValueEPNS_9ExecStateENS_7JSValueENS0_13ObjcValueTypeE
__ZN7WebCore12EventHandler10mouseMovedEP7NSEvent
__ZN7WebCore17CurrentEventScopeC1EP7NSEvent
__ZN7WebCoreL18currentNSEventSlotEv
__ZNK7WebCore6Chrome18platformPageClientEv
__ZN7WebCore18PlatformMouseEventC1EP7NSEventP6NSView
__ZN7WebCore18PlatformMouseEventC2EP7NSEventP6NSView
__ZN7WebCore13pointForEventEP7NSEventP6NSView
__ZN7WebCore19globalPointForEventEP7NSEvent
__ZN7WebCore15screenForWindowEP8NSWindow
__ZN7WebCore15flipScreenPointERK7CGPointP8NSScreen
__ZN7WebCore12EventHandler10mouseMovedERKNS_18PlatformMouseEventE
__ZN7WebCore12EventHandler20handleMouseMoveEventERKNS_18PlatformMouseEventEPNS_13HitTestResultE
__ZNK7WebCore10ScrollView16windowToContentsERKNS_8IntPointE
__ZNK7WebCore6Widget27convertFromContainingWindowERKNS_8IntPointE
__ZN7WebCore6Widget33convertFromContainingWindowToRootEPKS0_RKNS_8IntPointE
__ZN7WebCore8Document17prepareMouseEventERKNS_14HitTestRequestERKNS_8IntPointERKNS_18PlatformMouseEventE
__ZN7WebCore13InlineTextBox11nodeAtPointERKNS_14HitTestRequestERNS_13HitTestResultERKNS_8IntPointEiiii
__ZNK7WebCore9FloatRect10intersectsERKS0_
__ZN7WebCore9InlineBox18flipForWritingModeERKNS_8IntPointE
__ZN7WebCore13HitTestResult28addNodeToRectBasedTestResultEPNS_4NodeEiiRKNS_9FloatRectE
__ZN7WebCore4Node30enclosingLinkEventParentOrSelfEv
__ZN7WebCore8Document12setHoverNodeEN3WTF10PassRefPtrINS_4NodeEEE
__ZNK7WebCore12RenderObject13hoverAncestorEv
__ZNK7WebCore11RenderBlock13hoverAncestorEv
__ZN7WebCore13ContainerNode10setHoveredEb
__ZN7WebCore28MouseEventWithHitTestResultsC1ERKNS_18PlatformMouseEventERKNS_13HitTestResultE
__ZN7WebCore13HitTestResultC1ERKS0_
__ZN7WebCore13HitTestResultC2ERKS0_
__ZN7WebCore10ScrollView16scrollbarAtPointERKNS_8IntPointE
__ZNK7WebCore28MouseEventWithHitTestResults9scrollbarEv
__ZN7WebCore12EventHandler24subframeForHitTestResultERKNS_28MouseEventWithHitTestResultsE
__ZN7WebCore12EventHandler12selectCursorERKNS_28MouseEventWithHitTestResultsEPNS_9ScrollbarE
__ZN7WebCore11iBeamCursorEv
__ZNK7WebCore28MouseEventWithHitTestResults10isOverLinkEv
__ZNK7WebCore11RenderLayer22isPointInResizeControlERKNS_8IntPointE
__ZN7WebCore6CursorC1ERKS0_
__ZN7WebCore6Widget9setCursorERKNS_6CursorE
__ZNK7WebCore6Widget4rootEv
__ZNK7WebCore9FrameView10hostWindowEv
__ZN7WebCore6Chrome9setCursorERKNS_6CursorE
__ZN7WebCore12EventHandler18dispatchMouseEventERKN3WTF12AtomicStringEPNS_4NodeEbiRKNS_18PlatformMouseEventEb
__ZN7WebCore9FrameView25resetDeferredRepaintDelayEv
__ZN7WebCore12EventHandler26updateMouseEventTargetNodeEPNS_4NodeERKNS_18PlatformMouseEventEb
__ZNK7WebCore17ScrollAnimatorMac23mouseEnteredContentAreaEv
__ZN7WebCore4Node18dispatchMouseEventERKNS_18PlatformMouseEventERKN3WTF12AtomicStringEiPS0_
__ZN7WebCore10MouseEvent6createERKN3WTF12AtomicStringENS1_10PassRefPtrINS_9DOMWindowEEERKNS_18PlatformMouseEventEiNS5_INS_4NodeEEE
__ZN7WebCore26MouseEventDispatchMediatorC1EN3WTF10PassRefPtrINS_10MouseEventEEE
__ZN7WebCore21EventDispatchMediatorC2EN3WTF10PassRefPtrINS_5EventEEE
__ZNK7WebCore26MouseEventDispatchMediator13dispatchEventEPNS_15EventDispatcherE
__ZNK7WebCore4Node8disabledEv
__ZN7WebCore15EventDispatcher19adjustRelatedTargetEPNS_5EventEN3WTF10PassRefPtrINS_11EventTargetEEE
__ZN7WebCore21EventDispatchMediatorD2Ev
__ZN7WebCore10MouseEventD0Ev
__ZN7WebCore12EventHandler23handleMouseDraggedEventERKNS_28MouseEventWithHitTestResultsE
__ZN7WebCore12EventHandler10handleDragERKNS_28MouseEventWithHitTestResultsE
__ZNK7WebCore4Page22containsScrollableAreaEPNS_14ScrollableAreaE
__ZNK3WTF9HashTableIPN7WebCore14ScrollableAreaES3_NS_17IdentityExtractorIS3_EENS_7PtrHashIS3_EENS_10HashTraitsIS3_EES9_E8containsIS3_NS_22IdentityHashTranslatorIS3_S3_S7_EEEEbRKT_
__ZNK7WebCore17ScrollAnimatorMac23mouseMovedInContentAreaEv
__ZN7WebCore13HitTestResult22setToNonShadowAncestorEv
__ZN7WebCore6Chrome23mouseDidMoveOverElementERKNS_13HitTestResultEj
__ZN7WebCore6Chrome10setToolTipERKNS_13HitTestResultE
__ZNK7WebCore13HitTestResult15spellingToolTipERNS_13TextDirectionE
__ZN7WebCore24DocumentMarkerController21markerContainingPointERKNS_8IntPointENS_14DocumentMarker10MarkerTypeE
__ZNK7WebCore13HitTestResult5titleERNS_13TextDirectionE
__ZN7WebCore17CurrentEventScopeD1Ev
__ZN3JSC8Bindings12ObjcInstance30moveGlobalExceptionToExecStateEPNS_9ExecStateE
__ZN3JSC8Bindings14findRootObjectEPNS_14JSGlobalObjectE
+[WebScriptObject _convertValueToObjcValue:originRootObject:rootObject:]
+[WebUndefined undefined]
+[WebUndefined allocWithZone:]
__ZN7WebCore12EventHandler9mouseDownEP7NSEvent
__ZN7WebCore12EventHandler21handleMousePressEventERKNS_18PlatformMouseEventE
__ZN7WebCore20UserGestureIndicatorC1ENS_26ProcessingUserGestureStateE
__ZN7WebCore8Document13setActiveNodeEN3WTF10PassRefPtrINS_4NodeEEE
__ZN7WebCore12EventHandler21handleMousePressEventERKNS_28MouseEventWithHitTestResultsE
__ZN7WebCore10ScrollView24isPointInScrollbarCornerERKNS_8IntPointE
__ZNK7WebCore10ScrollView22scrollbarCornerPresentEv
__ZN7WebCore12EventHandler23canMouseDownStartSelectEPNS_4NodeE
__ZNK7WebCore4Node17canStartSelectionEv
__ZN7WebCore12EventHandler17focusDocumentViewEv
__ZN7WebCore12EventHandler32handleMousePressEventSingleClickERKNS_28MouseEventWithHitTestResultsE
__ZN7WebCore14FrameSelection8containsERKNS_8IntPointE
__ZNK7WebCore28MouseEventWithHitTestResults10localPointEv
__ZN7WebCore10RenderText16positionForPointERKNS_8IntPointE
__ZNK7WebCore13InlineTextBox17offsetForPositionEfb
__ZNK7WebCore4Font17offsetForPositionERKNS_7TextRunEfb
__ZNK7WebCore4Font30offsetForPositionForSimpleTextERKNS_7TextRunEfb
__ZN7WebCore13WidthIterator19advanceOneCharacterERfPNS_11GlyphBufferE
__ZN7WebCore12RenderObject21createVisiblePositionEiNS_9EAffinityE
__ZN7WebCore16VisibleSelectionC1ERKNS_15VisiblePositionE
__ZN7WebCore16VisibleSelectionC2ERKNS_15VisiblePositionE
__ZN7WebCore20UserGestureIndicatorD1Ev
__ZN7WebCore12EventHandler7mouseUpEP7NSEvent
__ZN7WebCore12EventHandler23handleMouseReleaseEventERKNS_18PlatformMouseEventE
__ZN7WebCore12EventHandler23handleMouseReleaseEventERKNS_28MouseEventWithHitTestResultsE
__ZN7WebCore12EventHandler22eventLoopHandleMouseUpERKNS_28MouseEventWithHitTestResultsE
__ZNK7WebCore12EventHandler18eventActivatedViewERKNS_18PlatformMouseEventE
__ZN7WebCore12EventHandler31selectClosestWordFromMouseEventERKNS_28MouseEventWithHitTestResultsE
__ZN7WebCore16VisibleSelection22expandUsingGranularityENS_15TextGranularityE
__ZN7WebCore15isEndOfDocumentERKNS_15VisiblePositionE
__ZNK7WebCore15VisiblePosition4nextENS_27EditingBoundaryCrossingRuleE
__ZN7WebCore29nextVisuallyDistinctCandidateERKNS_8PositionE
__ZNK7WebCore8Position11atEndOfTreeEv
__ZNK7WebCore8Position4nextENS_16PositionMoveTypeE
__ZN7WebCore11isEndOfLineERKNS_15VisiblePositionE
__ZN7WebCore9endOfLineERKNS_15VisiblePositionE
__ZN7WebCoreL18endPositionForLineERKNS_15VisiblePositionE
__ZNK7WebCore15VisiblePosition30honorEditableBoundaryAtOrAfterERKS0_
__ZN7WebCore6Editor33isSelectTrailingWhitespaceEnabledEv
-[DOMRange dealloc]
__ZN7WebCore12EventHandler27handleMouseDoubleClickEventERKNS_18PlatformMouseEventE
__ZN7WebCore17MouseRelatedEventC2Ev
__ZN7WebCore7UIEventC2Ev
__ZN7WebCore5EventC2Ev
__ZN7WebCore10MouseEvent14initMouseEventERKN3WTF12AtomicStringEbbNS1_10PassRefPtrINS_9DOMWindowEEEiiiiibbbbtNS5_INS_11EventTargetEEE
__ZN7WebCore7UIEvent11initUIEventERKN3WTF12AtomicStringEbbNS1_10PassRefPtrINS_9DOMWindowEEEi
__ZN7WebCore5Event9initEventERKN3WTF12AtomicStringEbb
__ZN7WebCore17MouseRelatedEvent15initCoordinatesEii
__ZNK7WebCore25AccessibilityRenderObject29boundsForVisiblePositionRangeERKNS_20VisiblePositionRangeE
__ZNK7WebCore15VisiblePosition19absoluteCaretBoundsEv
__ZNK7WebCore10ScrollView16contentsToScreenERKNS_7IntRectE
__ZNK7WebCore10ScrollView24platformContentsToScreenERKNS_7IntRectE
__ZNK7WebCore10ScrollView16screenToContentsERKNS_8IntPointE
__ZNK7WebCore10ScrollView24platformScreenToContentsERKNS_8IntPointE
__ZNK7WebCore5Range11compareNodeEPNS_4NodeERi
__ZNK7WebCore5Range12comparePointEPNS_4NodeEiRi
__ZNK7WebCore8Document10renderViewEv
__ZNK7WebCore21TextCheckingParagraph7isEmptyEv
__ZNK7WebCore21TextCheckingParagraph8offsetToERKNS_8PositionERi
__ZN7WebCore5Range19nodeChildrenChangedEPNS_13ContainerNodeE
__ZN7WebCore5Range17nodeWillBeRemovedEPNS_4NodeE
__ZN17ObjCRuntimeMethodD1Ev
__ZN3JSC13RuntimeMethodD2Ev
__ZN7WebCore8Document19hoveredNodeDetachedEPNS_4NodeE
__ZN7WebCore11RenderStyle15setTextOverflowEb
__ZNK7WebCore20ApplyPropertyDefaultINS_9EOverflowEE10applyValueEPNS_16CSSStyleSelectorEPNS_8CSSValueE
__ZN7WebCore11RenderStyle12setOverflowXENS_9EOverflowE
__ZN7WebCore11RenderStyle12setOverflowYENS_9EOverflowE
__ZN7WebCore11RenderBlock25checkLinesForTextOverflowEv
__ZN7WebCore13RootInlineBox26lineCanAccommodateEllipsisEbiii
__ZN7WebCore13InlineFlowBox22canAccommodateEllipsisEbii
__ZN7WebCore9InlineBox22canAccommodateEllipsisEbii
__ZN7WebCore13RootInlineBox13placeEllipsisERKN3WTF12AtomicStringEbfffPNS_9InlineBoxE
__ZN7WebCore13RootInlineBox16placeEllipsisBoxEbfffRb
__ZN7WebCore13InlineFlowBox16placeEllipsisBoxEbfffRb
__ZN7WebCore13InlineTextBox16placeEllipsisBoxEbfffRb
__ZN7WebCore13RootInlineBox15clearTruncationEv
__ZN7WebCore11EllipsisBoxD0Ev
__ZN7WebCore13InlineFlowBox15clearTruncationEv
__ZN7WebCore13InlineTextBox15clearTruncationEv
__ZN7WebCore10RenderText13absoluteQuadsERN3WTF6VectorINS_9FloatQuadELm0EEENS0_14ClippingOptionE
__ZNK7WebCore13InlineTextBox19calculateBoundariesEv
__ZNK7WebCore13RootInlineBox11ellipsisBoxEv
__ZN7WebCore11EllipsisBox13selectionRectEii
__ZN7WebCore13HTMLTokenizer13processEntityERNS_15SegmentedStringE
__ZN7WebCore17consumeHTMLEntityERNS_15SegmentedStringERN3WTF6VectorItLm16EEERbt
__ZN7WebCore16HTMLEntitySearchC1Ev
__ZN7WebCore15HTMLEntityTable10firstEntryEv
__ZN7WebCore15HTMLEntityTable9lastEntryEv
__ZN7WebCore16HTMLEntitySearch7advanceEt
__ZN7WebCore15HTMLEntityTable22firstEntryStartingWithEt
__ZN7WebCore15HTMLEntityTable21lastEntryStartingWithEt
__ZN7WebCore12_GLOBAL__N_114convertToUTF16EiRN3WTF6VectorItLm16EEE
__ZN7WebCore11EllipsisBox5paintERNS_9PaintInfoEiiii
__ZN7WebCore11EllipsisBox14selectionStateEv
__ZN7WebCore4Node23compareDocumentPositionEPS0_
__ZN3WTF11ListHashSetIPN7WebCore4NodeELm32ENS_7PtrHashIS3_EEE12insertBeforeENS_19ListHashSetIteratorIS3_Lm32ES5_EERKS3_
__ZN7WebCore11RenderStyle17setHasPseudoStyleENS_8PseudoIdE
__ZN7WebCore14jsDocumentBodyEPN3JSC9ExecStateENS0_7JSValueERKNS0_10IdentifierE
__ZN7WebCore21jsHTMLElementChildrenEPN3JSC9ExecStateENS0_7JSValueERKNS0_10IdentifierE
__ZN7WebCore11HTMLElement8childrenEv
__ZN7WebCore4toJSEPN3JSC9ExecStateEPNS_17JSDOMGlobalObjectEPNS_14HTMLCollectionE
__ZN7WebCore13createWrapperINS_16JSHTMLCollectionENS_14HTMLCollectionEEEPNS_12JSDOMWrapperEPN3JSC9ExecStateEPNS_17JSDOMGlobalObjectEPT0_
__ZN7WebCore15getDOMStructureINS_16JSHTMLCollectionEEEPN3JSC9StructureEPNS2_9ExecStateEPNS_17JSDOMGlobalObjectE
__ZN7WebCore16JSHTMLCollection15createPrototypeEPN3JSC9ExecStateEPNS1_14JSGlobalObjectE
__ZN7WebCore16JSHTMLCollectionC1EPN3JSC9StructureEPNS_17JSDOMGlobalObjectEN3WTF10PassRefPtrINS_14HTMLCollectionEEE
__ZN7WebCore12cacheWrapperINS_14HTMLCollectionEEEvPNS_15DOMWrapperWorldEPT_PNS_12JSDOMWrapperE
__ZN7WebCore16JSHTMLCollection18getOwnPropertySlotEPN3JSC9ExecStateEjRNS1_12PropertySlotE
__ZNK7WebCore14HTMLCollection6lengthEv
__ZNK7WebCore14HTMLCollection10calcLengthEv
__ZN7WebCore16JSHTMLCollection11indexGetterEPN3JSC9ExecStateENS1_7JSValueEj
__ZN7WebCore20jsElementOffsetWidthEPN3JSC9ExecStateENS0_7JSValueERKNS0_10IdentifierE
__ZN7WebCore7Element11offsetWidthEv
__ZNK7WebCore10RenderText12originalTextEv
__ZN7WebCore18RenderTextFragmentC1EPNS_4NodeEPN3WTF10StringImplEii
__ZN7WebCore18RenderTextFragmentC2EPNS_4NodeEPN3WTF10StringImplEii
__ZNK7WebCore18RenderTextFragment12originalTextEv
__ZN7WebCore18RenderTextFragment15setTextInternalEN3WTF10PassRefPtrINS1_10StringImplEEE
__ZN3WTF6String9makeUpperEv
__ZNK7WebCore9RenderBox11offsetWidthEv
__ZNK7WebCore18RenderTextFragment14isTextFragmentEv
__ZN7WebCore21JSHTMLCollectionOwner26isReachableFromOpaqueRootsEN3JSC6HandleINS1_7UnknownEEEPvRNS1_9MarkStackE
__ZN7WebCore21JSHTMLCollectionOwner8finalizeEN3JSC6HandleINS1_7UnknownEEEPv
__ZN7WebCore16JSHTMLCollectionD1Ev
__ZN7WebCore12RenderObject12removeLayersEPNS_11RenderLayerE
__ZN3WTF6VectorIPN7WebCore7ElementELm30EE15reserveCapacityEm
__ZN3WTF6VectorIjLm1EE15reserveCapacityEm
__ZN7WebCore25JSHTMLCollectionPrototypeD1Ev
__ZN7WebCoreL17iframeConstructorERKNS_13QualifiedNameEPNS_8DocumentEPNS_15HTMLFormElementEb
__ZN7WebCore17HTMLIFrameElement6createERKNS_13QualifiedNameEPNS_8DocumentE
__ZN7WebCore20HTMLFrameElementBaseC2ERKNS_13QualifiedNameEPNS_8DocumentE
__ZN7WebCore21HTMLFrameOwnerElementC2ERKNS_13QualifiedNameEPNS_8DocumentE
__ZNK7WebCore17HTMLIFrameElement10mapToEntryERKNS_13QualifiedNameERNS_20MappedAttributeEntryE
__ZN7WebCore17HTMLIFrameElement20parseMappedAttributeEPNS_9AttributeE
__ZN7WebCore20HTMLFrameElementBase20parseMappedAttributeEPNS_9AttributeE
__ZN7WebCore20HTMLFrameElementBase11setLocationERKN3WTF6StringE
__ZN7WebCore17HTMLIFrameElement20insertedIntoDocumentEv
__ZN7WebCore20HTMLFrameElementBase20insertedIntoDocumentEv
__ZN7WebCore20HTMLFrameElementBase17setNameAndOpenURLEv
__ZN7WebCore20HTMLFrameElementBase7openURLEbb
__ZNK7WebCore20HTMLFrameElementBase12isURLAllowedEv
__ZN7WebCore20protocolIsJavaScriptERKN3WTF6StringE
__ZN7WebCore14SubframeLoader12requestFrameEPNS_21HTMLFrameOwnerElementERKN3WTF6StringERKNS3_12AtomicStringEbb
__ZN7WebCore14SubframeLoader22loadOrRedirectSubframeEPNS_21HTMLFrameOwnerElementERKNS_4KURLERKN3WTF12AtomicStringEbb
__ZN7WebCore14SubframeLoader12loadSubframeEPNS_21HTMLFrameOwnerElementERKNS_4KURLERKN3WTF6StringES9_
__ZNK7WebCore20HTMLFrameElementBase13scrollingModeEv
__ZNK7WebCore21ContentSecurityPolicy25allowChildFrameFromSourceERKNS_4KURLE
__ZNK7WebCore9FrameTree15uniqueChildNameERKN3WTF12AtomicStringE
__ZN7WebCore9FrameTree11appendChildEN3WTF10PassRefPtrINS_5FrameEEE
__ZN7WebCore9FrameTree19actuallyAppendChildEN3WTF10PassRefPtrINS_5FrameEEE
__ZNK7WebCore14SecurityOrigin9canAccessEPKS0_
__ZN7WebCore19TextResourceDecoder11setEncodingERKNS_12TextEncodingENS0_14EncodingSourceE
__ZN7WebCore11FrameLoader21loadURLIntoChildFrameERKNS_4KURLERKN3WTF6StringEPNS_5FrameE
__ZN7WebCore14DocumentLoader21popArchiveForSubframeERKN3WTF6StringE
__ZNK7WebCore11HistoryItem8childrenEv
__ZN7WebCore11FrameLoader7loadURLERKNS_4KURLERKN3WTF6StringES7_bNS_13FrameLoadTypeENS4_10PassRefPtrINS_5EventEEENS9_INS_9FormStateEEE
__ZNK7WebCore9FrameTree4findERKN3WTF12AtomicStringE
__ZNK7WebCore11FrameLoader21shouldAllowNavigationEPNS_5FrameE
__ZN7WebCore16NavigationActionC1ERKNS_4KURLENS_13FrameLoadTypeEbN3WTF10PassRefPtrINS_5EventEEE
__ZN7WebCore16NavigationActionC2ERKNS_4KURLENS_13FrameLoadTypeEbN3WTF10PassRefPtrINS_5EventEEE
__ZN7WebCore11FrameLoader24loadWithNavigationActionERKNS_15ResourceRequestERKNS_16NavigationActionEbNS_13FrameLoadTypeEN3WTF10PassRefPtrINS_9FormStateEEE
__ZN7WebCore11FrameLoader7startedEv
__ZN7WebCore20HTMLFrameElementBase6attachEv
__ZN7WebCore17HTMLIFrameElement16rendererIsNeededEPNS_11RenderStyleE
__ZN7WebCore17HTMLIFrameElement14createRendererEPNS_11RenderArenaEPNS_11RenderStyleE
__ZN7WebCore12RenderIFrameC1EPNS_7ElementE
__ZN7WebCore15RenderFrameBaseC2EPNS_7ElementE
__ZN7WebCore10RenderPartC2EPNS_7ElementE
__ZN7WebCore12RenderWidgetC2EPNS_4NodeE
__ZN7WebCore14RenderReplacedC2EPNS_4NodeE
__ZN7WebCore10RenderView9addWidgetEPNS_12RenderWidgetE
__ZN3WTF9HashTableIPN7WebCore12RenderWidgetES3_NS_17IdentityExtractorIS3_EENS_7PtrHashIS3_EENS_10HashTraitsIS3_EES9_E3addIS3_S3_NS_22IdentityHashTranslatorIS3_S3_S7_EEEESt4pairINS_17HashTableIteratorIS3_S3_S5_S7_S9_S9_EEbERKT_RKT0_
__ZN3WTF9HashTableIPN7WebCore12RenderWidgetES3_NS_17IdentityExtractorIS3_EENS_7PtrHashIS3_EENS_10HashTraitsIS3_EES9_E6expandEv
__ZN7WebCore12RenderWidget14styleDidChangeENS_15StyleDifferenceEPKNS_11RenderStyleE
__ZNK7WebCore10RenderPart13requiresLayerEv
__ZNK7WebCore10RenderPart30requiresAcceleratedCompositingEv
__ZNK7WebCore21HTMLFrameOwnerElement19isFrameOwnerElementEv
__ZNK7WebCore21HTMLFrameOwnerElement15contentDocumentEv
__ZNK7WebCore21HTMLFrameOwnerElement10renderPartEv
__ZNK7WebCore10RenderPart12isRenderPartEv
__ZN7WebCore10RenderPart9setWidgetEN3WTF10PassRefPtrINS_6WidgetEEE
__ZN7WebCore12RenderWidget9setWidgetEN3WTF10PassRefPtrINS_6WidgetEEE
__ZN7WebCoreL22moveWidgetToParentSoonEPNS_6WidgetEPNS_9FrameViewE
__ZN7WebCore10ScrollView9setParentEPS0_
__ZN7WebCore10ScrollView16platformAddChildEPNS_6WidgetE
__ZNK7WebCore6Widget12getOuterViewEv
__ZN7WebCore10RenderPart11viewClearedEv
__ZN7WebCore12RenderIFrame6layoutEv
__ZN7WebCore12RenderIFrame12flattenFrameEv
__ZN7WebCore12RenderWidget6layoutEv
__ZN7WebCore12RenderWidget20updateWidgetPositionEv
__ZN7WebCore12RenderWidget17setWidgetGeometryERKNS_7IntRectERKNS_7IntSizeE
__ZNK7WebCore11RenderLayer16childrenClipRectEv
__ZNK7WebCore11RenderLayer12clippingRootEv
__ZN7WebCore9FrameView12setFrameRectERKNS_7IntRectE
__ZN7WebCore10ScrollView12setFrameRectERKNS_7IntRectE
__ZNK7WebCore9FrameView15parentFrameViewEv
__ZNK7WebCore10RenderView8viewRectEv
__ZN7WebCore10ScrollView17frameRectsChangedEv
__ZN7WebCore10ScrollView13setBoundsSizeERKNS_7IntSizeE
__ZN7WebCore6Widget13setBoundsSizeERKNS_7IntSizeE
__ZN7WebCore12RenderWidget22widgetPositionsUpdatedEv
__ZN7WebCore6Widget22widgetPositionsUpdatedEv
__ZN7WebCore12RenderWidget5derefEPNS_11RenderArenaE
__ZNK7WebCore12RenderWidget8isWidgetEv
__ZNK7WebCore19AccessibilityObject29accessibilityIgnoreAttachmentEv
__ZNK7WebCore25AccessibilityRenderObject23widgetForAttachmentViewEv
-[AccessibilityObjectWrapper _accessibilityParentForSubview:]
__ZNK7WebCore18HTMLDocumentParser14processingDataEv
__ZN7WebCore17HistoryController42updateForRedirectWithLockedBackForwardListEv
__ZN7WebCore11HistoryItem12setChildItemEN3WTF10PassRefPtrIS0_EE
__ZN7WebCore14SubframeLoader12allowPluginsENS_28ReasonForCallingAllowPluginsE
__ZNK7WebCore4Page10pluginDataEv
__ZN7WebCore10PluginDataC1EPKNS_4PageE
__ZN7WebCore10PluginDataC2EPKNS_4PageE
__ZN3WTF6VectorIN7WebCore13MimeClassInfoELm0EE15reserveCapacityEm
__ZN3WTF11VectorMoverILb0EN7WebCore13MimeClassInfoEE4moveEPKS2_S5_PS2_
__ZN3WTF6VectorImLm0EE14expandCapacityEm
__ZN7WebCore13MimeClassInfoD1Ev
__ZN7WebCore13ImageDocumentC1EPNS_5FrameERKNS_4KURLE
__ZN7WebCore12HTMLDocumentC2EPNS_5FrameERKNS_4KURLE
__ZN7WebCore13ImageDocument12createParserEv
__ZN7WebCore19ImageDocumentParser11appendBytesEPNS_14DocumentWriterEPKcib
__ZN7WebCore13ImageDocument23createDocumentStructureEv
__ZN7WebCore8Document13createElementERKNS_13QualifiedNameEb
__ZN7WebCoreL15htmlConstructorERKNS_13QualifiedNameEPNS_8DocumentEPNS_15HTMLFormElementEb
__ZN7WebCore15HTMLHtmlElement6createERKNS_13QualifiedNameEPNS_8DocumentE
__ZNK7WebCore8Document16childTypeAllowedENS_4Node8NodeTypeE
__ZN7WebCore7Element12setAttributeERKNS_13QualifiedNameERKN3WTF12AtomicStringE
__ZN7WebCore7Element12setAttributeERKNS_13QualifiedNameERKN3WTF12AtomicStringERi
__ZNK7WebCore7Element18createAttributeMapEv
__ZN7WebCore16HTMLImageElement6setSrcERKN3WTF6StringE
__ZN7WebCore19ImageDocumentParser6finishEv
__ZNK7WebCore14DocumentLoader25isLoadingMultipartContentEv
__ZNK7WebCore4KURL17lastPathComponentEv
__ZN7WebCore24decodeURLEscapeSequencesERKN3WTF6StringE
__ZN7WebCore10imageTitleERKN3WTF6StringERKNS_7IntSizeE
__ZN7WebCoreL21formatLocalizedStringEN3WTF6StringEz
__ZN7WebCore8Document8setTitleERKN3WTF6StringE
__ZN7WebCore8Document4headEv
__ZN7WebCore14DocumentParser26asScriptableDocumentParserEv
__ZN7WebCore19ImageDocumentParserD0Ev
__ZN7WebCore9LineWidth14fitBelowFloatsEv
__ZNK7WebCore11RenderBlock27nextFloatLogicalBottomBelowEi
__ZNK7WebCore12RenderObject12enclosingBoxEv
__ZN7WebCore12RenderWidget5paintERNS_9PaintInfoEii
__ZNK7WebCore9RenderBox15borderFitAdjustERNS_7IntRectE
__ZN7WebCore10ScrollView5paintEPNS_15GraphicsContextERKNS_7IntRectE
__ZN7WebCore6Widget5paintEPNS_15GraphicsContextERKNS_7IntRectE
__ZN7WebCore19makeMapBetweenRectsERKNS_9FloatRectES2_
__ZNK7WebCore15AffineTransform6yScaleEv
__ZNK7WebCore15AffineTransform6xScaleEv
__ZNK7WebCore11RenderLayer20requiresSlowRepaintsEv
__ZNK7WebCore9FrameView30useSlowRepaintsIfNotOverlappedEv
__ZNK7WebCore9FrameView40hasCompositedContentIncludingDescendantsEv
__ZN7WebCore21RenderLayerCompositor35allowsIndependentlyCompositedFramesEPKNS_9FrameViewE
__ZN7WebCore11FrameLoader19closeAndRemoveChildEPNS_5FrameE
__ZN7WebCore9FrameTree11removeChildEPNS_5FrameE
__ZN7WebCore12RenderWidget7destroyEv
__ZN7WebCore12RenderIFrameD0Ev
__ZN7WebCore10RenderPartD2Ev
__ZN7WebCore12RenderWidget11clearWidgetEv
__ZN7WebCore12RenderWidgetD2Ev
__ZN7WebCore10ScrollView19platformRemoveChildEPNS_6WidgetE
__ZN7WebCore6Widget19removeFromSuperviewEv
__ZN7WebCoreL23safeRemoveFromSuperviewEP6NSView
__ZN7WebCore5FrameD1Ev
__ZN7WebCore20ImageDocumentElementD0Ev
__ZN7WebCore16HTMLImageElementD2Ev
__ZN7WebCore13ImageDocumentD0Ev
__ZN7WebCore12HTMLDocumentD2Ev
__ZN7WebCore17HTMLIFrameElement19removedFromDocumentEv
__ZN7WebCore17HTMLIFrameElementD0Ev
__ZN7WebCore20HTMLFrameElementBaseD2Ev
__ZN7WebCore21HTMLFrameOwnerElementD2Ev
__ZN7WebCoreL14preConstructorERKNS_13QualifiedNameEPNS_8DocumentEPNS_15HTMLFormElementEb
__ZN7WebCore14HTMLPreElement6createERKNS_13QualifiedNameEPNS_8DocumentE
__ZNK7WebCore14HTMLPreElement10mapToEntryERKNS_13QualifiedNameERNS_20MappedAttributeEntryE
__ZN7WebCore14HTMLPreElement20parseMappedAttributeEPNS_9AttributeE
__ZN7WebCoreL27createHTMLPreElementWrapperEPN3JSC9ExecStateEPNS_17JSDOMGlobalObjectEN3WTF10PassRefPtrINS_11HTMLElementEEE
__ZN7WebCore13createWrapperINS_16JSHTMLPreElementENS_14HTMLPreElementEEEPNS_12JSDOMWrapperEPN3JSC9ExecStateEPNS_17JSDOMGlobalObjectEPT0_
__ZN7WebCore15getDOMStructureINS_16JSHTMLPreElementEEEPN3JSC9StructureEPNS2_9ExecStateEPNS_17JSDOMGlobalObjectE
__ZN7WebCore16JSHTMLPreElement15createPrototypeEPN3JSC9ExecStateEPNS1_14JSGlobalObjectE
__ZN7WebCore16JSHTMLPreElementC1EPN3JSC9StructureEPNS_17JSDOMGlobalObjectEN3WTF10PassRefPtrINS_14HTMLPreElementEEE
__ZN7WebCore12cacheWrapperINS_14HTMLPreElementEEEvPNS_15DOMWrapperWorldEPT_PNS_12JSDOMWrapperE
__ZN7WebCore13AXWebAreaTextEv
__ZN7WebCore10RenderView13absoluteQuadsERN3WTF6VectorINS_9FloatQuadELm0EEE
__ZN7WebCore25AccessibilityRenderObject16getDocumentLinksERN3WTF6VectorINS1_6RefPtrINS_19AccessibilityObjectEEELm0EEE
__ZN7WebCore8Document5linksEv
__ZNK7WebCore14HTMLCollection8nextItemEv
__ZNK7WebCore25AccessibilityRenderObject8isLoadedEv
__ZNK7WebCore25AccessibilityRenderObject11layoutCountEv
__ZNK7WebCore25AccessibilityRenderObject24estimatedLoadingProgressEv
__ZNK7WebCore15ProgressTracker17estimatedProgressEv
__ZN7WebCore10AXLinkTextEv
__ZN7WebCore12RenderInline25culledInlineAbsoluteRectsEPKS0_RN3WTF6VectorINS_7IntRectELm0EEERKNS_7IntSizeE
__ZNK7WebCore25AccessibilityRenderObject19internalLinkElementEv
__ZNK7WebCore17HTMLAnchorElement4hrefEv
__ZNK7WebCore4KURL18fragmentIdentifierEv
__ZNK7WebCore16HTMLImageElement3srcEv
__ZN7WebCore16JSHTMLPreElement3putEPN3JSC9ExecStateERKNS1_10IdentifierENS1_7JSValueERNS1_15PutPropertySlotE
__ZN3JSC9lookupPutIN7WebCore16JSHTMLPreElementEEEbPNS_9ExecStateERKNS_10IdentifierENS_7JSValueEPKNS_9HashTableEPT_
__ZThn8_N7WebCore17HTMLScriptElementD0Ev
__ZN7WebCore20setJSDOMWindowOnloadEPN3JSC9ExecStateEPNS0_8JSObjectENS0_7JSValueE
__ZN7WebCore15JSEventListenerC1EPN3JSC8JSObjectES3_bPNS_15DOMWrapperWorldE
__ZN7WebCore16JSHTMLPreElementD1Ev
__ZThn8_N7WebCore14HTMLPreElementD0Ev
__ZN7WebCore25JSHTMLPreElementPrototypeD1Ev
__ZN7WebCore15JSEventListenerD0Ev
__ZN7WebCore16HTMLElementStack21removeHTMLHeadElementEPNS_7ElementE
__ZN7WebCore16HTMLElementStack18removeNonTopCommonEPNS_7ElementE
__ZN7WebCore11HTMLElement16addHTMLAlignmentEPNS_9AttributeE
__ZN7WebCore11HTMLElement31addHTMLAlignmentToStyledElementEPNS_13StyledElementEPNS_9AttributeE
__ZNK7WebCore9RenderBox27enclosingFloatPaintingLayerEv
__ZN7WebCore11RenderBlock37markAllDescendantsWithFloatsForLayoutEPNS_9RenderBoxEb
__ZN7WebCore11RenderBlock18addIntrudingFloatsEPS0_ii
__ZNK3WTF9HashTableIPNS_15ListHashSetNodeIPN7WebCore11RenderBlock14FloatingObjectELm4EEES7_NS_17IdentityExtractorIS7_EENS_28ListHashSetNodeHashFunctionsIS5_Lm4ENS3_27FloatingObjectHashFunctionsEEENS_10HashTraitsIS7_EESE_E8containsIPNS2_9RenderBoxENS_28ListHashSetTranslatorAdapterIS5_Lm4ESI_NS3_28FloatingObjectHashTranslatorEEEEEbRKT_
__ZNK3WTF9HashTableIPNS_15ListHashSetNodeIPN7WebCore11RenderBlock14FloatingObjectELm4EEES7_NS_17IdentityExtractorIS7_EENS_28ListHashSetNodeHashFunctionsIS5_Lm4ENS3_27FloatingObjectHashFunctionsEEENS_10HashTraitsIS7_EESE_E8containsIS5_NS_21ListHashSetTranslatorIS5_Lm4ESB_EEEEbRKT_
__ZNK7WebCore25AccessibilityImageMapLink5titleEv
__ZN3WTF9HashTableIPN3JSC8Bindings10RootObjectES4_NS_17IdentityExtractorIS4_EENS_7PtrHashIS4_EENS_10HashTraitsIS4_EESA_E16lookupForWritingERKS4_
__ZN3WTF9HashTableIPN3JSC8Bindings10RootObjectES4_NS_17IdentityExtractorIS4_EENS_7PtrHashIS4_EENS_10HashTraitsIS4_EESA_E4findIS4_NS_22IdentityHashTranslatorIS4_S4_S8_EEEENS_17HashTableIteratorIS4_S4_S6_S8_SA_SA_EERKT_
__ZN7WebCore12RenderObject24repaintOverhangingFloatsEb
__ZNK7WebCore16HTMLImageElement23canContainRangeEndPointEv
__ZN7WebCore14caretMaxOffsetEPKNS_4NodeE
__ZNK7WebCore8Position28offsetForPositionAfterAnchorEv
__ZNK7WebCore25AccessibilityImageMapLink6isLinkEv
__ZN7WebCore19AccessibilityObject8childrenEv
__ZNK7WebCore19AccessibilityObject6widgetEv
__ZNK7WebCore19AccessibilityObject4sizeEv
__ZNK7WebCore25AccessibilityImageMapLink24accessibilityDescriptionEv
__ZNK7WebCore25AccessibilityImageMapLink9isEnabledEv
__ZNK7WebCore25AccessibilityImageMapLink3urlEv
__ZNK7WebCore19AccessibilityObject9accessKeyEv
__ZN7WebCoreL27createHTMLMapElementWrapperEPN3JSC9ExecStateEPNS_17JSDOMGlobalObjectEN3WTF10PassRefPtrINS_11HTMLElementEEE
__ZN7WebCore13createWrapperINS_16JSHTMLMapElementENS_14HTMLMapElementEEEPNS_12JSDOMWrapperEPN3JSC9ExecStateEPNS_17JSDOMGlobalObjectEPT0_
__ZN7WebCore15getDOMStructureINS_16JSHTMLMapElementEEEPN3JSC9StructureEPNS2_9ExecStateEPNS_17JSDOMGlobalObjectE
__ZN7WebCore16JSHTMLMapElement15createPrototypeEPN3JSC9ExecStateEPNS1_14JSGlobalObjectE
__ZN7WebCore16JSHTMLMapElementC1EPN3JSC9StructureEPNS_17JSDOMGlobalObjectEN3WTF10PassRefPtrINS_14HTMLMapElementEEE
__ZN7WebCore12cacheWrapperINS_14HTMLMapElementEEEvPNS_15DOMWrapperWorldEPT_PNS_12JSDOMWrapperE
__ZN7WebCore16JSHTMLMapElement3putEPN3JSC9ExecStateERKNS1_10IdentifierENS1_7JSValueERNS1_15PutPropertySlotE
__ZN3JSC9lookupPutIN7WebCore16JSHTMLMapElementEEEbPNS_9ExecStateERKNS_10IdentifierENS_7JSValueEPKNS_9HashTableEPT_
__ZN7WebCore13ContainerNode12replaceChildEN3WTF10PassRefPtrINS_4NodeEEEPS3_Rib
__ZN7WebCore4Node17checkReplaceChildEPS0_S1_Ri
__ZN7WebCore4Node15canReplaceChildEPS0_S1_
__ZN7WebCore16JSHTMLMapElementD1Ev
__ZThn8_N7WebCore15HTMLAreaElementD0Ev
__ZN7WebCore25JSHTMLMapElementPrototypeD1Ev
__ZN7WebCore31SimplifiedBackwardsTextIterator8exitNodeEv
__ZNK7WebCore9CaretBase10paintCaretEPNS_4NodeEPNS_15GraphicsContextEiiRKNS_7IntRectE
__ZN7WebCore14ImageInputType6createEPNS_16HTMLInputElementE
__ZNK7WebCore14ImageInputType15formControlTypeEv
__ZNK7WebCore14ImageInputType18supportsValidationEv
__ZN7WebCore14ImageInputType37shouldRespectHeightAndWidthAttributesEv
__ZN7WebCore14ImageInputType19altAttributeChangedEv
__ZN7WebCore14ImageInputType19srcAttributeChangedEv
__ZNK7WebCore14ImageInputType13isImageButtonEv
__ZNK7WebCore14ImageInputType14createRendererEPNS_11RenderArenaEPNS_11RenderStyleE
__ZNK7WebCore16HTMLInputElement7altTextEv
__ZN7WebCore14ImageInputType6attachEv
__ZN7WebCore19RenderImageResource14resetAnimationEv
__ZN7WebCore13InlineFlowBox24addTextBoxVisualOverflowEPNS_13InlineTextBoxERN3WTF7HashMapIPKS1_St4pairINS3_6VectorIPKNS_14SimpleFontDataELm0EEENS_13GlyphOverflowEENS3_7PtrHashIS6_EENS3_10HashTraitsIS6_EENSH_ISE_EEEERNS_7IntRectE
__ZN7WebCore9TreeScope10findAnchorERKN3WTF6StringE
__ZN7WebCore19AccessibilityObject29firstAccessibleObjectFromNodeEPKNS_4NodeE
__ZN7WebCore12RenderInline25rectWithOutlineForRepaintEPNS_20RenderBoxModelObjectEi
__ZN7WebCore13InlineFlowBox11extractLineEv
__ZN7WebCore13RootInlineBox30extractLineBoxFromRenderObjectEv
__ZN7WebCore17RenderLineBoxList14extractLineBoxEPNS_13InlineFlowBoxE
__ZN7WebCore13InlineTextBox11extractLineEv
__ZN7WebCore10RenderText14extractTextBoxEPNS_13InlineTextBoxE
__ZN7WebCore13InlineFlowBox30extractLineBoxFromRenderObjectEv
__ZN7WebCore11RenderBlock14matchedEndLineERNS_15LineLayoutStateERKNS_12BidiResolverINS_14InlineIteratorENS_7BidiRunEEERKS4_RKNS_10BidiStatusERPNS_13RootInlineBoxERi
__ZN7WebCoreeqERKNS_11BidiContextES2_
__ZN7WebCore13InlineFlowBox10attachLineEv
__ZN7WebCore13RootInlineBox27attachLineBoxToRenderObjectEv
__ZN7WebCore17RenderLineBoxList13attachLineBoxEPNS_13InlineFlowBoxE
__ZN7WebCore13InlineTextBox10attachLineEv
__ZN7WebCore10RenderText13attachTextBoxEPNS_13InlineTextBoxE
__ZN7WebCore13InlineFlowBox27attachLineBoxToRenderObjectEv
__ZN3JSC4WeakINS_8JSStringEEC2ERKS2_
__ZN7WebCore14ImageInputTypeD0Ev
__ZN7WebCore15HTMLImageLoaderD0Ev
-[AccessibilityObjectWrapper accessibilityPerformPressAction]
__ZNK7WebCore19AccessibilityObject5pressEv
__ZNK7WebCore15JSEventListener18virtualisAttributeEv
__ZN7WebCore16HTMLLabelElement15accessKeyActionEb
__ZN7WebCore11HTMLElement15accessKeyActionEb
__ZNK3WTF9HashTableIPN7WebCore4NodeES3_NS_17IdentityExtractorIS3_EENS_7PtrHashIS3_EENS_10HashTraitsIS3_EES9_E8containsIS3_NS_22IdentityHashTranslatorIS3_S3_S7_EEEEbRKT_
__ZN7WebCore16HTMLLabelElement19defaultEventHandlerEPNS_5EventE
__ZN7WebCore16HTMLLabelElement9setActiveEbb
__ZN7WebCoreL29createHTMLLabelElementWrapperEPN3JSC9ExecStateEPNS_17JSDOMGlobalObjectEN3WTF10PassRefPtrINS_11HTMLElementEEE
__ZN7WebCore13createWrapperINS_18JSHTMLLabelElementENS_16HTMLLabelElementEEEPNS_12JSDOMWrapperEPN3JSC9ExecStateEPNS_17JSDOMGlobalObjectEPT0_
__ZN7WebCore15getDOMStructureINS_18JSHTMLLabelElementEEEPN3JSC9StructureEPNS2_9ExecStateEPNS_17JSDOMGlobalObjectE
__ZN7WebCore18JSHTMLLabelElement15createPrototypeEPN3JSC9ExecStateEPNS1_14JSGlobalObjectE
__ZN7WebCore18JSHTMLLabelElementC1EPN3JSC9StructureEPNS_17JSDOMGlobalObjectEN3WTF10PassRefPtrINS_16HTMLLabelElementEEE
__ZN7WebCore12cacheWrapperINS_16HTMLLabelElementEEEvPNS_15DOMWrapperWorldEPT_PNS_12JSDOMWrapperE
__ZNK7WebCore11HTMLElement11virtualFormEv
__ZNK3JSC8JSObject16isVariableObjectEv
__ZN7WebCore18JSHTMLLabelElement18getOwnPropertySlotEPN3JSC9ExecStateERKNS1_10IdentifierERNS1_12PropertySlotE
__ZNK7WebCore19AccessibilityObject27elementAccessibilityHitTestERKNS_8IntPointE
__ZN7WebCore18JSHTMLLabelElementD1Ev
__ZN7WebCore21HTMLMetaCharsetParser11processMetaEv
__ZN3WTF6VectorISt4pairINS_6StringES2_ELm0EE14expandCapacityEm
__ZN7WebCore21HTMLMetaCharsetParser26encodingFromMetaAttributesERKN3WTF6VectorISt4pairINS1_6StringES4_ELm0EEE
__ZN7WebCore21HTMLMetaCharsetParser14extractCharsetERKN3WTF6StringE
__ZNSt4pairIN3WTF6StringES1_ED1Ev
__ZN7WebCoreL15metaConstructorERKNS_13QualifiedNameEPNS_8DocumentEPNS_15HTMLFormElementEb
__ZN7WebCore15HTMLMetaElement6createERKNS_13QualifiedNameEPNS_8DocumentE
__ZN7WebCore15HTMLMetaElement20parseMappedAttributeEPNS_9AttributeE
__ZN7WebCore15HTMLMetaElement7processEv
__ZN7WebCore15HTMLMetaElement20insertedIntoDocumentEv
__ZN7WebCore8Document16processHttpEquivERKN3WTF6StringES4_
__ZNK7WebCore19AccessibilityObject8languageEv
__ZN7WebCoreL19fieldsetConstructorERKNS_13QualifiedNameEPNS_8DocumentEPNS_15HTMLFormElementEb
__ZN7WebCore19HTMLFieldSetElement6createERKNS_13QualifiedNameEPNS_8DocumentEPNS_15HTMLFormElementE
__ZN7WebCore19HTMLFieldSetElement14createRendererEPNS_11RenderArenaEPNS_11RenderStyleE
__ZN7WebCore14RenderFieldsetC1EPNS_4NodeE
__ZNK7WebCore14RenderFieldset12avoidsFloatsEv
__ZN7WebCoreL17legendConstructorERKNS_13QualifiedNameEPNS_8DocumentEPNS_15HTMLFormElementEb
__ZN7WebCore17HTMLLegendElement6createERKNS_13QualifiedNameEPNS_8DocumentEPNS_15HTMLFormElementE
__ZN7WebCore14RenderFieldset29computePreferredLogicalWidthsEv
__ZN7WebCore11RenderBlock34computeBlockPreferredLogicalWidthsEv
__ZNK7WebCore14RenderFieldset10findLegendEv
__ZN7WebCore14RenderFieldset26layoutSpecialExcludedChildEb
__ZN7WebCore11RenderBlock22setLogicalLeftForChildEPNS_9RenderBoxEiNS0_20ApplyLayoutDeltaModeE
__ZN7WebCore11RenderBlock21setLogicalTopForChildEPNS_9RenderBoxEiNS0_20ApplyLayoutDeltaModeE
__ZNK7WebCore14RenderFieldset10isFieldsetEv
__ZN7WebCore14RenderFieldset19paintBoxDecorationsERNS_9PaintInfoEii
__ZN7WebCore15GraphicsContext7clipOutERKNS_7IntRectE
__ZN7WebCore15HTMLMetaElementD0Ev
__ZN7WebCore14RenderFieldsetD0Ev
__ZN7WebCoreL16olistConstructorERKNS_13QualifiedNameEPNS_8DocumentEPNS_15HTMLFormElementEb
__ZN7WebCore16HTMLOListElement6createERKNS_13QualifiedNameEPNS_8DocumentE
__ZN7WebCoreL16dlistConstructorERKNS_13QualifiedNameEPNS_8DocumentEPNS_15HTMLFormElementEb
__ZN7WebCore16HTMLDListElement6createERKNS_13QualifiedNameEPNS_8DocumentE
__ZN7WebCoreL13hrConstructorERKNS_13QualifiedNameEPNS_8DocumentEPNS_15HTMLFormElementEb
__ZN7WebCore13HTMLHRElement6createERKNS_13QualifiedNameEPNS_8DocumentE
__ZNK7WebCore14RenderListItem14updateValueNowEv
__ZNK7WebCore14RenderListItem9calcValueEv
__ZNK7WebCore17AccessibilityList6isListEv
__ZNK7WebCore17AccessibilityList15isUnorderedListEv
__ZNK7WebCore13HTMLHRElement23canContainRangeEndPointEv
__ZNK7WebCore17AccessibilityList13isOrderedListEv
__ZNK7WebCore17AccessibilityList16isDefinitionListEv
__ZN7WebCore24AXDefinitionListTermTextEv
__ZN7WebCore30AXDefinitionListDefinitionTextEv
__ZN7WebCore19HTMLFieldSetElementD0Ev
__ZN7WebCore17HTMLLegendElementD0Ev
__ZN7WebCoreL16videoConstructorERKNS_13QualifiedNameEPNS_8DocumentEPNS_15HTMLFormElementEb
__ZN7WebCore11MediaPlayer11isAvailableEv
__ZN7WebCore34MediaPlayerPrivateAVFoundationObjC19registerMediaEngineEPFvPFN3WTF10PassOwnPtrINS_27MediaPlayerPrivateInterfaceEEEPNS_11MediaPlayerEEPFvRNS1_7HashSetINS1_6StringENS1_10StringHashENS1_10HashTraitsISA_EEEEEPFNS5_12SupportsTypeERKSA_SK_EPFvRNS1_6VectorISA_Lm0EEEEPFvvEPFvSK_EE
__ZN7WebCoreL14addMediaEngineEPFN3WTF10PassOwnPtrINS_27MediaPlayerPrivateInterfaceEEEPNS_11MediaPlayerEEPFvRNS0_7HashSetINS0_6StringENS0_10StringHashENS0_10HashTraitsIS9_EEEEEPFNS4_12SupportsTypeERKS9_SJ_EPFvRNS0_6VectorIS9_Lm0EEEEPFvvEPFvSJ_E
__ZN3WTF6VectorIPN7WebCore18MediaPlayerFactoryELm0EE14expandCapacityEm
__ZN7WebCore23MediaPlayerPrivateQTKit19registerMediaEngineEPFvPFN3WTF10PassOwnPtrINS_27MediaPlayerPrivateInterfaceEEEPNS_11MediaPlayerEEPFvRNS1_7HashSetINS1_6StringENS1_10StringHashENS1_10HashTraitsISA_EEEEEPFNS5_12SupportsTypeERKSA_SK_EPFvRNS1_6VectorISA_Lm0EEEEPFvvEPFvSK_EE
__ZN7WebCore16HTMLVideoElement6createERKNS_13QualifiedNameEPNS_8DocumentE
__ZN7WebCore16HTMLMediaElementC2ERKNS_13QualifiedNameEPNS_8DocumentE
__ZN7WebCore8Document38registerForDocumentActivationCallbacksEPNS_7ElementE
__ZN3WTF9HashTableIPN7WebCore7ElementES3_NS_17IdentityExtractorIS3_EENS_7PtrHashIS3_EENS_10HashTraitsIS3_EES9_E3addIS3_S3_NS_22IdentityHashTranslatorIS3_S3_S7_EEEESt4pairINS_17HashTableIteratorIS3_S3_S5_S7_S9_S9_EEbERKT_RKT0_
__ZN3WTF9HashTableIPN7WebCore7ElementES3_NS_17IdentityExtractorIS3_EENS_7PtrHashIS3_EENS_10HashTraitsIS3_EES9_E6expandEv
__ZN7WebCore8Document31registerForMediaVolumeCallbacksEPNS_7ElementE
__ZN7WebCore8Document47registerForPrivateBrowsingStateChangedCallbacksEPNS_7ElementE
__ZN7WebCore16HTMLMediaElement16attributeChangedEPNS_9AttributeEb
__ZN7WebCore16HTMLVideoElement20parseMappedAttributeEPNS_9AttributeE
__ZN7WebCore16HTMLMediaElement20parseMappedAttributeEPNS_9AttributeE
__ZN7WebCore16HTMLMediaElement14prepareForLoadEv
__ZN3WTF6VectorINS_6RefPtrIN7WebCore5EventEEELm0EE14shrinkCapacityEm
__ZN7WebCore11MediaPlayerC1EPNS_17MediaPlayerClientE
__ZN7WebCore16HTMLMediaElement15setPlaybackRateEf
__ZNK7WebCore16HTMLMediaElement8controlsEv
__ZNK7WebCore16HTMLVideoElement7isVideoEv
__ZN7WebCore6Chrome34requiresFullscreenForVideoPlaybackEv
__ZN7WebCore16HTMLMediaElement19ensureMediaControlsEv
__ZN7WebCore13MediaControls6createEPNS_16HTMLMediaElementE
__ZN7WebCore23MediaControlsApple6createEPNS_16HTMLMediaElementE
__ZN7WebCore13MediaControlsC2EPNS_16HTMLMediaElementE
__ZN7WebCore24MediaControlPanelElement6createEPNS_16HTMLMediaElementE
__ZN7WebCore31MediaControlRewindButtonElement6createEPNS_16HTMLMediaElementE
__ZN7WebCore16HTMLInputElementC2ERKNS_13QualifiedNameEPNS_8DocumentEPNS_15HTMLFormElementEb
__ZN7WebCore16HTMLInputElement7setTypeERKN3WTF6StringE
__ZN7WebCore29MediaControlPlayButtonElement6createEPNS_16HTMLMediaElementE
__ZN7WebCore41MediaControlReturnToRealtimeButtonElement6createEPNS_16HTMLMediaElementE
__ZN7WebCore24MediaControlInputElement4hideEv
__ZN7WebCore13StyledElement5styleEv
__ZN7WebCore19CSSStyleDeclaration11setPropertyERKN3WTF6StringES4_Ri
__ZN7WebCore13cssPropertyIDERKN3WTF6StringE
__ZN7WebCore26CSSMutableStyleDeclaration11setPropertyEiRKN3WTF6StringEbRi
__ZN7WebCore14RenderThemeMac29usesMediaControlStatusDisplayEv
__ZN7WebCore32MediaControlStatusDisplayElement6createEPNS_16HTMLMediaElementE
__ZN7WebCore19MediaControlElement4hideEv
__ZN7WebCore36MediaControlTimelineContainerElement6createEPNS_16HTMLMediaElementE
__ZN7WebCore37MediaControlCurrentTimeDisplayElement6createEPNS_16HTMLMediaElementE
__ZN7WebCore27MediaControlTimelineElement6createEPNS_16HTMLMediaElementEPNS_13MediaControlsE
__ZN7WebCore14RangeInputType6createEPNS_16HTMLInputElementE
__ZNK7WebCore14RangeInputType15formControlTypeEv
__ZN7WebCore14InputTypeNames5rangeEv
__ZN7WebCore14RangeInputType19createShadowSubtreeEv
__ZN7WebCore10ShadowRootC1EPNS_8DocumentE
__ZN7WebCore9TreeScope18setParentTreeScopeEPS0_
__ZNK7WebCore10ShadowRoot8nodeTypeEv
__ZNK7WebCore10ShadowRoot16childTypeAllowedENS_4Node8NodeTypeE
__ZN7WebCore4Node11setDocumentEPNS_8DocumentE
__ZN7WebCore14RangeInputType13sanitizeValueERKN3WTF6StringE
__ZN7WebCore14RangeInputType13fallbackValueEv
__ZN7WebCore9StepRangeC1EPKNS_16HTMLInputElementE
__ZN7WebCore9StepRangeC2EPKNS_16HTMLInputElementE
__ZNK7WebCore16HTMLInputElement19getAllowedValueStepEPd
__ZNK7WebCore14RangeInputType11defaultStepEv
__ZNK7WebCore14RangeInputType15stepScaleFactorEv
__ZNK7WebCore16HTMLInputElement7maximumEv
__ZNK7WebCore14RangeInputType7maximumEv
__ZNK7WebCore14RangeInputType13parseToDoubleERKN3WTF6StringEd
__ZN7WebCore26parseToDoubleForNumberTypeERKN3WTF6StringEPd
__ZNK7WebCore14RangeInputType7minimumEv
__ZNK7WebCore16HTMLInputElement7minimumEv
__ZN7WebCore9StepRange10clampValueEd
__ZN7WebCore22serializeForNumberTypeEd
__ZNK7WebCore14RangeInputType12stepMismatchERKN3WTF6StringEd
__ZNK7WebCore14RangeInputType14rangeUnderflowERKN3WTF6StringE
__ZNK7WebCore14RangeInputType13rangeOverflowERKN3WTF6StringE
__ZNK7WebCore14RangeInputType16supportsRequiredEv
__ZN7WebCore39MediaControlTimeRemainingDisplayElement6createEPNS_16HTMLMediaElementE
__ZN7WebCore33MediaControlSeekBackButtonElement6createEPNS_16HTMLMediaElementE
__ZN7WebCore36MediaControlSeekForwardButtonElement6createEPNS_16HTMLMediaElementE
__ZNK7WebCore14RenderThemeMac24supportsClosedCaptioningEv
__ZN7WebCore45MediaControlToggleClosedCaptionsButtonElement6createEPNS_16HTMLMediaElementE
__ZN7WebCore35MediaControlFullscreenButtonElement6createEPNS_16HTMLMediaElementEPNS_13MediaControlsE
__ZN7WebCore34MediaControlPanelMuteButtonElement6createEPNS_16HTMLMediaElementEPNS_13MediaControlsE
__ZNK7WebCore14RenderThemeMac28usesMediaControlVolumeSliderEv
__ZN7WebCore40MediaControlVolumeSliderContainerElement6createEPNS_16HTMLMediaElementE
__ZN7WebCore31MediaControlVolumeSliderElement6createEPNS_16HTMLMediaElementE
__ZN7WebCore14RangeInputType24minOrMaxAttributeChangedEv
__ZN7WebCore9InputType24minOrMaxAttributeChangedEv
__ZN7WebCore16HTMLInputElement8setValueERKN3WTF6StringEb
__ZN7WebCore9InputType11canSetValueERKN3WTF6StringE
__ZN7WebCore9InputType5filesEv
__ZN7WebCore9StepRange10clampValueERKN3WTF6StringE
__ZN7WebCore14RangeInputType12valueChangedEv
__ZN7WebCore18SliderThumbElement20setPositionFromValueEv
__ZNK7WebCore16HTMLMediaElement6volumeEv
__ZN7WebCore41MediaControlVolumeSliderMuteButtonElement6createEPNS_16HTMLMediaElementE
__ZN7WebCore44MediaControlFullscreenVolumeMinButtonElement6createEPNS_16HTMLMediaElementE
__ZN7WebCore41MediaControlFullscreenVolumeSliderElement6createEPNS_16HTMLMediaElementE
__ZN7WebCore44MediaControlFullscreenVolumeMaxButtonElement6createEPNS_16HTMLMediaElementE
__ZN7WebCore23MediaControlsApple5resetEv
__ZN7WebCore23MediaControlsApple19updateStatusDisplayEv
__ZN7WebCore32MediaControlStatusDisplayElement6updateEv
__ZNK7WebCore16HTMLMediaElement10readyStateEv
__ZNK7WebCore16HTMLMediaElement10currentSrcEv
__ZNK7WebCore16HTMLMediaElement13movieLoadTypeEv
__ZNK7WebCore11MediaPlayer13movieLoadTypeEv
__ZNK7WebCore27MediaPlayerPrivateInterface13movieLoadTypeEv
__ZNK7WebCore16HTMLVideoElement18supportsFullscreenEv
__ZNK7WebCore11MediaPlayer18supportsFullscreenEv
__ZNK7WebCore27MediaPlayerPrivateInterface18supportsFullscreenEv
__ZNK7WebCore16HTMLMediaElement8durationEv
__ZNK7WebCore14RenderThemeMac30hasOwnDisabledStateHandlingForENS_11ControlPartE
__ZNK7WebCore16HTMLMediaElement8hasAudioEv
__ZNK7WebCore11MediaPlayer8hasAudioEv
__ZNK7WebCore22NullMediaPlayerPrivate8hasAudioEv
__ZN7WebCore31MediaControlVolumeSliderElement9setVolumeEf
__ZNK7WebCore16HTMLMediaElement17hasClosedCaptionsEv
__ZNK7WebCore11MediaPlayer17hasClosedCaptionsEv
__ZNK7WebCore22NullMediaPlayerPrivate17hasClosedCaptionsEv
__ZN7WebCore29MediaControlPlayButtonElement17updateDisplayTypeEv
__ZNK7WebCore16HTMLMediaElement7canPlayEv
__ZN7WebCore24MediaControlInputElement4showEv
__ZN7WebCore19CSSStyleDeclaration14removePropertyERKN3WTF6StringERi
__ZN7WebCore26CSSMutableStyleDeclaration14removePropertyEiRi
__ZN7WebCore23MediaControlsApple10makeOpaqueEv
__ZN7WebCore23MediaControlsApple4showEv
__ZN7WebCore19MediaControlElement4showEv
__ZN7WebCore16HTMLMediaElement20insertedIntoDocumentEv
__ZN7WebCore16HTMLVideoElement6attachEv
__ZN7WebCore16HTMLMediaElement6attachEv
__ZN7WebCore14RenderThemeMac28extraMediaControlsStyleSheetEv
__ZNK3WTF7HashMapIibNS_7IntHashIjEENS_10HashTraitsIiEENS3_IbEEE3getERKi
__ZN7WebCore16HTMLVideoElement16rendererIsNeededEPNS_11RenderStyleE
__ZN7WebCore16HTMLVideoElement14createRendererEPNS_11RenderArenaEPNS_11RenderStyleE
__ZN7WebCore11RenderVideoC1EPNS_16HTMLVideoElementE
__ZN7WebCore11RenderMediaC2EPNS_16HTMLMediaElementE
__ZN7WebCore11RenderImageC2EPNS_4NodeE
__ZN7WebCore11RenderVideo22calculateIntrinsicSizeEv
__ZNK7WebCore11RenderMedia12mediaElementEv
__ZNK7WebCore11RenderVideo13requiresLayerEv
__ZNK7WebCore11RenderVideo7isVideoEv
__ZNK7WebCore11RenderMedia15virtualChildrenEv
__ZNK7WebCore11RenderVideo18shouldDisplayVideoEv
__ZNK7WebCore11RenderVideo28supportsAcceleratedRenderingEv
__ZNK7WebCore11MediaPlayer28supportsAcceleratedRenderingEv
__ZNK7WebCore27MediaPlayerPrivateInterface28supportsAcceleratedRenderingEv
__ZN7WebCore10ShadowRoot6attachEv
__ZN7WebCore21ShadowContentSelectorC2EPNS_10ShadowRootE
__ZNK7WebCore10ShadowRoot16isShadowBoundaryEv
__ZNK7WebCore23MediaControlsApple14shadowPseudoIdEv
__ZNK7WebCore24ApplyPropertyDefaultBaseINS_6LengthEE17applyInheritValueEPNS_16CSSStyleSelectorE
__ZNK7WebCore11RenderStyle5widthEv
__ZNK7WebCore11RenderStyle6heightEv
__ZN7WebCore11RenderMedia15virtualChildrenEv
__ZNK7WebCore24MediaControlPanelElement14shadowPseudoIdEv
__ZN7WebCore11RenderStyle9setBottomENS_6LengthE
__ZN7WebCore17RenderDeprecatedFlexibleBoxC1EPNS_4NodeE
__ZNK7WebCore31MediaControlRewindButtonElement14shadowPseudoIdEv
__ZNK7WebCore18ApplyPropertyColorILNS_12ColorInheritE1EE17applyInheritValueEPNS_16CSSStyleSelectorE
__ZNK7WebCore11RenderStyle5colorEv
__ZN7WebCore9InputType12defaultValueEv
__ZNK7WebCore29MediaControlPlayButtonElement14shadowPseudoIdEv
__ZNK7WebCore41MediaControlReturnToRealtimeButtonElement14shadowPseudoIdEv
__ZNK7WebCore13StyledElement20updateStyleAttributeEv
__ZNK7WebCore26CSSMutableStyleDeclaration7cssTextEv
__ZNK7WebCore11CSSProperty7cssTextEv
__ZNK7WebCore17CSSPrimitiveValue7cssTextEv
__ZN7WebCoreL19valueOrPropertyNameEi
__ZN7WebCore12getValueNameEt
__ZN7WebCore15getPropertyNameENS_13CSSPropertyIDE
__ZNK7WebCore32MediaControlStatusDisplayElement14shadowPseudoIdEv
__ZNK7WebCore11ShadowValue13isShadowValueEv
__ZN3WTF6OwnPtrIN7WebCore10ShadowDataEED1Ev
__ZNK7WebCore36MediaControlTimelineContainerElement14shadowPseudoIdEv
__ZN7WebCore11RenderStyle10setBoxPackENS_13EBoxAlignmentE
__ZNK7WebCore33MediaControlSeekBackButtonElement14shadowPseudoIdEv
__ZNK7WebCore36MediaControlSeekForwardButtonElement14shadowPseudoIdEv
__ZNK7WebCore45MediaControlToggleClosedCaptionsButtonElement14shadowPseudoIdEv
__ZN7WebCore11RenderStyle18setBoxOrdinalGroupEj
__ZNK7WebCore35MediaControlFullscreenButtonElement14shadowPseudoIdEv
__ZNK7WebCore34MediaControlPanelMuteButtonElement14shadowPseudoIdEv
__ZNK7WebCore40MediaControlVolumeSliderContainerElement14shadowPseudoIdEv
__ZN7WebCore11RenderStyle6setTopENS_6LengthE
__ZN7WebCore11RenderStyle7setLeftENS_6LengthE
__ZNK7WebCore44MediaControlFullscreenVolumeMinButtonElement14shadowPseudoIdEv
__ZNK7WebCore41MediaControlFullscreenVolumeSliderElement14shadowPseudoIdEv
__ZNK7WebCore14RenderThemeMac22adjustSliderTrackStyleEPNS_16CSSStyleSelectorEPNS_11RenderStyleEPNS_7ElementE
__ZNK7WebCore44MediaControlFullscreenVolumeMaxButtonElement14shadowPseudoIdEv
__ZN7WebCore11RenderVideo17updateFromElementEv
__ZN7WebCore11RenderVideo12updatePlayerEv
__ZN7WebCore11RenderVideo19updateIntrinsicSizeEv
__ZN7WebCore11RenderLayer14contentChangedENS0_17ContentChangeTypeE
__ZNK7WebCore11RenderVideo8videoBoxEv
__ZN7WebCore11MediaPlayer7setSizeERKNS_7IntSizeE
__ZN7WebCore22NullMediaPlayerPrivate7setSizeERKNS_7IntSizeE
__ZN7WebCore11MediaPlayer10setVisibleEb
__ZN7WebCore22NullMediaPlayerPrivate10setVisibleEb
__ZN7WebCore16HTMLVideoElement18updateDisplayStateEv
__ZNK7WebCore7Element23getNonEmptyURLAttributeERKNS_13QualifiedNameE
__ZN7WebCore16HTMLVideoElement14setDisplayModeENS_16HTMLMediaElement11DisplayModeE
__ZN7WebCore11MediaPlayer19prepareForRenderingEv
__ZN7WebCore27MediaPlayerPrivateInterface19prepareForRenderingEv
__ZNK7WebCore11MediaPlayer13canLoadPosterEv
__ZNK7WebCore22NullMediaPlayerPrivate13canLoadPosterEv
__ZN7WebCore10ShadowRoot22activeContentContainerEv
__ZN7WebCore10ShadowRoot19hostChildrenChangedEv
__ZN7WebCore16HTMLOListElementD0Ev
__ZN7WebCore16HTMLDListElementD0Ev
__ZN7WebCore13HTMLHRElementD0Ev
__ZN7WebCore27JSHTMLLabelElementPrototypeD1Ev
__ZN7WebCore5TimerINS_16HTMLMediaElementEE5firedEv
__ZN7WebCore16HTMLMediaElement14loadTimerFiredEPNS_5TimerIS0_EE
__ZN7WebCore16HTMLMediaElement19selectMediaResourceEv
__ZN7WebCore16HTMLMediaElement13scheduleEventERKN3WTF12AtomicStringE
__ZN3WTF6VectorINS_6RefPtrIN7WebCore5EventEEELm0EE14expandCapacityEm
__ZNK7WebCore21ContentSecurityPolicy20allowMediaFromSourceERKNS_4KURLE
__ZN7WebCore11ContentTypeC1ERKN3WTF6StringE
__ZN7WebCore16HTMLMediaElement12loadResourceERKNS_4KURLERNS_11ContentTypeE
__ZN7WebCore11FrameLoader23willLoadMediaElementURLERNS_4KURLE
__ZN7WebCore11MediaPlayer22setPrivateBrowsingModeEb
__ZN7WebCore27MediaPlayerPrivateInterface22setPrivateBrowsingModeEb
__ZN7WebCore11MediaPlayer10setPreloadENS0_7PreloadE
__ZN7WebCore27MediaPlayerPrivateInterface10setPreloadENS_11MediaPlayer7PreloadE
__ZN7WebCore11MediaPlayer17setPreservesPitchEb
__ZN7WebCore22NullMediaPlayerPrivate17setPreservesPitchEb
__ZN7WebCore16HTMLMediaElement12updateVolumeEv
__ZN7WebCore11MediaPlayer8setMutedEb
__ZNK7WebCore22NullMediaPlayerPrivate14supportsMutingEv
__ZN7WebCore22NullMediaPlayerPrivate9setVolumeEf
__ZN7WebCore11MediaPlayer9setVolumeEf
__ZN7WebCore23MediaControlsApple13changedVolumeEv
__ZN7WebCore11MediaPlayer4loadERKN3WTF6StringERKNS_11ContentTypeE
__ZNK7WebCore11ContentType4typeEv
__ZNK7WebCore11ContentType9parameterERKN3WTF6StringE
__ZN7WebCore16MIMETypeRegistry28getMediaMIMETypeForExtensionERKN3WTF6StringE
__ZN7WebCore16MIMETypeRegistry23getMIMETypeForExtensionERKN3WTF6StringE
__ZN7WebCore11MediaPlayer23loadWithNextMediaEngineEPNS_18MediaPlayerFactoryE
__ZN7WebCoreL31bestMediaEngineForTypeAndCodecsERKN3WTF6StringES3_PNS_18MediaPlayerFactoryE
__ZN7WebCore34MediaPlayerPrivateAVFoundationObjC12supportsTypeERKN3WTF6StringES4_
__ZN7WebCoreL13mimeTypeCacheEv
__ZL14initAVURLAssetv
__ZN7WebCore23MediaPlayerPrivateQTKit12supportsTypeERKN3WTF6StringES4_
__ZN7WebCoreL20mimeModernTypesCacheEv
__ZL11initQTMoviev
__ZN7WebCoreL19addFileTypesToCacheEP7NSArrayRN3WTF7HashSetINS2_6StringENS2_10StringHashENS2_10HashTraitsIS4_EEEE
__ZN7WebCore16MIMETypeRegistry29getMediaMIMETypesForExtensionERKN3WTF6StringE
__ZN7WebCoreL16mediaMIMETypeMapEv
__ZN3WTF9HashTableINS_6StringESt4pairIS1_PNS_6VectorIS1_Lm0EEEENS_18PairFirstExtractorIS6_EENS_15CaseFoldingHashENS_14PairHashTraitsINS_10HashTraitsIS1_EENSB_IS5_EEEESC_E16lookupForWritingIS1_NS_22IdentityHashTranslatorIS1_S6_S9_EEEES2_IPS6_bERKT_
__ZN3WTF9HashTableINS_6StringESt4pairIS1_PNS_6VectorIS1_Lm0EEEENS_18PairFirstExtractorIS6_EENS_15CaseFoldingHashENS_14PairHashTraitsINS_10HashTraitsIS1_EENSB_IS5_EEEESC_E3addIS1_S5_NS_17HashMapTranslatorIS6_SE_S9_EEEES2_INS_17HashTableIteratorIS1_S6_S8_S9_SE_SC_EEbERKT_RKT0_
__ZN3WTF9HashTableINS_6StringESt4pairIS1_PNS_6VectorIS1_Lm0EEEENS_18PairFirstExtractorIS6_EENS_15CaseFoldingHashENS_14PairHashTraitsINS_10HashTraitsIS1_EENSB_IS5_EEEESC_E6lookupIS1_NS_22IdentityHashTranslatorIS1_S6_S9_EEEEPS6_RKT_
__ZN3WTF9HashTableINS_6StringESt4pairIS1_PNS_6VectorIS1_Lm0EEEENS_18PairFirstExtractorIS6_EENS_15CaseFoldingHashENS_14PairHashTraitsINS_10HashTraitsIS1_EENSB_IS5_EEEESC_E6rehashEi
__ZN3WTF6VectorINS_6StringELm0EED1Ev
__ZN7WebCore34MediaPlayerPrivateAVFoundationObjC6createEPNS_11MediaPlayerE
__ZN7WebCore34MediaPlayerPrivateAVFoundationObjCC2EPNS_11MediaPlayerE
__ZN7WebCore30MediaPlayerPrivateAVFoundationC2EPNS_11MediaPlayerE
-[WebCoreAVFMovieObserver initWithCallback:]
__ZN7WebCore22NullMediaPlayerPrivateD0Ev
__ZThn120_N7WebCore16HTMLMediaElement24mediaPlayerEngineUpdatedEPNS_11MediaPlayerE
__ZNK7WebCore34MediaPlayerPrivateAVFoundationObjC28supportsAcceleratedRenderingEv
__ZN7WebCore11RenderVideo32acceleratedRenderingStateChangedEv
__ZN7WebCore11MediaPlayer32acceleratedRenderingStateChangedEv
__ZN7WebCore30MediaPlayerPrivateAVFoundation32acceleratedRenderingStateChangedEv
__ZN7WebCore30MediaPlayerPrivateAVFoundation19setUpVideoRenderingEv
__ZNK7WebCore11RenderMedia7isImageEv
__ZNK7WebCore16HTMLMediaElement13platformLayerEv
__ZNK7WebCore11MediaPlayer13platformLayerEv
__ZNK7WebCore34MediaPlayerPrivateAVFoundationObjC13platformLayerEv
__ZN7WebCore15GraphicsLayerCA18setContentsToMediaEP7CALayer
__ZN7WebCore18RenderLayerBacking14contentChangedENS_11RenderLayer17ContentChangeTypeE
__ZN7WebCore30MediaPlayerPrivateAVFoundation7setSizeERKNS_7IntSizeE
__ZN7WebCore30MediaPlayerPrivateAVFoundation10setVisibleEb
__ZN7WebCore34MediaPlayerPrivateAVFoundationObjC18platformSetVisibleEb
__ZN7WebCore30MediaPlayerPrivateAVFoundation10setPreloadENS_11MediaPlayer7PreloadE
__ZN7WebCore27MediaPlayerPrivateInterface17setPreservesPitchEb
__ZN7WebCore30MediaPlayerPrivateAVFoundation19prepareForRenderingEv
__ZNK7WebCore34MediaPlayerPrivateAVFoundationObjC18hasContextRendererEv
__ZNK7WebCore30MediaPlayerPrivateAVFoundation22preferredRenderingModeEv
__ZNK7WebCore11MediaPlayer7visibleEv
__ZNK7WebCore34MediaPlayerPrivateAVFoundationObjC11assetStatusEv
__ZThn120_N7WebCore16HTMLMediaElement36mediaPlayerRenderingCanBeAcceleratedEPNS_11MediaPlayerE
__ZNK7WebCore21RenderLayerCompositor27canAccelerateVideoRenderingEPNS_11RenderVideoE
__ZThn120_N7WebCore16HTMLMediaElement31mediaPlayerRenderingModeChangedEPNS_11MediaPlayerE
__ZN7WebCore30MediaPlayerPrivateAVFoundation4loadERKN3WTF6StringE
__ZN7WebCore11MediaPlayer19networkStateChangedEv
__ZNK7WebCore30MediaPlayerPrivateAVFoundation12networkStateEv
__ZThn120_N7WebCore16HTMLMediaElement30mediaPlayerNetworkStateChangedEPNS_11MediaPlayerE
__ZN7WebCore11MediaPlayer12networkStateEv
__ZN7WebCore16HTMLMediaElement15setNetworkStateENS_11MediaPlayer12NetworkStateE
__ZN7WebCore28mediaElementLoadingStateTextEv
__ZN7WebCore34MediaPlayerPrivateAVFoundationObjC19createAVAssetForURLERKN3WTF6StringE
__ZN7WebCore30MediaPlayerPrivateAVFoundation17setDelayCallbacksEb
__ZL38initAVURLAssetReferenceRestrictionsKeyv
__ZL18AVURLAssetFunctionv
__ZN7WebCore34MediaPlayerPrivateAVFoundationObjC14createAVPlayerEv
__ZL12initAVPlayerv
__ZL25initCMTimeMakeWithSecondsdi
___copy_helper_block_1
__ZN7WebCore34MediaPlayerPrivateAVFoundationObjC16checkPlayabilityEv
__ZNK7WebCore27MediaPlayerPrivateInterface13canLoadPosterEv
__ZN7WebCore5TimerINS_9FrameViewEE5firedEv
__ZN7WebCore9FrameView16layoutTimerFiredEPNS_5TimerIS0_EE
__ZN7WebCore16HTMLMediaElement11recalcStyleENS_4Node11StyleChangeE
__ZN7WebCore10ShadowRoot11recalcStyleENS_4Node11StyleChangeE
__ZNK7WebCore12RenderButton36requiresForcedStyleRecalcPropagationEv
__ZN7WebCore18SliderThumbElement6detachEv
__ZN7WebCore29MediaControlSeekButtonElement6detachEv
__ZN7WebCore11RenderVideo6layoutEv
__ZN7WebCore11RenderMedia6layoutEv
__ZNK7WebCore11RenderVideo21minimumReplacedHeightEv
__ZNK7WebCore11RenderVideo27computeReplacedLogicalWidthEb
__ZNK7WebCore14RenderReplaced27calcAspectRatioLogicalWidthEv
__ZNK7WebCore11RenderVideo28computeReplacedLogicalHeightEv
__ZNK7WebCore14RenderReplaced28calcAspectRatioLogicalHeightEv
__ZNK7WebCore11RenderMedia7isMediaEv
__ZN7WebCore11RenderBlock22insertPositionedObjectEPNS_9RenderBoxE
__ZN3WTF10PassOwnPtrINS_11ListHashSetIPN7WebCore9RenderBoxELm4ENS_7PtrHashIS4_EEEEED1Ev
__ZN7WebCoreL18setStaticPositionsEPNS_11RenderBlockEPNS_9RenderBoxE
__ZN7WebCore9RenderBox29computePositionedLogicalWidthEv
__ZNK7WebCore9RenderBox40containingBlockLogicalWidthForPositionedEPKNS_20RenderBoxModelObjectEb
__ZNK7WebCore9RenderBox18clientLogicalWidthEv
__ZN7WebCoreL27computeInlineStaticDistanceERNS_6LengthES1_PKNS_9RenderBoxEPKNS_20RenderBoxModelObjectEiNS_13TextDirectionE
__ZN7WebCore9RenderBox34computePositionedLogicalWidthUsingENS_6LengthEPKNS_20RenderBoxModelObjectENS_13TextDirectionEiiS1_S1_S1_S1_RiS6_S6_S6_
__ZN7WebCoreL34computeLogicalLeftPositionedOffsetERiPKNS_9RenderBoxEiPKNS_20RenderBoxModelObjectEi
__ZN7WebCore9RenderBox30computePositionedLogicalHeightEv
__ZNK7WebCore9RenderBox41containingBlockLogicalHeightForPositionedEPKNS_20RenderBoxModelObjectEb
__ZNK7WebCore9RenderBox19clientLogicalHeightEv
__ZNK7WebCore11RenderStyle10logicalTopEv
__ZNK7WebCore11RenderStyle13logicalBottomEv
__ZN7WebCoreL26computeBlockStaticDistanceERNS_6LengthES1_PKNS_9RenderBoxEPKNS_20RenderBoxModelObjectE
__ZN7WebCore9RenderBox35computePositionedLogicalHeightUsingENS_6LengthEPKNS_20RenderBoxModelObjectEiiS1_S1_S1_S1_RiS5_S5_S5_
__ZN7WebCoreL33computeLogicalTopPositionedOffsetERiPKNS_9RenderBoxEiPKNS_20RenderBoxModelObjectEi
__ZNK7WebCore12RenderButton14hasLineIfEmptyEv
__ZN7WebCore13InlineTextBox22setLogicalOverflowRectERKNS_7IntRectE
__ZNK7WebCore9RenderBox20contentLogicalHeightEv
__ZN7WebCoreL13compareZIndexEPNS_11RenderLayerES1_
__ZN7WebCore21RenderLayerCompositor35updateCompositingDescendantGeometryEPNS_11RenderLayerES2_NS_18RenderLayerBacking11UpdateDepthE
__ZN7WebCore14RenderThemeMac28paintMediaControlsBackgroundEPNS_12RenderObjectERKNS_9PaintInfoERKNS_7IntRectE
__ZN7WebCore14RenderThemeMac22paintMediaRewindButtonEPNS_12RenderObjectERKNS_9PaintInfoERKNS_7IntRectE
__ZN7WebCore14RenderThemeMac20paintMediaPlayButtonEPNS_12RenderObjectERKNS_9PaintInfoERKNS_7IntRectE
__ZN7WebCore13InlineTextBox28applyShadowToGraphicsContextEPNS_15GraphicsContextEPKNS_10ShadowDataERKNS_9FloatRectEbbb
__ZN7WebCore15GraphicsContext9setShadowERKNS_9FloatSizeEfRKNS_5ColorENS_10ColorSpaceE
__ZN7WebCore15GraphicsContext17setPlatformShadowERKNS_9FloatSizeEfRKNS_5ColorENS_10ColorSpaceE
__ZNK7WebCore9FloatSizecv6CGSizeEv
__ZN7WebCore15GraphicsContext11clearShadowEv
__ZN7WebCore15GraphicsContext19clearPlatformShadowEv
__ZN7WebCore16HTMLMediaElement20asyncEventTimerFiredEPNS_5TimerIS0_EE
__ZN7WebCore11EventTarget13dispatchEventEN3WTF10PassRefPtrINS_5EventEEERi
__ZN7WebCore16HTMLMediaElement23preDispatchEventHandlerEPNS_5EventE
__ZN7WebCore16HTMLMediaElement19defaultEventHandlerEPNS_5EventE
___createAVPlayer_block_invoke_1
__ZL20initCMTimeGetSeconds6CMTime
-[WebCoreAVFMovieObserver timeChanged:]
__ZN7WebCore30MediaPlayerPrivateAVFoundation30scheduleMainThreadNotificationENS0_12Notification4TypeEd
__ZN7WebCore30MediaPlayerPrivateAVFoundation30scheduleMainThreadNotificationENS0_12NotificationE
__ZN3WTF6VectorIN7WebCore30MediaPlayerPrivateAVFoundation12NotificationELm0EE15reserveCapacityEm
__ZN7WebCore30MediaPlayerPrivateAVFoundation20dispatchNotificationEv
__ZN3WTF11VectorMoverILb0EN7WebCore30MediaPlayerPrivateAVFoundation12NotificationEE15moveOverlappingEPKS3_S6_PS3_
__ZN7WebCore30MediaPlayerPrivateAVFoundation11timeChangedEd
___checkPlayability_block_invoke_2
-[WebCoreAVFMovieObserver playableKnown]
__ZN7WebCore30MediaPlayerPrivateAVFoundation18mainThreadCallbackEPv
__ZN7WebCore30MediaPlayerPrivateAVFoundation12updateStatesEv
__ZNK7WebCore34MediaPlayerPrivateAVFoundationObjC16playerItemStatusEv
__ZN7WebCore30MediaPlayerPrivateAVFoundation16playabilityKnownEv
__ZN7WebCore34MediaPlayerPrivateAVFoundationObjC20beginLoadingMetadataEv
___beginLoadingMetadata_block_invoke_3
-[WebCoreAVFMovieObserver metadataLoaded]
__ZN7WebCore30MediaPlayerPrivateAVFoundation14metadataLoadedEv
__ZN7WebCore34MediaPlayerPrivateAVFoundationObjC13tracksChangedEv
__ZL31initAVMediaCharacteristicVisualv
__ZN7WebCore30MediaPlayerPrivateAVFoundation11setHasVideoEb
__ZN7WebCore11MediaPlayer21characteristicChangedEv
__ZThn120_N7WebCore16HTMLMediaElement32mediaPlayerCharacteristicChangedEPNS_11MediaPlayerE
__ZN7WebCore16HTMLMediaElement32mediaPlayerCharacteristicChangedEPNS_11MediaPlayerE
__ZNK7WebCore30MediaPlayerPrivateAVFoundation18supportsFullscreenEv
__ZNK7WebCore11MediaPlayer8hasVideoEv
__ZNK7WebCore30MediaPlayerPrivateAVFoundation8hasVideoEv
__ZNK7WebCore30MediaPlayerPrivateAVFoundation8hasAudioEv
__ZNK7WebCore30MediaPlayerPrivateAVFoundation17hasClosedCaptionsEv
__ZNK7WebCore30MediaPlayerPrivateAVFoundation13movieLoadTypeEv
__ZL32initAVMediaCharacteristicAudiblev
__ZN7WebCore30MediaPlayerPrivateAVFoundation11setHasAudioEb
__ZL28initAVMediaTypeClosedCaptionv
__ZN7WebCore30MediaPlayerPrivateAVFoundation20setHasClosedCaptionsEb
__ZN7WebCore34MediaPlayerPrivateAVFoundationObjC11sizeChangedEv
__ZN7WebCore30MediaPlayerPrivateAVFoundation14setNaturalSizeENS_7IntSizeE
__ZN7WebCore11MediaPlayer11sizeChangedEv
__ZThn120_N7WebCore16HTMLMediaElement22mediaPlayerSizeChangedEPNS_11MediaPlayerE
__ZN7WebCore30MediaPlayerPrivateAVFoundation13prepareToPlayEv
__ZN7WebCore34MediaPlayerPrivateAVFoundationObjC18createAVPlayerItemEv
__ZL16initAVPlayerItemv
__ZL44initAVPlayerItemDidPlayToEndTimeNotificationv
__ZN7WebCore34MediaPlayerPrivateAVFoundationObjC16createVideoLayerEv
__ZL17initAVPlayerLayerv
__ZNK7WebCore34MediaPlayerPrivateAVFoundationObjC22hasAvailableVideoFrameEv
__ZN7WebCore11MediaPlayer17readyStateChangedEv
__ZThn120_N7WebCore16HTMLMediaElement28mediaPlayerReadyStateChangedEPNS_11MediaPlayerE
__ZN7WebCore11MediaPlayer10readyStateEv
__ZNK7WebCore30MediaPlayerPrivateAVFoundation10readyStateEv
__ZN7WebCore16HTMLMediaElement13setReadyStateENS_11MediaPlayer10ReadyStateE
__ZN7WebCore23MediaControlsApple14loadedMetadataEv
__ZNK7WebCore30MediaPlayerPrivateAVFoundation8durationEv
__ZNK7WebCore34MediaPlayerPrivateAVFoundationObjC16platformDurationEv
__ZNK7WebCore11MediaPlayer8durationEv
__ZN7WebCore27MediaControlTimelineElement11setDurationEf
__ZNK7WebCore16HTMLMediaElement11currentTimeEv
__ZNK7WebCore11MediaPlayer31maximumDurationToCacheMediaTimeEv
__ZNK7WebCore27MediaPlayerPrivateInterface31maximumDurationToCacheMediaTimeEv
__ZNK7WebCore11MediaPlayer11currentTimeEv
__ZNK7WebCore34MediaPlayerPrivateAVFoundationObjC11currentTimeEv
__ZN7WebCore27MediaControlTimelineElement11setPositionEf
__ZN7WebCore23MediaControlsApple17updateTimeDisplayEv
__ZNK7WebCore11RenderTheme30formatMediaControlsCurrentTimeEff
__ZNK7WebCore11RenderTheme23formatMediaControlsTimeEf
__ZN7WebCore30MediaControlTimeDisplayElement15setCurrentValueEf
__ZNK7WebCore11RenderTheme32formatMediaControlsRemainingTimeEff
__ZN7WebCore11MediaPlayer11naturalSizeEv
__ZNK7WebCore30MediaPlayerPrivateAVFoundation11naturalSizeEv
__ZN7WebCore15PlatformCALayer6createEPvPNS_21PlatformCALayerClientE
__ZN7WebCore16HTMLMediaElement15updatePlayStateEv
__ZNK7WebCore11MediaPlayer6pausedEv
__ZNK7WebCore30MediaPlayerPrivateAVFoundation6pausedEv
__ZNK7WebCore34MediaPlayerPrivateAVFoundationObjC4rateEv
__ZN7WebCore23MediaControlsApple15playbackStoppedEv
__ZN3WTF6VectorIN7WebCore9FloatRectELm0EE15reserveCapacityEm
__ZNK7WebCore11RenderBlock19virtualContinuationEv
__ZN7WebCore11RenderLayer11removeChildEPS0_
__ZN7WebCore21RenderLayerCompositor18layerWillBeRemovedEPNS_11RenderLayerES2_
__ZN7WebCore17RenderDeprecatedFlexibleBoxD0Ev
__ZNK7WebCore37MediaControlCurrentTimeDisplayElement14shadowPseudoIdEv
__ZN7WebCore30MediaControlTimeDisplayElement14createRendererEPNS_11RenderArenaEPNS_11RenderStyleE
__ZNK7WebCore27MediaControlTimelineElement14shadowPseudoIdEv
__ZN7WebCore11RenderStyle13initialMarginEv
__ZNK7WebCore14RangeInputType14createRendererEPNS_11RenderArenaEPNS_11RenderStyleE
__ZN7WebCore12RenderSliderC1EPNS_16HTMLInputElementE
__ZNK7WebCore18SliderThumbElement14shadowPseudoIdEv
__ZNK7WebCore14RenderThemeMac22adjustSliderThumbStyleEPNS_16CSSStyleSelectorEPNS_11RenderStyleEPNS_7ElementE
__ZN7WebCore18SliderThumbElement14createRendererEPNS_11RenderArenaEPNS_11RenderStyleE
__ZNK7WebCore39MediaControlTimeRemainingDisplayElement14shadowPseudoIdEv
__ZN7WebCore12RenderSlider29computePreferredLogicalWidthsEv
__ZN7WebCore29RenderMediaControlTimeDisplay6layoutEv
__ZN7WebCore12RenderSlider6layoutEv
__ZNK7WebCore14RenderThemeMac21adjustSliderThumbSizeEPNS_12RenderObjectE
__ZNK7WebCore14RenderThemeMac26adjustMediaSliderThumbSizeEPNS_12RenderObjectE
__ZN7WebCore17RenderSliderThumb6layoutEv
__ZN7WebCore12RenderSlider9thumbRectEv
__ZN7WebCore9StepRange16valueFromElementEPNS_16HTMLInputElementEPb
__ZN7WebCore15GraphicsLayerCA18setupContentsLayerEPNS_15PlatformCALayerE
__ZN7WebCore15PlatformCALayer14setAnchorPointERKNS_12FloatPoint3DE
__ZN3WTF6VectorIN7WebCore9FloatRectELm0EE14shrinkCapacityEm
__ZN7WebCore14RenderThemeMac21paintMediaSliderTrackEPNS_12RenderObjectERKNS_9PaintInfoERKNS_7IntRectE
__ZNK7WebCore16HTMLMediaElement8bufferedEv
__ZN7WebCore11MediaPlayer8bufferedEv
__ZNK7WebCore30MediaPlayerPrivateAVFoundation8bufferedEv
__ZNK7WebCore34MediaPlayerPrivateAVFoundationObjC26platformBufferedTimeRangesEv
__ZN7WebCore10TimeRanges4copyEv
__ZN7WebCoreL38getUnzoomedRectAndAdjustCurrentContextEPNS_12RenderObjectERKNS_9PaintInfoERKNS_7IntRectE
__ZN3WTF10RefCountedIN7WebCore10TimeRangesEE5derefEv
__ZNK7WebCore12RenderSlider8isSliderEv
__ZN7WebCore14RenderThemeMac21paintMediaSliderThumbEPNS_12RenderObjectERKNS_9PaintInfoERKNS_7IntRectE
__ZN7WebCore14RenderThemeMac26paintMediaFullscreenButtonEPNS_12RenderObjectERKNS_9PaintInfoERKNS_7IntRectE
__ZN7WebCore14RenderThemeMac20paintMediaMuteButtonEPNS_12RenderObjectERKNS_9PaintInfoERKNS_7IntRectE
-[WebCoreAVFMovieObserver observeValueForKeyPath:ofObject:change:context:]
__ZL20initAVMediaTypeVideov
__ZL20initAVMediaTypeAudiov
__ZL24AVMediaTypeVideoFunctionv
__ZN7WebCore30MediaPlayerPrivateAVFoundation11rateChangedEv
__ZN7WebCore11MediaPlayer11rateChangedEv
__ZThn120_N7WebCore16HTMLMediaElement22mediaPlayerRateChangedEPNS_11MediaPlayerE
__ZNK7WebCore11MediaPlayer4rateEv
__ZN7WebCore16HTMLMediaElement23progressEventTimerFiredEPNS_5TimerIS0_EE
__ZN7WebCore11MediaPlayer11bytesLoadedEv
__ZNK7WebCore30MediaPlayerPrivateAVFoundation11bytesLoadedEv
__ZNK7WebCore34MediaPlayerPrivateAVFoundationObjC10totalBytesEv
__ZNK7WebCore34MediaPlayerPrivateAVFoundationObjC21platformMaxTimeLoadedEv
__ZL15initkCMTimeZerov
__ZL17initCMTimeCompare6CMTimeS_
__ZL21initCMTimeRangeGetEnd11CMTimeRange
__ZN7WebCore8Document28decrementLoadEventDelayCountEv
__ZN7WebCore30MediaPlayerPrivateAVFoundation23loadedTimeRangesChangedEv
__ZL19kCMTimeZeroFunctionv
__ZN7WebCoreL29createHTMLVideoElementWrapperEPN3JSC9ExecStateEPNS_17JSDOMGlobalObjectEN3WTF10PassRefPtrINS_11HTMLElementEEE
__ZN7WebCore13createWrapperINS_18JSHTMLVideoElementENS_16HTMLVideoElementEEEPNS_12JSDOMWrapperEPN3JSC9ExecStateEPNS_17JSDOMGlobalObjectEPT0_
__ZN7WebCore15getDOMStructureINS_18JSHTMLVideoElementEEEPN3JSC9StructureEPNS2_9ExecStateEPNS_17JSDOMGlobalObjectE
__ZN7WebCore18JSHTMLVideoElement15createPrototypeEPN3JSC9ExecStateEPNS1_14JSGlobalObjectE
__ZN7WebCore27JSHTMLMediaElementPrototype4selfEPN3JSC9ExecStateEPNS1_14JSGlobalObjectE
__ZN7WebCore15getDOMStructureINS_18JSHTMLMediaElementEEEPN3JSC9StructureEPNS2_9ExecStateEPNS_17JSDOMGlobalObjectE
__ZN7WebCore18JSHTMLMediaElement15createPrototypeEPN3JSC9ExecStateEPNS1_14JSGlobalObjectE
__ZN7WebCore18JSHTMLVideoElementC1EPN3JSC9StructureEPNS_17JSDOMGlobalObjectEN3WTF10PassRefPtrINS_16HTMLVideoElementEEE
__ZN7WebCore18JSHTMLMediaElementC2EPN3JSC9StructureEPNS_17JSDOMGlobalObjectEN3WTF10PassRefPtrINS_16HTMLMediaElementEEE
__ZN7WebCore12cacheWrapperINS_16HTMLVideoElementEEEvPNS_15DOMWrapperWorldEPT_PNS_12JSDOMWrapperE
__ZN7WebCore18JSHTMLVideoElement18getOwnPropertySlotEPN3JSC9ExecStateERKNS1_10IdentifierERNS1_12PropertySlotE
__ZN7WebCore18JSHTMLMediaElement18getOwnPropertySlotEPN3JSC9ExecStateERKNS1_10IdentifierERNS1_12PropertySlotE
__ZN7WebCore27JSHTMLVideoElementPrototype18getOwnPropertySlotEPN3JSC9ExecStateERKNS1_10IdentifierERNS1_12PropertySlotE
__ZN7WebCore27JSHTMLMediaElementPrototype18getOwnPropertySlotEPN3JSC9ExecStateERKNS1_10IdentifierERNS1_12PropertySlotE
__ZN3JSC21getStaticPropertySlotIN7WebCore27JSHTMLMediaElementPrototypeENS_8JSObjectEEEbPNS_9ExecStateEPKNS_9HashTableEPT_RKNS_10IdentifierERNS_12PropertySlotE
__ZN7WebCore16jsDOMWindowEventEPN3JSC9ExecStateENS0_7JSValueERKNS0_10IdentifierE
__ZNK7WebCore11JSDOMWindow5eventEPN3JSC9ExecStateE
__ZN3JSC4WeakIN7WebCore12JSDOMWrapperEEC2ERKS3_
__ZN7WebCore7JSEvent18getOwnPropertySlotEPN3JSC9ExecStateERKNS1_10IdentifierERNS1_12PropertySlotE
__ZN7WebCore25getHashTableForGlobalDataERN3JSC12VMEPKNS0_9HashTableE
__ZN7WebCore21DOMObjectHashTableMap6mapForERN3JSC12VME
__ZN7WebCore21DOMObjectHashTableMap3getEPKN3JSC9HashTableE
__ZN3JSC18getStaticValueSlotIN7WebCore7JSEventENS1_12JSDOMWrapperEEEbPNS_9ExecStateEPKNS_9HashTableEPT_RKNS_10IdentifierERNS_12PropertySlotE
__ZN7WebCore11jsEventTypeEPN3JSC9ExecStateENS0_7JSValueERKNS0_10IdentifierE
__ZN7WebCore47jsDocumentPrototypeFunctionGetElementsByTagNameEPN3JSC9ExecStateE
__ZN7WebCore4toJSEPN3JSC9ExecStateEPNS_17JSDOMGlobalObjectEPNS_8NodeListE
__ZN7WebCore4wrapINS_10JSNodeListENS_8NodeListEEEN3JSC7JSValueEPNS3_9ExecStateEPNS_17JSDOMGlobalObjectEPT0_
__ZN7WebCore15getDOMStructureINS_10JSNodeListEEEPN3JSC9StructureEPNS2_9ExecStateEPNS_17JSDOMGlobalObjectE
__ZN7WebCore10JSNodeList15createPrototypeEPN3JSC9ExecStateEPNS1_14JSGlobalObjectE
__ZN7WebCore12cacheWrapperINS_8NodeListEEEvPNS_15DOMWrapperWorldEPT_PNS_12JSDOMWrapperE
__ZN7WebCore10JSNodeList18getOwnPropertySlotEPN3JSC9ExecStateEjRNS1_12PropertySlotE
__ZN7WebCore10JSNodeList11indexGetterEPN3JSC9ExecStateENS1_7JSValueEj
__ZNK7WebCore15DynamicNodeList4itemEj
__ZN7WebCore11RenderBlock26simplifiedNormalFlowLayoutEv
__ZNK7WebCore19MediaControlElement21isMediaControlElementEv
__ZN7WebCore25AccessibilityMediaControl6createEPNS_12RenderObjectE
__ZNK7WebCore24MediaControlPanelElement11displayTypeEv
__ZNK7WebCore35AccessibilityMediaControlsContainer22accessibilityIsIgnoredEv
__ZNK7WebCore35AccessibilityMediaControlsContainer9roleValueEv
__ZNK7WebCore35AccessibilityMediaControlsContainer24accessibilityDescriptionEv
__ZNK7WebCore35AccessibilityMediaControlsContainer15elementTypeNameEv
__ZN7WebCore34localizedMediaControlElementStringERKN3WTF6StringE
__ZN7WebCore15DynamicNodeList15invalidateCacheEv
__ZNK7WebCore24MediaControlInputElement21isMediaControlElementEv
__ZNK7WebCore25AccessibilityMediaControl22accessibilityIsIgnoredEv
__ZNK7WebCore25AccessibilityMediaControl11controlTypeEv
__ZNK7WebCore36MediaControlTimelineContainerElement11displayTypeEv
__ZNK7WebCore25AccessibilityMediaControl9roleValueEv
__ZNK7WebCore37MediaControlCurrentTimeDisplayElement11displayTypeEv
__ZNK7WebCore29AccessibilityMediaTimeDisplay22accessibilityIsIgnoredEv
__ZNK7WebCore9InputType12isTextButtonEv
__ZNK7WebCore16HTMLInputElement12isFileUploadEv
__ZNK7WebCore9InputType12isFileUploadEv
__ZNK7WebCore19AccessibilitySlider22accessibilityIsIgnoredEv
__ZNK7WebCore19AccessibilitySlider9roleValueEv
__ZNK7WebCore39MediaControlTimeRemainingDisplayElement11displayTypeEv
__ZNK7WebCore25AccessibilityMediaControl24accessibilityDescriptionEv
__ZNK7WebCore25AccessibilityMediaControl15controlTypeNameEv
__ZNK7WebCore29AccessibilityMediaTimeDisplay9roleValueEv
__ZNK7WebCore29AccessibilityMediaTimeDisplay24accessibilityDescriptionEv
__ZN7WebCore19AccessibilitySlider8childrenEv
__ZN7WebCore19AccessibilitySlider11addChildrenEv
__ZNK7WebCore24AccessibilitySliderThumb22accessibilityIsIgnoredEv
__ZNK7WebCore24AccessibilitySliderThumb9roleValueEv
__ZNK7WebCore24AccessibilitySliderThumb12parentObjectEv
__ZN7WebCore8Document24loadEventDelayTimerFiredEPNS_5TimerIS0_EE
__ZThn136_NK7WebCore16HTMLMediaElement10canSuspendEv
__ZN7WebCore24AccessibilitySliderThumbD0Ev
__ZN7WebCore25AccessibilityMediaControlD0Ev
__ZN7WebCore29AccessibilityMediaTimeDisplayD0Ev
__ZN7WebCore26AccessibilityMediaTimelineD0Ev
__ZN7WebCore35AccessibilityMediaControlsContainerD0Ev
__ZThn136_N7WebCore16HTMLMediaElement4stopEv
__ZN7WebCore16HTMLMediaElement4stopEv
__ZN7WebCore16HTMLMediaElement17userCancelledLoadEv
__ZN7WebCore7Element26documentWillBecomeInactiveEv
__ZN7WebCore16HTMLVideoElement6detachEv
__ZN7WebCore29RenderMediaControlTimeDisplayD0Ev
__ZN7WebCore17RenderSliderThumbD0Ev
__ZN7WebCore12RenderSliderD0Ev
__ZN7WebCore11RenderVideoD0Ev
__ZN7WebCore11RenderMediaD2Ev
__ZN7WebCore11RenderImageD2Ev
__ZN7WebCore11RenderLayer25setHasHorizontalScrollbarEb
__ZN7WebCore11RenderLayer23setHasVerticalScrollbarEb
__ZN7WebCore11RenderLayer15createScrollbarENS_20ScrollbarOrientationE
__ZN7WebCore11RenderBlock17scrollbarsChangedEbb
__ZN7WebCore9Scrollbar22maxOverlapBetweenPagesEv
__ZN7WebCore17ScrollbarThemeMac22maxOverlapBetweenPagesEv
__ZN7WebCore23ScrollbarThemeComposite11trackLengthEPNS_9ScrollbarE
__ZN7WebCore17ScrollbarThemeMac18minimumThumbLengthEPNS_9ScrollbarE
__ZNK7WebCore11RenderLayer25layerForVerticalScrollbarEv
__ZN7WebCore11RenderLayer23invalidateScrollbarRectEPNS_9ScrollbarERKNS_7IntRectE
__ZNK7WebCore11RenderLayer27layerForHorizontalScrollbarEv
__ZN7WebCore21JSHTMLTextAreaElement3putEPN3JSC9ExecStateERKNS1_10IdentifierENS1_7JSValueERNS1_15PutPropertySlotE
__ZN3JSC9lookupPutIN7WebCore21JSHTMLTextAreaElementEEEbPNS_9ExecStateERKNS_10IdentifierENS_7JSValueEPKNS_9HashTableEPT_
__ZN7WebCore9JSElement3putEPN3JSC9ExecStateERKNS1_10IdentifierENS1_7JSValueERNS1_15PutPropertySlotE
__ZN3JSC9lookupPutIN7WebCore9JSElementEEEbPNS_9ExecStateERKNS_10IdentifierENS_7JSValueEPKNS_9HashTableEPT_
__ZN7WebCore21setJSElementScrollTopEPN3JSC9ExecStateEPNS0_8JSObjectENS0_7JSValueE
__ZN7WebCore7Element12setScrollTopEi
__ZN7WebCore9RenderBox12setScrollTopEi
__ZN7WebCore11RenderLayer14scrollToOffsetEii
__ZN7WebCore17ScrollAnimatorMac21notityPositionChangedEv
__ZN7WebCore14ScrollAnimator21notityPositionChangedEv
__ZN7WebCore14ScrollableArea28setScrollOffsetFromAnimationERKNS_8IntPointE
__ZN7WebCore11RenderLayer15setScrollOffsetERKNS_8IntPointE
__ZN7WebCore11RenderLayer8scrollToEii
__ZN7WebCore12EventHandler36dispatchFakeMouseMoveEventSoonInQuadERKNS_9FloatQuadE
__ZNK7WebCore9FloatQuad13containsPointERKNS_10FloatPointE
__ZN7WebCore9Scrollbar15offsetDidChangeEv
__ZNK7WebCore11RenderLayer14scrollPositionEPNS_9ScrollbarE
__ZN7WebCore9Scrollbar19updateThumbPositionEv
__ZN7WebCore28setJSHTMLTextAreaElementRowsEPN3JSC9ExecStateEPNS0_8JSObjectENS0_7JSValueE
__ZN7WebCore19HTMLTextAreaElement7setRowsEi
__ZN7WebCore17RenderTextControl17addFocusRingRectsERN3WTF6VectorINS_7IntRectELm0EEEii
__ZN7WebCore15JSNodeListOwner26isReachableFromOpaqueRootsEN3JSC6HandleINS1_7UnknownEEEPvRNS1_9MarkStackE
__ZN7WebCore15JSNodeListOwner8finalizeEN3JSC6HandleINS1_7UnknownEEEPv
__ZN7WebCore18JSHTMLVideoElementD1Ev
__ZN7WebCore10JSNodeListD1Ev
__ZN7WebCore16HTMLVideoElementD0Ev
__ZN7WebCore16HTMLMediaElementD2Ev
__ZN7WebCore8Document40unregisterForDocumentActivationCallbacksEPNS_7ElementE
__ZNK3WTF9HashTableIPN7WebCore7ElementES3_NS_17IdentityExtractorIS3_EENS_7PtrHashIS3_EENS_10HashTraitsIS3_EES9_E4findIS3_NS_22IdentityHashTranslatorIS3_S3_S7_EEEENS_22HashTableConstIteratorIS3_S3_S5_S7_S9_S9_EERKT_
__ZN3WTF9HashTableIPN7WebCore7ElementES3_NS_17IdentityExtractorIS3_EENS_7PtrHashIS3_EENS_10HashTraitsIS3_EES9_E6removeEPS3_
__ZN7WebCore8Document33unregisterForMediaVolumeCallbacksEPNS_7ElementE
__ZN7WebCore8Document49unregisterForPrivateBrowsingStateChangedCallbacksEPNS_7ElementE
__ZN7WebCore11MediaPlayerD0Ev
__ZN7WebCore34MediaPlayerPrivateAVFoundationObjCD0Ev
__ZN7WebCore34MediaPlayerPrivateAVFoundationObjC10cancelLoadEv
__ZN7WebCore30MediaPlayerPrivateAVFoundation22tearDownVideoRenderingEv
__ZN7WebCore34MediaPlayerPrivateAVFoundationObjC27destroyContextVideoRendererEv
__ZN7WebCore34MediaPlayerPrivateAVFoundationObjC17destroyVideoLayerEv
-[WebCoreAVFMovieObserver disconnect]
__ZN7WebCore30MediaPlayerPrivateAVFoundationD2Ev
__ZThn8_N7WebCore10ShadowRootD0Ev
__ZN7WebCore23MediaControlsAppleD0Ev
__ZN7WebCore24MediaControlPanelElementD0Ev
__ZN7WebCore31MediaControlRewindButtonElementD0Ev
__ZN7WebCore16HTMLInputElementD2Ev
__ZN7WebCore29MediaControlPlayButtonElementD0Ev
__ZN7WebCore41MediaControlReturnToRealtimeButtonElementD0Ev
__ZN7WebCore32MediaControlStatusDisplayElementD0Ev
__ZN7WebCore36MediaControlTimelineContainerElementD0Ev
__ZN7WebCore33MediaControlSeekBackButtonElementD0Ev
__ZN7WebCore36MediaControlSeekForwardButtonElementD0Ev
__ZN7WebCore45MediaControlToggleClosedCaptionsButtonElementD0Ev
__ZN7WebCore35MediaControlFullscreenButtonElementD0Ev
__ZN7WebCore34MediaControlPanelMuteButtonElementD0Ev
__ZN7WebCore40MediaControlVolumeSliderContainerElementD0Ev
__ZN7WebCore44MediaControlFullscreenVolumeMinButtonElementD0Ev
__ZN7WebCore41MediaControlFullscreenVolumeSliderElementD0Ev
__ZN7WebCore14RangeInputTypeD0Ev
__ZN7WebCore18SliderThumbElementD0Ev
__ZN7WebCore44MediaControlFullscreenVolumeMaxButtonElementD0Ev
__ZN7WebCore37MediaControlCurrentTimeDisplayElementD0Ev
__ZN7WebCore27MediaControlTimelineElementD0Ev
__ZN7WebCore39MediaControlTimeRemainingDisplayElementD0Ev
__ZN7WebCore31MediaControlVolumeSliderElementD0Ev
__ZN7WebCore41MediaControlVolumeSliderMuteButtonElementD0Ev
__ZN7WebCore27JSHTMLMediaElementPrototypeD1Ev
__ZN7WebCore27JSHTMLVideoElementPrototypeD1Ev
__ZN7WebCore19JSNodeListPrototypeD1Ev
__ZN7WebCore13FileInputType6createEPNS_16HTMLInputElementE
__ZN7WebCore8FileListC1Ev
__ZNK7WebCore13FileInputType15formControlTypeEv
__ZN7WebCore14InputTypeNames4fileEv
__ZN7WebCore13FileInputType32storesValueSeparateFromAttributeEv
__ZN7WebCore13FileInputType20getTypeSpecificValueERN3WTF6StringE
__ZNK7WebCore13FileInputType14createRendererEPNS_11RenderArenaEPNS_11RenderStyleE
__ZN7WebCore23RenderFileUploadControlC1EPNS_16HTMLInputElementE
__ZN7WebCore23RenderFileUploadControlC2EPNS_16HTMLInputElementE
__ZN7WebCore16HTMLInputElement5filesEv
__ZN7WebCore13FileInputType5filesEv
__ZN7WebCore11FileChooser6createEPNS_17FileChooserClientERKN3WTF6VectorINS3_6StringELm0EEE
__ZN7WebCore23RenderFileUploadControl14styleDidChangeENS_15StyleDifferenceEPKNS_11RenderStyleE
__ZN7WebCore23RenderFileUploadControl17updateFromElementEv
__ZN7WebCore18ShadowInputElement6createEPNS_11HTMLElementE
__ZN7WebCore25fileButtonChooseFileLabelEv
__ZN7WebCore9InputType12valueChangedEv
__ZN7WebCore22HTMLFormControlElement11setDisabledEb
__ZN7WebCore23RenderFileUploadControl29computePreferredLogicalWidthsEv
__ZNK7WebCore13FileInputType12isFileUploadEv
__ZN7WebCore23RenderFileUploadControl11paintObjectERNS_9PaintInfoEii
__ZN7WebCore29fileButtonNoFileSelectedLabelEv
__ZN7WebCore12RenderObject23absoluteBoundingBoxRectEb
__ZN7WebCore11RenderBlock13absoluteRectsERN3WTF6VectorINS_7IntRectELm0EEEii
__ZThn8_N7WebCore19HTMLTextAreaElementD0Ev
___destroy_helper_block_1
__ZN7WebCore23RenderFileUploadControlD0Ev
__ZN7WebCore13ShadowElementINS_16HTMLInputElementEE6detachEv
__ZN7WebCore11FileChooserD1Ev
__ZThn8_N7WebCore18ShadowInputElementD0Ev
__ZN7WebCore17FileChooserClientD2Ev
__ZN7WebCore11RenderTable11splitColumnEii
__ZN7WebCore18RenderTableSection11splitColumnEii
__ZN3WTF6VectorIN7WebCore18RenderTableSection10CellStructELm0EE6insertIS3_EEvmRKT_
__ZN3WTF11VectorMoverILb0EN7WebCore18RenderTableSection10CellStructEE15moveOverlappingEPKS3_S6_PS3_
__ZN3WTF6VectorIPN7WebCore15RenderTableCellELm1EE6appendIS3_EEvPKT_m
__ZN7WebCoreL15namedItemGetterEPN3JSC9ExecStateENS0_7JSValueERKNS0_10IdentifierE
__ZN7WebCore8Document16windowNamedItemsERKN3WTF6StringE
__ZN7WebCore18HTMLNameCollectionC1EN3WTF10PassRefPtrINS_8DocumentEEENS_14CollectionTypeERKNS1_6StringE
__ZN7WebCore18HTMLNameCollectionC2EN3WTF10PassRefPtrINS_8DocumentEEENS_14CollectionTypeERKNS1_6StringE
__ZN7WebCore8Document18nameCollectionInfoENS_14CollectionTypeERKN3WTF12AtomicStringE
__ZN7WebCore14HTMLCollectionC2EN3WTF10PassRefPtrINS_4NodeEEENS_14CollectionTypeEPNS_15CollectionCacheE
__ZNK7WebCore18HTMLNameCollection9itemAfterEPNS_7ElementE
__ZN7WebCore18HTMLNameCollectionD0Ev
__ZN7WebCore14HTMLCollectionD2Ev
__ZN3WTF6VectorIN7WebCore15AutoTableLayout6LayoutELm4EE15reserveCapacityEm
__ZN7WebCore15AutoTableLayout14insertSpanCellEPNS_15RenderTableCellE
__ZN3WTF6VectorIPN7WebCore15RenderTableCellELm4EE15reserveCapacityEm
__ZNK7WebCore16HTMLTableElement5tHeadEv
