__ZN7WebCore12IconDatabase20delayDatabaseCleanupEv
__ZN7WebCore21reportThreadViolationEPKcNS_20ThreadViolationRoundE
__ZN7WebCoreL43readThreadViolationBehaviorFromUserDefaultsEv
__ZN7WebCore12iconDatabaseEv
__ZN7WebCore16ScriptController19initializeThreadingEv
__ZN7WebCore12IconDatabaseC1Ev
__ZN7WebCore12IconDatabaseC2Ev
__ZN7WebCore9TimerBaseC2Ev
__ZN7WebCoreL13defaultClientEv
__ZN7WebCore14SQLiteDatabaseC1Ev
__ZN7WebCore14SQLiteDatabaseC2Ev
__ZN7WebCore12IconDatabase10setEnabledEb
__ZN7WebCore12IconDatabase9setClientEPNS_18IconDatabaseClientE
__ZN7WebCore12IconDatabase25setPrivateBrowsingEnabledEb
__ZN7WebCore6StringC1EP8NSString
__ZN7WebCore6StringC2EP8NSString
__ZN3WTF6VectorItLm1024EE6shrinkEm
__ZN7WebCore12IconDatabase4openERKNS_6StringE
__ZNK7WebCore12IconDatabase6isOpenEv
__ZN7WebCore12IconDatabase23defaultDatabaseFilenameEv
__ZN7WebCore24pathByAppendingComponentERKNS_6StringES2_
__ZN7WebCore12IconDatabase27iconDatabaseSyncThreadStartEPv
__ZN7WebCore12IconDatabase22iconDatabaseSyncThreadEv
__ZN7WebCore18makeAllDirectoriesERKNS_6StringE
__ZN7WebCore24fileSystemRepresentationERKNS_6StringE
__ZNK7WebCore6String14createCFStringEv
__ZN7WebCore10StringImpl14createCFStringEv
__ZN3WTF6VectorIcLm0EE6shrinkEm
__ZN7WebCore15AutodrainedPoolC1Ei
__ZN7WebCore15AutodrainedPoolC2Ei
__ZN7WebCore10fileExistsERKNS_6StringE
__ZN7WebCore15AutodrainedPoolD1Ev
__ZN7WebCore15AutodrainedPoolD2Ev
__ZN7WebCore14SQLiteDatabase4openERKNS_6StringEb
__ZN7WebCore14SQLiteDatabase5closeEv
__ZN7WebCore16SQLiteFileSystem12openDatabaseERKNS_6StringEPP7sqlite3b
_WebCoreObjCFinalizeOnMainThread
__ZN7WebCore15SQLiteStatementC1ERNS_14SQLiteDatabaseERKNS_6StringE
__ZN7WebCore15SQLiteStatementC2ERNS_14SQLiteDatabaseERKNS_6StringE
__ZN7WebCore15SQLiteStatement14executeCommandEv
__ZN7WebCore15SQLiteStatement7prepareEv
__ZN7WebCore16MIMETypeRegistry29getSupportedNonImageMIMETypesEv
__ZN7WebCoreL26initializeMIMETypeRegistryEv
__ZN7WebCoreL38initializeSupportedJavaScriptMIMETypesEv
__ZN3WTF7HashSetIN7WebCore6StringENS1_10StringHashENS_10HashTraitsIS2_EEE3addERKS2_
__ZN3WTF9HashTableIN7WebCore6StringES2_NS_17IdentityExtractorIS2_EENS1_10StringHashENS_10HashTraitsIS2_EES7_E6expandEv
__ZN3WTF9HashTableIN7WebCore6StringES2_NS_17IdentityExtractorIS2_EENS1_10StringHashENS_10HashTraitsIS2_EES7_E6rehashEi
__ZN3WTF9HashTableIN7WebCore6StringES2_NS_17IdentityExtractorIS2_EENS1_10StringHashENS_10HashTraitsIS2_EES7_E13allocateTableEi
__ZN3WTF9HashTableIN7WebCore6StringES2_NS_17IdentityExtractorIS2_EENS1_10StringHashENS_10HashTraitsIS2_EES7_E15deallocateTableE
__ZN3WTF9HashTableIN7WebCore6StringES2_NS_17IdentityExtractorIS2_EENS1_10StringHashENS_10HashTraitsIS2_EES7_EC1ERKS8_
__ZN3WTF9HashTableIN7WebCore6StringES2_NS_17IdentityExtractorIS2_EENS1_10StringHashENS_10HashTraitsIS2_EES7_EC2ERKS8_
__ZN7WebCoreL36initializeSupportedNonImageMimeTypesEv
__ZN7WebCore14ArchiveFactory29registerKnownArchiveMIMETypesEv
__ZN7WebCoreL16archiveMIMETypesEv
__ZN3WTF7HashMapIN7WebCore6StringEPFNS_10PassRefPtrINS1_7ArchiveEEEPNS1_12SharedBufferEENS1_15CaseFoldingHashENS_10HashTraitsIS
__ZN3WTF9HashTableIN7WebCore6StringESt4pairIS2_PFNS_10PassRefPtrINS1_7ArchiveEEEPNS1_12SharedBufferEEENS_18PairFirstExtractorIS
__ZN7WebCore15SQLiteStatement4stepEv
__ZN7WebCore15SQLiteStatement8finalizeEv
__ZN7WebCore15SQLiteStatementD1Ev
__ZN7WebCore15SQLiteStatementD2Ev
__ZNK7WebCore12IconDatabase24shouldStopThreadActivityEv
__ZN7WebCore12IconDatabase25performOpenInitializationEv
__ZN7WebCoreL21databaseVersionNumberERNS_14SQLiteDatabaseE
__ZN7WebCore15SQLiteStatement12getColumnIntEi
__ZN7WebCore15SQLiteStatement11columnCountEv
__ZN7WebCore14SQLiteDatabase11tableExistsERKNS_6StringE
__ZN7WebCore12IconDatabase8importedEv
__ZN7WebCore12IconDatabase16performURLImportEv
__ZN7WebCore15SQLiteStatement13getColumnTextEi
__ZNK3WTF7HashMapIN7WebCore6StringEPNS1_13PageURLRecordENS1_10StringHashENS_10HashTraitsIS2_EENS6_IS4_EEE3getERKS2_
__ZN7WebCore13PageURLRecordC1ERKNS_6StringE
__ZN7WebCore13PageURLRecordC2ERKNS_6StringE
__ZN3WTF7HashMapIN7WebCore6StringEPNS1_13PageURLRecordENS1_10StringHashENS_10HashTraitsIS2_EENS6_IS4_EEE3setERKS2_RKS4_
__ZN3WTF9HashTableIN7WebCore6StringESt4pairIS2_PNS1_13PageURLRecordEENS_18PairFirstExtractorIS6_EENS1_10StringHashENS_14PairHas
__ZN7WebCore12IconDatabase21getOrCreateIconRecordERKNS_6StringE
__ZNK3WTF7HashMapIN7WebCore6StringEPNS1_10IconRecordENS1_10StringHashENS_10HashTraitsIS2_EENS6_IS4_EEE3getERKS2_
__ZN7WebCore10IconRecordC1ERKNS_6StringE
__ZN7WebCore10IconRecordC2ERKNS_6StringE
__ZN3WTF7HashMapIN7WebCore6StringEPNS1_10IconRecordENS1_10StringHashENS_10HashTraitsIS2_EENS6_IS4_EEE3setERKS2_RKS4_
__ZN3WTF9HashTableIN7WebCore6StringESt4pairIS2_PNS1_10IconRecordEENS_18PairFirstExtractorIS6_EENS1_10StringHashENS_14PairHashTr
__ZN7WebCore13PageURLRecord13setIconRecordEN3WTF10PassRefPtrINS_10IconRecordEEE
__ZNK3WTF9HashTableIN7WebCore6StringES2_NS_17IdentityExtractorIS2_EENS1_10StringHashENS_10HashTraitsIS2_EES7_E8containsIS2_NS_2
__ZN3WTF9HashTableIN7WebCore6StringES2_NS_17IdentityExtractorIS2_EENS1_10StringHashENS_10HashTraitsIS2_EES7_E4findIS2_NS_22Iden
__ZN3WTF6VectorIN7WebCore6StringELm0EE11appendRangeINS_24HashTableIteratorAdapterINS_9HashTableIS2_S2_NS_17IdentityExtractorIS2
__ZN3WTF9HashTableIN7WebCore6StringES2_NS_17IdentityExtractorIS2_EENS1_10StringHashENS_10HashTraitsIS2_EES7_E5clearEv
__ZN7WebCore12IconDatabase18syncThreadMainLoopEv
__ZN7WebCore12IconDatabase15writeToDatabaseEv
__ZN3WTF6VectorIN7WebCore12IconSnapshotELm0EE11appendRangeINS_23HashTableValuesIteratorINS_9HashTableINS1_6StringESt4pairIS7_S2
__ZN3WTF6VectorIN7WebCore15PageURLSnapshotELm0EE11appendRangeINS_23HashTableValuesIteratorINS_9HashTableINS1_6StringESt4pairIS7
__ZN7WebCore17SQLiteTransactionC1ERNS_14SQLiteDatabaseEb
__ZN7WebCore17SQLiteTransactionC2ERNS_14SQLiteDatabaseEb
__ZN7WebCore17SQLiteTransaction5beginEv
__ZN7WebCore14SQLiteDatabase14executeCommandERKNS_6StringE
__ZN7WebCore17SQLiteTransaction6commitEv
__ZN7WebCore17SQLiteTransactionD1Ev
__ZN7WebCore17SQLiteTransactionD2Ev
__ZN7WebCore12IconDatabase16readFromDatabaseEv
__ZN3WTF6VectorIPN7WebCore10IconRecordELm0EE11appendRangeINS_24HashTableIteratorAdapterINS_9HashTableIS3_S3_NS_17IdentityExtrac
__ZN7WebCore6StringC1EPK10__CFString
__ZN7WebCore6StringC2EPK10__CFString
__ZN7WebCore26MIMETypeForImageSourceTypeERKNS_6StringE
__ZN7WebCore24StringWrapperCFAllocatorL9allocatorEv
__ZN7WebCore24StringWrapperCFAllocatorL6retainEPKv
__ZN7WebCore24StringWrapperCFAllocatorL8allocateElmPv
__ZN7WebCore24StringWrapperCFAllocatorL10deallocateEPvS1_
__ZN7WebCore10StringImplcvP8NSStringEv
__ZNK7WebCore12IconDatabase9isEnabledEv
__ZN7WebCore12IconDatabase20retainIconForPageURLERKNS_6StringE
__ZNK3WTF9HashTableIN7WebCore6StringESt4pairIS2_NS1_15PageURLSnapshotEENS_18PairFirstExtractorIS5_EENS1_10StringHashENS_14PairH
__ZN7WebCore12IconDatabase20allowDatabaseCleanupEv
__ZN7WebCore14SecurityOrigin25registerURLSchemeAsSecureERKNS_6StringE
__ZN7WebCoreL13secureSchemesEv
__ZN3WTF7HashSetIN7WebCore6StringENS1_15CaseFoldingHashENS_10HashTraitsIS2_EEE3addERKS2_
__ZN3WTF9HashTableIN7WebCore6StringES2_NS_17IdentityExtractorIS2_EENS1_15CaseFoldingHashENS_10HashTraitsIS2_EES7_E6expandEv
__ZN3WTF9HashTableIN7WebCore6StringES2_NS_17IdentityExtractorIS2_EENS1_15CaseFoldingHashENS_10HashTraitsIS2_EES7_E6rehashEi
__ZN3WTF9HashTableIN7WebCore6StringES2_NS_17IdentityExtractorIS2_EENS1_15CaseFoldingHashENS_10HashTraitsIS2_EES7_E13allocateTab
__ZN3WTF9HashTableIN7WebCore6StringES2_NS_17IdentityExtractorIS2_EENS1_15CaseFoldingHashENS_10HashTraitsIS2_EES7_E15deallocateT
__ZN7WebCore14SecurityOrigin40setDomainRelaxationForbiddenForURLSchemeEbRKNS_6StringE
__ZN7WebCoreL36schemesForbiddenFromDomainRelaxationEv
__ZN7WebCore14SecurityOrigin24registerURLSchemeAsLocalERKNS_6StringE
__ZN7WebCoreL12localSchemesEv
_stringIsCaseInsensitiveEqualToString
__ZN7WebCore9PageGroup26setShouldTrackVisitedLinksEb
__ZN7WebCore9PageGroup21removeAllVisitedLinksEv
__ZN7WebCore4Page21removeAllVisitedLinksEv
__ZN7WebCore7Console24setShouldPrintExceptionsEb
+[WebCoreViewFactory sharedFactory]
-[WebCoreViewFactory init]
+[WebCoreKeyGenerator sharedGenerator]
-[WebCoreKeyGenerator init]
__ZN7WebCore36InitializeLoggingChannelsIfNecessaryEv
__ZN7WebCore15DatabaseTracker7trackerEv
__ZN7WebCore15DatabaseTrackerC1Ev
__ZN7WebCore15DatabaseTrackerC2Ev
__ZN7WebCore16SQLiteFileSystem17registerSQLiteVFSEv
__ZN7WebCore15DatabaseTracker15populateOriginsEv
__ZN7WebCore15DatabaseTracker19openTrackerDatabaseEb
__ZNK7WebCore15DatabaseTracker19trackerDatabasePathEv
__ZN7WebCore16SQLiteFileSystem28appendDatabaseFileNameToPathERKNS_6StringES3_
__ZN7WebCore16SQLiteFileSystem24ensureDatabaseFileExistsERKNS_6StringEb
__ZN7WebCore15DatabaseTracker24setDatabaseDirectoryPathERKNS_6StringE
__ZN7WebCore15DatabaseTracker9setClientEPNS_21DatabaseTrackerClientE
__ZN7WebCore12cacheStorageEv
__ZN7WebCore23ApplicationCacheStorageC1Ev
__ZN7WebCore23ApplicationCacheStorageC2Ev
__ZN7WebCore23ApplicationCacheStorage17setCacheDirectoryERKNS_6StringE
__ZN7WebCore4PageC1EPNS_12ChromeClientEPNS_17ContextMenuClientEPNS_12EditorClientEPNS_10DragClientEPNS_15InspectorClientEPNS_18
__ZN7WebCore4PageC2EPNS_12ChromeClientEPNS_17ContextMenuClientEPNS_12EditorClientEPNS_10DragClientEPNS_15InspectorClientEPNS_18
__ZN7WebCore6ChromeC1EPNS_4PageEPNS_12ChromeClientE
__ZN7WebCore6ChromeC2EPNS_4PageEPNS_12ChromeClientE
__ZN7WebCore19SelectionControllerC1EPNS_5FrameEb
__ZN7WebCore19SelectionControllerC2EPNS_5FrameEb
__ZN7WebCore16VisibleSelectionC1Ev
__ZN7WebCore16VisibleSelectionC2Ev
__ZN7WebCore19SelectionController16setIsDirectionalEb
__ZN7WebCore14DragControllerC1EPNS_4PageEPNS_10DragClientE
__ZN7WebCore14DragControllerC2EPNS_4PageEPNS_10DragClientE
__ZN7WebCore4KURL10invalidateEv
__ZN7WebCore15FocusControllerC1EPNS_4PageE
__ZN7WebCore15FocusControllerC2EPNS_4PageE
__ZN7WebCore21ContextMenuControllerC1EPNS_4PageEPNS_17ContextMenuClientE
__ZN7WebCore21ContextMenuControllerC2EPNS_4PageEPNS_17ContextMenuClientE
__ZN7WebCore19InspectorControllerC1EPNS_4PageEPNS_15InspectorClientE
__ZN7WebCore19InspectorControllerC2EPNS_4PageEPNS_15InspectorClientE
__ZN7WebCore16InspectorBackendC1EPNS_19InspectorControllerE
__ZN7WebCore16InspectorBackendC2EPNS_19InspectorControllerE
__ZN7WebCore18InjectedScriptHostC1EPNS_19InspectorControllerE
__ZN7WebCore18InjectedScriptHostC2EPNS_19InspectorControllerE
__ZN7WebCore21GeolocationControllerC1EPNS_4PageEPNS_27GeolocationClientE
__ZN7WebCore21GeolocationControllerC2EPNS_4PageEPNS_27GeolocationClientE
__ZN7WebCore8SettingsC1EPNS_4PageE
__ZN7WebCore8SettingsC2EPNS_4PageE
__ZN7WebCore15ProgressTrackerC1Ev
__ZN7WebCore15ProgressTrackerC2Ev
__ZN7WebCore15BackForwardListC1EPNS_4PageE
__ZN7WebCore15BackForwardListC2EPNS_4PageE
__ZN7WebCore11RenderTheme12themeForPageEPNS_4PageE
__ZN7WebCore14RenderThemeMac6createEv
__ZN7WebCore14RenderThemeMacC1Ev
__ZN7WebCore14RenderThemeMacC2Ev
__ZN7WebCore11RenderThemeC2Ev
__ZN7WebCore13platformThemeEv
-[WebCoreRenderThemeNotificationObserver initWithTheme:]
__ZN7WebCore20networkStateNotifierEv
__ZN7WebCore20NetworkStateNotifierC1Ev
__ZN7WebCore20NetworkStateNotifierC2Ev
__ZN7WebCore20NetworkStateNotifier11updateStateEv
__ZN7WebCore20NetworkStateNotifier30setNetworkStateChangedFunctionEPFvvE
__ZN3WTF7HashSetIPN7WebCore4PageENS_7PtrHashIS3_EENS_10HashTraitsIS3_EEE3addERKS3_
__ZN3WTF9HashTableIPN7WebCore4PageES3_NS_17IdentityExtractorIS3_EENS_7PtrHashIS3_EENS_10HashTraitsIS3_EES9_E6expandEv
__ZN3WTF9HashTableIPN7WebCore4PageES3_NS_17IdentityExtractorIS3_EENS_7PtrHashIS3_EENS_10HashTraitsIS3_EES9_E6rehashEi
__ZN3WTF9HashTableIPN7WebCore4PageES3_NS_17IdentityExtractorIS3_EENS_7PtrHashIS3_EENS_10HashTraitsIS3_EES9_E13allocateTableEi
__ZN3WTF9HashTableIPN7WebCore4PageES3_NS_17IdentityExtractorIS3_EENS_7PtrHashIS3_EENS_10HashTraitsIS3_EES9_E15deallocateTableEP
__ZN7WebCore12PluginHalterC1EPNS_18PluginHalterClientE
__ZN7WebCore12PluginHalterC2EPNS_18PluginHalterClientE
__ZN7WebCore17ScriptDebugServer6sharedEv
__ZN7WebCore17ScriptDebugServerC1Ev
__ZN7WebCore17ScriptDebugServerC2Ev
__ZN7WebCore17ScriptDebugServer11pageCreatedEPNS_4PageE
__ZN7WebCore17ScriptDebugServer28hasListenersInterestedInPageEPNS_4PageE
__ZNK3WTF9HashTableIPN7WebCore4PageESt4pairIS3_PNS_7HashSetIPNS1_19ScriptDebugListenerENS_7PtrHashIS7_EENS_10HashTraitsIS7_EEEE
__ZN7WebCore4Page16setCanStartMediaEb
__ZN7WebCore8Settings27setLocalStorageDatabasePathERKNS_6StringE
__ZN7WebCore5FrameC1EPNS_4PageEPNS_21HTMLFrameOwnerElementEPNS_17FrameLoaderClientE
__ZN7WebCore5FrameC2EPNS_4PageEPNS_21HTMLFrameOwnerElementEPNS_17FrameLoaderClientE
__ZN7WebCore11FrameLoaderC1EPNS_5FrameEPNS_17FrameLoaderClientE
__ZN7WebCore11FrameLoaderC2EPNS_5FrameEPNS_17FrameLoaderClientE
__ZN7WebCore13PolicyCheckerC1EPNS_5FrameE
__ZN7WebCore13PolicyCheckerC2EPNS_5FrameE
__ZN7WebCore14PolicyCallbackC1Ev
__ZN7WebCore14PolicyCallbackC2Ev
__ZN7WebCore17HistoryControllerC1EPNS_5FrameE
__ZN7WebCore17HistoryControllerC2EPNS_5FrameE
__ZN7WebCore20ResourceLoadNotifierC1EPNS_5FrameE
__ZN7WebCore20ResourceLoadNotifierC2EPNS_5FrameE
__ZN7WebCore14DocumentWriterC1EPNS_5FrameE
__ZN7WebCore14DocumentWriterC2EPNS_5FrameE
__ZN7WebCore17RedirectSchedulerC1EPNS_5FrameE
__ZN7WebCore17RedirectSchedulerC2EPNS_5FrameE
__ZN7WebCore16ScriptControllerC1EPNS_5FrameE
__ZN7WebCore16ScriptControllerC2EPNS_5FrameE
__ZN7WebCore10XSSAuditorC1EPNS_5FrameE
__ZN7WebCore10XSSAuditorC2EPNS_5FrameE
__ZN7WebCore16ScriptController18initJavaJSBindingsEv
__ZN3JSC8Bindings12JavaJSObject22initializeJNIThreadingEv
__ZN3JSC8Bindings8Instance21setDidExecuteFunctionEPFvPNS_9ExecStateEPNS_8JSObjectEE
__ZNK7WebCore5Frame4pageEv
__ZNK7WebCore5Frame8settingsEv
__ZN7WebCore6EditorC1EPNS_5FrameE
__ZN7WebCore6EditorC2EPNS_5FrameE
__ZN7WebCore22DeleteButtonControllerC1EPNS_5FrameE
__ZN7WebCore22DeleteButtonControllerC2EPNS_5FrameE
__ZN7WebCore12EventHandlerC1EPNS_5FrameE
__ZN7WebCore12EventHandlerC2EPNS_5FrameE
__ZN7WebCore19AnimationControllerC1EPNS_5FrameE
__ZN7WebCore19AnimationControllerC2EPNS_5FrameE
__ZN7WebCore26AnimationControllerPrivateC1EPNS_5FrameE
__ZN7WebCore26AnimationControllerPrivateC2EPNS_5FrameE
__ZN7WebCore9HTMLNames4initEv
__ZN7WebCore13QualifiedNameC1ERKNS_12AtomicStringEPKcS3_
__ZN7WebCore13QualifiedNameC2ERKNS_12AtomicStringEPKcS3_
__ZN7WebCore13QualifiedName4initERKNS_12AtomicStringES3_S3_
__ZN3WTF7HashSetIPN7WebCore13QualifiedName17QualifiedNameImplENS1_17QualifiedNameHashENS_10HashTraitsIS4_EEE3addINS1_23Qualifie
__ZN3WTF9HashTableIPN7WebCore13QualifiedName17QualifiedNameImplES4_NS_17IdentityExtractorIS4_EENS1_17QualifiedNameHashENS_10Has
__ZN7WebCore13QualifiedName4initEv
__ZN7WebCore13QualifiedNameC1ERKNS_12AtomicStringES3_S3_
__ZN7WebCore13QualifiedNameC2ERKNS_12AtomicStringES3_S3_
__ZN7WebCore17MediaFeatureNames4initEv
__ZN7WebCore8SVGNames4initEv
__ZN7WebCore10XLinkNames4initEv
__ZN7WebCore10XMLNSNames4initEv
__ZN7WebCore8XMLNames4initEv
__ZN7WebCore4Page12setMainFrameEN3WTF10PassRefPtrINS_5FrameEEE
__ZNK7WebCore5Frame4treeEv
__ZN7WebCore9FrameTree7setNameERKNS_12AtomicStringE
__ZNK7WebCore9FrameTree6parentEb
__ZN7WebCore5Frame4initEv
__ZN7WebCore11FrameLoader4initEv
__ZN7WebCore11FrameLoader18updateSandboxFlagsEv
__ZNK7WebCore5Frame12ownerElementEv
__ZN7WebCore4KURLC1ENS_18ParsedURLStringTagEPKc
__ZN7WebCore4KURLC2ENS_18ParsedURLStringTagEPKc
__ZN7WebCore4KURL5parseEPKcPKNS_6StringE
__ZN7WebCore14DocumentLoaderC2ERKNS_15ResourceRequestERKNS_14SubstituteDataE
__ZN3WTF6VectorIN7WebCore6StringELm0EEC1ERKS3_
__ZN3WTF6VectorIN7WebCore6StringELm0EEC2ERKS3_
__ZN7WebCore20ResourceResponseBaseC2Ev
__ZN7WebCore16NavigationActionC1Ev
__ZN7WebCore16NavigationActionC2Ev
__ZN7WebCore20ApplicationCacheHostC1EPNS_14DocumentLoaderE
__ZN7WebCore20ApplicationCacheHostC2EPNS_14DocumentLoaderE
__ZNK7WebCore14DocumentLoader11frameLoaderEv
__ZN7WebCore11FrameLoader23setPolicyDocumentLoaderEPNS_14DocumentLoaderE
__ZN7WebCore14DocumentLoader8setFrameEPNS_5FrameE
__ZN7WebCore14DocumentLoader13attachToFrameEv
__ZN3WTF9HashTableIN7WebCore12AtomicStringESt4pairIS2_NS1_6StringEENS_18PairFirstExtractorIS5_EENS1_15CaseFoldingHashENS_14Pair
__ZN7WebCore11FrameLoader28setProvisionalDocumentLoaderEPNS_14DocumentLoaderE
__ZN7WebCore11FrameLoader8setStateENS_10FrameStateE
__ZN7WebCore11FrameLoader22provisionalLoadStartedEv
__ZNK7WebCore5Frame17redirectSchedulerEv
__ZN7WebCore17RedirectScheduler6cancelEb
__ZN7WebCore9TimerBase4stopEv
__ZN7WebCore9TimerBase15setNextFireTimeEd
__ZN7WebCore20ResourceResponseBaseC2ERKNS_4KURLERKNS_6StringExS6_S6_
__ZN7WebCore14DocumentLoader15finishedLoadingEv
__ZN7WebCore14DocumentLoader13commitIfReadyEv
__ZNK7WebCore5Frame6loaderEv
__ZN7WebCore11FrameLoader21commitProvisionalLoadEN3WTF10PassRefPtrINS_10CachedPageEEE
__ZN7WebCore11FrameLoader23cachePageForHistoryItemEPNS_11HistoryItemE
__ZN7WebCore11FrameLoader12canCachePageEv
__ZNK7WebCore11FrameLoader8loadTypeEv
__ZN7WebCore11FrameLoader31canCachePageContainingThisFrameEv
__ZN7WebCore11FrameLoader19closeOldDataSourcesEv
__ZN7WebCore11FrameLoader21transitionToCommittedEN3WTF10PassRefPtrINS_10CachedPageEEE
__ZN7WebCore17HistoryController15updateForCommitEv
__ZN7WebCore21isBackForwardLoadTypeENS_13FrameLoadTypeE
__ZN7WebCore11FrameLoader17setDocumentLoaderEPNS_14DocumentLoaderE
__ZN7WebCore11FrameLoader14detachChildrenEv
__ZN7WebCore17HistoryController21updateForStandardLoadEv
__ZNK7WebCore14DocumentLoader13urlForHistoryEv
__ZNK7WebCore19ResourceRequestBase3urlEv
__ZNK7WebCore19ResourceRequestBase21updateResourceRequestEv
__ZNK7WebCore5Frame4viewEv
__ZNK7WebCore16ResourceResponse13nsURLResponseEv
__ZNK7WebCore4KURLcvP5NSURLEv
__ZNK7WebCore5Frame13ownerRendererEv
__ZN7WebCore5Frame7setViewEN3WTF10PassRefPtrINS_9FrameViewEEE
__ZNK7WebCore5Frame12eventHandlerEv
__ZN7WebCore12EventHandler5clearEv
__ZN7WebCore11FrameLoader37resetMultipleFormSubmissionProtectionEv
__ZN7WebCore9FrameView6createEPNS_5FrameE
__ZN7WebCore9FrameViewC1EPNS_5FrameE
__ZN7WebCore9FrameViewC2EPNS_5FrameE
__ZN7WebCore10ScrollViewC2Ev
__ZN7WebCore6WidgetC2EP6NSView
__ZN7WebCore6Widget4initEP6NSView
__ZN7WebCore9FrameView4initEv
__ZN7WebCore9FrameView5resetEv
__ZN3WTF6VectorIN7WebCore7IntRectELm0EE14shrinkCapacityEm
__ZNK7WebCore5Frame8documentEv
__ZN7WebCore10ScrollView4showEv
__ZN7WebCore6Widget4showEv
__ZN7WebCore9FrameView14setTransparentEb
__ZN7WebCore16colorFromNSColorEP7NSColor
__ZN7WebCore8makeRGBAEiiii
__ZN7WebCore9FrameView22setBaseBackgroundColorENS_5ColorE
__ZN7WebCore9FrameView29setShouldUpdateWhileOffscreenEb
__ZNK7WebCore9FrameTree12traverseNextEPKNS_5FrameE
__ZN7WebCore6Widget21releasePlatformWidgetEv
__ZN7WebCore6Widget20retainPlatformWidgetEv
__ZN7WebCore9FrameView23updateCanHaveScrollbarsEv
__ZNK7WebCore10ScrollView14scrollbarModesERNS_13ScrollbarModeES2_
__ZNK7WebCore10ScrollView22platformScrollbarModesERNS_13ScrollbarModeES2_
__ZN7WebCore10ScrollView16setParentVisibleEb
__ZN7WebCore14DocumentLoader8setTitleERKNS_6StringE
__ZNK7WebCore14DocumentLoader16responseMIMETypeEv
__ZNK7WebCore20ResourceResponseBase8mimeTypeEv
__ZNK7WebCore20ResourceResponseBase8lazyInitEv
__ZN7WebCore16ResourceResponse16platformLazyInitEv
__ZNK7WebCore14DocumentLoader3urlEv
__ZNK7WebCore14DocumentLoader7requestEv
__ZNK7WebCore14DocumentLoader11responseURLEv
__ZNK7WebCore20ResourceResponseBase3urlEv
__ZN7WebCore8blankURLEv
__ZN7WebCoreL22appendEscapingBadCharsERPcPKcm
__ZN3WTF6VectorIcLm4096EE6shrinkEm
__ZN7WebCore11FrameLoader10didOpenURLERKNS_4KURLE
__ZN7WebCore17RedirectScheduler27redirectScheduledDuringLoadEv
__ZNK7WebCore5Frame6editorEv
__ZN7WebCore6Editor20clearLastEditCommandEv
__ZN7WebCore11FrameLoader7startedEv
__ZN7WebCore11FrameLoader23finishedLoadingDocumentEPNS_14DocumentLoaderE
__ZN7WebCore14ArchiveFactory17isArchiveMimeTypeERKNS_6StringE
__ZNK3WTF9HashTableIN7WebCore6StringESt4pairIS2_PFNS_10PassRefPtrINS1_7ArchiveEEEPNS1_12SharedBufferEEENS_18PairFirstExtractorI
__ZN7WebCore14DocumentWriter3endEv
__ZN7WebCore11FrameLoader14didEndDocumentEv
__ZN7WebCore14DocumentWriter27endIfNotLoadingMainResourceEv
__ZN7WebCore14DocumentWriter5beginERKNS_4KURLEbPNS_14SecurityOriginE
__ZN7WebCore14DocumentWriter14createDocumentEv
__ZNK7WebCore5Frame16inViewSourceModeEv
__ZN7WebCore17DOMImplementation14createDocumentERKNS_6StringEPNS_5FrameEb
__ZN7WebCore12HTMLDocumentC1EPNS_5FrameE
__ZN7WebCore12HTMLDocumentC2EPNS_5FrameE
__ZN7WebCore8DocumentC2EPNS_5FrameEbb
__ZN7WebCore22ScriptExecutionContextC2Ev
__ZN7WebCore14StyleSheetListC1EPNS_8DocumentE
__ZN7WebCore14StyleSheetListC2EPNS_8DocumentE
__ZN7WebCore15CollectionCacheC1Ev
__ZN7WebCore15CollectionCacheC2Ev
__ZN7WebCore15CollectionCache5resetEv
__ZN3WTF20deleteAllPairSecondsIPNS_6VectorIPN7WebCore7ElementELm0EEEKNS_7HashMapIPNS2_16AtomicStringImplES6_NS_7PtrHashIS9_EENS
__ZN7WebCore9DocLoaderC1EPNS_8DocumentE
__ZN7WebCore9DocLoaderC2EPNS_8DocumentE
__ZN7WebCore11memoryCacheEv
__ZN7WebCore5CacheC1Ev
__ZN7WebCore5CacheC2Ev
__ZN7WebCore6LoaderC1Ev
__ZN7WebCore6LoaderC2Ev
__ZN7WebCore6Loader4HostC1ERKNS_12AtomicStringEj
__ZN7WebCore6Loader4HostC2ERKNS_12AtomicStringEj
__ZN7WebCore43initializeMaximumHTTPConnectionCountPerHostEv
__ZN7WebCore5Cache12addDocLoaderEPNS_9DocLoaderE
__ZN3WTF7HashSetIPN7WebCore9DocLoaderENS_7PtrHashIS3_EENS_10HashTraitsIS3_EEE3addERKS3_
__ZN3WTF9HashTableIPN7WebCore9DocLoaderES3_NS_17IdentityExtractorIS3_EENS_7PtrHashIS3_EENS_10HashTraitsIS3_EES9_E6expandEv
__ZN3WTF9HashTableIPN7WebCore9DocLoaderES3_NS_17IdentityExtractorIS3_EENS_7PtrHashIS3_EENS_10HashTraitsIS3_EES9_E6rehashEi
__ZN3WTF9HashTableIPN7WebCore9DocLoaderES3_NS_17IdentityExtractorIS3_EENS_7PtrHashIS3_EENS_10HashTraitsIS3_EES9_E13allocateTabl
__ZN3WTF9HashTableIPN7WebCore9DocLoaderES3_NS_17IdentityExtractorIS3_EENS_7PtrHashIS3_EENS_10HashTraitsIS3_EES9_E15deallocateTa
__ZN7WebCore8Document14resetLinkColorEv
__ZN7WebCore7makeRGBEiii
__ZN7WebCore8Document21resetVisitedLinkColorEv
__ZN7WebCore8Document20resetActiveLinkColorEv
__ZN7WebCore5Color13setNamedColorERKNS_6StringE
__ZN7WebCore8Document19initSecurityContextEv
__ZN7WebCore14SecurityOrigin6createERKNS_4KURLEi
__ZN7WebCore14SecurityOriginC1ERKNS_4KURLEi
__ZN7WebCore14SecurityOriginC2ERKNS_4KURLEi
__ZNK7WebCore4KURL8protocolEv
__ZNK7WebCore4KURL4hostEv
__ZN7WebCore24decodeURLEscapeSequencesERKNS_6StringE
__ZN7WebCore12UTF8EncodingEv
__ZN7WebCore12TextEncodingC1EPKc
__ZN7WebCore12TextEncodingC2EPKc
__ZN7WebCore31atomicCanonicalTextEncodingNameEPKc
__ZN7WebCore15TextCodecLatin121registerEncodingNamesEPFvPKcS2_E
__ZN7WebCoreL24addToTextEncodingNameMapEPKcS1_
__ZNK3WTF7HashMapIPKcS2_N7WebCore20TextEncodingNameHashENS_10HashTraitsIS2_EES6_E3getERKS2_
__ZN3WTF7HashMapIPKcS2_N7WebCore20TextEncodingNameHashENS_10HashTraitsIS2_EES6_E3addERKS2_S9_
__ZN3WTF9HashTableIPKcSt4pairIS2_S2_ENS_18PairFirstExtractorIS4_EEN7WebCore20TextEncodingNameHashENS_14PairHashTraitsINS_10Hash
__ZN7WebCore15TextCodecLatin114registerCodecsEPFvPKcPFN3WTF10PassOwnPtrINS_9TextCodecEEERKNS_12TextEncodingEPKvESB_E
__ZN7WebCoreL17addToTextCodecMapEPKcPFN3WTF10PassOwnPtrINS_9TextCodecEEERKNS_12TextEncodingEPKvESA_
__ZN3WTF7HashMapIPKcN7WebCore16TextCodecFactoryENS_7PtrHashIS2_EENS_10HashTraitsIS2_EENS7_IS4_EEE3addERKS2_RKS4_
__ZN3WTF9HashTableIPKcSt4pairIS2_N7WebCore16TextCodecFactoryEENS_18PairFirstExtractorIS6_EENS_7PtrHashIS2_EENS_14PairHashTraits
__ZN7WebCore14TextCodecUTF1621registerEncodingNamesEPFvPKcS2_E
__ZN7WebCore14TextCodecUTF1614registerCodecsEPFvPKcPFN3WTF10PassOwnPtrINS_9TextCodecEEERKNS_12TextEncodingEPKvESB_E
__ZN7WebCore20TextCodecUserDefined21registerEncodingNamesEPFvPKcS2_E
__ZN7WebCore20TextCodecUserDefined14registerCodecsEPFvPKcPFN3WTF10PassOwnPtrINS_9TextCodecEEERKNS_12TextEncodingEPKvESB_E
__ZN7WebCore12TextCodecICU25registerBaseEncodingNamesEPFvPKcS2_E
__ZN7WebCore12TextCodecICU18registerBaseCodecsEPFvPKcPFN3WTF10PassOwnPtrINS_9TextCodecEEERKNS_12TextEncodingEPKvESB_E
__ZN7WebCoreL21encodingRegistryMutexEv
__ZNK7WebCore12TextEncoding25backslashAsCurrencySymbolEv
__ZN7WebCore30noExtendedTextEncodingNameUsedEv
__ZN7WebCore24decodeURLEscapeSequencesERKNS_6StringERKNS_12TextEncodingE
__ZN3WTF6VectorItLm0EE6appendItEEvPKT_m
__ZNK7WebCore4KURL4portEv
__ZN7WebCore14SecurityOrigin30shouldTreatURLSchemeAsNoAccessERKNS_6StringE
__ZN7WebCoreL24schemesWithUniqueOriginsEv
__ZNK3WTF9HashTableIN7WebCore6StringES2_NS_17IdentityExtractorIS2_EENS1_15CaseFoldingHashENS_10HashTraitsIS2_EES7_E8containsIS2
__ZN7WebCoreL23schemeRequiresAuthorityERKNS_6StringE
__ZNK7WebCore14SecurityOrigin7isLocalEv
__ZN7WebCore14SecurityOrigin27shouldTreatURLSchemeAsLocalERKNS_6StringE
__ZN7WebCore24isDefaultPortForProtocolEtRKNS_6StringE
__ZN7WebCore22ScriptExecutionContext17setSecurityOriginEN3WTF10PassRefPtrINS_14SecurityOriginEEE
__ZN7WebCore14SecurityOrigin32allowSubstituteDataAccessToLocalEv
__ZNK7WebCore8Document8settingsEv
__ZNK7WebCore14SecurityOrigin7isEmptyEv
__ZN7WebCore11FrameLoader6openerEv
__ZN7WebCore8Document15initDNSPrefetchEv
__ZNK7WebCore8Document14parentDocumentEv
__ZN7WebCore11FrameLoader5clearEbbb
__ZN7WebCore6Editor5clearEv
__ZN3WTF6VectorIN7WebCore20CompositionUnderlineELm0EE14shrinkCapacityEm
__ZN7WebCore5Frame6scriptEv
__ZN7WebCore16ScriptController27updatePlatformScriptObjectsEv
__ZN7WebCore11FrameLoader6setURLERKNS_4KURLE
__ZN7WebCore4KURL7setUserERKNS_6StringE
__ZN7WebCore4KURL7setPassERKNS_6StringE
__ZN7WebCore4KURL24removeFragmentIdentifierEv
__ZN7WebCore8Document6setURLERKNS_4KURLE
__ZN7WebCore8Document13updateBaseURLEv
__ZN7WebCore4KURLC1ERKS0_RKNS_6StringE
__ZN7WebCore4KURLC2ERKS0_RKNS_6StringE
__ZN7WebCore4KURL4initERKS0_RKNS_6StringERKNS_12TextEncodingE
__ZN7WebCoreL9copyASCIIEPKtiPc
__ZN3WTF6VectorIcLm512EE6shrinkEm
__ZN7WebCore5Frame11setDocumentEN3WTF10PassRefPtrINS_8DocumentEEE
__ZNK7WebCore5Frame9selectionEv
__ZN7WebCore19SelectionController33updateSecureKeyboardEntryIfActiveEv
__ZNK7WebCore19SelectionController18isFocusedAndActiveEv
__ZN7WebCore8Document6attachEv
__ZN7WebCore11RenderArenaC1Ej
__ZN7WebCore11RenderArenaC2Ej
__ZN7WebCore13InitArenaPoolEPNS_9ArenaPoolEPKcjj
__ZNK7WebCore8Document4viewEv
__ZN7WebCore12RenderObjectnwEmPNS_11RenderArenaE
__ZN7WebCore11RenderArena8allocateEm
__ZN7WebCore13ArenaAllocateEPNS_9ArenaPoolEj
__ZN7WebCore10RenderViewC1EPNS_4NodeEPNS_9FrameViewE
__ZN7WebCore10RenderViewC2EPNS_4NodeEPNS_9FrameViewE
__ZN7WebCore11RenderBlockC2EPNS_4NodeE
__ZN7WebCore9RenderBoxC2EPNS_4NodeE
__ZN7WebCore20RenderBoxModelObjectC2EPNS_4NodeE
__ZN7WebCore12RenderObjectC2EPNS_4NodeE
__ZN7WebCore12RenderObject18setPrefWidthsDirtyEbb
__ZN7WebCore11RenderLayernwEmPNS_11RenderArenaE
__ZN7WebCore11RenderLayerC1EPNS_20RenderBoxModelObjectE
__ZN7WebCore11RenderLayerC2EPNS_20RenderBoxModelObjectE
__ZNK7WebCore11RenderLayer22shouldBeNormalFlowOnlyEv
__ZNK7WebCore12RenderObject7isVideoEv
__ZNK7WebCore12RenderObject16isEmbeddedObjectEv
__ZNK7WebCore11RenderBlock15virtualChildrenEv
__ZNK7WebCore8Document10renderViewEv
__ZN7WebCore10RenderView15didMoveOnscreenEv
__ZN7WebCore8Document11recalcStyleENS_4Node11StyleChangeE
__ZNK7WebCore9FrameView10isPaintingEv
__ZNK7WebCore8Document22inspectorTimelineAgentEv
__ZNK7WebCore8Document4pageEv
__ZNK7WebCore4Page22inspectorTimelineAgentEv
__ZN7WebCore13ContainerNode26suspendPostAttachCallbacksEv
__ZN7WebCore4Page32setMemoryCacheClientCallsEnabledEb
__ZN7WebCore6Loader22suspendPendingRequestsEv
__ZN7WebCore12RenderWidget29suspendWidgetHierarchyUpdatesEv
__ZN7WebCore9FrameView20pauseScheduledEventsEv
__ZN7WebCore16CSSStyleSelector16styleForDocumentEPNS_8DocumentE
__ZN7WebCore11RenderStyle6createEv
__ZN7WebCore11RenderStyle18createDefaultStyleEv
__ZN7WebCore12StyleBoxDataC1Ev
__ZN7WebCore12StyleBoxDataC2Ev
__ZN7WebCore15StyleVisualDataC1Ev
__ZN7WebCore15StyleVisualDataC2Ev
__ZN7WebCore19StyleBackgroundDataC1Ev
__ZN7WebCore19StyleBackgroundDataC2Ev
__ZN7WebCore9FillLayerC1ENS_14EFillLayerTypeE
__ZN7WebCore9FillLayerC2ENS_14EFillLayerTypeE
__ZN7WebCore17StyleSurroundDataC1Ev
__ZN7WebCore17StyleSurroundDataC2Ev
__ZN7WebCore25StyleRareNonInheritedDataC1Ev
__ZN7WebCore25StyleRareNonInheritedDataC2Ev
__ZN7WebCore20StyleFlexibleBoxDataC1Ev
__ZN7WebCore20StyleFlexibleBoxDataC2Ev
__ZN7WebCore16StyleMarqueeDataC1Ev
__ZN7WebCore16StyleMarqueeDataC2Ev
__ZN7WebCore17StyleMultiColDataC1Ev
__ZN7WebCore17StyleMultiColDataC2Ev
__ZN7WebCore18StyleTransformDataC1Ev
__ZN7WebCore18StyleTransformDataC2Ev
__ZN7WebCore19TransformOperationsC1Eb
__ZN7WebCore19TransformOperationsC2Eb
__ZN3WTF6VectorINS_6RefPtrIN7WebCore18TransformOperationEEELm0EEC1ERKS5_
__ZN3WTF6VectorINS_6RefPtrIN7WebCore18TransformOperationEEELm0EEC2ERKS5_
__ZN7WebCore22StyleRareInheritedDataC1Ev
__ZN7WebCore22StyleRareInheritedDataC2Ev
__ZN7WebCore18StyleInheritedDataC1Ev
__ZN7WebCore18StyleInheritedDataC2Ev
__ZN7WebCore4FontC1Ev
__ZN7WebCore4FontC2Ev
__ZN7WebCore14SVGRenderStyleC1Ev
__ZN7WebCore14SVGRenderStyleC2Ev
__ZN7WebCore14SVGRenderStyleC1ENS0_17CreateDefaultTypeE
__ZN7WebCore14SVGRenderStyleC2ENS0_17CreateDefaultTypeE
__ZN7WebCore13StyleFillDataC1Ev
__ZN7WebCore13StyleFillDataC2Ev
__ZN7WebCore8SVGPaint11defaultFillEv
__ZN7WebCore8SVGPaintC1ERKNS_5ColorE
__ZN7WebCore8SVGPaintC2ERKNS_5ColorE
__ZN7WebCore8SVGColorC2ERKNS_5ColorE
__ZN7WebCore15StyleStrokeDataC1Ev
__ZN7WebCore15StyleStrokeDataC2Ev
__ZN7WebCore8SVGPaint13defaultStrokeEv
__ZN7WebCore8SVGPaintC1ENS0_12SVGPaintTypeE
__ZN7WebCore8SVGPaintC2ENS0_12SVGPaintTypeE
__ZN7WebCore8SVGColorC2Ev
__ZN7WebCore13StyleTextDataC1Ev
__ZN7WebCore13StyleTextDataC2Ev
__ZN7WebCore13StyleStopDataC1Ev
__ZN7WebCore13StyleStopDataC2Ev
__ZN7WebCore13StyleMiscDataC1Ev
__ZN7WebCore13StyleMiscDataC2Ev
__ZN7WebCore18StyleShadowSVGDataC1Ev
__ZN7WebCore18StyleShadowSVGDataC2Ev
__ZN7WebCore26StyleInheritedResourceDataC1Ev
__ZN7WebCore26StyleInheritedResourceDataC2Ev
__ZN7WebCore17StyleResourceDataC1Ev
__ZN7WebCore17StyleResourceDataC2Ev
__ZNK7WebCore5Frame19shouldApplyPageZoomEv
__ZNK7WebCore8Settings17fontRenderingModeEv
__ZN7WebCore16CSSStyleSelector18fontSizeForKeywordEPNS_8DocumentEib
__ZNK7WebCore8Document13isSVGDocumentEv
__ZN7WebCore16CSSStyleSelector32getComputedSizeFromSpecifiedSizeEPNS_8DocumentEPNS_11RenderStyleEbfb
__ZNK7WebCore5Frame19shouldApplyTextZoomEv
__ZN7WebCoreeqERKNS_10FontFamilyES2_
__ZN7WebCore4FontC1ERKNS_15FontDescriptionEss
__ZN7WebCore4FontC2ERKNS_15FontDescriptionEss
__ZN7WebCore10FontFamilyC1ERKS0_
__ZN7WebCore10FontFamilyC2ERKS0_
__ZN7WebCore18StyleInheritedDataC1ERKS0_
__ZN7WebCore18StyleInheritedDataC2ERKS0_
__ZN7WebCore4FontC1ERKS0_
__ZN7WebCore4FontC2ERKS0_
__ZN7WebCore4FontaSERKS0_
__ZN7WebCore10FontFamilyaSERKS0_
__ZN7WebCore4FontD1Ev
__ZN7WebCore4FontD2Ev
__ZNK7WebCore4Font6updateEN3WTF10PassRefPtrINS_12FontSelectorEEE
__ZN7WebCore16FontFallbackListC1Ev
__ZN7WebCore16FontFallbackListC2Ev
__ZN7WebCore9fontCacheEv
__ZN7WebCore9FontCache10generationEv
__ZN7WebCore16FontFallbackList10invalidateEN3WTF10PassRefPtrINS_12FontSelectorEEE
__ZN7WebCore16FontFallbackList15releaseFontDataEv
__ZN3WTF6VectorISt4pairIPKN7WebCore8FontDataEbELm1EE14shrinkCapacityEm
__ZN3WTF9HashTableIiSt4pairIiPN7WebCore17GlyphPageTreeNodeEENS_18PairFirstExtractorIS5_EENS_7IntHashIjEENS_14PairHashTraitsINS_
__ZN7WebCore4Node4diffEPKNS_11RenderStyleES3_
__ZNK7WebCore11RenderStyle14hasPseudoStyleENS_8PseudoIdE
__ZN7WebCore12RenderObject8setStyleEN3WTF10PassRefPtrINS_11RenderStyleEEE
__ZNK7WebCore12RenderObject21adjustStyleDifferenceENS_15StyleDifferenceEj
__ZN7WebCore11RenderBlock15styleWillChangeENS_15StyleDifferenceEPKNS_11RenderStyleE
__ZN7WebCore9RenderBox15styleWillChangeENS_15StyleDifferenceEPKNS_11RenderStyleE
__ZNK7WebCore12RenderObject4viewEv
__ZN7WebCore20RenderBoxModelObject15styleWillChangeENS_15StyleDifferenceEPKNS_11RenderStyleE
__ZNK7WebCore11RenderLayer19isSelfPaintingLayerEv
__ZN7WebCore12RenderObject15styleWillChangeENS_15StyleDifferenceEPKNS_11RenderStyleE
__ZN7WebCore12RenderObject16updateFillImagesEPKNS_9FillLayerES3_
__ZN7WebCore12RenderObject11updateImageEPNS_10StyleImageES2_
__ZN7WebCore11RenderBlock14styleDidChangeENS_15StyleDifferenceEPKNS_11RenderStyleE
__ZN7WebCore9RenderBox14styleDidChangeENS_15StyleDifferenceEPKNS_11RenderStyleE
__ZN7WebCore20RenderBoxModelObject14styleDidChangeENS_15StyleDifferenceEPKNS_11RenderStyleE
__ZN7WebCore12RenderObject14styleDidChangeENS_15StyleDifferenceEPKNS_11RenderStyleE
__ZN7WebCore9RenderBox27updateBoxModelInfoFromStyleEv
__ZN7WebCore20RenderBoxModelObject27updateBoxModelInfoFromStyleEv
__ZNK7WebCore8Document20cacheDocumentElementEv
__ZNK7WebCore10RenderView12isRenderViewEv
__ZNK7WebCore20RenderBoxModelObject13requiresLayerEv
__ZN7WebCore11RenderLayer12styleChangedENS_15StyleDifferenceEPKNS_11RenderStyleE
__ZN7WebCore11RenderLayer23updateScrollCornerStyleEv
__ZN7WebCore4Node18shadowAncestorNodeEv
__ZN7WebCore4Node18shadowTreeRootNodeEv
__ZNK7WebCore4Node12isShadowNodeEv
__ZN7WebCore11RenderLayer18updateResizerStyleEv
__ZN7WebCore11RenderLayer15updateTransformEv
__ZNK7WebCore11RenderLayer10compositorEv
__ZN7WebCore10RenderView10compositorEv
__ZN7WebCore21RenderLayerCompositorC1EPNS_10RenderViewE
__ZN7WebCore21RenderLayerCompositorC2EPNS_10RenderViewE
__ZN7WebCore21RenderLayerCompositor27updateLayerCompositingStateEPNS_11RenderLayerENS0_24CompositingChangeRepaintE
__ZN7WebCore21RenderLayerCompositor13updateBackingEPNS_11RenderLayerENS0_24CompositingChangeRepaintE
__ZNK7WebCore21RenderLayerCompositor19needsToBeCompositedEPKNS_11RenderLayerE
__ZNK7WebCore21RenderLayerCompositor15canBeCompositedEPKNS_11RenderLayerE
__ZNK7WebCore21RenderLayerCompositor24requiresCompositingLayerEPKNS_11RenderLayerE
__ZNK7WebCore12RenderObject9isReplicaEv
__ZNK7WebCore21RenderLayerCompositor31requiresCompositingForTransformEPNS_12RenderObjectE
__ZNK7WebCore21RenderLayerCompositor27requiresCompositingForVideoEPNS_12RenderObjectE
__ZNK7WebCore21RenderLayerCompositor28requiresCompositingForCanvasEPNS_12RenderObjectE
__ZNK7WebCore12RenderObject8isCanvasEv
__ZNK7WebCore21RenderLayerCompositor28requiresCompositingForPluginEPNS_12RenderObjectE
__ZNK7WebCore21RenderLayerCompositor28requiresCompositingForIFrameEPNS_12RenderObjectE
__ZN7WebCore21RenderLayerCompositor40shouldPropagateCompositingToIFrameParentEv
__ZNK7WebCore21RenderLayerCompositor27clipsCompositingDescendantsEPKNS_11RenderLayerE
__ZNK7WebCore21RenderLayerCompositor31requiresCompositingForAnimationEPNS_12RenderObjectE
__ZNK7WebCore12RenderObject9animationEv
__ZNK7WebCore5Frame9animationEv
__ZNK7WebCore19AnimationController29isAnimatingPropertyOnRendererEPNS_12RenderObjectE13CSSPropertyIDb
__ZNK7WebCore26AnimationControllerPrivate29isAnimatingPropertyOnRendererEPNS_12RenderObjectE13CSSPropertyIDb
__ZNK3WTF7HashMapIPN7WebCore12RenderObjectENS_6RefPtrINS1_18CompositeAnimationEEENS_7PtrHashIS3_EENS_10HashTraitsIS3_EENS9_IS6_
__ZNK7WebCore12RenderObject6isBodyEv
__ZN7WebCore11RenderBlock17updateFirstLetterEv
__ZNK7WebCore9FrameView13layoutPendingEv
__ZN7WebCore9FrameView23updateCompositingLayersEv
__ZNK7WebCore5Frame15contentRendererEv
__ZN7WebCore21RenderLayerCompositor32cacheAcceleratedCompositingFlagsEv
__ZNK7WebCore10RenderView15usesCompositingEv
__ZN7WebCore4Node19setNeedsStyleRecalcENS_15StyleChangeTypeE
__ZN7WebCore8Document21unscheduleStyleRecalcEv
__ZN7WebCore9FrameView21resumeScheduledEventsEv
__ZN7WebCore9FrameView23dispatchScheduledEventsEv
__ZN7WebCore12RenderWidget28resumeWidgetHierarchyUpdatesEv
__ZN7WebCoreL18widgetNewParentMapEv
__ZN7WebCore13ContainerNode25resumePostAttachCallbacksEv
__ZN7WebCore11FrameLoader35tellClientAboutPastMemoryCacheLoadsEv
__ZN3WTF6VectorIN7WebCore6StringELm0EE14shrinkCapacityEm
__ZN7WebCore6Loader21resumePendingRequestsEv
__ZNK7WebCore6Loader4Host11hasRequestsEv
__ZN7WebCore13ContainerNode6attachEv
__ZN7WebCore4Node6attachEv
__ZN7WebCore16ScriptController14updateDocumentEv
__ZNK7WebCore5Frame9domWindowEv
__ZN7WebCore9DOMWindowC1EPNS_5FrameE
__ZN7WebCore9DOMWindowC2EPNS_5FrameE
__ZN7WebCore11FrameLoader16didBeginDocumentEb
__ZN7WebCore11FrameLoader26updateFirstPartyForCookiesEv
__ZN7WebCore11FrameLoader23setFirstPartyForCookiesERKNS_4KURLE
__ZN7WebCore9DocLoader17setAutoLoadImagesEb
__ZNK7WebCore20ResourceResponseBase15httpHeaderFieldEPKc
__ZNK7WebCore13HTTPHeaderMap3getEPKc
__ZNK3WTF9HashTableIN7WebCore12AtomicStringESt4pairIS2_NS1_6StringEENS_18PairFirstExtractorIS5_EENS1_15CaseFoldingHashENS_14Pai
__ZN7WebCore17HistoryController20restoreDocumentStateEv
__ZN7WebCore8Document12implicitOpenEv
__ZN7WebCore8Document13cancelParsingEv
__ZN7WebCore13ContainerNode14removeChildrenEv
__ZN7WebCore12HTMLDocument15createTokenizerEv
__ZN7WebCore19InspectorController13windowVisibleEv
__ZN7WebCore13HTMLTokenizerC1EPNS_12HTMLDocumentEb
__ZN7WebCore13HTMLTokenizerC2EPNS_12HTMLDocumentEb
__ZN7WebCore10HTMLParserC1EPNS_12HTMLDocumentEb
__ZN7WebCore10HTMLParserC2EPNS_12HTMLDocumentEb
__ZN7WebCore13HTMLTokenizer5beginEv
__ZN7WebCore13HTMLTokenizer5resetEv
__ZN3WTF6VectorItLm0EE14shrinkCapacityEm
__ZN7WebCore15SegmentedString5clearEv
__ZN7WebCore8Document10setParsingEb
__ZN7WebCore19AnimationController20beginAnimationUpdateEv
__ZN7WebCore9FrameView15setContentsSizeERKNS_7IntSizeE
__ZNK7WebCore10ScrollView12contentsSizeEv
__ZNK7WebCore10ScrollView20platformContentsSizeEv
__ZNK7WebCore10ScrollView12documentViewEv
__ZN7WebCore16enclosingIntRectERK6CGRect
__ZN7WebCore14DocumentWriter7addDataEPKcib
__ZNK7WebCore9Tokenizer12wantsRawDataEv
__ZN7WebCore12TextEncodingC1ERKNS_6StringE
__ZN7WebCore12TextEncodingC2ERKNS_6StringE
__ZN7WebCore31atomicCanonicalTextEncodingNameEPKtm
__ZN7WebCore19TextResourceDecoderC1ERKNS_6StringERKNS_12TextEncodingEb
__ZN7WebCore19TextResourceDecoderC2ERKNS_6StringERKNS_12TextEncodingEb
__ZN7WebCore19TextResourceDecoder20determineContentTypeERKNS_6StringE
__ZN7WebCore19TextResourceDecoder15defaultEncodingENS0_11ContentTypeERKNS_12TextEncodingE
__ZN7WebCore14Latin1EncodingEv
__ZN7WebCore8Document10setDecoderEN3WTF10PassRefPtrINS_19TextResourceDecoderEEE
__ZN7WebCore19TextResourceDecoder6decodeEPKcm
__ZN7WebCore19TextResourceDecoder11checkForBOMEPKcm
__ZN7WebCore19TextResourceDecoder19checkForHeadCharsetEPKcmRb
__ZN3WTF6VectorIcLm0EE4growEm
__ZN7WebCore19TextResourceDecoder5flushEv
__ZN7WebCore12newTextCodecERKNS_12TextEncodingE
__ZNK3WTF7HashMapIPKcN7WebCore16TextCodecFactoryENS_7PtrHashIS2_EENS_10HashTraitsIS2_EENS7_IS4_EEE3getERKS2_
__ZN7WebCoreL36newStreamingTextDecoderWindowsLatin1ERKNS_12TextEncodingEPKv
__ZN7WebCore15TextCodecLatin16decodeEPKcmbbRb
__ZN3WTF6VectorIcLm0EE14shrinkCapacityEm
__ZN7WebCore15TextCodecLatin1D0Ev
__ZN7WebCore9TextCodecD2Ev
__ZN7WebCore8Document13finishParsingEv
__ZN7WebCore13HTMLTokenizer6finishEv
__ZN7WebCore13HTMLTokenizer3endEv
__ZN7WebCore13HTMLTokenizer12processTokenEv
__ZN7WebCore16ScriptController17canExecuteScriptsENS_33ReasonForCallingCanExecuteScriptsE
__ZN7WebCore10HTMLParser8finishedEv
__ZN7WebCore15HTMLHtmlElementC1ERKNS_13QualifiedNameEPNS_8DocumentE
__ZN7WebCore15HTMLHtmlElementC2ERKNS_13QualifiedNameEPNS_8DocumentE
__ZN7WebCore10HTMLParser10insertNodeEPNS_4NodeEb
__ZNK7WebCore7Element16virtualLocalNameEv
__ZNK7WebCore15HTMLHtmlElement11tagPriorityEv
__ZN7WebCore13ContainerNode8addChildEN3WTF10PassRefPtrINS_4NodeEEE
__ZN7WebCore12HTMLDocument12childAllowedEPNS_4NodeE
__ZN7WebCore22appendChildToContainerINS_4NodeENS_13ContainerNodeEEEvPT_PT0_
__ZN7WebCore15HTMLHtmlElement20insertedIntoDocumentEv
__ZN7WebCore7Element20insertedIntoDocumentEv
__ZN7WebCore13ContainerNode20insertedIntoDocumentEv
__ZN7WebCore4Node20insertedIntoDocumentEv
__ZN7WebCore13ContainerNode16insertedIntoTreeEb
__ZNK7WebCore7Element12getAttributeERKNS_13QualifiedNameE
__ZN7WebCore20ApplicationCacheHost26selectCacheWithoutManifestEv
__ZN7WebCore21ApplicationCacheGroup29selectCacheWithoutManifestURLEPNS_5FrameE
__ZN7WebCore8Document15childrenChangedEbPNS_4NodeES2_i
__ZN7WebCore13ContainerNode15childrenChangedEbPNS_4NodeES2_i
__ZN7WebCore10HTMLParser9pushBlockERKNS_12AtomicStringEi
__ZN7WebCoreL12isScopingTagERKNS_12AtomicStringE
__ZN7WebCore7Element20beginParsingChildrenEv
__ZN7WebCore7Element6attachEv
__ZN7WebCore4Node22createRendererIfNeededEv
__ZN7WebCore8Document21shouldCreateRenderersEv
__ZNK7WebCore12RenderObject15canHaveChildrenEv
__ZNK7WebCore4Node25childShouldCreateRendererEPS0_
__ZN7WebCore4Node16styleForRendererEv
__ZN7WebCore8Document19createStyleSelectorEv
__ZN7WebCore8Document13pageUserSheetEv
__ZNK7WebCore4Page14userStyleSheetEv
__ZNK7WebCore8Document19pageGroupUserSheetsEv
__ZN7WebCore4Page9initGroupEv
__ZN7WebCore9PageGroupC1EPNS_4PageE
__ZN7WebCore9PageGroupC2EPNS_4PageE
__ZN7WebCoreL19getUniqueIdentifierEv
__ZN7WebCore9PageGroup7addPageEPNS_4PageE
__ZN7WebCore16CSSStyleSelectorC1EPNS_8DocumentEPNS_14StyleSheetListEPNS_13CSSStyleSheetES6_PKN3WTF6VectorINS7_6RefPtrIS5_EELm0E
__ZN7WebCore16CSSStyleSelectorC2EPNS_8DocumentEPNS_14StyleSheetListEPNS_13CSSStyleSheetES6_PKN3WTF6VectorINS7_6RefPtrIS5_EELm0E
__ZN7WebCore16CSSStyleSelector15SelectorCheckerC1EPNS_8DocumentEb
__ZN7WebCore16CSSStyleSelector15SelectorCheckerC2EPNS_8DocumentEb
__ZN7WebCore15CSSFontSelectorC1EPNS_8DocumentE
__ZN7WebCore15CSSFontSelectorC2EPNS_8DocumentE
__ZN7WebCore9FontCache9addClientEPNS_12FontSelectorE
__ZN3WTF7HashSetIPN7WebCore12FontSelectorENS_7PtrHashIS3_EENS_10HashTraitsIS3_EEE3addERKS3_
__ZN3WTF9HashTableIPN7WebCore12FontSelectorES3_NS_17IdentityExtractorIS3_EENS_7PtrHashIS3_EENS_10HashTraitsIS3_EES9_E6expandEv
__ZN3WTF9HashTableIPN7WebCore12FontSelectorES3_NS_17IdentityExtractorIS3_EENS_7PtrHashIS3_EENS_10HashTraitsIS3_EES9_E6rehashEi
__ZN3WTF9HashTableIPN7WebCore12FontSelectorES3_NS_17IdentityExtractorIS3_EENS_7PtrHashIS3_EENS_10HashTraitsIS3_EES9_E13allocate
__ZN3WTF9HashTableIPN7WebCore12FontSelectorES3_NS_17IdentityExtractorIS3_EENS_7PtrHashIS3_EENS_10HashTraitsIS3_EES9_E15dealloca
__ZN7WebCore16CSSStyleSelector4initEv
__ZN3WTF6VectorIPN7WebCore26CSSMutableStyleDeclarationELm64EE14shrinkCapacityEm
__ZN7WebCoreL31elementCanUseSimpleDefaultStyleEPNS_7ElementE
__ZN7WebCore10CSSRuleSetC1Ev
__ZN7WebCore10CSSRuleSetC2Ev
__ZN7WebCoreL12parseUASheetEPKcj
__ZN7WebCoreL12parseUASheetERKNS_6StringE
__ZN7WebCore13CSSStyleSheetC1EPS0_RKNS_6StringERKNS_4KURLES4_
__ZN7WebCore13CSSStyleSheetC2EPS0_RKNS_6StringERKNS_4KURLES4_
__ZN7WebCore10StyleSheetC2EPS0_RKNS_6StringERKNS_4KURLE
__ZN7WebCore13CSSStyleSheet11parseStringERKNS_6StringEb
__ZN7WebCore9CSSParserC1Eb
__ZN7WebCore9CSSParserC2Eb
__ZN7WebCore9CSSParser10parseSheetEPNS_13CSSStyleSheetERKNS_6StringE
__ZN7WebCore9CSSParser11setupParserEPKcRKNS_6StringES2_
__Z10cssyyparsePv
__ZN7WebCore9CSSParser3lexEPv
__ZN7WebCore9CSSParser3lexEv
__ZN7WebCore9CSSParser4textEPi
__ZNK7WebCore9CSSParser8documentEv
__ZNK7WebCore13CSSStyleSheet15isCSSStyleSheetEv
__ZN7WebCore9CSSParser22createFloatingSelectorEv
__ZN3WTF7HashSetIPN7WebCore11CSSSelectorENS_7PtrHashIS3_EENS_10HashTraitsIS3_EEE3addERKS3_
__ZN3WTF9HashTableIPN7WebCore11CSSSelectorES3_NS_17IdentityExtractorIS3_EENS_7PtrHashIS3_EENS_10HashTraitsIS3_EES9_E6expandEv
__ZN3WTF9HashTableIPN7WebCore11CSSSelectorES3_NS_17IdentityExtractorIS3_EENS_7PtrHashIS3_EENS_10HashTraitsIS3_EES9_E6rehashEi
__ZN3WTF9HashTableIPN7WebCore11CSSSelectorES3_NS_17IdentityExtractorIS3_EENS_7PtrHashIS3_EENS_10HashTraitsIS3_EES9_E13allocateT
__ZN3WTF9HashTableIPN7WebCore11CSSSelectorES3_NS_17IdentityExtractorIS3_EENS_7PtrHashIS3_EENS_10HashTraitsIS3_EES9_E15deallocat
__ZN7WebCore13QualifiedName5derefEv
__ZN3WTF15deleteAllValuesIPN7WebCore11CSSSelectorELm0EEEvRKNS_6VectorIT_XT0_EEE
__ZN3WTF6VectorIPN7WebCore11CSSSelectorELm0EE6shrinkEm
__ZN7WebCore9CSSParser20sinkFloatingSelectorEPNS_11CSSSelectorE
__ZN3WTF9HashTableIPN7WebCore11CSSSelectorES3_NS_17IdentityExtractorIS3_EENS_7PtrHashIS3_EENS_10HashTraitsIS3_EES9_E4findIS3_NS
__ZN3WTF9HashTableIPN7WebCore11CSSSelectorES3_NS_17IdentityExtractorIS3_EENS_7PtrHashIS3_EENS_10HashTraitsIS3_EES9_E47removeAnd
__ZN3WTF9HashTableIPN7WebCore11CSSSelectorES3_NS_17IdentityExtractorIS3_EENS_7PtrHashIS3_EENS_10HashTraitsIS3_EES9_E6removeEPS3
__ZN3WTF6VectorIPN7WebCore11CSSSelectorELm0EE14expandCapacityEmPKS3_
__ZN3WTF6VectorIPN7WebCore11CSSSelectorELm0EE14expandCapacityEm
__ZN3WTF6VectorIPN7WebCore11CSSSelectorELm0EE15reserveCapacityEm
__ZN7WebCore13cssPropertyIDERKNS_15CSSParserStringE
__ZN7WebCoreL13cssPropertyIDEPKtj
__ZN7WebCore17cssValueKeywordIDERKNS_15CSSParserStringE
__ZN7WebCore9CSSParser23createFloatingValueListEv
__ZN3WTF7HashSetIPN7WebCore18CSSParserValueListENS_7PtrHashIS3_EENS_10HashTraitsIS3_EEE3addERKS3_
__ZN3WTF9HashTableIPN7WebCore18CSSParserValueListES3_NS_17IdentityExtractorIS3_EENS_7PtrHashIS3_EENS_10HashTraitsIS3_EES9_E6exp
__ZN3WTF9HashTableIPN7WebCore18CSSParserValueListES3_NS_17IdentityExtractorIS3_EENS_7PtrHashIS3_EENS_10HashTraitsIS3_EES9_E6reh
__ZN3WTF9HashTableIPN7WebCore18CSSParserValueListES3_NS_17IdentityExtractorIS3_EENS_7PtrHashIS3_EENS_10HashTraitsIS3_EES9_E13al
__ZN3WTF9HashTableIPN7WebCore18CSSParserValueListES3_NS_17IdentityExtractorIS3_EENS_7PtrHashIS3_EENS_10HashTraitsIS3_EES9_E15de
__ZN7WebCore9CSSParser17sinkFloatingValueERNS_14CSSParserValueE
__ZN7WebCore18CSSParserValueList8addValueERKNS_14CSSParserValueE
__ZN7WebCore9CSSParser21sinkFloatingValueListEPNS_18CSSParserValueListE
__ZN3WTF9HashTableIPN7WebCore18CSSParserValueListES3_NS_17IdentityExtractorIS3_EENS_7PtrHashIS3_EENS_10HashTraitsIS3_EES9_E4fin
__ZN3WTF9HashTableIPN7WebCore18CSSParserValueListES3_NS_17IdentityExtractorIS3_EENS_7PtrHashIS3_EENS_10HashTraitsIS3_EES9_E47re
__ZN3WTF9HashTableIPN7WebCore18CSSParserValueListES3_NS_17IdentityExtractorIS3_EENS_7PtrHashIS3_EENS_10HashTraitsIS3_EES9_E6rem
__ZN7WebCore9CSSParser10parseValueEib
__ZN7WebCore9CSSParser21checkForOrphanedUnitsEv
__ZN7WebCore9CSSParser17checkForVariablesEPNS_18CSSParserValueListE
__ZN7WebCore17CSSPrimitiveValue16createIdentifierEi
__ZN7WebCore17CSSPrimitiveValueC1Ei
__ZN7WebCore17CSSPrimitiveValueC2Ei
__ZN7WebCore9CSSParser11addPropertyEiN3WTF10PassRefPtrINS_8CSSValueEEEb
__ZN7WebCore18CSSParserValueListD1Ev
__ZN7WebCore18CSSParserValueListD2Ev
__ZN3WTF6VectorIN7WebCore14CSSParserValueELm4EE6shrinkEm
__ZN7WebCore9CSSParser15createStyleRuleEPN3WTF6VectorIPNS_11CSSSelectorELm0EEE
__ZN7WebCore12CSSStyleRuleC1EPNS_13CSSStyleSheetEi
__ZN7WebCore12CSSStyleRuleC2EPNS_13CSSStyleSheetEi
__ZN7WebCore15CSSSelectorList19adoptSelectorVectorERN3WTF6VectorIPNS_11CSSSelectorELm0EEE
__ZN7WebCore15CSSSelectorList15deleteSelectorsEv
__ZN7WebCore26CSSMutableStyleDeclarationC1EPNS_7CSSRuleEPKPKNS_11CSSPropertyEi
__ZN7WebCore26CSSMutableStyleDeclarationC2EPNS_7CSSRuleEPKPKNS_11CSSPropertyEi
__ZN7WebCore19CSSStyleDeclarationC2EPNS_7CSSRuleE
__ZNK7WebCore9StyleBase16useStrictParsingEv
__ZNK7WebCore8CSSValue24isVariableDependentValueEv
__ZN7WebCore12CSSStyleRule14setDeclarationEN3WTF10PassRefPtrINS_26CSSMutableStyleDeclarationEEE
__ZN3WTF6VectorINS_6RefPtrIN7WebCore9StyleBaseEEELm0EE14expandCapacityEm
__ZN3WTF6VectorINS_6RefPtrIN7WebCore9StyleBaseEEELm0EE15reserveCapacityEm
__ZN7WebCore9CSSParser15clearPropertiesEv
__ZN7WebCore9StyleList6appendEN3WTF10PassRefPtrINS_9StyleBaseEEE
__ZN7WebCore9StyleBase18insertedIntoParentEv
__ZN7WebCore9CSSParser12parse4ValuesEiPKib
__ZN7WebCore9CSSParser9validUnitEPNS_14CSSParserValueENS0_5UnitsEb
__ZN7WebCore17CSSPrimitiveValue6createEdNS0_9UnitTypesE
__ZN7WebCore17CSSPrimitiveValueC1EdNS0_9UnitTypesE
__ZN7WebCore17CSSPrimitiveValueC2EdNS0_9UnitTypesE
__ZN7WebCore15CSSParserString5lowerEv
__ZNK7WebCore11CSSSelector17extractPseudoTypeEv
__ZN7WebCore11CSSSelector15parsePseudoTypeERKNS_12AtomicStringE
__ZN7WebCoreL19nameToPseudoTypeMapEv
__ZN7WebCore12AtomicStringC2EPKc
__ZN3WTF7HashMapIPN7WebCore16AtomicStringImplENS1_11CSSSelector10PseudoTypeENS_7PtrHashIS3_EENS_10HashTraitsIS3_EENS8_IS5_EEE3s
__ZN3WTF9HashTableIPN7WebCore16AtomicStringImplESt4pairIS3_NS1_11CSSSelector10PseudoTypeEENS_18PairFirstExtractorIS7_EENS_7PtrH
__ZN7WebCore9CSSParser10countLinesEv
__ZN7WebCoreL9hasPrefixEPKcjS1_
__ZN7WebCore9CSSParser14parseShorthandEiPKiib
__ZN7WebCore12CSSValueListC1Eb
__ZN7WebCore12CSSValueListC2Eb
__ZN7WebCore12CSSValueList6appendEN3WTF10PassRefPtrINS_8CSSValueEEE
__ZN3WTF6VectorINS_6RefPtrIN7WebCore8CSSValueEEELm0EE14expandCapacityEm
__ZN3WTF6VectorINS_6RefPtrIN7WebCore8CSSValueEEELm0EE15reserveCapacityEm
__ZN7WebCore11CSSSelector13setTagHistoryEPS0_
__ZN7WebCore9CSSParserD1Ev
__ZN7WebCore9CSSParserD2Ev
__ZN7WebCore9CSSParser14clearVariablesEv
__ZN3WTF6VectorINS_6RefPtrIN7WebCore8CSSValueEEELm0EE14shrinkCapacityEm
__ZN3WTF19fastDeleteAllValuesIPN7WebCore11CSSSelectorEKNS_9HashTableIS3_S3_NS_17IdentityExtractorIS3_EENS_7PtrHashIS3_EENS_10Ha
__ZN3WTF15deleteAllValuesIPN7WebCore18CSSParserValueListEKNS_9HashTableIS3_S3_NS_17IdentityExtractorIS3_EENS_7PtrHashIS3_EENS_1
__ZN3WTF15deleteAllValuesIPN7WebCore17CSSParserFunctionEKNS_9HashTableIS3_S3_NS_17IdentityExtractorIS3_EENS_7PtrHashIS3_EENS_10
__ZN3WTF9HashTableIPN7WebCore17CSSParserFunctionES3_NS_17IdentityExtractorIS3_EENS_7PtrHashIS3_EENS_10HashTraitsIS3_EES9_E15dea
__ZN3WTF6VectorINS_6RefPtrIN7WebCore9StyleBaseEEELm0EE6shrinkEm
__ZN7WebCoreL10screenEvalEv
__ZN7WebCore19MediaQueryEvaluatorC1EPKcb
__ZN7WebCore19MediaQueryEvaluatorC2EPKcb
__ZN7WebCore10CSSRuleSet17addRulesFromSheetEPNS_13CSSStyleSheetERKNS_19MediaQueryEvaluatorEPNS_16CSSStyleSelectorE
__ZN7WebCore12CSSStyleRule11isStyleRuleEv
__ZN7WebCore9StyleBase10isPageRuleEv
__ZN7WebCore10CSSRuleSet7addRuleEPNS_12CSSStyleRuleEPNS_11CSSSelectorE
__ZN7WebCore10CSSRuleSet12addToRuleSetEPNS_16AtomicStringImplERN3WTF7HashMapIS2_PNS_15CSSRuleDataListENS3_7PtrHashIS2_EENS3_10H
__ZNK3WTF7HashMapIPN7WebCore16AtomicStringImplEPNS1_15CSSRuleDataListENS_7PtrHashIS3_EENS_10HashTraitsIS3_EENS8_IS5_EEE3getERKS
__ZN3WTF7HashMapIPN7WebCore16AtomicStringImplEPNS1_15CSSRuleDataListENS_7PtrHashIS3_EENS_10HashTraitsIS3_EENS8_IS5_EEE3setERKS3
__ZN3WTF9HashTableIPN7WebCore16AtomicStringImplESt4pairIS3_PNS1_15CSSRuleDataListEENS_18PairFirstExtractorIS7_EENS_7PtrHashIS3_
__ZNK7WebCore9FrameView9mediaTypeEv
__ZN7WebCore19MediaQueryEvaluatorC1ERKNS_6StringEb
__ZN7WebCore19MediaQueryEvaluatorC2ERKNS_6StringEb
__ZN7WebCore16CSSStyleSelector15styleForElementEPNS_7ElementEPNS_11RenderStyleEbbb
__ZN7WebCore11RenderStyle11inheritFromEPKS0_
__ZN7WebCore16CSSStyleSelector12matchUARulesERiS1_
__ZNK7WebCore19MediaQueryEvaluator22mediaTypeMatchSpecificEPKc
__ZN7WebCore16CSSStyleSelector10matchRulesEPNS_10CSSRuleSetERiS3_
__ZN3WTF6VectorIPN7WebCore11CSSRuleDataELm32EE14shrinkCapacityEm
__ZN7WebCore16CSSStyleSelector17matchRulesForListEPNS_15CSSRuleDataListERiS3_
__ZN7WebCore16CSSStyleSelector13checkSelectorEPNS_11CSSSelectorE
__ZNK7WebCore16CSSStyleSelector15SelectorChecker13checkSelectorEPNS_11CSSSelectorEPNS_7ElementEPN3WTF7HashSetIPNS_16AtomicStrin
__ZNK7WebCore16CSSStyleSelector15SelectorChecker16checkOneSelectorEPNS_11CSSSelectorEPNS_7ElementEPN3WTF7HashSetIPNS_16AtomicSt
__ZN7WebCore16CSSStyleSelector16sortMatchedRulesEjj
__ZN7WebCore16CSSStyleSelector21addMatchedDeclarationEPNS_26CSSMutableStyleDeclarationE
__ZN3WTF6VectorIPN7WebCore11CSSRuleDataELm32EE6shrinkEm
__ZN7WebCore16CSSStyleSelector17applyDeclarationsILb1EEEvbii
__ZN7WebCore16CSSStyleSelector13applyPropertyEiPNS_8CSSValueE
__ZNK7WebCore17CSSPrimitiveValue16isPrimitiveValueEv
__ZNK7WebCore17CSSPrimitiveValue12cssValueTypeEv
__ZN7WebCore16CSSStyleSelector17applyDeclarationsILb0EEEvbii
__ZN7WebCore16CSSStyleSelector24cacheBorderAndBackgroundEv
__ZN7WebCore16CSSStyleSelector17adjustRenderStyleEPNS_11RenderStyleEPNS_7ElementE
__ZN7WebCore12StyleBoxDataC1ERKS0_
__ZN7WebCore12StyleBoxDataC2ERKS0_
__ZN7WebCore11RenderStyle16adjustAnimationsEv
__ZN7WebCore11RenderStyle17adjustTransitionsEv
__ZNK7WebCore7Element20isFormControlElementEv
__ZN7WebCore19MediaQueryEvaluatorD1Ev
__ZN7WebCore19MediaQueryEvaluatorD2Ev
__ZN7WebCore19MediaQueryEvaluatorC1ERKNS_6StringEPNS_5FrameEPNS_11RenderStyleE
__ZN7WebCore19MediaQueryEvaluatorC2ERKNS_6StringEPNS_5FrameEPNS_11RenderStyleE
__ZNK7WebCore14StyleSheetList6lengthEv
__ZN7WebCore16CSSStyleSelector16locateCousinListEPNS_7ElementEj
__ZN3WTF6VectorIPN7WebCore26CSSMutableStyleDeclarationELm64EE6shrinkEm
__ZNK7WebCore13StyledElement36canHaveAdditionalAttributeStyleDeclsEv
__ZN7WebCore11HTMLElement16rendererIsNeededEPNS_11RenderStyleE
__ZN7WebCore4Node16rendererIsNeededEPNS_11RenderStyleE
__ZN7WebCore11HTMLElement14createRendererEPNS_11RenderArenaEPNS_11RenderStyleE
__ZN7WebCore12RenderObject12createObjectEPNS_4NodeEPNS_11RenderStyleE
__ZN7WebCore11RenderBlockC1EPNS_4NodeE
__ZNK7WebCore12RenderObject14isChildAllowedEPS0_PNS_11RenderStyleE
__ZN7WebCore12RenderObject18setAnimatableStyleEN3WTF10PassRefPtrINS_11RenderStyleEEE
__ZN7WebCore19AnimationController16updateAnimationsEPNS_12RenderObjectEPNS_11RenderStyleE
__ZNK7WebCore12RenderObject12isRenderViewEv
__ZN7WebCore11RenderLayer19insertOnlyThisLayerEv
__ZN7WebCore11RenderLayer34clearClipRectsIncludingDescendantsEv
__ZN7WebCore4Node12nextRendererEv
__ZN7WebCore11RenderBlock8addChildEPNS_12RenderObjectES2_
__ZN7WebCore11RenderBlock21makeChildrenNonInlineEPNS_12RenderObjectE
__ZN7WebCore12RenderObject8addChildEPS0_S1_
__ZN7WebCore11RenderBlock15virtualChildrenEv
__ZNK7WebCore12RenderObject10isTableColEv
__ZNK7WebCore11RenderBlock13isRenderBlockEv
__ZNK7WebCore12RenderObject14isTableSectionEv
__ZNK7WebCore12RenderObject10isTableRowEv
__ZNK7WebCore12RenderObject11isTableCellEv
__ZN7WebCore21RenderObjectChildList15insertChildNodeEPNS_12RenderObjectES2_S2_b
__ZN7WebCore21RenderObjectChildList15appendChildNodeEPNS_12RenderObjectES2_b
__ZNK7WebCore12RenderObject14enclosingLayerEv
__ZN7WebCore12RenderObject9addLayersEPNS_11RenderLayerEPS0_
__ZN7WebCoreL9addLayersEPNS_12RenderObjectEPNS_11RenderLayerERS1_RS3_
__ZN7WebCore12RenderObject13findNextLayerEPNS_11RenderLayerEPS0_b
__ZN7WebCore11RenderLayer8addChildEPS0_S1_
__ZN7WebCore11RenderLayer9setParentEPS0_
__ZN7WebCore21RenderLayerCompositor13layerWasAddedEPNS_11RenderLayerES2_
__ZN7WebCore21RenderLayerCompositor31setCompositingLayersNeedRebuildEb
__ZN7WebCore11RenderLayer31dirtyStackingContextZOrderListsEv
__ZNK7WebCore11RenderLayer15stackingContextEv
__ZN7WebCore11RenderLayer16dirtyZOrderListsEv
__ZN7WebCore11RenderLayer22updateVisibilityStatusEv
__ZN7WebCore11RenderLayer22childVisibilityChangedEb
__ZNK7WebCore12RenderObject10isListItemEv
__ZNK7WebCore12RenderObject9containerEPNS_20RenderBoxModelObjectEPb
__ZNK7WebCore12RenderObject13isTextControlEv
__ZNK7WebCore12RenderObject9isSVGRootEv
__ZN7WebCore12RenderObject16scheduleRelayoutEv
__ZN7WebCore9FrameView16scheduleRelayoutEv
__ZNK7WebCore9FrameView11needsLayoutEv
__ZN7WebCore8Document20shouldScheduleLayoutEv
__ZNK7WebCore8Document4bodyEv
__ZN7WebCore12RenderObject24setLayerNeedsFullRepaintEv
__ZN7WebCore12RenderObject29invalidateContainerPrefWidthsEv
__ZN7WebCore13RenderCounter23rendererSubtreeAttachedEPNS_12RenderObjectE
__ZNK7WebCore11RenderStyle17counterDirectivesEv
__ZNK7WebCore12RenderObject14nextInPreOrderEPS0_
__ZNK7WebCore12RenderObject27nextInPreOrderAfterChildrenEPS0_
__ZN7WebCore11FrameLoader32dispatchDocumentElementAvailableEv
__ZN7WebCore5Frame17injectUserScriptsENS_23UserScriptInjectionTimeE
__ZN7WebCore10HTMLParser9freeBlockEv
__ZN7WebCore10HTMLParser11popOneBlockEv
__ZN7WebCore7Element21finishParsingChildrenEv
__ZN7WebCoreL27checkForSiblingStyleChangesEPNS_7ElementEPNS_11RenderStyleEbPNS_4NodeES5_i
__ZN7WebCore10HTMLParser10setCurrentEPNS_4NodeE
__ZN7WebCore8Document15finishedParsingEv
__ZN7WebCore16ThreadGlobalDataC1Ev
__ZN7WebCore16ThreadGlobalDataC2Ev
__ZN7WebCore10EventNamesC1Ev
__ZN7WebCore10EventNamesC2Ev
__ZN7WebCore12ThreadTimersC1Ev
__ZN7WebCore12ThreadTimersC2Ev
__ZN7WebCoreL21mainThreadSharedTimerEv
__ZN7WebCore12ThreadTimers14setSharedTimerEPNS_11SharedTimerE
__ZN7WebCore21MainThreadSharedTimer16setFiredFunctionEPFvvE
__ZN7WebCore27setSharedTimerFiredFunctionEPFvvE
__ZN7WebCore12ThreadTimers17updateSharedTimerEv
__ZN7WebCore21MainThreadSharedTimer4stopEv
__ZN7WebCore15stopSharedTimerEv
__ZN7WebCore5EventC1ERKNS_12AtomicStringEbb
__ZN7WebCore5EventC2ERKNS_12AtomicStringEbb
__ZN7WebCore4Node13dispatchEventEN3WTF10PassRefPtrINS_5EventEEE
__ZN7WebCore4Node14refEventTargetEv
__ZN7WebCore5Event9setTargetEN3WTF10PassRefPtrINS_11EventTargetEEE
__ZN7WebCore5Event14receivedTargetEv
__ZN7WebCore4Node20dispatchGenericEventEN3WTF10PassRefPtrINS_5EventEEE
__ZN7WebCore4Node14eventAncestorsERN3WTF6VectorINS1_6RefPtrINS_13ContainerNodeEEELm0EEE
__ZN7WebCore4Node15eventParentNodeEv
__ZNK7WebCore8Document9domWindowEv
__ZN7WebCore4Node23preDispatchEventHandlerEPNS_5EventE
__ZN7WebCore11EventTarget18fireEventListenersEPNS_5EventE
__ZN7WebCore9DOMWindow15eventTargetDataEv
__ZNK7WebCore5Event14hasAliasedTypeEv
__ZN7WebCore4Node17handleLocalEventsEPNS_5EventE
__ZN7WebCore4Node24postDispatchEventHandlerEPNS_5EventEPv
__ZN7WebCore4Node19defaultEventHandlerEPNS_5EventE
__ZN7WebCore5EventD0Ev
__ZN7WebCore4Node16derefEventTargetEv
__ZN7WebCore8Document19updateStyleIfNeededEv
__ZN7WebCore11FrameLoader15finishedParsingEv
__ZN7WebCore19InspectorController32mainResourceFiredDOMContentEventEPNS_14DocumentLoaderERKNS_4KURLE
__ZNK7WebCore19InspectorController7enabledEv
__ZN7WebCore13HTMLTokenizerD0Ev
__ZN7WebCore10HTMLParserD0Ev
__ZN7WebCore9TimerBaseD2Ev
__ZN7WebCore8Document5closeEv
__ZN7WebCore11FrameLoader14checkCompletedEv
__ZN7WebCore9FrameView33checkStopDelayingDeferredRepaintsEv
__ZNK7WebCore11FrameLoader22allChildrenAreCompleteEv
__ZN7WebCoreL11numRequestsEPNS_8DocumentE
__ZN7WebCore9DocLoader12requestCountEv
__ZN7WebCore11FrameLoader22checkCallImplicitCloseEv
__ZN7WebCore8Document13implicitCloseEv
__ZN7WebCore17RedirectScheduler21locationChangePendingEv
__ZN7WebCore17RedirectScheduler10startTimerEv
__ZN7WebCore11FrameLoader9completedEv
__ZN7WebCore9FrameView30maintainScrollPositionAtAnchorEPNS_4NodeE
__ZN7WebCore11FrameLoader17checkLoadCompleteEv
__ZN7WebCore11FrameLoader26recursiveCheckLoadCompleteEv
__ZN7WebCore11FrameLoader29checkLoadCompleteForThisFrameEv
__ZNK7WebCore14DocumentLoader19isLoadingInAPISenseEv
__ZNK7WebCore11FrameLoader17subframeIsLoadingEv
__ZN7WebCore11FrameLoader16markLoadCompleteEv
__ZN7WebCore11FrameLoader18frameLoadCompletedEv
__ZN7WebCore17HistoryController27updateForFrameLoadCompletedEv
__ZN7WebCore14DocumentLoader22stopRecordingResponsesEv
__ZN7WebCore8Settings11setZoomModeENS_8ZoomModeE
__ZN7WebCore5Frame13setZoomFactorEfNS_8ZoomModeE
__ZNK7WebCore5Frame8zoomModeEv
__ZN7WebCore12SchedulePairC1EP9NSRunLoopPK10__CFString
__ZN7WebCore12SchedulePairC2EP9NSRunLoopPK10__CFString
__ZN7WebCore4Page15addSchedulePairEN3WTF10PassRefPtrINS_12SchedulePairEEE
__ZN3WTF7HashSetINS_6RefPtrIN7WebCore12SchedulePairEEENS2_16SchedulePairHashENS_10HashTraitsIS4_EEE3addERKS4_
__ZN3WTF9HashTableINS_6RefPtrIN7WebCore12SchedulePairEEES4_NS_17IdentityExtractorIS4_EENS2_16SchedulePairHashENS_10HashTraitsIS
__ZN7WebCore14DocumentLoader8scheduleEPNS_12SchedulePairE
__ZN7WebCoreL11scheduleAllERKN3WTF7HashSetINS0_6RefPtrINS_14ResourceLoaderEEENS0_7PtrHashIS4_EENS0_10HashTraitsIS4_EEEEPNS_12Sc
__ZN7WebCore4Page12setGroupNameERKNS_6StringE
__ZN7WebCore9PageGroupD1Ev
__ZN7WebCore9PageGroupD2Ev
__ZN7WebCore9PageGroup20removeAllUserContentEv
__ZN3WTF9HashTableIyyNS_17IdentityExtractorIyEEN7WebCore12LinkHashHashENS_10HashTraitsIyEES6_E15deallocateTableEPyi
__ZN7WebCore9PageGroup9pageGroupERKNS_6StringE
__ZN3WTF7HashMapIN7WebCore6StringEPNS1_9PageGroupENS1_10StringHashENS_10HashTraitsIS2_EENS6_IS4_EEE3addERKS2_RKS4_
__ZN3WTF9HashTableIN7WebCore6StringESt4pairIS2_PNS1_9PageGroupEENS_18PairFirstExtractorIS6_EENS1_10StringHashENS_14PairHashTrai
__ZN7WebCore9PageGroupC1ERKNS_6StringE
__ZN7WebCore9PageGroupC2ERKNS_6StringE
__ZN7WebCore5Cache13setCapacitiesEjjj
__ZN7WebCore9pageCacheEv
__ZN7WebCore9PageCacheC1Ev
__ZN7WebCore9PageCacheC2Ev
__ZN7WebCore9PageCache11setCapacityEi
__ZN7WebCore9PageCache5pruneEv
__ZN7WebCore8Settings20setCursiveFontFamilyERKNS_12AtomicStringE
__ZN7WebCoreL32setNeedsReapplyStylesInAllFramesEPNS_4PageE
__ZN7WebCore5Frame21setNeedsReapplyStylesEv
__ZN7WebCore8Settings23setDefaultFixedFontSizeEi
__ZN7WebCore8Settings18setDefaultFontSizeEi
__ZN7WebCore8Settings26setDefaultTextEncodingNameERKNS_6StringE
__ZN7WebCore8Settings23setUsesEncodingDetectorEb
__ZN7WebCore8Settings20setFantasyFontFamilyERKNS_12AtomicStringE
__ZN7WebCore8Settings18setFixedFontFamilyERKNS_12AtomicStringE
__ZN7WebCore8Settings28setForceFTPDirectoryListingsEb
__ZN7WebCore8Settings27setFTPDirectoryTemplatePathERKNS_6StringE
__ZN7WebCore8Settings14setJavaEnabledEb
__ZN7WebCore8Settings20setJavaScriptEnabledEb
__ZN7WebCore8Settings21setWebSecurityEnabledEb
__ZN7WebCore8Settings35setAllowUniversalAccessFromFileURLsEb
__ZN7WebCore8Settings30setAllowFileAccessFromFileURLsEb
__ZN7WebCore8Settings40setJavaScriptCanOpenWindowsAutomaticallyEb
__ZN7WebCore8Settings18setMinimumFontSizeEi
__ZN7WebCore8Settings25setMinimumLogicalFontSizeEi
__ZN7WebCore8Settings17setPluginsEnabledEb
__ZN7WebCore8Database14setIsAvailableEb
__ZN7WebCore8Settings22setLocalStorageEnabledEb
__ZN7WebCore8Settings35setExperimentalNotificationsEnabledEb
__ZN7WebCore8Settings25setPrivateBrowsingEnabledEb
__ZN7WebCore8Settings22setSansSerifFontFamilyERKNS_12AtomicStringE
__ZN7WebCore8Settings18setSerifFontFamilyERKNS_12AtomicStringE
__ZN7WebCore8Settings21setStandardFontFamilyERKNS_12AtomicStringE
__ZN7WebCore8Settings27setLoadsImagesAutomaticallyEb
__ZN7WebCore8Settings25setShouldPrintBackgroundsEb
__ZN7WebCore8Settings24setTextAreasAreResizableEb
__ZN7WebCore8Settings31setShrinksStandaloneImagesToFitEb
__ZN7WebCore8Settings23setEditableLinkBehaviorENS_20EditableLinkBehaviorE
__ZN7WebCore8Settings40setTextDirectionSubmenuInclusionBehaviorENS_37TextDirectionSubmenuInclusionBehaviorE
__ZN7WebCore8Settings18setDOMPasteAllowedEb
__ZN7WebCore8Settings16setUsesPageCacheEb
__ZN7WebCore8Settings22setShowsURLsInToolTipsEb
__ZN7WebCore8Settings25setDeveloperExtrasEnabledEb
__ZN7WebCore8Settings29setAuthorAndUserStylesEnabledEb
__ZN7WebCore8Settings24setApplicationChromeModeEb
__ZN7WebCore4KURLC1EP5NSURL
__ZN7WebCore4KURLC2EP5NSURL
__ZN7WebCore8Settings25setUserStyleSheetLocationERKNS_4KURLE
__ZN7WebCore4Page29userStyleSheetLocationChangedEv
__ZNK7WebCore4KURL11isLocalFileEv
__ZNK7WebCore4KURL10protocolIsEPKc
__ZN7WebCore8Document18clearPageUserSheetEv
__ZN7WebCore8Document19updateStyleSelectorEv
__ZN7WebCore8Document19recalcStyleSelectorEv
__ZN7WebCore16CSSStyleSelectorD1Ev
__ZN7WebCore16CSSStyleSelectorD2Ev
__ZN7WebCore10CSSRuleSetD1Ev
__ZN7WebCore10CSSRuleSetD2Ev
__ZN3WTF20deleteAllPairSecondsIPN7WebCore15CSSRuleDataListEKNS_7HashMapIPNS1_16AtomicStringImplES3_NS_7PtrHashIS6_EENS_10HashTr
__ZN3WTF15deleteAllValuesIPN7WebCore16MediaQueryResultELm0EEEvRKNS_6VectorIT_XT0_EEE
__ZN3WTF9HashTableIPN7WebCore16AtomicStringImplES3_NS_17IdentityExtractorIS3_EENS_7PtrHashIS3_EENS_10HashTraitsIS3_EES9_E15deal
__ZN7WebCore11RenderStyleD1Ev
__ZN7WebCore11RenderStyleD2Ev
__ZN7WebCore9FillLayerD1Ev
__ZN7WebCore9FillLayerD2Ev
__ZNK7WebCore25StyleRareNonInheritedData21contentDataEquivalentERKS0_
__ZNK7WebCore11RenderStyleeqERKS0_
__ZNK7WebCore18StyleInheritedDataeqERKS0_
__ZNK7WebCore4FonteqERKS0_
__ZNK7WebCore11RenderStyle17inheritedNotEqualEPKS0_
__ZNK7WebCore11RenderStyle4diffEPKS0_Rj
__ZNK7WebCore19TransformOperationseqERKS0_
__ZN7WebCore7Element11recalcStyleENS_4Node11StyleChangeE
__ZNK7WebCore12StyleBoxDataeqERKS0_
__ZN7WebCore4Node14setRenderStyleEN3WTF10PassRefPtrINS_11RenderStyleEEE
__ZN7WebCore12RenderObject7repaintEb
__ZN7WebCore12RenderObject8isRootedEPPNS_10RenderViewE
__ZNK7WebCore10RenderView8printingEv
__ZNK7WebCore12RenderObject19containerForRepaintEv
__ZN7WebCore9RenderBox29clippedOverflowRectForRepaintEPNS_20RenderBoxModelObjectE
__ZN7WebCore10RenderView21computeRectForRepaintEPNS_20RenderBoxModelObjectERNS_7IntRectEb
__ZN7WebCore12RenderObject21repaintUsingContainerEPNS_20RenderBoxModelObjectERKNS_7IntRectEb
__ZN7WebCore10RenderView20repaintViewRectangleERKNS_7IntRectEb
__ZNK7WebCore10RenderView13shouldRepaintERKNS_7IntRectE
__ZN7WebCore13RenderCounter20rendererStyleChangedEPNS_12RenderObjectEPKNS_11RenderStyleES5_
__ZN7WebCore18StyleInheritedDataD1Ev
__ZN7WebCore18StyleInheritedDataD2Ev
__ZN7WebCore15CSSFontSelectorD0Ev
__ZN7WebCore9FontCache12removeClientEPNS_12FontSelectorE
__ZN3WTF9HashTableIPN7WebCore12FontSelectorES3_NS_17IdentityExtractorIS3_EENS_7PtrHashIS3_EENS_10HashTraitsIS3_EES9_E4findIS3_N
__ZN3WTF9HashTableIPN7WebCore12FontSelectorES3_NS_17IdentityExtractorIS3_EENS_7PtrHashIS3_EENS_10HashTraitsIS3_EES9_E47removeAn
__ZN3WTF9HashTableIPN7WebCore12FontSelectorES3_NS_17IdentityExtractorIS3_EENS_7PtrHashIS3_EENS_10HashTraitsIS3_EES9_E6removeEPS
__ZN3WTF20deleteAllPairSecondsIPNS_6VectorINS_6RefPtrIN7WebCore11CSSFontFaceEEELm0EEEKNS_7HashMapINS3_6StringES7_NS3_15CaseFold
__ZN3WTF20deleteAllPairSecondsIPNS_7HashMapIjNS_6RefPtrIN7WebCore20CSSSegmentedFontFaceEEENS_7IntHashIjEENS_10HashTraitsIjEENS8
__ZN7WebCore19AnimationController18endAnimationUpdateEv
__ZN7WebCore26AnimationControllerPrivate18endAnimationUpdateEv
__ZN7WebCore26AnimationControllerPrivate14styleAvailableEv
__ZN7WebCore26AnimationControllerPrivate24beginAnimationUpdateTimeEv
__ZN7WebCore26AnimationControllerPrivate17startTimeResponseEd
__ZN7WebCore8Settings32setNeedsAdobeFrameReloadingQuirkEb
__ZN7WebCore8Settings35setTreatsAnyTextCSSLinkAsStylesheetEb
__ZN7WebCore8Settings41setNeedsKeyboardEventDisambiguationQuirksEb
__ZN7WebCore8Settings25setNeedsLeopardMailQuirksEb
__ZN7WebCore8Settings23setNeedsTigerMailQuirksEb
__ZN7WebCore8Settings26setNeedsSiteSpecificQuirksEb
__ZN7WebCore8Settings29setWebArchiveDebugModeEnabledEb
__ZN7WebCore8Settings34setLocalFileContentSniffingEnabledEb
__ZN7WebCore8Settings36setOfflineWebApplicationCacheEnabledEb
__ZN7WebCore8Settings31setJavaScriptCanAccessClipboardEb
__ZN7WebCore8Settings20setXSSAuditorEnabledEb
__ZN7WebCore8Settings33setEnforceCSSMIMETypeInStrictModeEb
__ZN7WebCore8Settings32setAcceleratedCompositingEnabledEb
__ZN7WebCore8Settings19setShowDebugBordersEb
__ZN7WebCore8Settings21setShowRepaintCounterEb
__ZN7WebCore8Settings23setPluginAllowedRunTimeEj
__ZN7WebCore4Page27pluginAllowedRunTimeChangedEv
__ZN7WebCore8Settings15setWebGLEnabledEb
__ZN7WebCore27applicationIsAdobeInstallerEv
__ZN7WebCore8Settings23setLoadDeferringEnabledEb
__ZN7WebCore8Settings25setFrameFlatteningEnabledEb
__ZN7WebCore4Page15backForwardListEv
__ZN7WebCore15BackForwardList10setEnabledEb
__ZN7WebCore15BackForwardList7enabledEv
__ZN7WebCore15BackForwardList11setCapacityEi
__ZN7WebCore7IntSizeC1ERK6CGSize
__ZN7WebCore7IntSizeC2ERK6CGSize
__ZN7WebCore12IconDatabase11defaultIconERKNS_7IntSizeE
__ZN7WebCore12SharedBufferC1EPKhi
__ZN7WebCore12SharedBufferC2EPKhi
__ZN7WebCore12SharedBuffer6appendEPKcj
__ZN7WebCore12SharedBuffer25maybeTransferPlatformDataEv
__ZN3WTF6VectorIcLm0EE6appendIcEEvPKT_m
__ZN3WTF6VectorIcLm0EE14expandCapacityEmPKc
__ZN3WTF6VectorIcLm0EE14expandCapacityEm
__ZN3WTF6VectorIcLm0EE15reserveCapacityEm
__ZN7WebCore10IconRecord12setImageDataEN3WTF10PassRefPtrINS_12SharedBufferEEE
__ZN7WebCore11BitmapImageC1EPNS_13ImageObserverE
__ZN7WebCore11BitmapImageC2EPNS_13ImageObserverE
__ZN7WebCore5ImageC2EPNS_13ImageObserverE
__ZN7WebCore11ImageSourceC1Ev
__ZN7WebCore11ImageSourceC2Ev
__ZN7WebCore11BitmapImage16initPlatformDataEv
__ZN7WebCore5Image7setDataEN3WTF10PassRefPtrINS_12SharedBufferEEEb
__ZNK7WebCore12SharedBuffer4sizeEv
__ZNK7WebCore12SharedBuffer15hasPlatformDataEv
__ZN7WebCore11BitmapImage11dataChangedEb
__ZN7WebCore11BitmapImage24destroyMetadataAndNotifyEi
__ZN7WebCore11BitmapImage22invalidatePlatformDataEv
__ZN7WebCoreL10frameBytesERKNS_7IntSizeE
__ZN7WebCore11ImageSource7setDataEPNS_12SharedBufferEb
__ZN7WebCore12SharedBuffer12createCFDataEv
+[WebCoreSharedBufferData initialize]
-[WebCoreSharedBufferData .cxx_construct]
-[WebCoreSharedBufferData initWithSharedBuffer:]
-[WebCoreSharedBufferData length]
__ZN7WebCore11BitmapImage15isSizeAvailableEv
__ZN7WebCore11ImageSource15isSizeAvailableEv
-[WebCoreSharedBufferData bytes]
__ZNK7WebCore12SharedBuffer4dataEv
__ZNK7WebCore12SharedBuffer6bufferEv
__ZN7WebCoreL18imageSourceOptionsEv
__ZN7WebCore10IconRecord5imageERKNS_7IntSizeE
__ZN7WebCore11BitmapImage10getNSImageEv
__ZN7WebCore11BitmapImage21getTIFFRepresentationEv
__ZN7WebCore11BitmapImage10frameCountEv
__ZNK7WebCore11ImageSource10frameCountEv
__ZN7WebCore11BitmapImage12frameAtIndexEm
__ZN7WebCore11BitmapImage10cacheFrameEm
__ZN3WTF6VectorIN7WebCore9FrameDataELm0EE4growEm
__ZN3WTF6VectorIN7WebCore9FrameDataELm0EE14expandCapacityEm
__ZN3WTF6VectorIN7WebCore9FrameDataELm0EE15reserveCapacityEm
__ZN7WebCore11ImageSource18createFrameAtIndexEm
__ZNK7WebCore11ImageSource11initializedEv
__ZN7WebCore11BitmapImage18checkForSolidColorEv
__ZN7WebCore11ImageSource22frameIsCompleteAtIndexEm
__ZN7WebCore11BitmapImage15repetitionCountEb
__ZN7WebCore11ImageSource15repetitionCountEv
__ZN7WebCore11ImageSource20frameHasAlphaAtIndexEm
__ZN3WTF6VectorIP7CGImageLm0EE14expandCapacityEmPKS2_
__ZN3WTF6VectorIP7CGImageLm0EE14expandCapacityEm
__ZN3WTF6VectorIP7CGImageLm0EE15reserveCapacityEm
__ZN3WTF6VectorIP7CGImageLm0EE6shrinkEm
__ZN7WebCore16FontPlatformDataC1EP6NSFontbb
__ZN7WebCore16FontPlatformDataC2EP6NSFontbb
__ZN7WebCore4FontC1ERKNS_16FontPlatformDataEb
__ZN7WebCore4FontC2ERKNS_16FontPlatformDataEb
__ZN7WebCore16FontFallbackList15setPlatformFontERKNS_16FontPlatformDataE
__ZN7WebCore9FontCache17getCachedFontDataEPKNS_16FontPlatformDataE
__ZN7WebCore14SimpleFontDataC1ERKNS_16FontPlatformDataEbbPNS_11SVGFontDataE
__ZN7WebCore14SimpleFontDataC2ERKNS_16FontPlatformDataEbbPNS_11SVGFontDataE
__ZN7WebCore16FontPlatformDataC1ERKS0_
__ZN7WebCore16FontPlatformDataC2ERKS0_
__ZN7WebCore14SimpleFontData12platformInitEv
__ZN7WebCoreL12initFontDataEPNS_14SimpleFontDataE
__ZN7WebCore17GlyphPageTreeNode7getRootEj
__ZN7WebCore17GlyphPageTreeNode8getChildEPKNS_8FontDataEj
__ZNK3WTF7HashMapIPKN7WebCore8FontDataEPNS1_17GlyphPageTreeNodeENS_7PtrHashIS4_EENS_10HashTraitsIS4_EENS9_IS6_EEE3getERKS4_
__ZNK7WebCore14SimpleFontData12isCustomFontEv
__ZN3WTF7HashMapIPKN7WebCore8FontDataEPNS1_17GlyphPageTreeNodeENS_7PtrHashIS4_EENS_10HashTraitsIS4_EENS9_IS6_EEE3setERKS4_RKS6_
__ZN3WTF9HashTableIPKN7WebCore8FontDataESt4pairIS4_PNS1_17GlyphPageTreeNodeEENS_18PairFirstExtractorIS8_EENS_7PtrHashIS4_EENS_1
__ZN7WebCore17GlyphPageTreeNode14initializePageEPKNS_8FontDataEj
__ZNK7WebCore14SimpleFontData11isSegmentedEv
__ZN7WebCoreL4fillEPNS_9GlyphPageEjjPtjPKNS_14SimpleFontDataE
__ZN7WebCore9GlyphPage4fillEjjPtjPKNS_14SimpleFontDataE
__ZN3WTF6VectorItLm512EE6shrinkEm
__ZN7WebCore14SimpleFontData17platformGlyphInitEv
__ZN7WebCore15GlyphMetricsMapIfE18locatePageSlowCaseEj
__ZNK7WebCore14SimpleFontData21platformWidthForGlyphEt
__ZN7WebCore14SimpleFontData14determinePitchEv
__ZN7WebCore14SimpleFontData21platformCharWidthInitEv
__ZN7WebCoreL19copyFontTableForTagENS_16FontPlatformDataEj
__ZN7WebCore16FontPlatformDataD1Ev
__ZN7WebCore16FontPlatformDataD2Ev
__ZN7WebCore14SimpleFontData14initCharWidthsEv
__ZN3WTF7HashMapIN7WebCore16FontPlatformDataESt4pairIPNS1_14SimpleFontDataEjENS1_20FontDataCacheKeyHashENS1_22FontDataCacheKeyT
__ZN3WTF9HashTableIN7WebCore16FontPlatformDataESt4pairIS2_S3_IPNS1_14SimpleFontDataEjEENS_18PairFirstExtractorIS7_EENS1_20FontD
__ZN7WebCore16FontPlatformDataaSERKS0_
__ZN7WebCore15StringTruncator14centerTruncateERKNS_6StringEfRKNS_4FontEb
__ZN7WebCoreL14truncateStringERKNS_6StringEfRKNS_4FontEPFjS2_jjPtEb
__ZN7WebCore9FrameView14setNeedsLayoutEv
__ZN7WebCore9FrameView11forceLayoutEb
__ZN7WebCore9FrameView6layoutEb
__ZNK7WebCore16CSSStyleSelector24affectedByViewportChangeEv
__ZNK7WebCore5Frame18needsReapplyStylesEv
__ZN7WebCore5Frame13reapplyStylesEv
__ZN7WebCore9FrameView23applyOverflowToViewportEPNS_12RenderObjectERNS_13ScrollbarModeES4_
__ZN7WebCore10ScrollView23setScrollbarsSuppressedEbb
__ZN7WebCore10ScrollView31platformSetScrollbarsSuppressedEb
__ZNK7WebCore6Widget9frameRectEv
__ZNK7WebCore6Widget12getOuterViewEv
__ZN7WebCore10ScrollView17setScrollbarModesENS_13ScrollbarModeES1_bb
__ZN7WebCore10ScrollView25platformSetScrollbarModesEv
__ZNK7WebCore10ScrollView12layoutHeightEv
__ZNK7WebCore10ScrollView18visibleContentRectEb
__ZNK7WebCore10ScrollView26platformVisibleContentRectEb
__ZNK7WebCore10ScrollView11layoutWidthEv
__ZN7WebCore9FrameView21beginDeferredRepaintsEv
__ZN7WebCore10RenderView6layoutEv
__ZNK7WebCore10RenderView9viewWidthEv
__ZNK7WebCore10ScrollView14useFixedLayoutEv
__ZN7WebCore11RenderBlock6layoutEv
__ZN7WebCore11RenderBlock11layoutBlockEb
__ZN7WebCore11RenderBlock27layoutOnlyPositionedObjectsEv
__ZNK7WebCore11RenderBlock18desiredColumnWidthEv
__ZNK7WebCore9RenderBox11clientWidthEv
__ZNK7WebCore20RenderBoxModelObject10borderLeftEv
__ZNK7WebCore20RenderBoxModelObject11borderRightEv
__ZNK7WebCore9RenderBox22verticalScrollbarWidthEv
__ZNK7WebCore20RenderBoxModelObject11paddingLeftEb
__ZNK7WebCore20RenderBoxModelObject12paddingRightEb
__ZN7WebCore10RenderView9calcWidthEv
__ZN7WebCore11RenderBlock15calcColumnWidthEv
__ZN7WebCore11RenderBlock29setDesiredColumnCountAndWidthEii
__ZN7WebCore11RenderBlock11clearFloatsEv
__ZNK7WebCore11RenderBlock12avoidsFloatsEv
__ZNK7WebCore9RenderBox12avoidsFloatsEv
__ZNK7WebCore12RenderObject4isHREv
__ZN7WebCore11RenderBlock19layoutBlockChildrenEbRi
__ZNK7WebCore20RenderBoxModelObject9borderTopEv
__ZNK7WebCore20RenderBoxModelObject10paddingTopEb
__ZNK7WebCore20RenderBoxModelObject12borderBottomEv
__ZNK7WebCore20RenderBoxModelObject13paddingBottomEb
__ZNK7WebCore9RenderBox25horizontalScrollbarHeightEv
__ZN7WebCore11RenderBlock10MarginInfoC1EPS0_ii
__ZN7WebCore11RenderBlock10MarginInfoC2EPS0_ii
__ZN7WebCore11RenderBlock12layoutLegendEb
__ZN7WebCore11RenderBlock18handleSpecialChildEPNS_9RenderBoxERKNS0_10MarginInfoE
__ZN7WebCore11RenderBlock21handlePositionedChildEPNS_9RenderBoxERKNS0_10MarginInfoE
__ZN7WebCore11RenderBlock19handleFloatingChildEPNS_9RenderBoxERKNS0_10MarginInfoE
__ZN7WebCore11RenderBlock16handleRunInChildEPNS_9RenderBoxE
__ZN7WebCore11RenderBlock16layoutBlockChildEPNS_9RenderBoxERNS0_10MarginInfoERiS5_
__ZNK7WebCore9RenderBox9marginTopEv
__ZN7WebCore9RenderBox19calcVerticalMarginsEv
__ZNK7WebCore12RenderObject15containingBlockEv
__ZNK7WebCore12RenderObject10isFrameSetEv
__ZNK7WebCore12RenderObject7isMediaEv
__ZNK7WebCore12RenderObject14isSVGContainerEv
__ZN7WebCore11RenderBlock24estimateVerticalPositionEPNS_9RenderBoxERKNS0_10MarginInfoE
__ZN7WebCore11RenderBlock13getClearDeltaEPNS_9RenderBoxEi
__ZNK7WebCore11RenderBlock11floatBottomEv
__ZN7WebCore9RenderBox9calcWidthEv
__ZNK7WebCore9FrameView10layoutRootEb
__ZNK7WebCore12RenderObject13isFlexibleBoxEv
__ZNK7WebCore9RenderBox29shouldCalculateSizeAsReplacedEv
__ZNK7WebCore9RenderBox30containingBlockWidthForContentEv
__ZNK7WebCore9RenderBox19shrinkToAvoidFloatsEv
__ZNK7WebCore11RenderBlock14availableWidthEv
__ZN7WebCore9RenderBox14calcWidthUsingENS_9WidthTypeEi
__ZNK7WebCore9RenderBox21sizesToIntrinsicWidthENS_9WidthTypeE
__ZNK7WebCore11RenderBlock26isInlineBlockOrInlineTableEv
__ZNK7WebCore9RenderBox18calcBorderBoxWidthEi
__ZNK7WebCore9RenderBox28stretchesToMinIntrinsicWidthEv
__ZN7WebCore11RenderBlock20layoutInlineChildrenEbRiS1_
__ZN7WebCore17RenderLineBoxList15deleteLineBoxesEPNS_11RenderArenaE
__ZNK7WebCore11RenderBlock14hasLineIfEmptyEv
__ZNK7WebCore11HTMLElement17isContentEditableEv
__ZNK7WebCore5Frame17isContentEditableEv
__ZNK7WebCore6Editor16clientIsEditableEv
__ZNK7WebCore6Editor6clientEv
__ZNK7WebCore8Document12inDesignModeEv
__ZN7WebCore11RenderBlock13layoutColumnsEii
__ZN7WebCore9RenderBox10calcHeightEv
__ZNK7WebCore12RenderObject7isTableEv
__ZN7WebCore9RenderBox15calcHeightUsingERKNS_6LengthE
__ZNK7WebCore9RenderBox19calcBorderBoxHeightEi
__ZNK7WebCore11RenderBlock12maxTopMarginEb
__ZNK7WebCore11RenderBlock15maxBottomMarginEb
__ZNK7WebCore9RenderBox12marginBottomEv
__ZNK7WebCore10RenderView10viewHeightEv
__ZN7WebCore11RenderBlock21addOverflowFromFloatsEv
__ZN7WebCore11RenderBlock29addOverflowFromInlineChildrenEv
__ZN7WebCore9RenderBox17addShadowOverflowEv
__ZNK7WebCore11RenderStyle18getBoxShadowExtentERiS1_S1_S1_
__ZN7WebCore9RenderBox17addVisualOverflowERKNS_7IntRectE
__ZNK7WebCore7IntRect8containsERKS0_
__ZN7WebCore11RenderBlock23layoutPositionedObjectsEb
__ZN7WebCore11RenderBlock18positionListMarkerEv
__ZN7WebCore11RenderBlock27updateScrollInfoAfterLayoutEv
__ZNK7WebCore9RenderBox14hasControlClipEv
__ZN7WebCore11RenderBlock15collapseMarginsEPNS_9RenderBoxERNS0_10MarginInfoE
__ZNK7WebCore11RenderBlock21isSelfCollapsingBlockEv
__ZN7WebCore11RenderBlock19clearFloatsIfNeededEPNS_9RenderBoxERNS0_10MarginInfoEiii
__ZN7WebCore11RenderBlock27determineHorizontalPositionEPNS_9RenderBoxE
__ZNK7WebCore9RenderBox10marginLeftEv
__ZNK7WebCore11RenderBlock11isBlockFlowEv
__ZNK7WebCore12RenderObject27checkForRepaintDuringLayoutEv
__ZN7WebCore11RenderBlock19handleBottomOfBlockEiiRNS0_10MarginInfoE
__ZN7WebCore11RenderBlock24setCollapsedBottomMarginERKNS0_10MarginInfoE
__ZN7WebCore10RenderView10calcHeightEv
__ZNK7WebCore11RenderBlock33expandsToEncloseOverhangingFloatsEv
__ZNK7WebCore12RenderObject10isFieldsetEv
__ZN7WebCore11RenderBlock28addOverflowFromBlockChildrenEv
__ZN7WebCore9RenderBox20addOverflowFromChildEPS0_RKNS_7IntSizeE
__ZNK7WebCore20RenderBoxModelObject20hasSelfPaintingLayerEv
__ZNK7WebCore10RenderView9docHeightEv
__ZNK7WebCore11RenderBlock14lowestPositionEbb
__ZNK7WebCore10RenderView8docWidthEv
__ZNK7WebCore11RenderBlock17rightmostPositionEbb
__ZNK7WebCore9RenderBox11marginRightEv
__ZN7WebCore9RenderBox17addLayoutOverflowERKNS_7IntRectE
__ZN7WebCore9FrameView19endDeferredRepaintsEv
__ZNK7WebCore9FrameView28adjustedDeferredRepaintDelayEv
__ZN7WebCore9FrameView18doDeferredRepaintsEv
__ZNK7WebCore10ScrollView11isOffscreenEv
__ZNK7WebCore10ScrollView19platformIsOffscreenEv
__ZNK7WebCore9FrameView26shouldUpdateWhileOffscreenEv
__ZN7WebCore19SelectionController14setNeedsLayoutEb
__ZN7WebCore19SelectionController16updateAppearanceEv
__ZN7WebCore19SelectionController18recomputeCaretRectEv
__ZNK7WebCore19SelectionController14localCaretRectEv
__ZN7WebCore19SelectionController6layoutEv
__ZNK7WebCore19SelectionController26absoluteBoundsForLocalRectERKNS_7IntRectE
__ZNK7WebCore19SelectionController13caretRendererEv
__ZN7WebCore10RenderView14clearSelectionEv
__ZN7WebCore11RenderLayer25repaintBlockSelectionGapsEv
__ZN7WebCore10RenderView12setSelectionEPNS_12RenderObjectEiS2_iNS0_20SelectionRepaintModeE
__ZN7WebCore9FrameView14adjustViewSizeEv
__ZN7WebCore10ScrollView15setContentsSizeERKNS_7IntSizeE
__ZN7WebCore10ScrollView23platformSetContentsSizeEv
__ZNK7WebCore6Chrome19contentsSizeChangedEPNS_5FrameERKNS_7IntSizeE
__ZN7WebCore11RenderLayer20updateLayerPositionsEjPNS_8IntPointE
__ZNK7WebCore8Document12ownerElementEv
__ZN7WebCore9FrameView23repaintContentRectangleERKNS_7IntRectEb
__ZN7WebCore7IntRect9intersectERKS0_
__ZN3WTF6VectorIN7WebCore7IntRectELm0EE14expandCapacityEmPKS2_
__ZN3WTF6VectorIN7WebCore7IntRectELm0EE14expandCapacityEm
__ZN3WTF6VectorIN7WebCore7IntRectELm0EE15reserveCapacityEm
__ZN7WebCore11RenderLayer19updateLayerPositionEv
__ZN7WebCore11RenderLayer14clearClipRectsEv
__ZNK7WebCore12RenderObject14isRenderInlineEv
__ZN7WebCore11RenderLayer24positionOverflowControlsEii
__ZNK7WebCore9RenderBox23outlineBoundsForRepaintEPNS_20RenderBoxModelObjectEPNS_8IntPointE
__ZNK7WebCore9RenderBox17borderBoundingBoxEv
__ZNK7WebCore12RenderObject29adjustRectForOutlineAndShadowERNS_7IntRectE
__ZNK7WebCore11RenderBlock22outlineStyleForRepaintEv
__ZN7WebCore9FloatRectC1ERKNS_7IntRectE
__ZN7WebCore9FloatRectC2ERKNS_7IntRectE
__ZN7WebCore10FloatPointC1ERKNS_8IntPointE
__ZN7WebCore10FloatPointC2ERKNS_8IntPointE
__ZN7WebCore9FloatSizeC1ERKNS_7IntSizeE
__ZN7WebCore9FloatSizeC2ERKNS_7IntSizeE
__ZNK7WebCore9FloatQuad11boundingBoxEv
__ZN7WebCore16enclosingIntRectERKNS_9FloatRectE
__ZN7WebCore9RenderBox21computeRectForRepaintEPNS_20RenderBoxModelObjectERNS_7IntRectEb
__ZN3WTF6VectorIN7WebCore7IntRectELm0EE6shrinkEm
__ZN7WebCore9FrameView22updateDashboardRegionsEv
__ZNK7WebCore9FrameView15useSlowRepaintsEv
__ZN7WebCore10ScrollView18setCanBlitOnScrollEb
__ZN7WebCore10ScrollView26platformSetCanBlitOnScrollEb
__ZN7WebCore9FrameView22performPostLayoutTasksEv
__ZN7WebCore11FrameLoader14didFirstLayoutEv
__ZN7WebCore10RenderView21updateWidgetPositionsEv
__ZN3WTF6VectorIPN7WebCore12RenderWidgetELm0EE15reserveCapacityEm
__ZN7WebCore9FrameView13updateWidgetsEv
__ZN7WebCore9FrameView14scrollToAnchorEv
__ZN7WebCore4Page15didMoveOnscreenEv
__ZN7WebCore9FrameView15didMoveOnscreenEv
__ZN7WebCore21RenderLayerCompositor15didMoveOnscreenEv
__ZN7WebCore15FocusController9setActiveEb
__ZNK7WebCore4Font10floatWidthERKNS_7TextRunEPN3WTF7HashSetIPKNS_14SimpleFontDataENS4_7PtrHashIS8_EENS4_10HashTraitsIS8_EEEEPNS
__ZNK7WebCore4Font11primaryFontEv
__ZNK7WebCore16FontFallbackList10fontDataAtEPKNS_4FontEj
__ZNK7WebCore14SimpleFontData20fontDataForCharacterEi
__ZN7WebCore12EventHandler15sendResizeEventEv
__ZN7WebCore8Document19dispatchWindowEventEN3WTF10PassRefPtrINS_5EventEEENS2_INS_11EventTargetEEE
__ZN7WebCore9DOMWindow13dispatchEventEN3WTF10PassRefPtrINS_5EventEEENS2_INS_11EventTargetEEE
__ZN7WebCore9DOMWindow14refEventTargetEv
__ZN7WebCore9DOMWindow16derefEventTargetEv
__ZN7WebCore11FrameLoader4loadERKNS_15ResourceRequestEb
__ZN7WebCore11FrameLoader4loadERKNS_15ResourceRequestERKNS_14SubstituteDataEb
__ZN7WebCore11FrameLoader4loadEPNS_14DocumentLoaderE
__ZN7WebCore14DocumentLoader7requestEv
__ZN7WebCore11FrameLoader35addExtraFieldsToMainResourceRequestERNS_15ResourceRequestE
__ZN7WebCore11FrameLoader23addExtraFieldsToRequestERNS_15ResourceRequestENS_13FrameLoadTypeEbb
__ZNK7WebCore19ResourceRequestBase20firstPartyForCookiesEv
__ZN7WebCore15ResourceRequest23doUpdateResourceRequestEv
__ZNK7WebCore11FrameLoader18isLoadingMainFrameEv
__ZN7WebCore19ResourceRequestBase23setFirstPartyForCookiesERKNS_4KURLE
__ZNK7WebCore14DocumentLoader15originalRequestEv
__ZNK7WebCore11FrameLoader29shouldTreatURLAsSameAsCurrentERKNS_4KURLE
__ZN7WebCore11FrameLoader34shouldReloadToHandleUnreachableURLEPNS_14DocumentLoaderE
__ZNK7WebCore14DocumentLoader14unreachableURLEv
__ZN7WebCore11FrameLoader22loadWithDocumentLoaderEPNS_14DocumentLoaderENS_13FrameLoadTypeEN3WTF10PassRefPtrINS_9FormStateEEE
__ZN7WebCore11FrameLoader20shouldScrollToAnchorEbNS_13FrameLoadTypeERKNS_4KURLE
__ZN7WebCore11FrameLoader12shouldReloadERKNS_4KURLES3_
__ZNK7WebCore4KURL21hasFragmentIdentifierEv
__ZN7WebCore13PolicyChecker9stopCheckEv
__ZN7WebCore14PolicyCallback5clearEv
__ZN7WebCore14PolicyCallback12clearRequestEv
__ZN3WTF6VectorIN7WebCore6StringELm0EEaSERKS3_
__ZN7WebCore14PolicyCallback6cancelEv
__ZN7WebCore14PolicyCallbackD1Ev
__ZN7WebCore14PolicyCallbackD2Ev
__ZN7WebCore16NavigationActionC1ERKNS_4KURLENS_13FrameLoadTypeEb
__ZN7WebCore16NavigationActionC2ERKNS_4KURLENS_13FrameLoadTypeEb
__ZN7WebCoreL14navigationTypeENS_13FrameLoadTypeEbb
__ZN7WebCore13PolicyChecker21checkNavigationPolicyERKNS_15ResourceRequestEPNS_14DocumentLoaderEN3WTF10PassRefPtrINS_9FormStateE
__ZN7WebCore25equalIgnoringHeaderFieldsERKNS_19ResourceRequestBaseES2_
__ZNK7WebCore19ResourceRequestBase6isNullEv
__ZN7WebCore14PolicyCallback3setERKNS_15ResourceRequestEN3WTF10PassRefPtrINS_9FormStateEEEPFvPvS3_S7_bES8_
__ZNK7WebCore15ResourceRequest12nsURLRequestEv
__ZNK7WebCore19ResourceRequestBase21updatePlatformRequestEv
__ZN7WebCore15ResourceRequest23doUpdatePlatformRequestEv
__ZNK7WebCore4KURL11createCFURLEv
__ZNK7WebCore4KURL12copyToBufferERN3WTF6VectorIcLm512EEE
__ZNK7WebCore19ResourceRequestBase11cachePolicyEv
__ZNK7WebCore19ResourceRequestBase15timeoutIntervalEv
__ZNK7WebCore19ResourceRequestBase10httpMethodEv
__ZNK7WebCore19ResourceRequestBase12allowCookiesEv
__ZNK7WebCore19ResourceRequestBase16httpHeaderFieldsEv
__ZNK7WebCore19ResourceRequestBase8httpBodyEv
__ZN7WebCore21findEventWithKeyStateEPNS_5EventE
__ZN7WebCore13PolicyChecker29continueAfterNavigationPolicyENS_12PolicyActionE
__ZN7WebCore14PolicyCallback4callEb
__ZN7WebCore11FrameLoader37callContinueLoadAfterNavigationPolicyEPvRKNS_15ResourceRequestEN3WTF10PassRefPtrINS_9FormStateEEEb
__ZN7WebCore11FrameLoader33continueLoadAfterNavigationPolicyERKNS_15ResourceRequestEN3WTF10PassRefPtrINS_9FormStateEEEb
__ZN7WebCore5Frame11shouldCloseEv
__ZN7WebCore6Chrome30canRunBeforeUnloadConfirmPanelEv
__ZN7WebCore11FrameLoader14stopAllLoadersENS_14DatabasePolicyE
__ZN7WebCore11FrameLoader20stopLoadingSubframesEv
__ZN7WebCore14DocumentLoader11stopLoadingENS_14DatabasePolicyE
__ZN7WebCoreL9cancelAllERKN3WTF7HashSetINS0_6RefPtrINS_14ResourceLoaderEEENS0_7PtrHashIS4_EENS0_10HashTraitsIS4_EEEE
__ZN7WebCore14DocumentLoader21clearArchiveResourcesEv
__ZN7WebCore19InspectorController14resumeDebuggerEv
__ZN7WebCore11FrameLoader31continueLoadAfterWillSubmitFormEv
__ZN7WebCore14DocumentLoader19prepareForLoadStartEv
__ZN7WebCore14DocumentLoader22setPrimaryLoadCompleteEb
__ZN7WebCore14DocumentLoader11clearErrorsEv
__ZN7WebCore11FrameLoader19prepareForLoadStartEv
__ZN7WebCore15ProgressTracker15progressStartedEPNS_5FrameE
__ZN7WebCore15ProgressTracker5resetEv
__ZN3WTF20deleteAllPairSecondsIPN7WebCore12ProgressItemEKNS_7HashMapImS3_NS_7IntHashImEENS_10HashTraitsImEENS7_IS3_EEEEEEvRT0_
__ZN3WTF9HashTableImSt4pairImPN7WebCore12ProgressItemEENS_18PairFirstExtractorIS5_EENS_7IntHashImEENS_14PairHashTraitsINS_10Has
__ZN7WebCore15BackForwardList11currentItemEv
__ZNK7WebCore11FrameLoader20activeDocumentLoaderEv
__ZNK7WebCore14DocumentLoader21isLoadingMainResourceEv
__ZN7WebCore15ProgressTracker22createUniqueIdentifierEv
__ZN7WebCore20ResourceLoadNotifier32assignIdentifierToInitialRequestEmPNS_14DocumentLoaderERKNS_15ResourceRequestE
__ZN7WebCore19InspectorController27identifierForInitialRequestEmPNS_14DocumentLoaderERKNS_15ResourceRequestE
__ZN7WebCore14DocumentLoader24startLoadingMainResourceEm
__ZN7WebCore18MainResourceLoader6createEPNS_5FrameE
__ZN7WebCore18MainResourceLoaderC1EPNS_5FrameE
__ZN7WebCore18MainResourceLoaderC2EPNS_5FrameE
__ZN7WebCore14ResourceLoaderC2EPNS_5FrameEbb
__ZN7WebCore18MainResourceLoader4loadERKNS_15ResourceRequestERKNS_14SubstituteDataE
__ZN7WebCore20ApplicationCacheHost21maybeLoadMainResourceERNS_15ResourceRequestERNS_14SubstituteDataE
__ZN7WebCore20ApplicationCacheHost25isApplicationCacheEnabledEv
__ZN7WebCore21ApplicationCacheGroup19cacheForMainRequestERKNS_15ResourceRequestEPNS_14DocumentLoaderE
__ZN7WebCore16ApplicationCache23requestIsHTTPOrHTTPSGetERKNS_15ResourceRequestE
__ZN7WebCore18MainResourceLoader7loadNowERNS_15ResourceRequestE
__ZN7WebCoreL25shouldLoadAsEmptyDocumentERKNS_4KURLE
__ZN7WebCore18MainResourceLoader15willSendRequestERNS_15ResourceRequestERKNS_16ResourceResponseE
__ZNK7WebCore14ResourceLoader11frameLoaderEv
__ZN7WebCore18MainResourceLoader25isPostOrRedirectAfterPostERKNS_15ResourceRequestERKNS_16ResourceResponseE
__ZNK7WebCore20ResourceResponseBase14httpStatusCodeEv
__ZN7WebCore14ResourceLoader15willSendRequestERNS_15ResourceRequestERKNS_16ResourceResponseE
__ZN7WebCore20ResourceLoadNotifier15willSendRequestEPNS_14ResourceLoaderERNS_15ResourceRequestERKNS_16ResourceResponseE
__ZN7WebCore11FrameLoader14applyUserAgentERNS_15ResourceRequestE
__ZN7WebCore19ResourceRequestBase18setHTTPHeaderFieldEPKcRKNS_6StringE
__ZN7WebCore19ResourceRequestBase18setHTTPHeaderFieldERKNS_12AtomicStringERKNS_6StringE
__ZN3WTF7HashMapIN7WebCore12AtomicStringENS1_6StringENS1_15CaseFoldingHashENS_10HashTraitsIS2_EENS5_IS3_EEE3setERKS2_RKS3_
__ZN7WebCore20ResourceLoadNotifier23dispatchWillSendRequestEPNS_14DocumentLoaderEmRNS_15ResourceRequestERKNS_16ResourceResponse
__ZN7WebCore19InspectorController15willSendRequestEmRKNS_15ResourceRequestERKNS_16ResourceResponseE
__ZN7WebCore19InspectorController18getTrackedResourceEm
__ZN7WebCore14DocumentLoader10setRequestERKNS_15ResourceRequestE
__ZNK7WebCore9FrameTree3topEb
__ZN7WebCore11FrameLoader32representationExistsForURLSchemeERKNS_6StringE
__ZN7WebCore14ResourceHandle6createERKNS_15ResourceRequestEPNS_20ResourceHandleClientEPNS_5FrameEbb
__ZN7WebCore14ResourceHandle21shouldContentSniffURLERKNS_4KURLE
__ZN7WebCore14ResourceHandleC1ERKNS_15ResourceRequestEPNS_20ResourceHandleClientEbb
__ZN7WebCore14ResourceHandleC2ERKNS_15ResourceRequestEPNS_20ResourceHandleClientEbb
__ZN7WebCore10CredentialC1Ev
__ZN7WebCore10CredentialC2Ev
__ZN7WebCore27AuthenticationChallengeBaseC2Ev
__ZN7WebCore15ProtectionSpaceC1Ev
__ZN7WebCore15ProtectionSpaceC2Ev
__ZNK7WebCore4KURL4userEv
__ZNK7WebCore4KURL4passEv
__ZN7WebCore19ResourceRequestBase17removeCredentialsEv
__ZN7WebCore4KURL5parseERKNS_6StringE
__ZN7WebCore11portAllowedERKNS_4KURLE
__ZN7WebCore14ResourceHandle5startEPNS_5FrameE
__ZN7WebCore14ResourceHandle8delegateEv
-[WebCoreResourceHandleAsDelegate initWithHandle:]
__ZNK7WebCore14ResourceHandle6clientEv
__ZN7WebCore14ResourceLoader26shouldUseCredentialStorageEPNS_14ResourceHandleE
__ZN7WebCore14ResourceLoader26shouldUseCredentialStorageEv
__ZN7WebCore11FrameLoader26shouldUseCredentialStorageEPNS_14ResourceLoaderE
__ZNK7WebCore10Credential7isEmptyEv
__ZN7WebCore14ResourceHandle29didSendBodyDataDelegateExistsEv
__ZN7WebCoreL21createNSURLConnectionEP12NSURLRequestP11objc_objectb
_WebCoreObjCScheduleDeallocateOnMainThread
__ZN7WebCore15BackForwardList8backItemEv
__ZN7WebCore15BackForwardList11forwardItemEv
__ZN7WebCore15FocusController18focusedOrMainFrameEv
__ZN7WebCore19SelectionController21pageActivationChangedEv
__ZN7WebCore19SelectionController27focusedOrActiveStateChangedEv
__ZNK7WebCore5Frame15selectionBoundsEb
__ZNK7WebCore10RenderView15selectionBoundsEb
__ZN7WebCoreL21rendererAfterPositionEPNS_12RenderObjectEj
__ZN3WTF9HashTableIPN7WebCore12RenderObjectESt4pairIS3_PNS1_19RenderSelectionInfoEENS_18PairFirstExtractorIS7_EENS_7PtrHashIS3_
__ZN7WebCore10RenderView41repaintRectangleInViewAndCompositedLayersERKNS_7IntRectEb
__ZN7WebCore19SelectionController15setCaretVisibleEb
__ZN7WebCore12EventHandler27capsLockStateMayHaveChangedEv
__ZNK7WebCore8Document32useSecureKeyboardEntryWhenActiveEv
__ZN7WebCore9FrameView18updateControlTintsEv
__ZN7WebCore15GraphicsContextC1EP9CGContext
__ZN7WebCore15GraphicsContextC2EP9CGContext
__ZN7WebCore15GraphicsContext28createGraphicsContextPrivateEv
__ZN7WebCore15GraphicsContext19setPaintingDisabledEb
__ZNK7WebCore15GraphicsContext14fillColorSpaceEv
__ZNK7WebCore15GraphicsContext9fillColorEv
__ZN7WebCore15GraphicsContext20setPlatformFillColorERKNS_5ColorENS_10ColorSpaceE
__ZNK7WebCore15GraphicsContext16paintingDisabledEv
__ZNK7WebCore15GraphicsContext15platformContextEv
__ZN7WebCoreL14setCGFillColorEP9CGContextRKNS_5ColorENS_10ColorSpaceE
__ZN7WebCoreL27createCGColorWithColorSpaceERKNS_5ColorENS_10ColorSpaceE
__ZNK7WebCore5Color7getRGBAERdS1_S1_S1_
__ZN7WebCore22deviceRGBColorSpaceRefEv
__ZNK7WebCore15GraphicsContext16strokeColorSpaceEv
__ZNK7WebCore15GraphicsContext11strokeColorEv
__ZN7WebCore15GraphicsContext22setPlatformStrokeColorERKNS_5ColorENS_10ColorSpaceE
__ZN7WebCore9FrameView13paintContentsEPNS_15GraphicsContextERKNS_7IntRectE
__ZNK7WebCore21RenderLayerCompositor17rootPlatformLayerEv
__ZN7WebCore8Document39invalidateRenderedRectsForMarkersInRectERKNS_7IntRectE
__ZN7WebCore11RenderLayer5paintEPNS_15GraphicsContextERKNS_7IntRectEjPNS_12RenderObjectE
__ZN7WebCore11RenderLayer10paintLayerEPS0_PNS_15GraphicsContextERKNS_7IntRectEjPNS_12RenderObjectEPN3WTF7HashMapIPNS_24OverlapT
__ZNK7WebCore11RenderLayer13isTransparentEv
__ZNK7WebCore4Node19virtualNamespaceURIEv
__ZNK7WebCore11RenderLayer14calculateRectsEPKS0_RKNS_7IntRectERS3_S6_S6_S6_b
__ZNK7WebCore11RenderLayer20convertToLayerCoordsEPKS0_RiS3_
__ZN7WebCore11RenderLayer38updateCompositingAndLayerListsIfNeededEv
__ZN7WebCore11RenderLayer24updateLayerListsIfNeededEv
__ZN7WebCore11RenderLayer17updateZOrderListsEv
__ZN7WebCore11RenderLayer13collectLayersERPN3WTF6VectorIPS0_Lm0EEES6_
__ZN3WTF6VectorIPN7WebCore11RenderLayerELm0EE14expandCapacityEmPKS3_
__ZN3WTF6VectorIPN7WebCore11RenderLayerELm0EE14expandCapacityEm
__ZN3WTF6VectorIPN7WebCore11RenderLayerELm0EE15reserveCapacityEm
__ZNSt17_Temporary_bufferIPPN7WebCore11RenderLayerES2_EC1ES3_S3_
__ZNSt17_Temporary_bufferIPPN7WebCore11RenderLayerES2_EC2ES3_S3_
__ZSt22__get_temporary_bufferIPN7WebCore11RenderLayerEESt4pairIPT_lElS5_
__ZSt22__stable_sort_adaptiveIPPN7WebCore11RenderLayerES3_lPFbS2_S2_EEvT_S6_T0_T1_T2_
__ZSt24__merge_sort_with_bufferIPPN7WebCore11RenderLayerES3_PFbS2_S2_EEvT_S6_T0_T1_
__ZSt22__chunk_insertion_sortIPPN7WebCore11RenderLayerElPFbS2_S2_EEvT_S6_T0_T1_
__ZSt16__insertion_sortIPPN7WebCore11RenderLayerEPFbS2_S2_EEvT_S6_T0_
__ZSt16__merge_adaptiveIPPN7WebCore11RenderLayerElS3_PFbS2_S2_EEvT_S6_S6_T0_S7_T1_S7_T2_
__ZSt16__merge_backwardIPPN7WebCore11RenderLayerES3_S3_PFbS2_S2_EET1_T_S7_T0_S8_S6_T2_
__ZSt23return_temporary_bufferIPN7WebCore11RenderLayerEEvPT_
__ZN7WebCore11RenderLayer20updateNormalFlowListEv
__ZNK7WebCore11RenderLayer20intersectsDamageRectERKNS_7IntRectES3_PKS0_
__ZN7WebCoreL7setClipEPNS_15GraphicsContextERKNS_7IntRectES4_
__ZN7WebCore10RenderView5paintERNS_12RenderObject9PaintInfoEii
__ZN7WebCore11RenderBlock11paintObjectERNS_12RenderObject9PaintInfoEii
__ZN7WebCore10RenderView19paintBoxDecorationsERNS_12RenderObject9PaintInfoEii
__ZN7WebCoreL11restoreClipEPNS_15GraphicsContextERKNS_7IntRectES4_
__ZN7WebCore11RenderBlock13paintContentsERNS_12RenderObject9PaintInfoEii
__ZN7WebCore11RenderBlock13paintChildrenERNS_12RenderObject9PaintInfoEii
__ZN7WebCore11RenderBlock14paintSelectionERNS_12RenderObject9PaintInfoEii
__ZNK7WebCore11RenderBlock24shouldPaintSelectionGapsEv
__ZN7WebCore11RenderBlock11paintFloatsERNS_12RenderObject9PaintInfoEiib
__ZN7WebCore11RenderBlock10paintCaretERNS_12RenderObject9PaintInfoEiiNS_9CaretTypeE
__ZNK7WebCore5Frame19dragCaretControllerEv
__ZN7WebCore11RenderBlock25paintContinuationOutlinesERNS_12RenderObject9PaintInfoEii
__ZN7WebCoreL24continuationOutlineTableEv
__ZNK7WebCore12RenderObject20hasOutlineAnnotationEv
__ZNK7WebCore7Element19virtualNamespaceURIEv
__ZNK7WebCore11RenderLayer18backgroundClipRectEPKS0_b
__ZNK7WebCore11RenderLayer15parentClipRectsEPKS0_RNS_9ClipRectsEb
__ZN7WebCore11RenderLayer15updateClipRectsEPKS0_
__ZNK7WebCore11RenderLayer18calculateClipRectsEPKS0_RNS_9ClipRectsEb
__ZN7WebCore9ClipRectsnwEmPNS_11RenderArenaE
__ZN7WebCore11RenderBlock5paintERNS_12RenderObject9PaintInfoEii
__ZN7WebCore9RenderBox16pushContentsClipERNS_12RenderObject9PaintInfoEii
__ZN7WebCore9RenderBox19paintBoxDecorationsERNS_12RenderObject9PaintInfoEii
__ZN7WebCore9RenderBox23paintRootBoxDecorationsERNS_12RenderObject9PaintInfoEii
__ZN7WebCore9RenderBox15paintFillLayersERKNS_12RenderObject9PaintInfoERKNS_5ColorEPKNS_9FillLayerEiiiiNS_17CompositeOperatorEPS
__ZN7WebCore9RenderBox14paintFillLayerERKNS_12RenderObject9PaintInfoERKNS_5ColorEPKNS_9FillLayerEiiiiNS_17CompositeOperatorEPS1
__ZN7WebCore20RenderBoxModelObject22paintFillLayerExtendedERKNS_12RenderObject9PaintInfoERKNS_5ColorEPKNS_9FillLayerEiiiiPNS_13
__ZNK7WebCore9FrameView13isTransparentEv
__ZN7WebCore9FrameView18setContentIsOpaqueEb
__ZNK7WebCore9FrameView19baseBackgroundColorEv
__ZN7WebCore15GraphicsContext4saveEv
__ZN3WTF6VectorIN7WebCore20GraphicsContextStateELm0EE14expandCapacityEmPKS2_
__ZN3WTF6VectorIN7WebCore20GraphicsContextStateELm0EE14expandCapacityEm
__ZN3WTF6VectorIN7WebCore20GraphicsContextStateELm0EE15reserveCapacityEm
__ZN7WebCore15GraphicsContext17savePlatformStateEv
__ZN7WebCore15GraphicsContext21setCompositeOperationENS_17CompositeOperatorE
__ZN7WebCore15GraphicsContext8fillRectERKNS_9FloatRectERKNS_5ColorENS_10ColorSpaceE
__ZNK7WebCore9FloatRectcv6CGRectEv
__ZN7WebCore15GraphicsContext7restoreEv
__ZN3WTF6VectorIN7WebCore20GraphicsContextStateELm0EE6shrinkEm
__ZN7WebCore15GraphicsContext20restorePlatformStateEv
__ZNK7WebCore17RenderLineBoxList5paintEPNS_20RenderBoxModelObjectERNS_12RenderObject9PaintInfoEii
__ZN7WebCore15GraphicsContextD1Ev
__ZN7WebCore15GraphicsContextD2Ev
__ZN7WebCore15GraphicsContext29destroyGraphicsContextPrivateEPNS_22GraphicsContextPrivateE
-[DOMNode dealloc]
-[DOMObject dealloc]
__Z16removeDOMWrapperP17DOMObjectInternal
-[WebScriptObject dealloc]
-[WebCoreResourceHandleAsDelegate connectionShouldUseCredentialStorage:]
__ZN7WebCore14ResourceHandle26shouldUseCredentialStorageEv
-[WebCoreResourceHandleAsDelegate connection:didReceiveResponse:]
-[NSURLResponse(WebCoreURLResponse) adjustMIMETypeIfNecessary]
__ZNK7WebCore14ResourceHandle7requestEv
__ZN7WebCore14ResourceLoader18didReceiveResponseEPNS_14ResourceHandleERKNS_16ResourceResponseE
__ZN7WebCore20ApplicationCacheHost28maybeLoadFallbackForResponseEPNS_14ResourceLoaderERKNS_16ResourceResponseE
__ZN7WebCore18MainResourceLoader18didReceiveResponseERKNS_16ResourceResponseE
__ZN7WebCore20ApplicationCacheHost32maybeLoadFallbackForMainResponseERKNS_15ResourceRequestERKNS_16ResourceResponseE
__ZNK7WebCore20ResourceResponseBase16httpHeaderFieldsEv
__ZN7WebCore13PolicyChecker18checkContentPolicyERKNS_6StringEPFvPvNS_12PolicyActionEES4_
__ZN7WebCore14PolicyCallback3setEPFvPvNS_12PolicyActionEES1_
__ZN7WebCore13PolicyChecker26continueAfterContentPolicyENS_12PolicyActionE
__ZN7WebCore14PolicyCallback4callENS_12PolicyActionE
__ZN7WebCore18MainResourceLoader30callContinueAfterContentPolicyEPvNS_12PolicyActionE
__ZN7WebCore18MainResourceLoader26continueAfterContentPolicyENS_12PolicyActionE
__ZNK7WebCore11FrameLoader10isStoppingEv
__ZN7WebCore18MainResourceLoader26continueAfterContentPolicyENS_12PolicyActionERKNS_16ResourceResponseE
__ZNK7WebCore11FrameLoader15canShowMIMETypeERKNS_6StringE
__ZNK7WebCore20ResourceResponseBase6isHTTPEv
__ZN7WebCore14ResourceLoader18didReceiveResponseERKNS_16ResourceResponseE
__ZN7WebCore20ResourceLoadNotifier18didReceiveResponseEPNS_14ResourceLoaderERKNS_16ResourceResponseE
__ZN7WebCore14DocumentLoader11addResponseERKNS_16ResourceResponseE
__ZN3WTF6VectorIN7WebCore16ResourceResponseELm0EE14expandCapacityEmPKS2_
__ZN3WTF6VectorIN7WebCore16ResourceResponseELm0EE14expandCapacityEm
__ZN3WTF6VectorIN7WebCore16ResourceResponseELm0EE15reserveCapacityEm
__ZN7WebCore15ProgressTracker17incrementProgressEmRKNS_16ResourceResponseE
__ZNK7WebCore20ResourceResponseBase21expectedContentLengthEv
__ZNK3WTF7HashMapImPN7WebCore12ProgressItemENS_7IntHashImEENS_10HashTraitsImEENS6_IS3_EEE3getERKm
__ZN3WTF7HashMapImPN7WebCore12ProgressItemENS_7IntHashImEENS_10HashTraitsImEENS6_IS3_EEE3setERKmRKS3_
__ZN7WebCore20ResourceLoadNotifier26dispatchDidReceiveResponseEPNS_14DocumentLoaderEmRKNS_16ResourceResponseE
__ZN7WebCore19InspectorController18didReceiveResponseEmRKNS_16ResourceResponseE
__ZN7WebCore20ResourceResponseBaseD2Ev
-[WebCoreResourceHandleAsDelegate connection:didReceiveData:lengthReceived:]
__ZN7WebCore14ResourceLoader14didReceiveDataEPNS_14ResourceHandleEPKcii
__ZN7WebCore18MainResourceLoader14didReceiveDataEPKcixb
__ZN7WebCore20ApplicationCacheHost24mainResourceDataReceivedEPKcixb
__ZN7WebCore14ResourceLoader14didReceiveDataEPKcixb
__ZN7WebCore18MainResourceLoader7addDataEPKcib
__ZN7WebCore14ResourceLoader7addDataEPKcib
__ZN7WebCore14ResourceHandle20supportsBufferedDataEv
__ZN7WebCore12SharedBufferC1EPKci
__ZN7WebCore12SharedBufferC2EPKci
__ZN3WTF6VectorIPcLm0EE14expandCapacityEmPKS1_
__ZN3WTF6VectorIPcLm0EE14expandCapacityEm
__ZN3WTF6VectorIPcLm0EE15reserveCapacityEm
__ZN7WebCore11FrameLoader12receivedDataEPKci
__ZN7WebCore14DocumentLoader12receivedDataEPKci
__ZNK7WebCore14DocumentLoader19doesProgressiveLoadERKNS_6StringE
__ZNK7WebCore11FrameLoader11isReplacingEv
__ZN7WebCore14DocumentLoader10commitLoadEPKci
__ZNK3WTF9HashTableIN7WebCore12AtomicStringESt4pairIS2_PNS_6VectorINS1_23RegisteredEventListenerELm1EEEENS_18PairFirstExtractor
__ZN7WebCore22SharedWorkerRepository16hasSharedWorkersEPNS_8DocumentE
__ZN7WebCore29DefaultSharedWorkerRepository8instanceEv
__ZN7WebCore29DefaultSharedWorkerRepositoryC1Ev
__ZN7WebCore29DefaultSharedWorkerRepositoryC2Ev
__ZN7WebCore29DefaultSharedWorkerRepository16hasSharedWorkersEPNS_8DocumentE
__ZN7WebCore11FrameLoader8closeURLEv
__ZN7WebCore17HistoryController17saveDocumentStateEv
__ZN7WebCore11FrameLoader11stopLoadingENS_17UnloadEventPolicyENS_14DatabasePolicyE
__ZN7WebCore19PageTransitionEventC1ERKNS_12AtomicStringEb
__ZN7WebCore19PageTransitionEventC2ERKNS_12AtomicStringEb
__ZN7WebCore19PageTransitionEventD0Ev
__ZN7WebCore5EventD2Ev
__ZNK7WebCore9DOMWindow8documentEv
__ZNK7WebCore14SecurityOrigin20isSecureTransitionToERKNS_4KURLE
__ZN7WebCore6Loader14cancelRequestsEPNS_9DocLoaderE
__ZN7WebCore9DocLoader20clearPendingPreloadsEv
__ZN3WTF6VectorIN7WebCore9DocLoader14PendingPreloadELm0EE14shrinkCapacityEm
__ZN7WebCore6Loader28scheduleServePendingRequestsEv
__ZN7WebCore9TimerBase5startEdd
__ZN7WebCoreL9timerHeapEv
__ZN3WTF6VectorIPN7WebCore9TimerBaseELm0EE14expandCapacityEmPKS3_
__ZN3WTF6VectorIPN7WebCore9TimerBaseELm0EE14expandCapacityEm
__ZN3WTF6VectorIPN7WebCore9TimerBaseELm0EE15reserveCapacityEm
__ZN7WebCore9TimerBase15heapDecreaseKeyEv
__ZSt11__push_heapIN7WebCore17TimerHeapIteratorEiNS0_16TimerHeapElementEEvT_T0_S4_T1_
__ZN7WebCore21MainThreadSharedTimer11setFireTimeEd
__ZN7WebCore22setSharedTimerFireTimeEd
-[WebCorePowerNotifier init]
__ZN7WebCore22ScriptExecutionContext13stopDatabasesEPNS_24DatabaseTaskSynchronizerE
__ZN7WebCore6Editor23clearUndoRedoOperationsEv
__ZN7WebCore14DocumentLoader23stopLoadingSubresourcesEv
__ZN7WebCore14DocumentLoader18stopLoadingPlugInsEv
__ZN7WebCore14DocumentLoader15detachFromFrameEv
__ZN7WebCore20ApplicationCacheHost22setDOMApplicationCacheEPNS_19DOMApplicationCacheE
__ZN7WebCore17HistoryController36updateBackForwardListClippedAtTargetEb
__ZN7WebCore11FrameLoader30checkDidPerformFirstNavigationEv
__ZN7WebCore15BackForwardList7entriesEv
__ZN7WebCore17HistoryController14createItemTreeEPNS_5FrameEb
__ZN7WebCore17HistoryController10createItemEb
__ZNK7WebCore14DocumentLoader11originalURLEv
__ZNK7WebCore14DocumentLoader10requestURLEv
__ZN7WebCore11HistoryItemC1ERKNS_4KURLERKNS_6StringES6_S6_
__ZN7WebCore11HistoryItemC2ERKNS_4KURLERKNS_6StringES6_S6_
__ZN7WebCoreL30generateDocumentSequenceNumberEv
__ZN7WebCore11HistoryItem20setOriginalURLStringERKNS_6StringE
__ZN7WebCore11HistoryItem22setFormInfoFromRequestERKNS_15ResourceRequestE
__ZNK7WebCore19ResourceRequestBase15httpHeaderFieldEPKc
__ZN7WebCore11HistoryItem15setIsTargetItemEb
__ZN7WebCore15BackForwardList7addItemEN3WTF10PassRefPtrINS_11HistoryItemEEE
__ZN3WTF7HashSetINS_6RefPtrIN7WebCore11HistoryItemEEENS_7PtrHashIS4_EENS_10HashTraitsIS4_EEE3addERKS4_
__ZN3WTF9HashTableINS_6RefPtrIN7WebCore11HistoryItemEEES4_NS_17IdentityExtractorIS4_EENS_7PtrHashIS4_EENS_10HashTraitsIS4_EESA_
__ZN3WTF6VectorINS_6RefPtrIN7WebCore11HistoryItemEEELm0EE14expandCapacityEm
__ZN3WTF6VectorINS_6RefPtrIN7WebCore11HistoryItemEEELm0EE15reserveCapacityEm
__ZNK7WebCore14DocumentLoader19originalRequestCopyEv
__ZN7WebCore4Page20setGlobalHistoryItemEPNS_11HistoryItemE
__ZN7WebCore9PageGroup14addVisitedLinkERKNS_4KURLE
__ZN7WebCore15visitedLinkHashEPKtj
__ZN3WTF7HashSetIyN7WebCore12LinkHashHashENS_10HashTraitsIyEEE3addERKy
__ZN3WTF9HashTableIyyNS_17IdentityExtractorIyEEN7WebCore12LinkHashHashENS_10HashTraitsIyEES6_E6expandEv
__ZN3WTF9HashTableIyyNS_17IdentityExtractorIyEEN7WebCore12LinkHashHashENS_10HashTraitsIyEES6_E6rehashEi
__ZN3WTF9HashTableIyyNS_17IdentityExtractorIyEEN7WebCore12LinkHashHashENS_10HashTraitsIyEES6_E13allocateTableEi
__ZN7WebCore4Page19visitedStateChangedEPNS_9PageGroupEy
__ZN7WebCore16CSSStyleSelector15SelectorChecker19visitedStateChangedEy
__ZNK3WTF9HashTableIyyNS_17IdentityExtractorIyEEN7WebCore12LinkHashHashENS_10HashTraitsIyEES6_E8containsIyNS_22IdentityHashTran
__ZN7WebCore14DocumentLoaderD2Ev
__ZN7WebCore20ApplicationCacheHostD1Ev
__ZN7WebCore20ApplicationCacheHostD2Ev
__ZN7WebCore5Frame18setJSStatusBarTextERKNS_6StringE
__ZN7WebCore6Chrome16setStatusbarTextEPNS_5FrameERKNS_6StringE
__ZNK7WebCore8Document31displayStringModifiedByEncodingERKNS_6StringE
__ZN7WebCore5Frame25setJSDefaultStatusBarTextERKNS_6StringE
__ZN7WebCore11FrameLoader13committedLoadEPNS_14DocumentLoaderEPKci
__ZN7WebCore14DocumentWriter11setEncodingERKNS_6StringEb
__ZN7WebCore11FrameLoader15willSetEncodingEv
__ZN7WebCore11FrameLoader17receivedFirstDataEv
__ZNK7WebCore4KURL7hasPathEv
__ZNK7WebCore4KURL4pathEv
__ZN3WTF6VectorItLm0EE14expandCapacityEmPKt
__ZN3WTF6VectorItLm0EE14expandCapacityEm
__ZN3WTF6VectorItLm0EE15reserveCapacityEm
__ZN3WTF7HashMapIN7WebCore6StringEjNS1_15CaseFoldingHashENS_10HashTraitsIS2_EENS4_IjEEE3setERKS2_RKj
__ZN3WTF9HashTableIN7WebCore6StringESt4pairIS2_jENS_18PairFirstExtractorIS4_EENS1_15CaseFoldingHashENS_14PairHashTraitsINS_10Ha
__ZNK3WTF7HashMapIN7WebCore6StringEjNS1_15CaseFoldingHashENS_10HashTraitsIS2_EENS4_IjEEE3getERKS2_
__ZN7WebCore14SecurityOrigin20grantUniversalAccessEv
__ZN7WebCore22ScriptExecutionContext20stopActiveDOMObjectsEv
__ZN7WebCore13ContainerNode10willRemoveEv
__ZN7WebCore4Node10willRemoveEv
__ZN7WebCore8Document6detachEv
__ZN7WebCore8Document18clearAXObjectCacheEv
__ZNK7WebCore8Document11topDocumentEv
__ZN7WebCore8Document26documentWillBecomeInactiveEv
__ZN7WebCore10RenderView17willMoveOffscreenEv
__ZN7WebCore21RenderLayerCompositor17willMoveOffscreenEv
__ZN7WebCore22SharedWorkerRepository16documentDetachedEPNS_8DocumentE
__ZN7WebCore29DefaultSharedWorkerRepository16documentDetachedEPNS_8DocumentE
__ZN7WebCore9FrameView22detachCustomScrollbarsEv
__ZN7WebCore13ContainerNode6detachEv
__ZN7WebCore7Element6detachEv
__ZN7WebCore7Element27cancelFocusAppearanceUpdateEv
__ZN7WebCore4Node6detachEv
__ZN7WebCore11RenderBlock7destroyEv
__ZN7WebCore21RenderObjectChildList23destroyLeftoverChildrenEv
__ZN7WebCore9RenderBox7destroyEv
__ZN7WebCore20RenderBoxModelObject7destroyEv
__ZN7WebCore12RenderObject7destroyEv
__ZNK7WebCore12EventHandler18autoscrollRendererEv
__ZN7WebCore19AnimationController16cancelAnimationsEPNS_12RenderObjectE
__ZN7WebCore11RenderBlock11removeChildEPNS_12RenderObjectE
__ZN7WebCore12RenderObject11removeChildEPS0_
__ZN7WebCore21RenderObjectChildList15removeChildNodeEPNS_12RenderObjectES2_b
__ZN7WebCore9RenderBox20deleteLineBoxWrapperEv
__ZN7WebCore20RenderBoxModelObject12destroyLayerEv
__ZN7WebCore11RenderLayer7destroyEPNS_11RenderArenaE
__ZN7WebCore11RenderLayerD0Ev
__ZN7WebCore11RenderLayer16destroyScrollbarENS_20ScrollbarOrientationE
__ZN7WebCore11RenderLayer12clearBackingEv
__ZN7WebCore11RenderLayerdlEPvm
__ZN7WebCore11RenderArena4freeEmPv
__ZN7WebCore12RenderObject11arenaDeleteEPNS_11RenderArenaEPv
__ZN7WebCore11RenderBlockD0Ev
__ZN7WebCore9RenderBoxD2Ev
__ZN7WebCore20RenderBoxModelObjectD2Ev
__ZN7WebCore12RenderObjectD2Ev
__ZN7WebCore12RenderObjectdlEPvm
__ZN7WebCore9ClipRects7destroyEPNS_11RenderArenaE
__ZN7WebCore9ClipRectsdlEPvm
__ZN3WTF6VectorIPN7WebCore11RenderLayerELm0EE6shrinkEm
__ZN7WebCore10RenderViewD0Ev
__ZN7WebCore21RenderLayerCompositorD1Ev
__ZN7WebCore21RenderLayerCompositorD2Ev
__ZN3WTF9HashTableIPN7WebCore12RenderWidgetES3_NS_17IdentityExtractorIS3_EENS_7PtrHashIS3_EENS_10HashTraitsIS3_EES9_E15dealloca
__ZN7WebCore11RenderBlockD2Ev
__ZN7WebCore11RenderArenaD1Ev
__ZN7WebCore11RenderArenaD2Ev
__ZN7WebCore15FinishArenaPoolEPNS_9ArenaPoolE
__ZN7WebCoreL13FreeArenaListEPNS_9ArenaPoolEPNS_5ArenaEb
__ZN7WebCore8Document26removeFocusedNodeOfSubtreeEPNS_4NodeEb
__ZN7WebCore19SelectionController5clearEv
__ZN7WebCore19SelectionController12setSelectionERKNS_16VisibleSelectionEbbbNS_15TextGranularityE
__ZN7WebCore13TypingCommand11closeTypingEPNS_11EditCommandE
__ZN7WebCore13TypingCommand26isOpenForMoreTypingCommandEPKNS_11EditCommandE
__ZN7WebCore5Frame16clearTypingStyleEv
__ZN7WebCore9FrameView5clearEv
__ZThn8_N7WebCore8Document14removedLastRefEv
__ZN7WebCore8Document14removedLastRefEv
__ZN3WTF9HashTableIPN7WebCore16AtomicStringImplESt4pairIS3_PNS1_7ElementEENS_18PairFirstExtractorIS7_EENS_7PtrHashIS3_EENS_14Pa
__ZN7WebCore13ContainerNode17removeAllChildrenEv
__ZN7WebCore28removeAllChildrenInContainerINS_4NodeENS_13ContainerNodeEEEvPT0_
__ZN7WebCore7Private28addChildNodesToDeletionQueueINS_4NodeENS_13ContainerNodeEEEvRPT_S6_PT0_
__ZN7WebCore15HTMLHtmlElementD0Ev
__ZN7WebCore13StyledElementD2Ev
__ZN7WebCore13StyledElement22destroyInlineStyleDeclEv
__ZN7WebCore7ElementD2Ev
__ZN7WebCore13ContainerNodeD2Ev
__ZN7WebCore4NodeD2Ev
__ZN7WebCore11EventTargetD2Ev
__ZN3WTF20deleteAllPairSecondsIPSt4pairINS_6VectorIN7WebCore14DocumentMarkerELm0EEENS2_INS3_7IntRectELm0EEEEKNS_7HashMapINS_6Re
__ZN7WebCore12HTMLDocumentD0Ev
__ZN3WTF9HashTableIPN7WebCore16AtomicStringImplESt4pairIS3_jENS_18PairFirstExtractorIS5_EENS_7PtrHashIS3_EENS_14PairHashTraitsI
__ZN7WebCore8DocumentD2Ev
__ZN7WebCore8Document23removeAllEventListenersEv
__ZN7WebCore11EventTarget23removeAllEventListenersEv
__ZN7WebCore4Node15eventTargetDataEv
__ZN7WebCore8Document23destroyAllWrapperCachesEv
__ZN7WebCore9DocLoaderD1Ev
__ZN7WebCore9DocLoaderD2Ev
__ZN7WebCore9DocLoader13clearPreloadsEv
__ZN3WTF11ListHashSetIPN7WebCore14CachedResourceENS_7PtrHashIS3_EEE14deleteAllNodesEv
__ZN3WTF9HashTableIPNS_15ListHashSetNodeIPN7WebCore14CachedResourceEEES6_NS_17IdentityExtractorIS6_EENS_28ListHashSetNodeHashFu
__ZN7WebCore5Cache15removeDocLoaderEPNS_9DocLoaderE
__ZN3WTF9HashTableIPN7WebCore9DocLoaderES3_NS_17IdentityExtractorIS3_EENS_7PtrHashIS3_EENS_10HashTraitsIS3_EES9_E4findIS3_NS_22
__ZN3WTF9HashTableIPN7WebCore9DocLoaderES3_NS_17IdentityExtractorIS3_EENS_7PtrHashIS3_EENS_10HashTraitsIS3_EES9_E47removeAndInv
__ZN3WTF9HashTableIPN7WebCore9DocLoaderES3_NS_17IdentityExtractorIS3_EENS_7PtrHashIS3_EENS_10HashTraitsIS3_EES9_E6removeEPS3_
__ZN3WTF20deleteAllPairSecondsIPN7WebCore15CollectionCacheEKNS_7HashMapIPNS1_16AtomicStringImplES3_NS_7PtrHashIS6_EENS_10HashTr
__ZN7WebCore14StyleSheetList17documentDestroyedEv
__ZN3WTF9HashTableIPN7WebCore15DOMWrapperWorldESt4pairIS3_PN3JSC9WeakGCMapIPNS1_4NodeEPNS1_6JSNodeEEEENS_18PairFirstExtractorIS
__ZN3WTF9HashTableIPN7WebCore7ElementES3_NS_17IdentityExtractorIS3_EENS_7PtrHashIS3_EENS_10HashTraitsIS3_EES9_E15deallocateTabl
__ZN3WTF9HashTableIPN7WebCore16AtomicStringImplESt4pairIS3_PNS1_15CollectionCacheEENS_18PairFirstExtractorIS7_EENS_7PtrHashIS3_
__ZN7WebCore15CollectionCacheD1Ev
__ZN7WebCore15CollectionCacheD2Ev
__ZN3WTF9HashTableIPN7WebCore10StringImplESt4pairIS3_PNS1_7ElementEENS_18PairFirstExtractorIS7_EENS1_15CaseFoldingHashENS_14Pai
__ZN3WTF9HashTableIPN7WebCore16AtomicStringImplESt4pairIS3_PNS1_14HTMLMapElementEENS_18PairFirstExtractorIS7_EENS_7PtrHashIS3_E
__ZN3WTF11ListHashSetIPN7WebCore7ElementENS_7PtrHashIS3_EEE14deleteAllNodesEv
__ZN3WTF9HashTableIPNS_15ListHashSetNodeIPN7WebCore7ElementEEES6_NS_17IdentityExtractorIS6_EENS_28ListHashSetNodeHashFunctionsI
__ZN3WTF11ListHashSetIPN7WebCore4NodeENS_7PtrHashIS3_EEE14deleteAllNodesEv
__ZN3WTF9HashTableIPNS_15ListHashSetNodeIPN7WebCore4NodeEEES6_NS_17IdentityExtractorIS6_EENS_28ListHashSetNodeHashFunctionsIS4_
__ZN7WebCore14StyleSheetListD1Ev
__ZN7WebCore14StyleSheetListD2Ev
__ZN3WTF9HashTableIPN7WebCore5RangeES3_NS_17IdentityExtractorIS3_EENS_7PtrHashIS3_EENS_10HashTraitsIS3_EES9_E15deallocateTableE
__ZN3WTF9HashTableIPN7WebCore12NodeIteratorES3_NS_17IdentityExtractorIS3_EENS_7PtrHashIS3_EENS_10HashTraitsIS3_EES9_E15dealloca
__ZN7WebCore22ScriptExecutionContextD2Ev
__ZN3WTF9HashTableIiSt4pairIiPN7WebCore8DOMTimerEENS_18PairFirstExtractorIS5_EENS_7IntHashIjEENS_14PairHashTraitsINS_10HashTrai
__ZN3WTF9HashTableIPN7WebCore15ActiveDOMObjectESt4pairIS3_PvENS_18PairFirstExtractorIS6_EENS_7PtrHashIS3_EENS_14PairHashTraitsI
__ZN3WTF9HashTableIPN7WebCore11MessagePortES3_NS_17IdentityExtractorIS3_EENS_7PtrHashIS3_EENS_10HashTraitsIS3_EES9_E15deallocat
__ZN7WebCore14DocumentWriter5clearEv
__ZN7WebCore19TextResourceDecoderD1Ev
__ZN7WebCore19TextResourceDecoderD2Ev
__ZN7WebCore17RedirectScheduler5clearEv
__ZNK7WebCore11HistoryItem13documentStateEv
__ZN7WebCore8Document26setStateForNewFormElementsERKN3WTF6VectorINS_6StringELm0EEE
__ZN7WebCore11FrameLoader21dispatchDidCommitLoadEv
__ZN7WebCore4Page27setJavaScriptURLsAreAllowedEb
__ZNK7WebCore6Editor7canEditEv
__ZNK7WebCore16VisibleSelection17isContentEditableEv
__ZN7WebCore18isEditablePositionERKNS_8PositionE
__ZN7WebCore15FocusController15setFocusedFrameEN3WTF10PassRefPtrINS_5FrameEEE
__ZN7WebCore15FocusController10setFocusedEb
__ZN7WebCore19SelectionController10setFocusedEb
__ZN7WebCore5Frame20setSelectionFromNoneEv
__ZN7WebCore19SelectionController22clearCaretRectIfNeededEv
__ZN7WebCore19SelectionController19invalidateCaretRectEv
__ZN7WebCoreL36dispatchEventsOnWindowAndFocusedNodeEPNS_8DocumentEb
__ZN7WebCore19InspectorController13didCommitLoadEPNS_14DocumentLoaderE
__ZN7WebCore11FrameLoader40dispatchDidClearWindowObjectsInAllWorldsEv
__ZN7WebCore16ScriptController12getAllWorldsERN3WTF6VectorIPNS_15DOMWrapperWorldELm0EEE
__ZN7WebCore15JSDOMWindowBase18commonJSGlobalDataEv
__ZN7WebCore15DOMWrapperWorldC1EPN3JSC12JSGlobalDataEb
__ZN7WebCore15DOMWrapperWorldC2EPN3JSC12JSGlobalDataEb
__ZN7WebCore15DOMWrapperWorld13registerWorldEv
__ZN3WTF7HashSetIPN7WebCore15DOMWrapperWorldENS_7PtrHashIS3_EENS_10HashTraitsIS3_EEE3addERKS3_
__ZN3WTF9HashTableIPN7WebCore15DOMWrapperWorldES3_NS_17IdentityExtractorIS3_EENS_7PtrHashIS3_EENS_10HashTraitsIS3_EES9_E6expand
__ZN3WTF9HashTableIPN7WebCore15DOMWrapperWorldES3_NS_17IdentityExtractorIS3_EENS_7PtrHashIS3_EENS_10HashTraitsIS3_EES9_E6rehash
__ZN3WTF9HashTableIPN7WebCore15DOMWrapperWorldES3_NS_17IdentityExtractorIS3_EENS_7PtrHashIS3_EENS_10HashTraitsIS3_EES9_E13alloc
__ZN3WTF9HashTableIPN7WebCore15DOMWrapperWorldES3_NS_17IdentityExtractorIS3_EENS_7PtrHashIS3_EENS_10HashTraitsIS3_EES9_E15deall
__ZN3WTF6VectorIPN7WebCore15DOMWrapperWorldELm0EE14expandCapacityEm
__ZN3WTF6VectorIPN7WebCore15DOMWrapperWorldELm0EE15reserveCapacityEm
__ZN7WebCore11FrameLoader35dispatchDidClearWindowObjectInWorldEPNS_15DOMWrapperWorldE
__ZNK3WTF9HashTableINS_6RefPtrIN7WebCore15DOMWrapperWorldEEESt4pairIS4_N3JSC12ProtectedPtrINS2_16JSDOMWindowShellEEEENS_18PairF
__ZN3WTF6VectorIPN7WebCore15DOMWrapperWorldELm0EE6shrinkEm
__ZN7WebCore16parseHTTPRefreshERKNS_6StringEbRdRS0_
__ZN7WebCore8Document24setShouldCreateRenderersEb
__ZN7WebCore11FrameLoader7addDataEPKci
__ZN7WebCore12TextCodecICU29registerExtendedEncodingNamesEPFvPKcS2_E
__ZN7WebCore12TextCodecICU22registerExtendedCodecsEPFvPKcPFN3WTF10PassOwnPtrINS_9TextCodecEEERKNS_12TextEncodingEPKvESB_E
__ZN7WebCore12TextCodecMac21registerEncodingNamesEPFvPKcS2_E
__ZN7WebCore12TextCodecMac14registerCodecsEPFvPKcPFN3WTF10PassOwnPtrINS_9TextCodecEEERKNS_12TextEncodingEPKvESB_E
__ZN3WTF6VectorIPKcLm0EE14expandCapacityEmPKS2_
__ZN3WTF6VectorIPKcLm0EE14expandCapacityEm
__ZN3WTF6VectorIPKcLm0EE15reserveCapacityEm
__ZN3WTF6VectorIPKcLm0EE6shrinkEm
__ZNK7WebCore19TextResourceDecoder16shouldAutoDetectEv
__ZN7WebCoreL15newTextCodecICUERKNS_12TextEncodingEPKv
__ZN7WebCore12TextCodecICUC1ERKNS_12TextEncodingE
__ZN7WebCore12TextCodecICUC2ERKNS_12TextEncodingE
__ZN7WebCore12TextCodecICU6decodeEPKcmbbRb
__ZNK7WebCore12TextCodecICU18createICUConverterEv
__ZN7WebCoreL18cachedConverterICUEv
__ZN7WebCore12TextCodecICU14decodeToBufferEPtS1_RPKcS3_PibR10UErrorCode
__ZNK7WebCore12TextEncoding18usesVisualOrderingEv
__ZNK7WebCore11RenderStyle24hasAnyPublicPseudoStylesEv
__ZN7WebCore13HTMLTokenizer5writeERKNS_15SegmentedStringEb
__ZN7WebCore15SegmentedStringC1ERKS0_
__ZN7WebCore15SegmentedStringC2ERKS0_
__ZN7WebCore13HTMLTokenizer6setSrcERKNS_15SegmentedStringE
__ZN7WebCore15SegmentedStringaSERKS0_
__ZN7WebCore13HTMLTokenizer8parseTagERNS_15SegmentedStringENS0_5StateE
__ZN7WebCore13HTMLTokenizer12parseDoctypeERNS_15SegmentedStringENS0_5StateE
__ZN7WebCore13HTMLTokenizer19processDoctypeTokenEv
__ZN7WebCore10HTMLParser17parseDoctypeTokenEPNS_12DoctypeTokenE
__ZN7WebCore12DocumentTypeC1EPNS_8DocumentERKNS_6StringES5_S5_
__ZN7WebCore12DocumentTypeC2EPNS_8DocumentERKNS_6StringES5_S5_
__ZNK7WebCore12DocumentType8nodeTypeEv
__ZN7WebCore12DocumentType20insertedIntoDocumentEv
__ZN7WebCore8Document10setDocTypeEN3WTF10PassRefPtrINS_12DocumentTypeEEE
__ZN7WebCore4Node11setDocumentEPNS_8DocumentE
__ZN7WebCore12HTMLDocument18determineParseModeEv
__ZN7WebCore4Node11recalcStyleENS0_11StyleChangeE
__ZN7WebCore8Document24clearPageGroupUserSheetsEv
__ZN7WebCore10HTMLParser10parseTokenEPNS_5TokenE
__ZNK7WebCore4Node16virtualLocalNameEv
__ZN7WebCore4Text21createWithLengthLimitEPNS_8DocumentERKNS_6StringERjj
__ZN7WebCore4Text6createEPNS_8DocumentERKNS_6StringE
__ZNK7WebCore4Text8nodeTypeEv
__ZN7WebCore10HTMLParser11handleErrorEPNS_4NodeEbRKNS_12AtomicStringEi
__ZNK7WebCore13CharacterData22containsOnlyWhitespaceEv
__ZN7WebCore10TreeSharedINS_4NodeEE14removedLastRefEv
__ZThn8_N7WebCore4TextD0Ev
__ZN7WebCore4TextD0Ev
__ZNK7WebCore15SegmentedString6lengthEv
__ZN7WebCore10HTMLParser7getNodeEPNS_5TokenE
__ZN3WTF7HashMapIPN7WebCore16AtomicStringImplEMNS1_10HTMLParserEFbPNS1_5TokenERNS_6RefPtrINS1_4NodeEEEENS_7PtrHashIS3_EENS_10Ha
__ZN3WTF9HashTableIPN7WebCore16AtomicStringImplESt4pairIS3_MNS1_10HTMLParserEFbPNS1_5TokenERNS_6RefPtrINS1_4NodeEEEEENS_18PairF
__ZNK3WTF7HashMapIPN7WebCore16AtomicStringImplEMNS1_10HTMLParserEFbPNS1_5TokenERNS_6RefPtrINS1_4NodeEEEENS_7PtrHashIS3_EENS_10H
__ZN7WebCore18HTMLElementFactory17createHTMLElementERKNS_13QualifiedNameEPNS_8DocumentEPNS_15HTMLFormElementEb
__ZN7WebCoreL6addTagERKNS_13QualifiedNameEPFN3WTF10PassRefPtrINS_11HTMLElementEEES2_PNS_8DocumentEPNS_15HTMLFormElementEbE
__ZN3WTF7HashMapIPN7WebCore16AtomicStringImplEPFNS_10PassRefPtrINS1_11HTMLElementEEERKNS1_13QualifiedNameEPNS1_8DocumentEPNS1_1
__ZN3WTF9HashTableIPN7WebCore16AtomicStringImplESt4pairIS3_PFNS_10PassRefPtrINS1_11HTMLElementEEERKNS1_13QualifiedNameEPNS1_8Do
__ZNK3WTF7HashMapIPN7WebCore16AtomicStringImplEPFNS_10PassRefPtrINS1_11HTMLElementEEERKNS1_13QualifiedNameEPNS1_8DocumentEPNS1_
__ZN7WebCoreL15htmlConstructorERKNS_13QualifiedNameEPNS_8DocumentEPNS_15HTMLFormElementEb
__ZN7WebCore7Element15setAttributeMapEN3WTF10PassRefPtrINS_12NamedNodeMapEEENS_27FragmentScriptingPermissionE
__ZNK7WebCore15HTMLHtmlElement17endTagRequirementEv
__ZN7WebCore11HTMLElement12childAllowedEPNS_4NodeE
__ZN7WebCore4Node12childAllowedEPS0_
__ZN7WebCore7Element16childTypeAllowedENS_4Node8NodeTypeE
__ZN7WebCore15HTMLHtmlElement8checkDTDEPKNS_4NodeE
__ZN7WebCore10HTMLParser20headCreateErrorCheckEPNS_5TokenERN3WTF6RefPtrINS_4NodeEEE
__ZN7WebCore15HTMLHeadElementC1ERKNS_13QualifiedNameEPNS_8DocumentE
__ZN7WebCore15HTMLHeadElementC2ERKNS_13QualifiedNameEPNS_8DocumentE
__ZNK7WebCore15HTMLHeadElement17endTagRequirementEv
__ZN7WebCore10HTMLParser8popBlockERKNS_12AtomicStringEb
__ZNK7WebCore15HTMLHeadElement11tagPriorityEv
__ZNK7WebCore7Element8nodeTypeEv
__ZN7WebCore7Element15childrenChangedEbPNS_4NodeES2_i
__ZNK7WebCore4Node22nonRendererRenderStyleEv
__ZN7WebCoreL20loadFullDefaultStyleEv
__ZN7WebCore13CSSStyleSheetD0Ev
__ZN7WebCore10StyleSheetD2Ev
__ZN7WebCore12CSSStyleRuleD0Ev
__ZN7WebCore15CSSSelectorListD1Ev
__ZN7WebCore15CSSSelectorListD2Ev
__ZN7WebCore26CSSMutableStyleDeclarationD0Ev
__ZN3WTF6VectorIN7WebCore11CSSPropertyELm4EE6shrinkEm
__ZN7WebCore12CSSValueListD0Ev
__ZN3WTF6VectorINS_6RefPtrIN7WebCore8CSSValueEEELm0EE6shrinkEm
__ZN7WebCore11CSSSelectorD2Ev
__ZN7WebCore11RenderTheme22extraDefaultStyleSheetEv
__ZN7WebCore9CSSParser12addNamespaceERKNS_12AtomicStringES3_
__ZN7WebCore13CSSStyleSheet12addNamespaceEPNS_9CSSParserERKNS_12AtomicStringES5_
__ZN7WebCore9CSSParser12parseContentEib
__ZN7WebCore17CSSPrimitiveValue6createERKNS_6StringENS0_9UnitTypesE
__ZN7WebCore17CSSPrimitiveValueC1ERKNS_6StringENS0_9UnitTypesE
__ZN7WebCore17CSSPrimitiveValueC2ERKNS_6StringENS0_9UnitTypesE
__ZN7WebCore9CSSParser15parseFontWeightEb
__ZN7WebCore11CSSSelector12setAttributeERKNS_13QualifiedNameE
__ZN7WebCore9CSSParser10parseColorEPNS_14CSSParserValueE
__ZN7WebCore9CSSParser19parseColorFromValueEPNS_14CSSParserValueERjb
__ZN7WebCore9CSSParser10parseColorERKNS_6StringERjb
__ZN7WebCore17CSSPrimitiveValue11createColorEj
__ZNK3WTF7HashMapIjNS_6RefPtrIN7WebCore17CSSPrimitiveValueEEENS_7IntHashIjEENS_10HashTraitsIjEENS7_IS4_EEE3getERKj
__ZN7WebCore17CSSPrimitiveValueC1Ej
__ZN7WebCore17CSSPrimitiveValueC2Ej
__ZN3WTF7HashMapIjNS_6RefPtrIN7WebCore17CSSPrimitiveValueEEENS_7IntHashIjEENS_10HashTraitsIjEENS7_IS4_EEE3addERKjRKS4_
__ZN3WTF9HashTableIjSt4pairIjNS_6RefPtrIN7WebCore17CSSPrimitiveValueEEEENS_18PairFirstExtractorIS6_EENS_7IntHashIjEENS_14PairHa
__ZN7WebCore5Color13parseHexColorERKNS_6StringERj
__ZN7WebCore9CSSParser17parseFillPropertyEiRiS1_RN3WTF6RefPtrINS_8CSSValueEEES6_
__ZN7WebCore9CSSParser14parseFillImageERN3WTF6RefPtrINS_8CSSValueEEE
__ZN7WebCore13CSSImageValueC1Ev
__ZN7WebCore13CSSImageValueC2Ev
__ZN7WebCore9CSSParser17parseBorderRadiusEib
__ZN7WebCoreL19completeBorderRadiiEPN3WTF6RefPtrINS_17CSSPrimitiveValueEEE
__ZN7WebCore17CSSPrimitiveValue4initEN3WTF10PassRefPtrINS_4PairEEE
__ZN7WebCore9CSSParser22rollbackLastPropertiesEi
__ZN7WebCore9CSSParser14parseFontStyleEb
__ZN7WebCore9CSSParser15parseFontFamilyEv
__ZN7WebCoreL9printEvalEv
__ZN7WebCore11RenderTheme21extraQuirksStyleSheetEv
__ZN7WebCore9CSSParser16parseFontVariantEb
__ZNK7WebCore11CSSSelector8isSimpleEv
__ZN7WebCore11CSSSelector17setSimpleSelectorEPS0_
__ZN7WebCore15HTMLHeadElement12childAllowedEPNS_4NodeE
__ZN7WebCore4Text6attachEv
__ZN7WebCore4Node21finishParsingChildrenEv
__ZN7WebCoreL16titleConstructorERKNS_13QualifiedNameEPNS_8DocumentEPNS_15HTMLFormElementEb
__ZN7WebCore16HTMLTitleElementC1ERKNS_13QualifiedNameEPNS_8DocumentE
__ZN7WebCore16HTMLTitleElementC2ERKNS_13QualifiedNameEPNS_8DocumentE
__ZNK7WebCore11HTMLElement17endTagRequirementEv
__ZNK7WebCore11HTMLElement11tagPriorityEv
__ZN3WTF7HashMapIPN7WebCore16AtomicStringImplEiNS_7PtrHashIS3_EENS_10HashTraitsIS3_EENS1_19Empty1IntHashTraitsEE3addERKS3_RKi
__ZN3WTF9HashTableIPN7WebCore16AtomicStringImplESt4pairIS3_iENS_18PairFirstExtractorIS5_EENS_7PtrHashIS3_EENS_14PairHashTraitsI
__ZNK3WTF7HashMapIPN7WebCore16AtomicStringImplEiNS_7PtrHashIS3_EENS_10HashTraitsIS3_EENS1_19Empty1IntHashTraitsEE3getERKS3_
__ZN7WebCore15HTMLHeadElement8checkDTDEPKNS_4NodeE
__ZN7WebCore16HTMLTitleElement20insertedIntoDocumentEv
__ZN7WebCore8Document8setTitleERKNS_6StringEPNS_7ElementE
__ZN7WebCore13HTMLTokenizer16parseNonHTMLTextERNS_15SegmentedStringENS0_5StateE
__ZN7WebCore13HTMLTokenizer19enlargeScriptBufferEi
__ZN7WebCore13HTMLTokenizer14processListingENS_15SegmentedStringENS0_5StateE
__ZN7WebCore15SegmentedString15advanceSlowCaseEv
__ZN7WebCore15SegmentedString16advanceSubstringEv
__ZN7WebCore16HTMLTitleElement8checkDTDEPKNS_4NodeE
__ZN7WebCore16HTMLTitleElement15childrenChangedEbPNS_4NodeES2_i
__ZNK7WebCore13CharacterData9nodeValueEv
__ZN7WebCore8Document11updateTitleEv
__ZNK7WebCore8Document31displayBufferModifiedByEncodingEPtj
__ZN7WebCore11FrameLoader8setTitleERKNS_6StringE
__ZN7WebCore11FrameLoader15willChangeTitleEPNS_14DocumentLoaderE
__ZN7WebCore11FrameLoader14didChangeTitleEPNS_14DocumentLoaderE
__ZN7WebCore17HistoryController19setCurrentItemTitleERKNS_6StringE
__ZN7WebCore11HistoryItem8setTitleERKNS_6StringE
__ZN7WebCore10HTMLParser15processCloseTagEPNS_5TokenE
__ZN7WebCore10HTMLParser25isAffectedByResidualStyleERKNS_12AtomicStringE
__ZN3WTF7HashSetIPN7WebCore16AtomicStringImplENS_7PtrHashIS3_EENS_10HashTraitsIS3_EEE3addERKS3_
__ZN3WTF9HashTableIPN7WebCore16AtomicStringImplES3_NS_17IdentityExtractorIS3_EENS_7PtrHashIS3_EENS_10HashTraitsIS3_EES9_E6expan
__ZN3WTF9HashTableIPN7WebCore16AtomicStringImplES3_NS_17IdentityExtractorIS3_EENS_7PtrHashIS3_EENS_10HashTraitsIS3_EES9_E6rehas
__ZN3WTF9HashTableIPN7WebCore16AtomicStringImplES3_NS_17IdentityExtractorIS3_EENS_7PtrHashIS3_EENS_10HashTraitsIS3_EES9_E13allo
__ZNK3WTF9HashTableIPN7WebCore16AtomicStringImplES3_NS_17IdentityExtractorIS3_EENS_7PtrHashIS3_EENS_10HashTraitsIS3_EES9_E8cont
__ZN7WebCore10HTMLParser23reopenResidualStyleTagsEPNS_13HTMLStackElemEPNS_4NodeE
__ZN3WTF6VectorItLm32EE14shrinkCapacityEm
__ZN7WebCore5Token12addAttributeERNS_12AtomicStringERKS1_b
__ZN7WebCore12NamedNodeMap12addAttributeEN3WTF10PassRefPtrINS_9AttributeEEE
__ZN3WTF6VectorItLm32EE6shrinkEm
__ZN3WTF6VectorINS_6RefPtrIN7WebCore9AttributeEEELm0EE14shrinkCapacityEm
__ZN7WebCoreL15metaConstructorERKNS_13QualifiedNameEPNS_8DocumentEPNS_15HTMLFormElementEb
__ZN7WebCore15HTMLMetaElementC1ERKNS_13QualifiedNameEPNS_8DocumentE
__ZN7WebCore15HTMLMetaElementC2ERKNS_13QualifiedNameEPNS_8DocumentE
__ZN7WebCore13StyledElement16attributeChangedEPNS_9AttributeEb
__ZN7WebCore15MappedAttribute17isMappedAttributeEv
__ZNK7WebCore11HTMLElement10mapToEntryERKNS_13QualifiedNameERNS_20MappedAttributeEntryE
__ZNK7WebCore13StyledElement10mapToEntryERKNS_13QualifiedNameERNS_20MappedAttributeEntryE
__ZN7WebCore15HTMLMetaElement20parseMappedAttributeEPNS_15MappedAttributeE
__ZN7WebCore7Element40recalcStyleIfNeededAfterAttributeChangedEPNS_9AttributeE
__ZN7WebCore16CSSStyleSelector23hasSelectorForAttributeERKNS_12AtomicStringE
__ZN7WebCore7Element27updateAfterAttributeChangedEPNS_9AttributeE
__ZN7WebCore15HTMLMetaElement7processEv
__ZNK7WebCore15HTMLMetaElement17endTagRequirementEv
__ZNK7WebCore15HTMLMetaElement11tagPriorityEv
__ZN7WebCore15HTMLMetaElement20insertedIntoDocumentEv
__ZNK7WebCore15HTMLMetaElement4nameEv
__ZN7WebCoreL16styleConstructorERKNS_13QualifiedNameEPNS_8DocumentEPNS_15HTMLFormElementEb
__ZN7WebCore16HTMLStyleElementC1ERKNS_13QualifiedNameEPNS_8DocumentEb
__ZN7WebCore16HTMLStyleElementC2ERKNS_13QualifiedNameEPNS_8DocumentEb
__ZN7WebCore12StyleElementC2Ev
__ZN7WebCore16HTMLStyleElement20parseMappedAttributeEPNS_15MappedAttributeE
__ZN7WebCore11HTMLElement20parseMappedAttributeEPNS_15MappedAttributeE
__ZNK7WebCore16HTMLStyleElement17endTagRequirementEv
__ZNK7WebCore16HTMLStyleElement11tagPriorityEv
__ZN7WebCore16HTMLStyleElement20insertedIntoDocumentEv
__ZN7WebCore8Document26addStyleSheetCandidateNodeEPNS_4NodeEb
__ZN3WTF11ListHashSetIPN7WebCore4NodeENS_7PtrHashIS3_EEE3addERKS3_
__ZN3WTF11ListHashSetIPN7WebCore4NodeENS_7PtrHashIS3_EEE10appendNodeEPNS_15ListHashSetNodeIS3_EE
__ZN7WebCore16HTMLStyleElement8checkDTDEPKNS_4NodeE
__ZN7WebCore16HTMLStyleElement15childrenChangedEbPNS_4NodeES2_i
__ZN7WebCore16HTMLStyleElement21finishParsingChildrenEv
__ZN7WebCore12StyleElement7processEPNS_7ElementE
__ZN7WebCore12StyleElement11createSheetEPNS_7ElementERKNS_6StringE
__ZThn120_NK7WebCore16HTMLStyleElement4typeEv
__ZNK7WebCore16HTMLStyleElement4typeEv
__ZThn120_NK7WebCore16HTMLStyleElement5mediaEv
__ZNK7WebCore16HTMLStyleElement5mediaEv
__ZN7WebCore9MediaListC1EPNS_13CSSStyleSheetERKNS_6StringEb
__ZN7WebCore9MediaListC2EPNS_13CSSStyleSheetERKNS_6StringEb
__ZN7WebCore9MediaList12setMediaTextERKNS_6StringERi
__ZN7WebCore9MediaListC1EPNS_13CSSStyleSheetEb
__ZN7WebCore9MediaListC2EPNS_13CSSStyleSheetEb
__ZN3WTF15deleteAllValuesIPN7WebCore10MediaQueryELm0EEEvRKNS_6VectorIT_XT0_EEE
__ZN3WTF6VectorIPN7WebCore10MediaQueryELm0EEaSERKS4_
__ZN3WTF6VectorIPN7WebCore10MediaQueryELm0EE14shrinkCapacityEm
__ZN7WebCore9MediaList13notifyChangedEv
__ZN7WebCore9MediaListD0Ev
__ZNK7WebCore19MediaQueryEvaluator4evalEPKNS_9MediaListEPNS_16CSSStyleSelectorE
__ZThn120_N7WebCore16HTMLStyleElement10setLoadingEb
__ZN7WebCore16HTMLStyleElement10setLoadingEb
__ZNK7WebCore8Document8encodingEv
__ZNK7WebCore12TextEncoding7domNameEv
__ZN7WebCore13CSSStyleSheetC1EPNS_4NodeERKNS_6StringERKNS_4KURLES5_
__ZN7WebCore13CSSStyleSheetC2EPNS_4NodeERKNS_6StringERKNS_4KURLES5_
__ZN7WebCore10StyleSheetC2EPNS_4NodeERKNS_6StringERKNS_4KURLE
__ZN7WebCore10StyleSheet8setMediaEN3WTF10PassRefPtrINS_9MediaListEEE
__ZNK7WebCore11HTMLElement5titleEv
__ZN7WebCore13CSSStyleSheet11checkLoadedEv
__ZN7WebCore13CSSStyleSheet9isLoadingEv
__ZN7WebCore9StyleBase12isImportRuleEv
__ZN7WebCore16HTMLStyleElement11sheetLoadedEv
__ZNK7WebCore16HTMLStyleElement9isLoadingEv
__ZN7WebCore8Document18removePendingSheetEv
__ZN7WebCore16HTMLStyleElement5sheetEv
__ZN7WebCore12StyleElement5sheetEPNS_7ElementE
__ZN3WTF6VectorINS_6RefPtrIN7WebCore10StyleSheetEEELm0EE14expandCapacityEm
__ZN3WTF6VectorINS_6RefPtrIN7WebCore10StyleSheetEEELm0EE15reserveCapacityEm
__ZN7WebCore14StyleSheetList4itemEj
__ZN7WebCore13HTMLTokenizer35executeScriptsWaitingForStylesheetsEv
__ZN7WebCore10HTMLParser20bodyCreateErrorCheckEPNS_5TokenERN3WTF6RefPtrINS_4NodeEEE
__ZN7WebCore10HTMLParser10createHeadEv
__ZN7WebCore10HTMLParser9startBodyEv
__ZN7WebCoreL15bodyConstructorERKNS_13QualifiedNameEPNS_8DocumentEPNS_15HTMLFormElementEb
__ZN7WebCore15HTMLBodyElementC1ERKNS_13QualifiedNameEPNS_8DocumentE
__ZN7WebCore15HTMLBodyElementC2ERKNS_13QualifiedNameEPNS_8DocumentE
__ZNK7WebCore15HTMLBodyElement17endTagRequirementEv
__ZNK7WebCore15HTMLBodyElement11tagPriorityEv
__ZN7WebCore15HTMLBodyElement20insertedIntoDocumentEv
__ZN7WebCore8Document18minimumLayoutDelayEv
__ZNK7WebCore8Document11elapsedTimeEv
__ZN7WebCore16CSSStyleSelector24canShareStyleWithElementEPNS_4NodeE
__ZN7WebCore17CSSPrimitiveValue8getIdentEv
__ZN7WebCore17CSSPrimitiveValue12isQuirkValueEv
__ZN7WebCore17CSSPrimitiveValue25computeLengthIntForLengthEPNS_11RenderStyleES2_d
__ZN7WebCore17CSSPrimitiveValue19computeLengthDoubleEPNS_11RenderStyleES2_db
__ZN7WebCore7DataRefINS_17StyleSurroundDataEE6accessEv
__ZN7WebCore17StyleSurroundDataC1ERKS0_
__ZN7WebCore17StyleSurroundDataC2ERKS0_
__ZN7WebCore11HTMLElement8checkDTDEPKNS_4NodeE
__ZN7WebCore11HTMLElement15inEitherTagListEPKNS_4NodeE
__ZN7WebCore4Text16rendererIsNeededEPNS_11RenderStyleE
__ZN7WebCore13CharacterData16rendererIsNeededEPNS_11RenderStyleE
__ZN7WebCore4Node16previousRendererEv
__ZN7WebCore10HTMLParser23pCloserCreateErrorCheckEPNS_5TokenERN3WTF6RefPtrINS_4NodeEEE
__ZN7WebCoreL18headingConstructorERKNS_13QualifiedNameEPNS_8DocumentEPNS_15HTMLFormElementEb
__ZN7WebCore18HTMLHeadingElementC1ERKNS_13QualifiedNameEPNS_8DocumentE
__ZN7WebCore18HTMLHeadingElementC2ERKNS_13QualifiedNameEPNS_8DocumentE
__ZNK7WebCore18HTMLHeadingElement17endTagRequirementEv
__ZNK7WebCore18HTMLHeadingElement11tagPriorityEv
__ZN7WebCoreL13inlineTagListEv
__ZN3WTF9HashTableIPN7WebCore16AtomicStringImplES3_NS_17IdentityExtractorIS3_EENS_7PtrHashIS3_EENS_10HashTraitsIS3_EES9_E4findI
__ZN7WebCoreL12blockTagListEv
__ZN7WebCore17CSSPrimitiveValue18computeLengthFloatEPNS_11RenderStyleES2_b
__ZN7WebCore16CSSStyleSelector11setFontSizeERNS_15FontDescriptionEf
__ZN7WebCore11RenderStyle18setFontDescriptionERKNS_15FontDescriptionE
__ZN3WTF6RefPtrIN7WebCore10StringImplEED2Ev
__ZN7WebCore16CSSStyleSelector10updateFontEv
__ZN7WebCore16CSSStyleSelector22checkForTextSizeAdjustEv
__ZN7WebCore16CSSStyleSelector27checkForGenericFamilyChangeEPNS_11RenderStyleES2_
__ZN7WebCore16CSSStyleSelector18checkForZoomChangeEPNS_11RenderStyleES2_
__ZN7WebCore22CSSQuirkPrimitiveValue12isQuirkValueEv
__ZN7WebCore18HTMLHeadingElement8checkDTDEPKNS_4NodeE
__ZN7WebCore4Text14createRendererEPNS_11RenderArenaEPNS_11RenderStyleE
__ZN7WebCore10RenderTextC1EPNS_4NodeEN3WTF10PassRefPtrINS_10StringImplEEE
__ZN7WebCore10RenderTextC2EPNS_4NodeEN3WTF10PassRefPtrINS_10StringImplEEE
__ZN7WebCore10RenderText15styleWillChangeENS_15StyleDifferenceEPKNS_11RenderStyleE
__ZN7WebCore10RenderText14styleDidChangeENS_15StyleDifferenceEPKNS_11RenderStyleE
__ZN7WebCore10RenderText22updateNeedsTranscodingEv
__ZNK7WebCore12RenderObject13isRenderBlockEv
__ZNK7WebCore12RenderObject15virtualChildrenEv
__ZN7WebCore11RenderBlock26dirtyLinesFromChangedChildEPNS_12RenderObjectE
__ZN7WebCore17RenderLineBoxList26dirtyLinesFromChangedChildEPNS_12RenderObjectES2_
__ZN7WebCoreL13brConstructorERKNS_13QualifiedNameEPNS_8DocumentEPNS_15HTMLFormElementEb
__ZN7WebCore13HTMLBRElementC1ERKNS_13QualifiedNameEPNS_8DocumentE
__ZN7WebCore13HTMLBRElementC2ERKNS_13QualifiedNameEPNS_8DocumentE
__ZNK7WebCore13HTMLBRElement17endTagRequirementEv
__ZNK7WebCore13HTMLBRElement11tagPriorityEv
__ZN7WebCore13HTMLBRElement14createRendererEPNS_11RenderArenaEPNS_11RenderStyleE
__ZN7WebCore8RenderBRC1EPNS_4NodeE
__ZN7WebCore8RenderBRC2EPNS_4NodeE
__ZN7WebCore8RenderBR14styleDidChangeENS_15StyleDifferenceEPKNS_11RenderStyleE
__ZNK7WebCore8RenderBR4isBREv
__ZNK7WebCore12RenderObject4isBREv
__ZN7WebCore10HTMLParser22nestedCreateErrorCheckEPNS_5TokenERN3WTF6RefPtrINS_4NodeEEE
__ZN7WebCoreL17anchorConstructorERKNS_13QualifiedNameEPNS_8DocumentEPNS_15HTMLFormElementEb
__ZN7WebCore17HTMLAnchorElement6createERKNS_13QualifiedNameEPNS_8DocumentE
__ZN7WebCore17HTMLAnchorElementC1ERKNS_13QualifiedNameEPNS_8DocumentE
__ZN7WebCore17HTMLAnchorElementC2ERKNS_13QualifiedNameEPNS_8DocumentE
__ZN7WebCore17HTMLAnchorElement20parseMappedAttributeEPNS_15MappedAttributeE
__ZNK7WebCore17HTMLAnchorElement17endTagRequirementEv
__ZNK7WebCore17HTMLAnchorElement11tagPriorityEv
__ZN7WebCore12RenderInlineC1EPNS_4NodeE
__ZN7WebCore12RenderInlineC2EPNS_4NodeE
__ZN7WebCore12RenderInline14styleDidChangeENS_15StyleDifferenceEPKNS_11RenderStyleE
__ZN7WebCore12RenderInline27updateBoxModelInfoFromStyleEv
__ZNK7WebCore12RenderInline13requiresLayerEv
__ZNK7WebCore12RenderInline18inlineContinuationEv
__ZNK7WebCore11RenderBlock20createAnonymousBlockEb
__ZNK7WebCore12RenderInline15virtualChildrenEv
__ZNK7WebCore12RenderObject12isListMarkerEv
__ZN7WebCoreL16ulistConstructorERKNS_13QualifiedNameEPNS_8DocumentEPNS_15HTMLFormElementEb
__ZN7WebCore16HTMLUListElementC1ERKNS_13QualifiedNameEPNS_8DocumentE
__ZN7WebCore16HTMLUListElementC2ERKNS_13QualifiedNameEPNS_8DocumentE
__ZNK7WebCore16HTMLUListElement17endTagRequirementEv
__ZNK7WebCore16HTMLUListElement11tagPriorityEv
__ZN7WebCore10HTMLParser29nestedPCloserCreateErrorCheckEPNS_5TokenERN3WTF6RefPtrINS_4NodeEEE
__ZN7WebCoreL13liConstructorERKNS_13QualifiedNameEPNS_8DocumentEPNS_15HTMLFormElementEb
__ZN7WebCore13HTMLLIElementC1ERKNS_13QualifiedNameEPNS_8DocumentE
__ZN7WebCore13HTMLLIElementC2ERKNS_13QualifiedNameEPNS_8DocumentE
__ZNK7WebCore13HTMLLIElement17endTagRequirementEv
__ZNK7WebCore13HTMLLIElement11tagPriorityEv
__ZN7WebCore13HTMLLIElement6attachEv
__ZN7WebCore14RenderListItemC1EPNS_4NodeE
__ZN7WebCore14RenderListItemC2EPNS_4NodeE
__ZN7WebCore14RenderListItem14styleDidChangeENS_15StyleDifferenceEPKNS_11RenderStyleE
__ZN7WebCore16RenderListMarkerC1EPNS_14RenderListItemE
__ZN7WebCore16RenderListMarkerC2EPNS_14RenderListItemE
__ZN7WebCore16RenderListMarker15styleWillChangeENS_15StyleDifferenceEPKNS_11RenderStyleE
__ZN7WebCore16RenderListMarker14styleDidChangeENS_15StyleDifferenceEPKNS_11RenderStyleE
__ZNK7WebCore14RenderListItem10isListItemEv
__ZN7WebCore14RenderListItem23updateListMarkerNumbersEv
__ZN7WebCoreL13enclosingListEPKNS_14RenderListItemE
__ZN7WebCoreL6isListEPNS_4NodeE
__ZN7WebCore14RenderListItem18clearExplicitValueEv
__ZN7WebCore10HTMLParser27nestedStyleCreateErrorCheckEPNS_5TokenERN3WTF6RefPtrINS_4NodeEEE
__ZN7WebCore10HTMLParser23allowNestedRedundantTagERKNS_12AtomicStringE
__ZN7WebCore11HTMLElement6createERKNS_13QualifiedNameEPNS_8DocumentE
__ZNK7WebCore15FontDescription12bolderWeightEv
__ZN7WebCore12RenderInline8addChildEPNS_12RenderObjectES2_
__ZN7WebCore12RenderInline28addChildIgnoringContinuationEPNS_12RenderObjectES2_
__ZN7WebCore12RenderInline15virtualChildrenEv
__ZN7WebCore12RenderInline26dirtyLinesFromChangedChildEPNS_12RenderObjectE
__ZN7WebCoregtERNS_11CSSRuleDataES1_
__ZN7WebCore11CSSSelector11specificityEv
__ZN7WebCore13HTMLTokenizer11parseEntityERNS_15SegmentedStringERPtNS0_5StateERjbb
__ZN7WebCore11RenderBlock17deleteLineBoxTreeEv
__ZN7WebCore17RenderLineBoxList17deleteLineBoxTreeEPNS_11RenderArenaE
__ZN7WebCore11RenderBlock11moveChildToEPNS_12RenderObjectEPNS_21RenderObjectChildListES2_
__ZNK7WebCore12RenderObject17isSelectionBorderEv
__ZN7WebCore10HTMLParser18isResidualStyleTagERKNS_12AtomicStringE
__ZN7WebCore13StyledElement20parseMappedAttributeEPNS_15MappedAttributeE
__ZN7WebCore13StyledElement18getInlineStyleDeclEv
__ZN7WebCore13StyledElement21createInlineStyleDeclEv
__ZN7WebCore26CSSMutableStyleDeclarationC1Ev
__ZN7WebCore26CSSMutableStyleDeclarationC2Ev
__ZN7WebCore8Document12elementSheetEv
__ZN7WebCore26CSSMutableStyleDeclaration16parseDeclarationERKNS_6StringE
__ZN3WTF6VectorIN7WebCore11CSSPropertyELm4EE14shrinkCapacityEm
__ZN7WebCore9CSSParser16parseDeclarationEPNS_26CSSMutableStyleDeclarationERKNS_6StringE
__ZN7WebCore9StyleBase10stylesheetEv
__ZNK7WebCore9StyleBase12isStyleSheetEv
__ZNK7WebCore10StyleSheet12isStyleSheetEv
__ZN7WebCore26CSSMutableStyleDeclaration19addParsedPropertiesEPKPKNS_11CSSPropertyEi
__ZN3WTF6VectorIN7WebCore11CSSPropertyELm4EE15reserveCapacityEm
__ZNK7WebCore26CSSMutableStyleDeclaration19getPropertyPriorityEi
__ZNK7WebCore26CSSMutableStyleDeclaration18findPropertyWithIdEi
__ZN7WebCore26CSSMutableStyleDeclaration14removePropertyEibb
__ZN7WebCore26CSSMutableStyleDeclaration23removeShorthandPropertyEib
__ZN7WebCore19longhandForPropertyEi
__ZN7WebCoreL16initShorthandMapERN3WTF7HashMapIiNS_19CSSPropertyLonghandENS0_7IntHashIjEENS0_10HashTraitsIiEENS5_IS2_EEEE
__ZN3WTF7HashMapIiN7WebCore19CSSPropertyLonghandENS_7IntHashIjEENS_10HashTraitsIiEENS5_IS2_EEE3setERKiRKS2_
__ZN3WTF9HashTableIiSt4pairIiN7WebCore19CSSPropertyLonghandEENS_18PairFirstExtractorIS4_EENS_7IntHashIjEENS_14PairHashTraitsINS
__ZNK3WTF7HashMapIiN7WebCore19CSSPropertyLonghandENS_7IntHashIjEENS_10HashTraitsIiEENS5_IS2_EEE3getERKi
__ZN7WebCore26CSSMutableStyleDeclaration18findPropertyWithIdEi
__ZN7WebCore26CSSMutableStyleDeclaration19setNeedsStyleRecalcEv
__ZN7WebCore18deprecatedParseURLERKNS_6StringE
__ZN3WTF6VectorItLm2048EE6shrinkEm
__ZNK7WebCore4Page24javaScriptURLsAreAllowedEv
__ZNK7WebCore16CSSStyleSelector15SelectorChecker26determineLinkStateSlowCaseEPNS_7ElementE
__ZN7WebCore15visitedLinkHashERKNS_4KURLERKNS_12AtomicStringE
__ZN3WTF6VectorItLm512EE6appendItEEvPKT_m
__ZN7WebCore9PageGroup13isLinkVisitedEy
__ZN7WebCore9PageGroup14addVisitedLinkEPKtm
__ZN3WTF9HashTableIyyNS_17IdentityExtractorIyEEN7WebCore12LinkHashHashENS_10HashTraitsIyEES6_E4findIyNS_22IdentityHashTranslato
__ZNK7WebCore4Node16traverseNextNodeEPKS0_
__ZN7WebCore16CSSStyleSelector26getColorFromPrimitiveValueEPNS_17CSSPrimitiveValueE
__ZNK7WebCore8CSSValue16isPrimitiveValueEv
__ZNK7WebCore12CSSValueList12cssValueTypeEv
__ZNK7WebCore12CSSValueList11isValueListEv
__ZN7WebCore15StyleVisualDataC1ERKS0_
__ZN7WebCore15StyleVisualDataC2ERKS0_
__ZN7WebCore11RenderStyle15clearCursorListEv
__ZNK7WebCore8CSSValue11isValueListEv
__ZN7WebCore11RenderStyle20addCachedPseudoStyleEN3WTF10PassRefPtrIS0_EE
__ZNK7WebCore11RenderStyle20getCachedPseudoStyleENS_8PseudoIdE
__ZN7WebCore13HTMLTokenizer13enlargeBufferEi
__ZN7WebCoreL20paragraphConstructorERKNS_13QualifiedNameEPNS_8DocumentEPNS_15HTMLFormElementEb
__ZN7WebCore20HTMLParagraphElementC1ERKNS_13QualifiedNameEPNS_8DocumentE
__ZN7WebCore20HTMLParagraphElementC2ERKNS_13QualifiedNameEPNS_8DocumentE
__ZNK7WebCore20HTMLParagraphElement17endTagRequirementEv
__ZNK7WebCore20HTMLParagraphElement11tagPriorityEv
__ZN7WebCore20HTMLParagraphElement8checkDTDEPKNS_4NodeE
__ZN7WebCore11HTMLElement15inInlineTagListEPKNS_4NodeE
__ZN7WebCore15SegmentedString15advanceSlowCaseERi
__ZN7WebCore11ImageLoader31dispatchPendingBeforeLoadEventsEv
__ZN7WebCoreL21beforeLoadEventSenderEv
__ZN7WebCore16ImageEventSenderC1ERKNS_12AtomicStringE
__ZN7WebCore16ImageEventSenderC2ERKNS_12AtomicStringE
__ZN7WebCore16ImageEventSender21dispatchPendingEventsEv
__ZN3WTF6VectorIPN7WebCore11ImageLoaderELm0EE14shrinkCapacityEm
__ZNK7WebCore8Document15isMediaDocumentEv
__ZN7WebCore20ResourceLoadNotifier14didReceiveDataEPNS_14ResourceLoaderEPKcii
__ZN7WebCore15ProgressTracker17incrementProgressEmPKci
__ZNK7WebCore11FrameLoader27numPendingOrLoadingRequestsEb
__ZNK7WebCore11FrameLoader15firstLayoutDoneEv
__ZN7WebCore20ResourceLoadNotifier31dispatchDidReceiveContentLengthEPNS_14DocumentLoaderEmi
__ZN7WebCore19InspectorController23didReceiveContentLengthEmi
-[WebCoreResourceHandleAsDelegate connectionDidFinishLoading:]
__ZN7WebCore14ResourceLoader16didFinishLoadingEPNS_14ResourceHandleE
__ZN7WebCore18MainResourceLoader16didFinishLoadingEv
__ZN7WebCore11FrameLoader15finishedLoadingEv
__ZN7WebCore12TextCodecICUD0Ev
__ZNK7WebCore12TextCodecICU19releaseICUConverterEv
__ZNK7WebCore9Tokenizer10wellFormedEv
__ZN7WebCore11FrameLoader15startIconLoaderEv
__ZN7WebCore11FrameLoader7iconURLEv
__ZN7WebCore19AnimationController16resumeAnimationsEPNS_8DocumentE
__ZN7WebCore26AnimationControllerPrivate16resumeAnimationsEPNS_8DocumentE
__ZN7WebCore26AnimationControllerPrivate20updateAnimationTimerEb
__ZN7WebCore11ImageLoader25dispatchPendingLoadEventsEv
__ZN7WebCoreL15loadEventSenderEv
__ZN7WebCore8Document23dispatchWindowLoadEventEv
__ZN7WebCore9DOMWindow17dispatchLoadEventEv
__ZN7WebCore19InspectorController26mainResourceFiredLoadEventEPNS_14DocumentLoaderERKNS_4KURLE
__ZN7WebCore8Document20enqueuePageshowEventENS_24PageshowEventPersistenceE
__ZN7WebCore11FrameLoader19handledOnloadEventsEv
__ZN7WebCore20ApplicationCacheHost19stopDeferringEventsEv
__ZN3WTF6VectorIN7WebCore20ApplicationCacheHost7EventIDELm0EE14shrinkCapacityEm
__ZN7WebCore9TimerBase10heapPopMinEv
__ZSt13__adjust_heapIN7WebCore17TimerHeapIteratorEiNS0_16TimerHeapElementEEvT_T0_S4_T1_
__ZN3WTF6VectorIPN7WebCore9TimerBaseELm0EE6shrinkEm
__ZN3WTF9HashTableIPN7WebCore12RenderObjectESt4pairIS3_PNS1_11RenderBlock14FloatingObjectEENS_18PairFirstExtractorIS8_EENS_7Ptr
__ZN3WTF20deleteAllPairSecondsIPN7WebCore11RenderBlock14FloatingObjectEKNS_7HashMapIPNS1_12RenderObjectES4_NS_7PtrHashIS7_EENS_
__ZN7WebCore11RenderBlock29markLinesDirtyInVerticalRangeEiiPNS_13RootInlineBoxE
__ZNK7WebCore12RenderObject9isCounterEv
__ZN7WebCore10RenderText14dirtyLineBoxesEb
__ZN7WebCore10RenderText15deleteTextBoxesEv
__ZN7WebCore11RenderBlock22determineStartPositionERbS1_S1_RNS_12BidiResolverINS_14InlineIteratorENS_7BidiRunEEERN3WTF6VectorINS
__ZN7WebCore11BidiContext6createEhN3WTF7Unicode9DirectionEbPS0_
__ZN7WebCore12BidiResolverINS_14InlineIteratorENS_7BidiRunEE23commitExplicitEmbeddingEv
__ZN3WTF6VectorINS_7Unicode9DirectionELm8EE14shrinkCapacityEm
__ZN7WebCore11RenderBlock17findNextLineBreakERNS_12BidiResolverINS_14InlineIteratorENS_7BidiRunEEEbRbS6_PNS_6EClearE
__ZN7WebCore11RenderBlock21skipLeadingWhitespaceERNS_12BidiResolverINS_14InlineIteratorENS_7BidiRunEEEbbb
__ZNK7WebCore11RenderBlock9lineWidthEib
__ZNK7WebCore11RenderBlock11rightOffsetEv
__ZNK7WebCore11RenderBlock14rightRelOffsetEiibPi
__ZNK7WebCore11RenderBlock10leftOffsetEv
__ZNK7WebCore11RenderBlock13leftRelOffsetEiibPi
__ZN7WebCore11RenderBlock15requiresLineBoxERKNS_14InlineIteratorEbb
__ZNK7WebCore12RenderObject9isSVGTextEv
__ZNK7WebCore4Font12isFixedPitchEv
__ZNK7WebCore16FontFallbackList14determinePitchEPKNS_4FontE
__ZN7WebCore9FontCache11getFontDataERKNS_4FontERiPNS_12FontSelectorE
__ZN7WebCore15CSSFontSelector11getFontDataERKNS_15FontDescriptionERKNS_12AtomicStringE
__ZN7WebCore9FontCache17getCachedFontDataERKNS_15FontDescriptionERKNS_12AtomicStringEb
__ZN7WebCore9FontCache25getCachedFontPlatformDataERKNS_15FontDescriptionERKNS_12AtomicStringEb
__ZN7WebCore9FontCache12platformInitEv
__ZN7WebCore9FontCache22createFontPlatformDataERKNS_15FontDescriptionERKNS_12AtomicStringE
__ZN7WebCoreL18toAppKitFontWeightENS_10FontWeightE
+[WebFontCache fontWithFamily:traits:weight:size:]
+[WebFontCache internalFontWithFamily:traits:weight:size:]
__ZL16acceptableChoicemm
__ZL12betterChoicemimimi
__ZN3WTF9HashTableIN7WebCore24FontPlatformDataCacheKeyESt4pairIS2_PNS1_16FontPlatformDataEENS_18PairFirstExtractorIS6_EENS1_28F
__ZNK7WebCore14SimpleFontData9isLoadingEv
__ZN7WebCoreL11inlineWidthEPNS_12RenderObjectEbb
__ZNK7WebCore10RenderText11isWordBreakEv
__ZN7WebCore21nextBreakablePositionEPKtiib
__ZN7WebCoreL8bidiNextEPNS_11RenderBlockEPNS_12RenderObjectEPNS_12BidiResolverINS_14InlineIteratorENS_7BidiRunEEEbPb
__ZN7WebCoreL14checkMidpointsERNS_13MidpointStateINS_14InlineIteratorEEERS1_
__ZN7WebCore11RenderBlock15bidiReorderLineERNS_12BidiResolverINS_14InlineIteratorENS_7BidiRunEEERKS2_b
__ZN7WebCore12BidiResolverINS_14InlineIteratorENS_7BidiRunEE21createBidiRunsForLineERKS1_bb
__ZN7WebCore12BidiResolverINS_14InlineIteratorENS_7BidiRunEE9appendRunEv
__ZNK7WebCore10RenderText6lengthEv
__ZN7WebCore11RenderBlock19appendRunsForObjectEiiPNS_12RenderObjectERNS_12BidiResolverINS_14InlineIteratorENS_7BidiRunEEE
__ZN7WebCore7BidiRunnwEmPNS_11RenderArenaE
__ZN7WebCore11RenderBlock13constructLineEjPNS_7BidiRunES2_bbPNS_12RenderObjectE
__ZN7WebCore10RenderText19createInlineTextBoxEv
__ZN7WebCore10RenderText13createTextBoxEv
__ZN7WebCore9InlineBoxnwEmPNS_11RenderArenaE
__ZN7WebCore11RenderBlock15createLineBoxesEPNS_12RenderObjectEb
__ZN7WebCore11RenderBlock28createAndAppendRootInlineBoxEv
__ZN7WebCore11RenderBlock19createRootInlineBoxEv
__ZN7WebCore17RenderLineBoxList13appendLineBoxEPNS_13InlineFlowBoxE
__ZN7WebCore13InlineFlowBox9addToLineEPNS_9InlineBoxE
__ZN7WebCore13InlineTextBox15isInlineTextBoxEv
__ZN7WebCore13InlineFlowBox28determineSpacingForFlowBoxesEbPNS_12RenderObjectE
__ZNK7WebCore9InlineBox15isInlineFlowBoxEv
__ZN7WebCore13InlineFlowBox14setConstructedEv
__ZN7WebCore9InlineBox14setConstructedEv
__ZN7WebCore11RenderBlock33computeHorizontalPositionsForLineEPNS_13RootInlineBoxEbPNS_7BidiRunES4_b
__ZN7WebCore13InlineFlowBox19getFlowSpacingWidthEv
__ZNK7WebCore13InlineTextBox11isLineBreakEv
__ZNK7WebCore10RenderText5widthEjjibPN3WTF7HashSetIPKNS_14SimpleFontDataENS1_7PtrHashIS5_EENS1_10HashTraitsIS5_EEEEPNS_13GlyphO
__ZNK7WebCore10RenderText5widthEjjRKNS_4FontEiPN3WTF7HashSetIPKNS_14SimpleFontDataENS4_7PtrHashIS8_EENS4_10HashTraitsIS8_EEEEPN
__ZN7WebCore10RenderText14calcPrefWidthsEiRN3WTF7HashSetIPKNS_14SimpleFontDataENS1_7PtrHashIS5_EENS1_10HashTraitsIS5_EEEERNS_13
__ZN3WTF9HashTableIPKN7WebCore14SimpleFontDataES4_NS_17IdentityExtractorIS4_EENS_7PtrHashIS4_EENS_10HashTraitsIS4_EESA_E15deall
__ZN7WebCore13InlineFlowBox22placeBoxesHorizontallyEiRb
__ZNK7WebCore11RenderStyle28getBoxShadowHorizontalExtentERiS1_
__ZNK7WebCore13InlineTextBox13glyphOverflowEv
__ZN7WebCore11RenderBlock31computeVerticalPositionsForLineEPNS_13RootInlineBoxEPNS_7BidiRunE
__ZN7WebCore13RootInlineBox20verticallyAlignBoxesEi
__ZN7WebCore13InlineFlowBox24computeLogicalBoxHeightsERiS1_S1_S1_b
__ZNK7WebCore13RootInlineBox15isRootInlineBoxEv
__ZNK7WebCore11RenderBlock10lineHeightEbb
__ZNK7WebCore11RenderBlock16baselinePositionEbb
__ZNK7WebCore12RenderObject16baselinePositionEbb
__ZNK7WebCore13InlineTextBox13fallbackFontsEv
__ZNK7WebCore10RenderText10lineHeightEbb
__ZNK7WebCore8RenderBR10lineHeightEbb
__ZNK7WebCore8RenderBR16baselinePositionEbb
__ZN7WebCore13InlineFlowBox20placeBoxesVerticallyEiiibRiS1_
__ZNK7WebCore9InlineBox6heightEv
__ZN7WebCore13InlineFlowBox23computeVerticalOverflowEiib
__ZN7WebCore10RenderText15positionLineBoxEPNS_9InlineBoxE
__ZN7WebCore13RootInlineBox36computePerCharacterLayoutInformationEv
__ZN7WebCore12BidiResolverINS_14InlineIteratorENS_7BidiRunEE10deleteRunsEv
__ZN7WebCore7BidiRun7destroyEv
__ZN7WebCore7BidiRundlEPvm
__ZN7WebCore13RootInlineBox16setLineBreakInfoEPNS_12RenderObjectEjRKNS_10BidiStatusE
__ZN7WebCore11RenderBlock7newLineENS_6EClearE
__ZN7WebCore11RenderBlock17positionNewFloatsEv
__ZN7WebCore11RenderBlock16setMaxTopMarginsEii
__ZNK7WebCore12RenderInline14isRenderInlineEv
__ZN7WebCore12RenderInline14dirtyLineBoxesEb
__ZN7WebCoreL25inlineFlowRequiresLineBoxEPNS_12RenderInlineE
__ZNK7WebCore12RenderInline10marginLeftEv
__ZNK7WebCore12RenderInline11marginRightEv
__ZN7WebCore14RenderListItem6layoutEv
__ZN7WebCore14RenderListItem20updateMarkerLocationEv
__ZN7WebCoreL23getParentOfFirstLineBoxEPNS_11RenderBlockEPNS_12RenderObjectE
__ZN7WebCore11RenderBlock32generatesLineBoxesForInlineChildEPNS_12RenderObjectEbb
__ZN7WebCore16RenderListMarker14calcPrefWidthsEv
__ZNK7WebCore16RenderListMarker7isImageEv
__ZN7WebCore14listMarkerTextENS_14EListStyleTypeEi
__ZN7WebCore16RenderListMarker13updateMarginsEv
__ZNK7WebCore16RenderListMarker8isInsideEv
__ZNK7WebCore9RenderBox12minPrefWidthEv
__ZN7WebCore9RenderBox14dirtyLineBoxesEb
__ZN7WebCore16RenderListMarker6layoutEv
__ZNK7WebCore16RenderListMarker12isListMarkerEv
__ZN7WebCoreL36shouldSkipWhitespaceAfterStartObjectEPNS_11RenderBlockEPNS_12RenderObjectERNS_13MidpointStateINS_14InlineIterato
__ZNK7WebCore12RenderObject26isInlineBlockOrInlineTableEv
__ZN7WebCoreL22getBorderPaddingMarginEPNS_20RenderBoxModelObjectEb
__ZNK7WebCore10RenderText12maxPrefWidthEv
__ZN7WebCore10RenderText14calcPrefWidthsEi
__ZNK7WebCore12RenderObject6lengthEv
__ZN7WebCore16RenderListMarker15createInlineBoxEv
__ZN7WebCore9RenderBox15createInlineBoxEv
__ZN7WebCore9InlineBox15isInlineTextBoxEv
__ZN7WebCore12RenderInline28createAndAppendInlineFlowBoxEv
__ZN7WebCore12RenderInline19createInlineFlowBoxEv
__ZNK7WebCore13InlineFlowBox15isInlineFlowBoxEv
__ZNK7WebCore13InlineFlowBox17rendererLineBoxesEv
__ZNK7WebCore9InlineBox11isLineBreakEv
__ZNK7WebCore9RenderBox17calcReplacedWidthEb
__ZNK7WebCore9RenderBox22calcReplacedWidthUsingENS_6LengthE
__ZNK7WebCore9RenderBox13intrinsicSizeEv
__ZNK7WebCore9RenderBox19calcContentBoxWidthEi
__ZNK7WebCore12RenderObject13isHTMLMarqueeEv
__ZNK7WebCore16RenderListMarker10lineHeightEbb
__ZNK7WebCore16RenderListMarker16baselinePositionEbb
__ZNK7WebCore20RenderBoxModelObject16verticalPositionEb
__ZNK7WebCore12RenderInline10lineHeightEbb
__ZNK7WebCore12RenderInline25verticalPositionFromCacheEb
__ZNK7WebCore9InlineBox15isRootInlineBoxEv
__ZNK7WebCore11RenderStyle26getBoxShadowVerticalExtentERiS1_
__ZN7WebCore9RenderBox15positionLineBoxEPNS_9InlineBoxE
__ZN7WebCore14RenderListItem18positionListMarkerEv
__ZN7WebCore9InlineBox4rootEv
__ZN7WebCore9InlineBox14adjustPositionEii
__ZN7WebCoreL11addMidpointERNS_13MidpointStateINS_14InlineIteratorEEERKS1_
__ZN3WTF6VectorIN7WebCore14InlineIteratorELm0EE4growEm
__ZN3WTF6VectorIN7WebCore14InlineIteratorELm0EE14expandCapacityEm
__ZN3WTF6VectorIN7WebCore14InlineIteratorELm0EE15reserveCapacityEm
__ZN3WTF6VectorIN7WebCore14InlineIteratorELm0EE6shrinkEm
__ZN7WebCore11RenderBlock19setMaxBottomMarginsEii
__ZNK7WebCore12RenderObject10lineHeightEbb
__ZNK7WebCore9RenderBox14lowestPositionEbb
__ZNK7WebCore9RenderBox17rightmostPositionEbb
__ZN7WebCore9FrameView26updateDeferredRepaintDelayEv
__ZN7WebCore7IntRect5uniteERKS0_
__ZN7WebCore10ScrollView23repaintContentRectangleERKNS_7IntRectEb
__ZN7WebCore10ScrollView31platformRepaintContentRectangleERKNS_7IntRectEb
__ZNK7WebCore7IntRectcv6CGRectEv
__ZN7WebCore11FrameLoader30didFirstVisuallyNonEmptyLayoutEv
__ZN7WebCore8Document13svgExtensionsEv
__ZN7WebCore9FrameView16restoreScrollbarEv
__ZN7WebCore9FrameView16scrollToFragmentERKNS_4KURLE
__ZN7WebCore14ResourceLoader12resourceDataEv
__ZN7WebCore14DocumentLoader13updateLoadingEv
__ZNK7WebCore11FrameLoader9isLoadingEv
__ZNK7WebCore14DocumentLoader21isLoadingSubresourcesEv
__ZNK7WebCore14DocumentLoader16isLoadingPlugInsEv
-[DOMDocument getElementsByTagName:]
__ZN7WebCore4Node20getElementsByTagNameERKNS_6StringE
__ZN7WebCore4Node22getElementsByTagNameNSERKNS_12AtomicStringERKNS_6StringE
__ZN7WebCore4Node14ensureRareDataEv
__ZN7WebCore4Node14createRareDataEv
__ZN3WTF7HashMapIPKN7WebCore4NodeEPNS1_12NodeRareDataENS_7PtrHashIS4_EENS_10HashTraitsIS4_EENS9_IS6_EEE3setERKS4_RKS6_
__ZN3WTF9HashTableIPKN7WebCore4NodeESt4pairIS4_PNS1_12NodeRareDataEENS_18PairFirstExtractorIS8_EENS_7PtrHashIS4_EENS_14PairHash
__ZN7WebCore15DynamicNodeList6Caches6createEv
__ZN7WebCore15DynamicNodeList6CachesC1Ev
__ZN7WebCore15DynamicNodeList6CachesC2Ev
__ZN3WTF7HashMapINS_6RefPtrIN7WebCore13QualifiedName17QualifiedNameImplEEEPNS2_11TagNodeListENS_7PtrHashIS5_EENS_10HashTraitsIS
__ZN3WTF9HashTableINS_6RefPtrIN7WebCore13QualifiedName17QualifiedNameImplEEESt4pairIS5_PNS2_11TagNodeListEENS_18PairFirstExtrac
__ZN7WebCore11TagNodeListC1EN3WTF10PassRefPtrINS_4NodeEEERKNS_12AtomicStringES7_
__ZN7WebCore11TagNodeListC2EN3WTF10PassRefPtrINS_4NodeEEERKNS_12AtomicStringES7_
__ZN7WebCore15DynamicNodeListC2EN3WTF10PassRefPtrINS_4NodeEEE
__ZN7WebCore4Node23registerDynamicNodeListEPNS_15DynamicNodeListE
__ZNK7WebCore4Node8rareDataEv
__ZNK3WTF7HashMapIPKN7WebCore4NodeEPNS1_12NodeRareDataENS_7PtrHashIS4_EENS_10HashTraitsIS4_EENS9_IS6_EEE3getERKS4_
__ZN3WTF7HashSetIPN7WebCore15DynamicNodeListENS_7PtrHashIS3_EENS_10HashTraitsIS3_EEE3addERKS3_
__ZN3WTF9HashTableIPN7WebCore15DynamicNodeListES3_NS_17IdentityExtractorIS3_EENS_7PtrHashIS3_EENS_10HashTraitsIS3_EES9_E6expand
__ZN3WTF9HashTableIPN7WebCore15DynamicNodeListES3_NS_17IdentityExtractorIS3_EENS_7PtrHashIS3_EENS_10HashTraitsIS3_EES9_E6rehash
__ZN3WTF9HashTableIPN7WebCore15DynamicNodeListES3_NS_17IdentityExtractorIS3_EENS_7PtrHashIS3_EENS_10HashTraitsIS3_EES9_E13alloc
__ZN3WTF9HashTableIPN7WebCore15DynamicNodeListES3_NS_17IdentityExtractorIS3_EENS_7PtrHashIS3_EENS_10HashTraitsIS3_EES9_E15deall
__Z3kitPN7WebCore8NodeListE
-[DOMNodeList length]
__ZNK7WebCore15DynamicNodeList6lengthEv
__ZNK7WebCore11TagNodeList11nodeMatchesEPNS_7ElementE
__ZNK7WebCore11HistoryItem20getTransientPropertyERKNS_6StringE
__ZN7WebCore15ProgressTracker17progressCompletedEPNS_5FrameE
__ZN7WebCore15ProgressTracker21finalProgressCompleteEv
__ZN7WebCore14ResourceLoader16didFinishLoadingEv
__ZN7WebCore14ResourceLoader23didFinishLoadingOnePartEv
__ZN7WebCore20ResourceLoadNotifier13didFinishLoadEPNS_14ResourceLoaderE
__ZN7WebCore15ProgressTracker16completeProgressEm
__ZN7WebCore20ResourceLoadNotifier24dispatchDidFinishLoadingEPNS_14DocumentLoaderEm
__ZN7WebCore19InspectorController16didFinishLoadingEm
__ZN7WebCore14ResourceLoader16releaseResourcesEv
__ZN7WebCore14ResourceHandle9setClientEPNS_20ResourceHandleClientE
__ZN7WebCore14ResourceHandleD0Ev
__ZN7WebCore14ResourceHandle15releaseDelegateEv
-[WebCoreResourceHandleAsDelegate detachHandle]
__ZN7WebCore23AuthenticationChallenge23setAuthenticationClientEPNS_20AuthenticationClientE
__ZN7WebCore22ResourceHandleInternalD1Ev
__ZN7WebCore22ResourceHandleInternalD2Ev
__ZN7WebCore23AuthenticationChallengeD2Ev
__ZN7WebCore19ResourceRequestBaseD2Ev
__ZN7WebCore20ApplicationCacheHost27finishedLoadingMainResourceEv
__ZN7WebCore18MainResourceLoaderD0Ev
__ZN7WebCore16RunLoopTimerBaseD2Ev
__ZN7WebCore16RunLoopTimerBase4stopEv
__ZN7WebCore14ResourceLoaderD2Ev
-[DOMNodeList dealloc]
__ZN7WebCore11TagNodeListD0Ev
__ZN7WebCore4Node23removeCachedTagNodeListEPNS_11TagNodeListERKNS_13QualifiedNameE
__ZN7WebCore15DynamicNodeListD2Ev
__ZN7WebCore4Node25unregisterDynamicNodeListEPNS_15DynamicNodeListE
__ZN3WTF9HashTableIPN7WebCore15DynamicNodeListES3_NS_17IdentityExtractorIS3_EENS_7PtrHashIS3_EENS_10HashTraitsIS3_EES9_E4findIS
__ZN3WTF9HashTableIPN7WebCore15DynamicNodeListES3_NS_17IdentityExtractorIS3_EENS_7PtrHashIS3_EENS_10HashTraitsIS3_EES9_E47remov
__ZN3WTF9HashTableIPN7WebCore15DynamicNodeListES3_NS_17IdentityExtractorIS3_EENS_7PtrHashIS3_EENS_10HashTraitsIS3_EES9_E6remove
__ZNK7WebCore17NodeListsNodeData7isEmptyEv
__ZNK7WebCore12RenderObject18maximalOutlineSizeENS_10PaintPhaseE
__ZNK7WebCore7IntRect10intersectsERKS0_
__ZN7WebCore14RenderListItem5paintERNS_12RenderObject9PaintInfoEii
__ZNK7WebCore13RootInlineBox12selectionTopEv
__ZN7WebCore13RootInlineBox5paintERNS_12RenderObject9PaintInfoEii
__ZN7WebCore13InlineFlowBox5paintERNS_12RenderObject9PaintInfoEii
__ZN7WebCore13InlineFlowBox19paintBoxDecorationsERNS_12RenderObject9PaintInfoEii
__ZN7WebCore13InlineFlowBox20paintTextDecorationsERNS_12RenderObject9PaintInfoEiib
__ZN7WebCore13InlineTextBox5paintERNS_12RenderObject9PaintInfoEii
__ZN7WebCore13InlineTextBox14selectionStateEv
__ZN7WebCore13InlineTextBox20paintDocumentMarkersEPNS_15GraphicsContextEiiPNS_11RenderStyleERKNS_4FontEb
__ZN7WebCore8Document14markersForNodeEPNS_4NodeE
__ZNK3WTF7HashMapINS_6RefPtrIN7WebCore4NodeEEEPSt4pairINS_6VectorINS2_14DocumentMarkerELm0EEENS6_INS2_7IntRectELm0EEEENS_7PtrHa
__ZNK7WebCore11RenderStyle21visitedDependentColorEi
__ZN7WebCoreL22colorIncludingFallbackEPKNS_11RenderStyleEiNS_12EBorderStyleE
__ZNK7WebCore13InlineTextBox7textPosEv
__ZN7WebCore21updateGraphicsContextEPNS_15GraphicsContextERKNS_5ColorES4_fNS_10ColorSpaceE
__ZN7WebCore15GraphicsContext15textDrawingModeEv
__ZN7WebCoreL20paintTextWithShadowsEPNS_15GraphicsContextERKNS_4FontERKNS_7TextRunEiiiRKNS_8IntPointEiiiiPKNS_10ShadowDataEb
__ZN7WebCore15GraphicsContext8drawTextERKNS_4FontERKNS_7TextRunERKNS_8IntPointEii
__ZNK7WebCore4Font8drawTextEPNS_15GraphicsContextERKNS_7TextRunERKNS_10FloatPointEii
__ZNK7WebCore4Font14drawSimpleTextEPNS_15GraphicsContextERKNS_7TextRunERKNS_10FloatPointEii
__ZNK7WebCore4Font15drawGlyphBufferEPNS_15GraphicsContextERKNS_11GlyphBufferERKNS_7TextRunERKNS_10FloatPointE
__ZNK7WebCore4Font10drawGlyphsEPNS_15GraphicsContextEPKNS_14SimpleFontDataERKNS_11GlyphBufferEiiRKNS_10FloatPointE
__ZN7WebCore4Font18shouldUseSmoothingEv
__ZNK7WebCore15GraphicsContext9getShadowERNS_7IntSizeERiRNS_5ColorE
__ZN7WebCoreL22showGlyphsWithAdvancesERKNS_16FontPlatformDataEP9CGContextPKtPK6CGSizem
__ZN3WTF6VectorI6CGSizeLm2048EE6shrinkEm
__ZN3WTF6VectorIPKN7WebCore14SimpleFontDataELm2048EE6shrinkEm
__ZNK7WebCore13RootInlineBox16paintEllipsisBoxERNS_12RenderObject9PaintInfoEii
__ZN3WTF11ListHashSetIPN7WebCore12RenderInlineENS_7PtrHashIS3_EEE14deleteAllNodesEv
__ZN3WTF9HashTableIPNS_15ListHashSetNodeIPN7WebCore12RenderInlineEEES6_NS_17IdentityExtractorIS6_EENS_28ListHashSetNodeHashFunc
__ZN7WebCore9InlineBox5paintERNS_12RenderObject9PaintInfoEii
__ZN7WebCore16RenderListMarker5paintERNS_12RenderObject9PaintInfoEii
__ZN7WebCore16RenderListMarker21getRelativeMarkerRectEv
__ZN7WebCore15GraphicsContext14setStrokeColorERKNS_5ColorENS_10ColorSpaceE
__ZN7WebCore15GraphicsContext14setStrokeStyleERKNS_11StrokeStyleE
__ZN7WebCore15GraphicsContext18setStrokeThicknessEf
__ZN7WebCore15GraphicsContext26setPlatformStrokeThicknessEf
__ZN7WebCore15GraphicsContext12setFillColorERKNS_5ColorENS_10ColorSpaceE
__ZN7WebCore15GraphicsContext11drawEllipseERKNS_7IntRectE
__ZN7WebCore15GraphicsContext8drawPathEv
__ZN7WebCore15GraphicsContext8drawRectERKNS_7IntRectE
__ZNK7WebCore15GraphicsContext11strokeStyleEv
__ZNK7WebCore13RootInlineBox11ellipsisBoxEv
__ZN7WebCore15GraphicsContext15drawLineForTextERKNS_8IntPointEib
__ZNK7WebCore15GraphicsContext15strokeThicknessEv
__ZN7WebCore15GraphicsContext19roundToDevicePixelsERKNS_9FloatRectE
__ZNK7WebCore15GraphicsContext15shouldAntialiasEv
__ZN7WebCore12IconDatabase38notifyPendingLoadDecisionsOnMainThreadEPv
__ZN7WebCore12IconDatabase26notifyPendingLoadDecisionsEv
__ZN7WebCore12EventHandler10mouseMovedEP7NSEvent
__ZN7WebCoreL18currentNSEventSlotEv
__ZNK7WebCore12EventHandler25currentPlatformMouseEventEv
__ZNK7WebCore6Chrome18platformPageClientEv
__ZN7WebCore12EventHandler14currentNSEventEv
__ZN7WebCore18PlatformMouseEventC1EP7NSEventP6NSView
__ZN7WebCore18PlatformMouseEventC2EP7NSEventP6NSView
__ZN7WebCore13pointForEventEP7NSEventP6NSView
__ZN7WebCore8IntPointC1ERK7CGPoint
__ZN7WebCore8IntPointC2ERK7CGPoint
__ZN7WebCore19globalPointForEventEP7NSEvent
__ZN7WebCore11globalPointERK7CGPointP8NSWindow
__ZN7WebCore15screenForWindowEP8NSWindow
__ZN7WebCore15flipScreenPointERK7CGPointP8NSScreen
__ZN7WebCore12EventHandler10mouseMovedERKNS_18PlatformMouseEventE
__ZN7WebCore13HitTestResultC1ERKNS_8IntPointE
__ZN7WebCore13HitTestResultC2ERKNS_8IntPointE
__ZN7WebCore12EventHandler20handleMouseMoveEventERKNS_18PlatformMouseEventEPNS_13HitTestResultE
__ZN7WebCore12EventHandler24cancelFakeMouseMoveEventEv
__ZN7WebCore12EventHandler17prepareMouseEventERKNS_14HitTestRequestERKNS_18PlatformMouseEventE
__ZN7WebCoreL27documentPointForWindowPointEPNS_5FrameERKNS_8IntPointE
__ZNK7WebCore10ScrollView16windowToContentsERKNS_8IntPointE
__ZNK7WebCore6Widget27convertFromContainingWindowERKNS_8IntPointE
__ZN7WebCore6Widget33convertFromContainingWindowToRootEPKS0_RKNS_8IntPointE
__ZNK7WebCore8IntPointcv7CGPointEv
__ZN7WebCore8Document17prepareMouseEventERKNS_14HitTestRequestERKNS_8IntPointERKNS_18PlatformMouseEventE
__ZN7WebCore11RenderLayer7hitTestERKNS_14HitTestRequestERNS_13HitTestResultE
__ZN7WebCore8Document12updateLayoutEv
__ZN7WebCore11RenderLayer12hitTestLayerEPS0_S1_RKNS_14HitTestRequestERNS_13HitTestResultERKNS_7IntRectERKNS_8IntPointEbPKNS_24H
__ZN7WebCore11RenderLayer35update3DTransformedDescendantStatusEv
__ZNK7WebCore11RenderLayer15hitTestContentsERKNS_14HitTestRequestERNS_13HitTestResultERKNS_7IntRectERKNS_8IntPointENS_13HitTest
__ZN7WebCore12RenderObject7hitTestERKNS_14HitTestRequestERNS_13HitTestResultERKNS_8IntPointEiiNS_13HitTestFilterE
__ZN7WebCore11RenderBlock11nodeAtPointERKNS_14HitTestRequestERNS_13HitTestResultEiiiiNS_13HitTestActionE
__ZN7WebCore11RenderBlock15hitTestContentsERKNS_14HitTestRequestERNS_13HitTestResultEiiiiNS_13HitTestActionE
__ZNK7WebCore17RenderLineBoxList7hitTestEPNS_20RenderBoxModelObjectERKNS_14HitTestRequestERNS_13HitTestResultEiiiiNS_13HitTestA
__ZN7WebCore13RootInlineBox11nodeAtPointERKNS_14HitTestRequestERNS_13HitTestResultEiiii
__ZN7WebCore13InlineFlowBox11nodeAtPointERKNS_14HitTestRequestERNS_13HitTestResultEiiii
__ZN7WebCore11RenderBlock24isPointInOverflowControlERNS_13HitTestResultEiiii
__ZN7WebCore11RenderBlock19updateHitTestResultERNS_13HitTestResultERKNS_8IntPointE
__ZN7WebCore13HitTestResult12setInnerNodeEPNS_4NodeE
__ZN7WebCore13HitTestResult21setInnerNonSharedNodeEPNS_4NodeE
__ZN7WebCoreL14isHitCandidateEPKNS_11RenderLayerEbPdPKNS_24HitTestingTransformStateE
__ZN7WebCore13HitTestResultaSERKS0_
__ZN7WebCore13HitTestResultD1Ev
__ZN7WebCore13HitTestResultD2Ev
__ZN7WebCore4Node30enclosingLinkEventParentOrSelfEv
__ZN7WebCore13HitTestResult13setURLElementEPNS_7ElementE
__ZN7WebCore11RenderLayer22updateHoverActiveStateERKNS_14HitTestRequestERNS_13HitTestResultE
__ZN7WebCore8Document12setHoverNodeEN3WTF10PassRefPtrINS_4NodeEEE
__ZNK7WebCore11RenderBlock13hoverAncestorEv
__ZN7WebCore13ContainerNode9setActiveEbb
__ZN7WebCore13ContainerNode10setHoveredEb
__ZN3WTF6VectorINS_6RefPtrIN7WebCore4NodeEEELm32EE6shrinkEm
__ZN7WebCore28MouseEventWithHitTestResultsC1ERKNS_18PlatformMouseEventERKNS_13HitTestResultE
__ZN7WebCore28MouseEventWithHitTestResultsC2ERKNS_18PlatformMouseEventERKNS_13HitTestResultE
__ZN7WebCore13HitTestResultC1ERKS0_
__ZN7WebCore13HitTestResultC2ERKS0_
__ZN7WebCore10ScrollView16scrollbarAtPointERKNS_8IntPointE
__ZNK7WebCore28MouseEventWithHitTestResults9scrollbarEv
__ZN7WebCore12EventHandler29updateLastScrollbarUnderMouseEPNS_9ScrollbarEb
__ZN7WebCoreL24subframeForHitTestResultERKNS_28MouseEventWithHitTestResultsE
__ZNK7WebCore28MouseEventWithHitTestResults10targetNodeEv
__ZN7WebCore12EventHandler12selectCursorERKNS_28MouseEventWithHitTestResultsEPNS_9ScrollbarE
__ZNK7WebCore28MouseEventWithHitTestResults10isOverLinkEv
__ZNK7WebCore11RenderLayer22isPointInResizeControlERKNS_8IntPointE
__ZN7WebCore13pointerCursorEv
__ZN7WebCore6CursorC1EP8NSCursor
__ZN7WebCore6CursorC2EP8NSCursor
__ZN7WebCore6CursorC1ERKS0_
__ZN7WebCore6CursorC2ERKS0_
__ZN7WebCore6Widget9setCursorERKNS_6CursorE
__ZN7WebCore6CursorD1Ev
__ZN7WebCore6CursorD2Ev
__ZN7WebCore12EventHandler18dispatchMouseEventERKNS_12AtomicStringEPNS_4NodeEbiRKNS_18PlatformMouseEventEb
__ZN7WebCore9FrameView25resetDeferredRepaintDelayEv
__ZN7WebCore12EventHandler26updateMouseEventTargetNodeEPNS_4NodeERKNS_18PlatformMouseEventEb
__ZN7WebCore4Node18dispatchMouseEventERKNS_18PlatformMouseEventERKNS_12AtomicStringEiPS0_
__ZN7WebCore4Node18dispatchMouseEventERKNS_12AtomicStringEiiiiiibbbbbPS0_N3WTF10PassRefPtrINS_5EventEEE
__ZNK7WebCore4Node8disabledEv
__ZN7WebCore10MouseEventC1ERKNS_12AtomicStringEbbN3WTF10PassRefPtrINS_9DOMWindowEEEiiiiibbbbtNS5_INS_11EventTargetEEENS5_INS_9C
__ZN7WebCore10MouseEventC2ERKNS_12AtomicStringEbbN3WTF10PassRefPtrINS_9DOMWindowEEEiiiiibbbbtNS5_INS_11EventTargetEEENS5_INS_9C
__ZN7WebCore17MouseRelatedEventC2ERKNS_12AtomicStringEbbN3WTF10PassRefPtrINS_9DOMWindowEEEiiiiibbbbb
__ZN7WebCore7UIEventC2ERKNS_12AtomicStringEbbN3WTF10PassRefPtrINS_9DOMWindowEEEi
__ZN7WebCoreL9contentsXEPNS_9DOMWindowE
__ZN7WebCoreL9contentsYEPNS_9DOMWindowE
__ZN7WebCore17MouseRelatedEvent15initCoordinatesEv
__ZN7WebCore17MouseRelatedEvent19computePageLocationEv
__ZNK7WebCore17MouseRelatedEvent5pageYEv
__ZNK7WebCore17MouseRelatedEvent5pageXEv
__ZN7WebCore5Event18setUnderlyingEventEN3WTF10PassRefPtrIS0_EE
__ZN7WebCore17MouseRelatedEvent14receivedTargetEv
__ZN7WebCore4Node6toNodeEv
__ZNK7WebCore12RenderObject15absoluteToLocalENS_10FloatPointEbb
__ZNK7WebCore9RenderBox23mapAbsoluteToLocalPointEbbRNS_14TransformStateE
__ZNK7WebCore10RenderView23mapAbsoluteToLocalPointEbbRNS_14TransformStateE
__ZNK7WebCore9RenderBox19offsetFromContainerEPNS_12RenderObjectERKNS_8IntPointE
__ZNK7WebCore11RenderBlock16adjustForColumnsERNS_7IntSizeERKNS_8IntPointE
__ZNK7WebCore12RenderObject31shouldUseTransformFromContainerEPKS0_
__ZN7WebCore14TransformState4moveEiiNS0_21TransformAccumulationE
__ZN7WebCore14TransformState7flattenEv
__ZN3WTF6VectorINS_6RefPtrIN7WebCore13ContainerNodeEEELm0EE14expandCapacityEm
__ZN3WTF6VectorINS_6RefPtrIN7WebCore13ContainerNodeEEELm0EE15reserveCapacityEm
__ZN3WTF6VectorINS_6RefPtrIN7WebCore13ContainerNodeEEELm0EE6shrinkEm
__ZN7WebCore10MouseEventD0Ev
__ZN7WebCore7UIEventD2Ev
__ZN7WebCore12EventHandler23handleMouseDraggedEventERKNS_28MouseEventWithHitTestResultsE
__ZN7WebCore12EventHandler10handleDragERKNS_28MouseEventWithHitTestResultsE
__ZN7WebCore13HitTestResult22setToNonShadowAncestorEv
__ZN7WebCore6Chrome23mouseDidMoveOverElementERKNS_13HitTestResultEj
__ZNK7WebCore13HitTestResult15absoluteLinkURLEv
__ZN7WebCore19InspectorController23mouseDidMoveOverElementERKNS_13HitTestResultEj
__ZN7WebCore6Chrome10setToolTipERKNS_13HitTestResultE
__ZNK7WebCore13HitTestResult15spellingToolTipERNS_13TextDirectionE
__ZN7WebCore8Document21markerContainingPointERKNS_8IntPointENS_14DocumentMarker10MarkerTypeE
__ZNK7WebCore13HitTestResult5titleERNS_13TextDirectionE
__ZN7WebCore12ThreadTimers16sharedTimerFiredEv
__ZN7WebCore12ThreadTimers24sharedTimerFiredInternalEv
__ZN7WebCore9TimerBase13heapDeleteMinEv
__ZN7WebCore5TimerINS_6LoaderEE5firedEv
__ZN7WebCore6Loader17requestTimerFiredEPNS_5TimerIS0_EE
__ZN7WebCore6Loader20servePendingRequestsENS0_8PriorityE
__ZN7WebCore6Loader4Host20servePendingRequestsENS0_8PriorityE
__ZN7WebCore6Loader4Host20servePendingRequestsERN3WTF5DequeIPNS_7RequestEEERb
-[DOMDocument forms]
__ZN7WebCore8Document5formsEv
__ZN7WebCore14HTMLCollection6createEN3WTF10PassRefPtrINS_4NodeEEENS_14CollectionTypeE
__ZN7WebCore14HTMLCollectionC1EN3WTF10PassRefPtrINS_4NodeEEENS_14CollectionTypeE
__ZN7WebCore14HTMLCollectionC2EN3WTF10PassRefPtrINS_4NodeEEENS_14CollectionTypeE
__Z3kitPN7WebCore14HTMLCollectionE
__Z8kitClassPN7WebCore14HTMLCollectionE
-[DOMHTMLCollection length]
__ZNK7WebCore14HTMLCollection6lengthEv
__ZNK7WebCore14HTMLCollection19resetCollectionInfoEv
__ZNK7WebCore14HTMLCollection10calcLengthEv
__ZNK7WebCore14HTMLCollection9itemAfterEPNS_7ElementE
__ZN7WebCoreL17nextNodeOrSiblingEPNS_4NodeES1_b
-[DOMHTMLCollection dealloc]
__ZN7WebCore14HTMLCollectionD0Ev
__ZN7WebCore16ScriptController11createWorldEv
__ZN7WebCore15DOMWrapperWorld15unregisterWorldEv
__ZN3WTF9HashTableIPN7WebCore15DOMWrapperWorldES3_NS_17IdentityExtractorIS3_EENS_7PtrHashIS3_EENS_10HashTraitsIS3_EES9_E4findIS
__ZN3WTF9HashTableIPN7WebCore15DOMWrapperWorldES3_NS_17IdentityExtractorIS3_EENS_7PtrHashIS3_EENS_10HashTraitsIS3_EES9_E47remov
__ZN3WTF9HashTableIPN7WebCore15DOMWrapperWorldES3_NS_17IdentityExtractorIS3_EENS_7PtrHashIS3_EENS_10HashTraitsIS3_EES9_E6remove
__ZN7WebCore15DOMWrapperWorldD1Ev
__ZN7WebCore15DOMWrapperWorldD2Ev
__ZN3WTF9HashTableIPN7WebCore16ScriptControllerES3_NS_17IdentityExtractorIS3_EENS_7PtrHashIS3_EENS_10HashTraitsIS3_EES9_E15deal
__ZN3WTF9HashTableIPN7WebCore8DocumentES3_NS_17IdentityExtractorIS3_EENS_7PtrHashIS3_EENS_10HashTraitsIS3_EES9_E15deallocateTab
__ZN3WTF9HashTableIPN7WebCore10StringImplESt4pairIS3_PN3JSC8JSStringEENS_18PairFirstExtractorIS8_EENS1_10StringHashENS_14PairHa
__ZN3WTF9HashTableIPvSt4pairIS1_PN7WebCore9DOMObjectEENS_18PairFirstExtractorIS6_EENS_7PtrHashIS1_EENS_14PairHashTraitsINS_10Ha
__ZNK7WebCore11HistoryItem17originalURLStringEv
__ZNK7WebCore9FrameView20isSoftwareRenderableEv
__ZNK7WebCore21RenderLayerCompositor12has3DContentEv
__ZNK7WebCore21RenderLayerCompositor15rootRenderLayerEv
__ZNK7WebCore21RenderLayerCompositor17layerHas3DContentEPKNS_11RenderLayerE
__ZNK7WebCore9FrameView13paintBehaviorEv
__ZN7WebCore9FrameView16setPaintBehaviorEj
__ZNK7WebCore12HTMLDocument10isFrameSetEv
-[DOMDocument documentElement]
__Z3kitPN7WebCore7ElementE
__ZN7WebCoreL12elementClassERKNS_13QualifiedNameEP10objc_class
__ZN7WebCoreL15addElementClassERKNS_13QualifiedNameEP10objc_class
__ZN3WTF7HashMapIPKN7WebCore13QualifiedName17QualifiedNameImplEP10objc_classNS_7PtrHashIS5_EENS_10HashTraitsIS5_EENSA_IS7_EEE3s
__ZN3WTF9HashTableIPKN7WebCore13QualifiedName17QualifiedNameImplESt4pairIS5_P10objc_classENS_18PairFirstExtractorIS9_EENS_7PtrH
__ZN7WebCoreL18lookupElementClassERKNS_13QualifiedNameE
__ZNK3WTF7HashMapIPKN7WebCore13QualifiedName17QualifiedNameImplEP10objc_classNS_7PtrHashIS5_EENS_10HashTraitsIS5_EENSA_IS7_EEE3
-[DOMDocument createRange]
__ZN7WebCore8Document11createRangeEv
__ZN7WebCore5Range6createEN3WTF10PassRefPtrINS_8DocumentEEE
__ZN7WebCore8Document11attachRangeEPNS_5RangeE
__ZN3WTF7HashSetIPN7WebCore5RangeENS_7PtrHashIS3_EENS_10HashTraitsIS3_EEE3addERKS3_
__ZN3WTF9HashTableIPN7WebCore5RangeES3_NS_17IdentityExtractorIS3_EENS_7PtrHashIS3_EENS_10HashTraitsIS3_EES9_E6expandEv
__ZN3WTF9HashTableIPN7WebCore5RangeES3_NS_17IdentityExtractorIS3_EENS_7PtrHashIS3_EENS_10HashTraitsIS3_EES9_E6rehashEi
__ZN3WTF9HashTableIPN7WebCore5RangeES3_NS_17IdentityExtractorIS3_EENS_7PtrHashIS3_EENS_10HashTraitsIS3_EES9_E13allocateTableEi
__Z3kitPN7WebCore5RangeE
-[DOMRange selectNode:]
__Z4coreP7DOMNode
__ZN7WebCore5Range10selectNodeEPNS_4NodeERi
__ZN7WebCore5Range14setStartBeforeEPNS_4NodeERi
__ZNK7WebCore5Range11checkNodeBAEPNS_4NodeERi
__ZNK7WebCore4Node9nodeIndexEv
__ZN7WebCore5Range8setStartEN3WTF10PassRefPtrINS_4NodeEEEiRi
__ZNK7WebCore5Range16checkNodeWOffsetEPNS_4NodeEiRi
__ZNK7WebCore13ContainerNode9childNodeEj
__ZN7WebCore5Range21compareBoundaryPointsERKNS_18RangeBoundaryPointES3_
__ZN7WebCore5Range21compareBoundaryPointsEPNS_4NodeEiS2_i
__ZN7WebCore5Range8collapseEbRi
__ZN7WebCore5Range11setEndAfterEPNS_4NodeERi
__ZN7WebCore5Range6setEndEN3WTF10PassRefPtrINS_4NodeEEEiRi
__Z4coreP8DOMRange
__ZN7WebCore32plainTextToMallocAllocatedBufferEPKNS_5RangeERjb
__ZN7WebCore12TextIteratorC1EPKNS_5RangeENS_20TextIteratorBehaviorE
__ZN7WebCore12TextIteratorC2EPKNS_5RangeENS_20TextIteratorBehaviorE
__ZN7WebCore8BitStackC1Ev
__ZN7WebCore8BitStackC2Ev
__ZNK7WebCore5Range9firstNodeEv
__ZNK7WebCore4Node18offsetInCharactersEv
__ZN7WebCoreL22setUpFullyClippedStackERNS_8BitStackEPNS_4NodeE
__ZN7WebCore4Node16shadowParentNodeEv
__ZN7WebCoreL21pushFullyClippedStateERNS_8BitStackEPNS_4NodeE
__ZNK7WebCore8BitStack3topEv
__ZN7WebCore8BitStack4pushEb
__ZN3WTF6VectorIjLm1EE4growEm
__ZN3WTF6VectorIPN7WebCore4NodeELm100EE6shrinkEm
__ZN7WebCore12TextIterator7advanceEv
__ZNK7WebCore12RenderObject7isImageEv
__ZNK7WebCore12RenderObject8isWidgetEv
__ZN7WebCore12TextIterator17handleNonTextNodeEv
__ZN7WebCoreL24shouldEmitNewlineForNodeEPNS_4NodeE
__ZN7WebCore12TextIterator23representNodeOffsetZeroEv
__ZN7WebCoreL23shouldEmitTabBeforeNodeEPNS_4NodeE
__ZN7WebCore11isTableCellEPKNS_4NodeE
__ZN7WebCoreL27shouldEmitNewlineBeforeNodeEPNS_4NodeE
__ZN7WebCoreL36shouldEmitNewlinesBeforeAndAfterNodeEPNS_4NodeE
__ZN7WebCore12TextIterator29shouldRepresentNodeOffsetZeroEv
__ZNK7WebCore4Node14isDescendantOfEPKS0_
__ZN7WebCore15VisiblePositionC1EPNS_4NodeEiNS_9EAffinityE
__ZN7WebCore15VisiblePositionC2EPNS_4NodeEiNS_9EAffinityE
__ZN7WebCore8PositionC1EN3WTF10PassRefPtrINS_4NodeEEEi
__ZN7WebCore8PositionC2EN3WTF10PassRefPtrINS_4NodeEEEi
__ZN7WebCore8Position34anchorTypeForLegacyEditingPositionEPNS_4NodeEi
__ZN7WebCore21editingIgnoresContentEPKNS_4NodeE
__ZN7WebCore25canHaveChildrenForEditingEPKNS_4NodeE
__ZN7WebCore15VisiblePosition4initERKNS_8PositionENS_9EAffinityE
__ZN7WebCore15VisiblePosition17canonicalPositionERKNS_8PositionE
__ZN7WebCore8Document36updateLayoutIgnorePendingStylesheetsEv
__ZNK7WebCore8Position8upstreamENS0_27EditingBoundaryCrossingRuleE
__ZN7WebCoreL23enclosingVisualBoundaryEPNS_4NodeE
__ZN7WebCoreL38endsOfNodeAreVisuallyDistinctPositionsEPNS_4NodeE
__ZNK7WebCore4Node17isContentEditableEv
__ZNK7WebCore16PositionIterator7atStartEv
__ZN7WebCoreL10isStreamerERKNS_16PositionIteratorE
__ZN7WebCore12isAtomicNodeEPKNS_4NodeE
__ZNK7WebCore16PositionIterator13atStartOfNodeEv
__ZN7WebCore14isTableElementEPNS_4NodeE
__ZN7WebCore16PositionIterator9decrementEv
__ZN7WebCore20lastOffsetForEditingEPKNS_4NodeE
__ZNK7WebCore16PositionIteratorcvNS_8PositionEEv
__ZN7WebCore8PositionC1EN3WTF10PassRefPtrINS_4NodeEEEiNS0_10AnchorTypeE
__ZN7WebCore8PositionC2EN3WTF10PassRefPtrINS_4NodeEEEiNS0_10AnchorTypeE
__ZNK7WebCore8Position11isCandidateEv
__ZN7WebCore8Position44hasRenderedNonAnonymousDescendantsWithHeightEPNS_12RenderObjectE
__ZNK7WebCore12RenderObject27nextInPreOrderAfterChildrenEv
__ZNK7WebCore8Position10downstreamENS0_27EditingBoundaryCrossingRuleE
__ZNK7WebCore16PositionIterator5atEndEv
__ZN7WebCore16PositionIterator9incrementEv
__ZN7WebCore13nextCandidateERKNS_8PositionE
__ZNK7WebCore16PositionIterator11isCandidateEv
__ZNK7WebCore13CharacterData18offsetInCharactersEv
__ZNK7WebCore13CharacterData18maxCharacterOffsetEv
__ZN7WebCore8Position19uncheckedNextOffsetEPKNS_4NodeEi
__ZNK7WebCore10RenderText16linesBoundingBoxEv
__ZNK7WebCore8Position14inRenderedTextEv
__ZNK7WebCore13InlineTextBox19containsCaretOffsetEi
__ZN7WebCore8Position20nodeIsUserSelectNoneEPNS_4NodeE
__ZN7WebCoreL21canonicalizeCandidateERKNS_8PositionE
__ZN7WebCore17previousCandidateERKNS_8PositionE
__ZN7WebCore23editableRootForPositionERKNS_8PositionE
__ZNK7WebCore4Node19rootEditableElementEv
__ZNK7WebCore16PositionIterator11atEndOfNodeEv
__ZN7WebCore10inSameLineERKNS_15VisiblePositionES2_
__ZN7WebCore11startOfLineERKNS_15VisiblePositionE
__ZN7WebCoreL20startPositionForLineERKNS_15VisiblePositionE
__ZN7WebCoreL14rootBoxForLineERKNS_15VisiblePositionE
__ZNK7WebCore8Position21getInlineBoxAndOffsetENS_9EAffinityERPNS_9InlineBoxERi
__ZNK7WebCore8Position16primaryDirectionEv
__ZNK7WebCore12RenderObject11isBlockFlowEv
__ZNK7WebCore8Position21getInlineBoxAndOffsetENS_9EAffinityENS_13TextDirectionERPNS_9InlineBoxERi
__ZNK7WebCore13InlineTextBox14caretMinOffsetEv
__ZNK7WebCore13InlineTextBox14caretMaxOffsetEv
__ZNK7WebCore9InlineBox13prevLeafChildEv
__ZNK7WebCore13InlineFlowBox14firstLeafChildEv
__ZNK7WebCore9InlineBox6isLeafEv
__ZN7WebCoreL36positionAvoidingFirstPositionInTableERKNS_15VisiblePositionE
__ZNK7WebCore15VisiblePosition8previousEb
__ZN7WebCore33previousVisuallyDistinctCandidateERKNS_8PositionE
__ZNK7WebCore8Position13atStartOfTreeEv
__ZNK7WebCore8Position8previousENS_16PositionMoveTypeE
__ZN7WebCore8Position23uncheckedPreviousOffsetEPKNS_4NodeEi
__ZNK7WebCore13ContainerNode14childNodeCountEv
__ZN7WebCore25isLastPositionBeforeTableERKNS_15VisiblePositionE
__ZNK7WebCore15VisiblePosition30honorEditableBoundaryAtOrAfterERKS0_
__ZN7WebCore19highestEditableRootERKNS_8PositionE
__ZN7WebCore8BitStack3popEv
__ZN7WebCore12TextIterator33shouldEmitSpaceBeforeAndAfterNodeEPNS_4NodeE
__ZNK7WebCore10RenderText14caretMinOffsetEv
__ZN7WebCore12TextIterator14handleTextNodeEv
__ZN7WebCore12TextIterator13handleTextBoxEv
__ZN7WebCore12TextIterator8emitTextEPNS_4NodeEii
__ZN7WebCore12TextIterator13emitCharacterEtPNS_4NodeES2_ii
__ZN7WebCore12TextIterator8exitNodeEv
__ZN7WebCoreL26shouldEmitNewlineAfterNodeEPNS_4NodeE
__ZNK7WebCore4Node19traverseNextSiblingEPKS0_
__ZN3WTF6VectorIjLm1EE6shrinkEm
__ZN3WTF6VectorItLm0EE6shrinkEm
-[DOMRange dealloc]
__ZN7WebCore5RangeD1Ev
__ZN7WebCore5RangeD2Ev
__ZN7WebCore8Document11detachRangeEPNS_5RangeE
__ZN3WTF9HashTableIPN7WebCore5RangeES3_NS_17IdentityExtractorIS3_EENS_7PtrHashIS3_EENS_10HashTraitsIS3_EES9_E4findIS3_NS_22Iden
__ZN3WTF9HashTableIPN7WebCore5RangeES3_NS_17IdentityExtractorIS3_EENS_7PtrHashIS3_EENS_10HashTraitsIS3_EES9_E47removeAndInvalid
__ZN3WTF9HashTableIPN7WebCore5RangeES3_NS_17IdentityExtractorIS3_EENS_7PtrHashIS3_EENS_10HashTraitsIS3_EES9_E6removeEPS3_
__ZN7WebCore24StringWrapperCFAllocatorL22deallocateOnMainThreadEPv
__ZNK7WebCore12RenderObject5themeEv
__ZNK7WebCore14RenderThemeMac20supportsControlTintsEv
__ZN7WebCore15GraphicsContext23setUpdatingControlTintsEb
__ZN7WebCore12EventHandler20hitTestResultAtPointERKNS_8IntPointEbbNS_17HitTestScrollbarsEj
__ZNK7WebCore13HitTestResult10isSelectedEv
__ZN7WebCore19SelectionController8containsERKNS_8IntPointE
__ZN7WebCore13InlineTextBox11nodeAtPointERKNS_14HitTestRequestERNS_13HitTestResultEiiii
__ZN7WebCore12RenderObject19updateHitTestResultERNS_13HitTestResultERKNS_8IntPointE
__ZNK7WebCore12RenderObject13hoverAncestorEv
__ZNK7WebCore4Node17canStartSelectionEv
__ZN7WebCore11iBeamCursorEv
__ZN7WebCore12RenderInline19updateHitTestResultERNS_13HitTestResultERKNS_8IntPointE
__ZNK7WebCore12RenderInline23mapAbsoluteToLocalPointEbbRNS_14TransformStateE
__ZNK7WebCore12RenderInline19offsetFromContainerEPNS_12RenderObjectERKNS_8IntPointE
__ZN7WebCore9InlineBox11nodeAtPointERKNS_14HitTestRequestERNS_13HitTestResultEiiii
__ZN7WebCore9RenderBox11nodeAtPointERKNS_14HitTestRequestERNS_13HitTestResultEiiiiNS_13HitTestActionE
__ZN7WebCore12EventHandler10wheelEventEP7NSEvent
__ZN7WebCore18PlatformWheelEventC1EP7NSEventP6NSView
__ZN7WebCore18PlatformWheelEventC2EP7NSEventP6NSView
__ZN7WebCore12EventHandler16handleWheelEventERNS_18PlatformWheelEventE
__ZN7WebCore12EventHandler25setFrameWasScrolledByUserEv
__ZN7WebCore9FrameView20setWasScrolledByUserEb
__ZNK7WebCore12EventHandler37shouldTurnVerticalTicksIntoHorizontalERKNS_13HitTestResultE
__ZN7WebCore4Node18dispatchWheelEventERNS_18PlatformWheelEventE
__ZN7WebCore10WheelEventC1EffffNS0_11GranularityEN3WTF10PassRefPtrINS_9DOMWindowEEEiiiibbbb
__ZN7WebCore10WheelEventC2EffffNS0_11GranularityEN3WTF10PassRefPtrINS_9DOMWindowEEEiiiibbbb
__ZNK7WebCore10WheelEvent12isWheelEventEv
__ZN7WebCore12EventHandler24defaultWheelEventHandlerEPNS_4NodeEPNS_10WheelEventE
__ZNK7WebCore12RenderObject12enclosingBoxEv
__ZN7WebCore9RenderBox6scrollENS_15ScrollDirectionENS_17ScrollGranularityEfPPNS_4NodeE
__ZN7WebCore11RenderLayer6scrollENS_15ScrollDirectionENS_17ScrollGranularityEf
__ZN7WebCore10WheelEventD0Ev
__ZN7WebCore10ScrollView10wheelEventERNS_18PlatformWheelEventE
__ZNK7WebCore9FrameView28isEnclosedInCompositingLayerEv
__ZN7WebCore9FrameView21scrollPositionChangedEv
__ZN7WebCore12EventHandler15sendScrollEventEv
__ZNK7WebCore12RenderObject23mapAbsoluteToLocalPointEbbRNS_14TransformStateE
__ZN7WebCore15BackForwardList13backListCountEv
__ZN7WebCore15BackForwardList16forwardListCountEv
__ZN7WebCore15BackForwardList11itemAtIndexEi
__ZNK7WebCore11HistoryItem5titleEv
__ZNK7WebCore4Font8codePathERKNS_7TextRunE
__ZN7WebCore4Font36canReturnFallbackFontsForComplexTextEv
__ZNK7WebCore4Font23floatWidthForSimpleTextERKNS_7TextRunEPNS_11GlyphBufferEPN3WTF7HashSetIPKNS_14SimpleFontDataENS6_7PtrHashIS
__ZN7WebCore13WidthIteratorC1EPKNS_4FontERKNS_7TextRunEPN3WTF7HashSetIPKNS_14SimpleFontDataENS7_7PtrHashISB_EENS7_10HashTraitsI
__ZN7WebCore13WidthIteratorC2EPKNS_4FontERKNS_7TextRunEPN3WTF7HashSetIPKNS_14SimpleFontDataENS7_7PtrHashISB_EENS7_10HashTraitsI
__ZN7WebCore13WidthIterator7advanceEiPNS_11GlyphBufferE
__ZNK7WebCore4Font21glyphDataForCharacterEibb
__ZNK7WebCore4Font10fontDataAtEj
__ZN7WebCore9FontCache15releaseFontDataEPKNS_14SimpleFontDataE
__ZN3WTF11ListHashSetIPKN7WebCore14SimpleFontDataENS_7PtrHashIS4_EEE3addERKS4_
__ZN3WTF9HashTableIPNS_15ListHashSetNodeIPKN7WebCore14SimpleFontDataEEES7_NS_17IdentityExtractorIS7_EENS_28ListHashSetNodeHashF
__ZN3WTF11ListHashSetIPKN7WebCore14SimpleFontDataENS_7PtrHashIS4_EEE10appendNodeEPNS_15ListHashSetNodeIS4_EE
__ZN3WTF6VectorISt4pairIPKN7WebCore8FontDataEbELm1EE6shrinkEm
__ZN3WTF11ListHashSetIPKN7WebCore14SimpleFontDataENS_7PtrHashIS4_EEE15unlinkAndDeleteEPNS_15ListHashSetNodeIS4_EE
__ZNK7WebCore11FrameLoader14frameHasLoadedEv
__ZNK7WebCore15ProgressTracker17estimatedProgressEv
__ZN7WebCore12IconDatabase14iconForPageURLERKNS_6StringERKNS_7IntSizeE
__ZN7WebCore31applicationIsMicrosoftMessengerEv
__ZNK7WebCore8Document16isPluginDocumentEv
__ZNK7WebCore8Document15isImageDocumentEv
__Z3kitPN7WebCore8DocumentE
__Z3kitPN7WebCore4NodeE
__Z13getDOMWrapperP17DOMObjectInternal
__Z8kitClassPN7WebCore4NodeE
__ZNK7WebCore8Document8nodeTypeEv
+[WebScriptObject initialize]
-[WebScriptObject(WebScriptObjectInternal) _init]
__Z13addDOMWrapperP8NSObjectP17DOMObjectInternal
__Z18createWrapperCachev
__ZN7WebCoreL11stringWidthERKNS_4FontEPKtjb
__ZNK3WTF7HashMapIiPN7WebCore17GlyphPageTreeNodeENS_7IntHashIjEENS_10HashTraitsIiEENS6_IS3_EEE3getERKi
__ZN3WTF7HashMapIiPN7WebCore17GlyphPageTreeNodeENS_7IntHashIjEENS_10HashTraitsIiEENS6_IS3_EEE3setERKiRKS3_
__ZN7WebCoreL22centerTruncateToBufferERKNS_6StringEjjPt
__ZN7WebCore22characterBreakIteratorEPKti
__ZN7WebCoreL13setUpIteratorERbRPNS_17TextBreakIteratorE18UBreakIteratorTypePKti
__ZN7WebCore24currentTextBreakLocaleIDEv
__ZN7WebCoreL21topLanguagePreferenceEv
__ZN7WebCoreL27canonicalLanguageIdentifierEPK10__CFString
__ZN7WebCoreL9getLocaleEPK10__CFStringPc
__ZN7WebCore18textBreakFollowingEPNS_17TextBreakIteratorEi
__ZN7WebCore11isTextBreakEPNS_17TextBreakIteratorEi
__ZN7WebCore18MainResourceLoader15handleEmptyLoadERKNS_4KURLEb
__ZN7WebCore11FrameLoader29generatedMIMETypeForURLSchemeERKNS_6StringE
__ZN3WTF7HashSetIPN7WebCore9PageGroupENS_7PtrHashIS3_EENS_10HashTraitsIS3_EEE3addERKS3_
__ZN3WTF9HashTableIPN7WebCore9PageGroupES3_NS_17IdentityExtractorIS3_EENS_7PtrHashIS3_EENS_10HashTraitsIS3_EES9_E6expandEv
__ZN3WTF9HashTableIPN7WebCore9PageGroupES3_NS_17IdentityExtractorIS3_EENS_7PtrHashIS3_EENS_10HashTraitsIS3_EES9_E6rehashEi
__ZN3WTF9HashTableIPN7WebCore9PageGroupES3_NS_17IdentityExtractorIS3_EENS_7PtrHashIS3_EENS_10HashTraitsIS3_EES9_E13allocateTabl
__ZN3WTF9HashTableIPN7WebCore9PageGroupES3_NS_17IdentityExtractorIS3_EENS_7PtrHashIS3_EENS_10HashTraitsIS3_EES9_E15deallocateTa
__ZN7WebCore9PageGroup18removeVisitedLinksEv
__ZN7WebCore9FrameView18unscheduleRelayoutEv
__ZN7WebCore9FrameViewD0Ev
__ZN7WebCore9FrameView15resetScrollbarsEv
__ZN7WebCore10ScrollView25setHasHorizontalScrollbarEb
__ZN7WebCore10ScrollView23setHasVerticalScrollbarEb
__ZN7WebCore10ScrollViewD2Ev
__ZN3WTF9HashTableINS_6RefPtrIN7WebCore6WidgetEEES4_NS_17IdentityExtractorIS4_EENS_7PtrHashIS4_EENS_10HashTraitsIS4_EESA_E15dea
__ZN7WebCore6WidgetD2Ev
__ZN7WebCore19PlaceholderDocument6attachEv
__ZN7WebCore8Document15createTokenizerEv
__ZN7WebCore12XMLTokenizerC1EPNS_8DocumentEPNS_9FrameViewE
__ZN7WebCore12XMLTokenizerC2EPNS_8DocumentEPNS_9FrameViewE
__ZN7WebCore17DOMImplementation13isXMLMIMETypeERKNS_6StringE
__ZN7WebCore17RegularExpressionC1ERKNS_6StringENS_19TextCaseSensitivityE
__ZN7WebCore17RegularExpressionC2ERKNS_6StringENS_19TextCaseSensitivityE
__ZNK7WebCore17RegularExpression5matchERKNS_6StringEiPi
__ZN7WebCore12XMLTokenizer6finishEv
__ZN7WebCore12XMLTokenizer3endEv
__ZN7WebCore12XMLTokenizer5doEndEv
__ZN7WebCore12XMLTokenizer8exitTextEv
__ZN7WebCore12XMLTokenizer21clearCurrentNodeStackEv
__ZNK7WebCore12XMLTokenizer10wellFormedEv
__ZN7WebCore12XMLTokenizerD0Ev
__ZN3WTF9HashTableIN7WebCore6StringESt4pairIS2_S2_ENS_18PairFirstExtractorIS4_EENS1_10StringHashENS_14PairHashTraitsINS_10HashT
__ZN3WTF15deleteAllValuesIPN7WebCore16PendingCallbacks15PendingCallbackEEEvRKNS_5DequeIT_EE
__ZN7WebCore10IconRecord15imageDataStatusEv
__ZN3WTF7HashSetIPN7WebCore10IconRecordENS_7PtrHashIS3_EENS_10HashTraitsIS3_EEE3addERKS3_
__ZN3WTF9HashTableIPN7WebCore10IconRecordES3_NS_17IdentityExtractorIS3_EENS_7PtrHashIS3_EENS_10HashTraitsIS3_EES9_E6expandEv
__ZN3WTF9HashTableIPN7WebCore10IconRecordES3_NS_17IdentityExtractorIS3_EENS_7PtrHashIS3_EENS_10HashTraitsIS3_EES9_E6rehashEi
__ZN3WTF9HashTableIPN7WebCore10IconRecordES3_NS_17IdentityExtractorIS3_EENS_7PtrHashIS3_EENS_10HashTraitsIS3_EES9_E13allocateTa
__ZN3WTF9HashTableIPN7WebCore10IconRecordES3_NS_17IdentityExtractorIS3_EENS_7PtrHashIS3_EENS_10HashTraitsIS3_EES9_E15deallocate
__ZN7WebCore12IconDatabase14wakeSyncThreadEv
__ZN7WebCore24disableSuddenTerminationEv
__ZN3WTF6VectorIPN7WebCore10IconRecordELm0EE14expandCapacityEmPKS3_
__ZN3WTF6VectorIPN7WebCore10IconRecordELm0EE14expandCapacityEm
__ZN3WTF6VectorIPN7WebCore10IconRecordELm0EE15reserveCapacityEm
__ZN7WebCore12IconDatabase37getImageDataForIconURLFromSQLDatabaseERKNS_6StringE
__ZN7WebCore15SQLiteStatement8bindTextEiRKNS_6StringE
__ZN7WebCore15SQLiteStatement21getColumnBlobAsVectorEiRN3WTF6VectorIcLm0EEE
__ZN7WebCore15SQLiteStatement5resetEv
__ZNK3WTF9HashTableIPN7WebCore10IconRecordES3_NS_17IdentityExtractorIS3_EENS_7PtrHashIS3_EENS_10HashTraitsIS3_EES9_E8containsIS
__ZN3WTF6VectorIPcLm0EE14shrinkCapacityEm
__ZN3WTF6VectorIPcLm0EE6shrinkEm
__ZN3WTF9HashTableIPN7WebCore10IconRecordES3_NS_17IdentityExtractorIS3_EENS_7PtrHashIS3_EENS_10HashTraitsIS3_EES9_E4findIS3_NS_
__ZN3WTF9HashTableIPN7WebCore10IconRecordES3_NS_17IdentityExtractorIS3_EENS_7PtrHashIS3_EENS_10HashTraitsIS3_EES9_E47removeAndI
__ZN3WTF9HashTableIPN7WebCore10IconRecordES3_NS_17IdentityExtractorIS3_EENS_7PtrHashIS3_EENS_10HashTraitsIS3_EES9_E6removeEPS3_
__ZN3WTF9HashTableIN7WebCore6StringES2_NS_17IdentityExtractorIS2_EENS1_10StringHashENS_10HashTraitsIS2_EES7_E47removeAndInvalid
__ZN3WTF9HashTableIN7WebCore6StringES2_NS_17IdentityExtractorIS2_EENS1_10StringHashENS_10HashTraitsIS2_EES7_E6removeEPS2_
__ZN7WebCore15AutodrainedPool5cycleEv
__ZN7WebCore15SQLiteStatement9isExpiredEv
__ZN3WTF6VectorIPN7WebCore10IconRecordELm0EE6shrinkEm
__ZN7WebCore23enableSuddenTerminationEv
__ZN7WebCore4Font21setShouldUseSmoothingEb
__ZNK7WebCore11ImageSource16frameSizeAtIndexEm
__ZN7WebCore12IconDatabase21releaseIconForPageURLERKNS_6StringE
__ZN7WebCore10handCursorEv
__ZN7WebCoreL15leakNamedCursorEPKcii
__ZN7WebCore21PlatformKeyboardEventC1EP7NSEvent
__ZN7WebCore21PlatformKeyboardEventC2EP7NSEvent
__ZN7WebCore24windowsKeyCodeForKeyCodeEt
__ZN7WebCore12EventHandler8keyEventERKNS_21PlatformKeyboardEventE
__ZN7WebCoreL26eventTargetNodeForDocumentEPNS_8DocumentE
__ZN7WebCore20UserGestureIndicatorC1ENS_26ProcessingUserGestureStateE
__ZN7WebCore20UserGestureIndicatorC2ENS_26ProcessingUserGestureStateE
__ZN7WebCore12EventHandler15handleAccessKeyERKNS_21PlatformKeyboardEventE
__ZN7WebCore12EventHandler18accessKeyModifiersEv
__ZNK7WebCore12EventHandler38needsKeyboardEventDisambiguationQuirksEv
__ZN7WebCore19applicationIsSafariEv
__ZN7WebCore21PlatformKeyboardEvent24disambiguateKeyDownEventENS0_4TypeEb
__ZN7WebCore13KeyboardEventC1ERKNS_21PlatformKeyboardEventEPNS_9DOMWindowE
__ZN7WebCore13KeyboardEventC2ERKNS_21PlatformKeyboardEventEPNS_9DOMWindowE
__ZN7WebCore6Editor24handleInputMethodKeydownEPNS_13KeyboardEventE
__ZN7WebCore11EventTarget13dispatchEventEN3WTF10PassRefPtrINS_5EventEEERi
__ZNK7WebCore4Node22scriptExecutionContextEv
__ZNK7WebCore13KeyboardEvent15isKeyboardEventEv
__ZN7WebCore12EventHandler27defaultKeyboardEventHandlerEPNS_13KeyboardEventE
__ZN7WebCore6Editor19handleKeyboardEventEPNS_13KeyboardEventE
__ZNK7WebCore12EventHandler20focusDirectionForKeyERKNS_12AtomicStringE
__ZN7WebCore13KeyboardEventD0Ev
__ZN7WebCore20UserGestureIndicatorD1Ev
__ZN7WebCore20UserGestureIndicatorD2Ev
__ZN7WebCore12EventHandler8keyEventEP7NSEvent
__ZN7WebCore24keyIdentifierForCharCodeEt
__ZN7WebCore25windowsKeyCodeForCharCodeEt
__ZN3WTF6VectorIN7WebCore15KeypressCommandELm0EEaSERKS3_
__ZNK7WebCore13KeyboardEvent8charCodeEv
__ZN7WebCore4Page17willMoveOffscreenEv
__ZN7WebCore9FrameView17willMoveOffscreenEv
__ZN7WebCore8Document14setFocusedNodeEN3WTF10PassRefPtrINS_4NodeEEE
__ZNK7WebCore11HistoryItem9urlStringEv
__ZN7WebCore17BeforeUnloadEventC1Ev
__ZN7WebCore17BeforeUnloadEventC2Ev
__ZN7WebCore17BeforeUnloadEventD0Ev
__ZN7WebCore9PageCache27releaseAutoreleasedPagesNowEv
__ZN3WTF9HashTableINS_6RefPtrIN7WebCore10CachedPageEEES4_NS_17IdentityExtractorIS4_EENS_7PtrHashIS4_EENS_10HashTraitsIS4_EESA_E
__ZN7WebCore9PageGroup10removePageEPNS_4PageE
__ZN3WTF9HashTableIPN7WebCore4PageES3_NS_17IdentityExtractorIS3_EENS_7PtrHashIS3_EENS_10HashTraitsIS3_EES9_E4findIS3_NS_22Ident
__ZN3WTF9HashTableIPN7WebCore4PageES3_NS_17IdentityExtractorIS3_EENS_7PtrHashIS3_EENS_10HashTraitsIS3_EES9_E47removeAndInvalida
__ZN3WTF9HashTableIPN7WebCore4PageES3_NS_17IdentityExtractorIS3_EENS_7PtrHashIS3_EENS_10HashTraitsIS3_EES9_E6removeEPS3_
__ZN7WebCore4Page23clearUndoRedoOperationsEv
__ZN7WebCore11FrameLoader16detachFromParentEv
__ZNK7WebCore11HistoryItem17isCurrentDocumentEPNS_8DocumentE
__ZNK7WebCore11HistoryItem3urlEv
__ZN7WebCore4KURLC1ENS_18ParsedURLStringTagERKNS_6StringE
__ZN7WebCore4KURLC2ENS_18ParsedURLStringTagERKNS_6StringE
__ZN7WebCore31equalIgnoringFragmentIdentifierERKNS_4KURLES2_
__ZN7WebCore9DOMWindow23removeAllEventListenersEv
__ZN3WTF20deleteAllPairSecondsIPNS_6VectorIN7WebCore23RegisteredEventListenerELm1EEEKNS_7HashMapINS2_12AtomicStringES5_NS2_16At
__ZN7WebCoreL29removeAllUnloadEventListenersEPNS_9DOMWindowE
__ZN7WebCoreL31windowsWithUnloadEventListenersEv
__ZN7WebCoreL35removeAllBeforeUnloadEventListenersEPNS_9DOMWindowE
__ZN7WebCoreL37windowsWithBeforeUnloadEventListenersEv
__ZN7WebCore17HistoryController36saveScrollPositionAndViewStateToItemEPNS_11HistoryItemE
__ZN7WebCore11HistoryItem14setScrollPointERKNS_8IntPointE
__ZN7WebCore19InspectorController23frameDetachedFromParentEPNS_5FrameE
__ZN7WebCore11FrameLoader28detachViewsAndDocumentLoaderEv
__ZN3WTF6VectorIN7WebCore16ResourceResponseELm0EE6shrinkEm
__ZN7WebCore5Frame13pageDestroyedEv
__ZN7WebCore16ScriptController16clearWindowShellEv
__ZN7WebCore16ScriptController18clearScriptObjectsEv
__ZN7WebCore5Frame14detachFromPageEv
__ZN7WebCore14DragController9dragEndedEv
__ZN7WebCore4PageD1Ev
__ZN7WebCore4PageD2Ev
__ZN7WebCore19InspectorController22inspectedPageDestroyedEv
__ZN7WebCore15BackForwardList5closeEv
__ZN7WebCore9PageCache6removeEPNS_11HistoryItemE
__ZN3WTF6VectorINS_6RefPtrIN7WebCore11HistoryItemEEELm0EE14shrinkCapacityEm
__ZN3WTF6VectorINS_6RefPtrIN7WebCore11HistoryItemEEELm0EE6shrinkEm
__ZN3WTF9HashTableIPN7WebCore14HaltablePluginESt4pairIS3_dENS_18PairFirstExtractorIS5_EENS_7PtrHashIS3_EENS_14PairHashTraitsINS
__ZN3WTF9HashTableIPN7WebCore21MediaCanStartListenerES3_NS_17IdentityExtractorIS3_EENS_7PtrHashIS3_EENS_10HashTraitsIS3_EES9_E1
__ZN7WebCore5FrameD1Ev
__ZN7WebCore5FrameD2Ev
__ZN7WebCore11FrameLoader14cancelAndClearEv
__ZN7WebCore19PlaceholderDocumentD0Ev
__ZN7WebCore5Frame22disconnectOwnerElementEv
__ZN7WebCore9DOMWindow15disconnectFrameEv
__ZN7WebCore9DOMWindow5clearEv
__ZN7WebCore19AnimationControllerD1Ev
__ZN7WebCore19AnimationControllerD2Ev
__ZN7WebCore26AnimationControllerPrivateD1Ev
__ZN7WebCore26AnimationControllerPrivateD2Ev
__ZN7WebCore12EventHandlerD1Ev
__ZN7WebCore12EventHandlerD2Ev
__ZN7WebCore6EditorD1Ev
__ZN7WebCore6EditorD2Ev
__ZN7WebCore16ScriptControllerD1Ev
__ZN7WebCore16ScriptControllerD2Ev
__ZN7WebCore16ScriptController31disconnectPlatformScriptObjectsEv
__ZN7WebCore10XSSAuditorD1Ev
__ZN7WebCore10XSSAuditorD2Ev
__ZN3WTF9HashTableIPN7WebCore9DOMWindowES3_NS_17IdentityExtractorIS3_EENS_7PtrHashIS3_EENS_10HashTraitsIS3_EES9_E15deallocateTa
__ZN7WebCore9DOMWindowD0Ev
__ZN7WebCore15EventTargetDataD1Ev
__ZN7WebCore15EventTargetDataD2Ev
__ZN7WebCore17RedirectSchedulerD1Ev
__ZN7WebCore17RedirectSchedulerD2Ev
__ZN7WebCore11FrameLoaderD1Ev
__ZN7WebCore11FrameLoaderD2Ev
__ZN7WebCore11FrameLoader9setOpenerEPNS_5FrameE
__ZN3WTF9HashTableIPN7WebCore5FrameES3_NS_17IdentityExtractorIS3_EENS_7PtrHashIS3_EENS_10HashTraitsIS3_EES9_E15deallocateTableE
__ZN7WebCore17HistoryControllerD1Ev
__ZN7WebCore17HistoryControllerD2Ev
__ZN7WebCore9FrameTreeD1Ev
__ZN7WebCore9FrameTreeD2Ev
__ZN7WebCore15ProgressTrackerD1Ev
__ZN7WebCore15ProgressTrackerD2Ev
__ZN7WebCore21GeolocationControllerD1Ev
__ZN7WebCore21GeolocationControllerD2Ev
__ZN7WebCore19InspectorControllerD0Ev
__ZN3WTF20deleteAllPairSecondsIPNS_7HashMapImNS_6RefPtrIN7WebCore17InspectorResourceEEENS_7IntHashImEENS_10HashTraitsImEENS8_IS
__ZN3WTF15deleteAllValuesIPN7WebCore14ConsoleMessageELm0EEEvRKNS_6VectorIT_XT0_EEE
__ZN7WebCore19InspectorController15releaseDOMAgentEv
__ZN7WebCore18InjectedScriptHostD1Ev
__ZN7WebCore18InjectedScriptHostD2Ev
__ZN3WTF9HashTableIlSt4pairIlN7WebCore14InjectedScriptEENS_18PairFirstExtractorIS4_EENS_7IntHashImEENS_14PairHashTraitsINS_10Ha
__ZN7WebCore16InspectorBackendD1Ev
__ZN7WebCore17InspectorCSSStoreD1Ev
__ZN7WebCore17InspectorCSSStoreD2Ev
__ZN3WTF9HashTableIPN7WebCore12CSSStyleRuleESt4pairIS3_lENS_18PairFirstExtractorIS5_EENS_7PtrHashIS3_EENS_14PairHashTraitsINS_1
__ZN3WTF9HashTableIPN7WebCore19CSSStyleDeclarationESt4pairIS3_lENS_18PairFirstExtractorIS5_EENS_7PtrHashIS3_EENS_14PairHashTrai
__ZN7WebCore21ContextMenuControllerD1Ev
__ZN7WebCore21ContextMenuControllerD2Ev
__ZN7WebCore14DragControllerD1Ev
__ZN7WebCore14DragControllerD2Ev
__ZN7WebCore6ChromeD0Ev
__ZN7WebCore11HistoryItemD1Ev
__ZN7WebCore11HistoryItemD2Ev
__ZN7WebCore15BackForwardListD1Ev
__ZN7WebCore15BackForwardListD2Ev
__ZNK7WebCore8Document17formElementsStateEv
__ZN7WebCore11HistoryItem16setDocumentStateERKN3WTF6VectorINS_6StringELm0EEE
__ZN7WebCore12SharedBufferD1Ev
__ZN7WebCore12SharedBufferD2Ev
__ZN7WebCore12SharedBuffer5clearEv
__ZN7WebCore12SharedBuffer17clearPlatformDataEv
__ZN7WebCore10RenderText7destroyEv
__ZN7WebCore9InlineBox7destroyEPNS_11RenderArenaE
__ZN7WebCore13InlineTextBoxD0Ev
__ZN7WebCore9InlineBoxdlEPvm
__ZN7WebCore12RenderObject15virtualChildrenEv
__ZN7WebCore10RenderTextD0Ev
__ZN7WebCore13RootInlineBox7destroyEPNS_11RenderArenaE
__ZN7WebCore13RootInlineBox17detachEllipsisBoxEPNS_11RenderArenaE
__ZN7WebCore13RootInlineBoxD0Ev
__ZN7WebCore8RenderBRD0Ev
__ZN7WebCore12RenderInline7destroyEv
__ZN7WebCore12RenderInlineD0Ev
__ZN7WebCore13InlineFlowBoxD0Ev
__ZN7WebCore14RenderListItem7destroyEv
__ZN7WebCore9InlineBoxD0Ev
__ZN7WebCore16RenderListMarkerD0Ev
__ZN7WebCore14RenderListItemD0Ev
__ZN7WebCore8Document19hoveredNodeDetachedEPNS_4NodeE
__ZN3WTF6VectorINS_6RefPtrIN7WebCore11RenderStyleEEELm4EE6shrinkEm
__ZN7WebCore15StyleVisualDataD1Ev
__ZN7WebCore12DocumentTypeD0Ev
__ZN7WebCore15HTMLHeadElementD0Ev
__ZN7WebCore15HTMLBodyElementD0Ev
__ZN7WebCore16HTMLTitleElementD0Ev
__ZN7WebCore15HTMLMetaElementD0Ev
__ZN7WebCore12NamedNodeMap17detachFromElementEv
__ZN7WebCore18NamedMappedAttrMap15clearAttributesEv
__ZN7WebCore12NamedNodeMap15clearAttributesEv
__ZN3WTF6VectorINS_6RefPtrIN7WebCore9AttributeEEELm0EE6shrinkEm
__ZN7WebCore15MappedAttributeD0Ev
__ZN7WebCore18NamedMappedAttrMapD0Ev
__ZN7WebCore12NamedNodeMapD2Ev
__ZN7WebCore16HTMLStyleElementD0Ev
__ZN7WebCore18HTMLHeadingElementD0Ev
__ZN7WebCore17HTMLAnchorElementD0Ev
__ZN7WebCore16HTMLUListElementD0Ev
__ZN7WebCore11HTMLElementD0Ev
__ZN7WebCore13HTMLBRElementD0Ev
__ZN7WebCore13HTMLLIElementD0Ev
__ZN7WebCore20HTMLParagraphElementD0Ev
__ZN3WTF6VectorINS_6RefPtrIN7WebCore10StyleSheetEEELm0EE6shrinkEm
__ZN7WebCore11FrameLoader21addHTTPOriginIfNeededERNS_15ResourceRequestENS_6StringE
__ZNK7WebCore14DocumentWriter23deprecatedFrameEncodingEv
__ZNK7WebCore14DocumentWriter8encodingEv
__ZN7WebCore19ResourceRequestBase50setResponseContentDispositionEncodingFallbackArrayERKNS_6StringES3_S3_
__ZN3WTF6VectorIN7WebCore6StringELm0EE14expandCapacityEmPKS2_
__ZN3WTF6VectorIN7WebCore6StringELm0EE14expandCapacityEm
__ZN3WTF6VectorIN7WebCore6StringELm0EE15reserveCapacityEm
__ZNK7WebCore11HistoryItem11originalURLEv
__ZN3WTF6VectorIN7WebCore6StringELm0EE6shrinkEm
__ZN7WebCore4Page16setDefersLoadingEb
__ZN7WebCore11FrameLoader16setDefersLoadingEb
__ZN7WebCore14DocumentLoader16setDefersLoadingEb
__ZN7WebCoreL19setAllDefersLoadingERKN3WTF7HashSetINS0_6RefPtrINS_14ResourceLoaderEEENS0_7PtrHashIS4_EENS0_10HashTraitsIS4_EEEE
__ZN7WebCore23ApplicationCacheStorage16cacheGroupForURLERKNS_4KURLE
__ZN7WebCore23ApplicationCacheStorage22loadManifestHostHashesEv
__ZN7WebCore23ApplicationCacheStorage12openDatabaseEb
__ZN7WebCoreL11urlHostHashERKNS_4KURLE
__ZNK3WTF9HashTableIjSt4pairIjjENS_18PairFirstExtractorIS2_EEN7WebCore13AlreadyHashedENS_14PairHashTraitsINS_10HashTraitsIjEES9
__ZN7WebCore14DocumentLoader36deliverSubstituteResourcesAfterDelayEv
__ZN7WebCore18MainResourceLoader16setDefersLoadingEb
__ZN7WebCore14ResourceLoader16setDefersLoadingEb
__ZN7WebCore17CredentialStorage3getERKNS_4KURLE
__ZN7WebCoreL32findDefaultProtectionSpaceForURLERKNS_4KURLE
__ZN7WebCoreL31pathToDefaultProtectionSpaceMapEv
__ZN7WebCoreL19originStringFromURLERKNS_4KURLE
__ZN7WebCoreL22originsWithCredentialsEv
__ZN7WebCore10CredentialD2Ev
__ZN7WebCore11FrameLoader23startCheckCompleteTimerEv
-[WebCoreResourceHandleAsDelegate connection:willSendRequest:redirectResponse:]
__ZN7WebCore37extractReasonPhraseFromHTTPStatusLineERKNS_6StringE
__ZN7WebCore22ScriptExecutionContext26canSuspendActiveDOMObjectsEv
__ZNK7WebCore20ApplicationCacheHost19canCacheInPageCacheEv
__ZN7WebCore5Frame14clearDOMWindowEv
__ZN3WTF7HashSetIPN7WebCore9DOMWindowENS_7PtrHashIS3_EENS_10HashTraitsIS3_EEE3addERKS3_
__ZN3WTF9HashTableIPN7WebCore9DOMWindowES3_NS_17IdentityExtractorIS3_EENS_7PtrHashIS3_EENS_10HashTraitsIS3_EES9_E6expandEv
__ZN3WTF9HashTableIPN7WebCore9DOMWindowES3_NS_17IdentityExtractorIS3_EENS_7PtrHashIS3_EENS_10HashTraitsIS3_EES9_E6rehashEi
__ZN3WTF9HashTableIPN7WebCore9DOMWindowES3_NS_17IdentityExtractorIS3_EENS_7PtrHashIS3_EENS_10HashTraitsIS3_EES9_E13allocateTabl
__ZN7WebCore5Frame20clearFormerDOMWindowEPNS_9DOMWindowE
__ZN3WTF9HashTableIPN7WebCore9DOMWindowES3_NS_17IdentityExtractorIS3_EENS_7PtrHashIS3_EENS_10HashTraitsIS3_EES9_E4findIS3_NS_22
__ZN3WTF9HashTableIPN7WebCore9DOMWindowES3_NS_17IdentityExtractorIS3_EENS_7PtrHashIS3_EENS_10HashTraitsIS3_EES9_E47removeAndInv
__ZN3WTF9HashTableIPN7WebCore9DOMWindowES3_NS_17IdentityExtractorIS3_EENS_7PtrHashIS3_EENS_10HashTraitsIS3_EES9_E6removeEPS3_
__ZN7WebCore19TextResourceDecoder11setEncodingERKNS_12TextEncodingENS0_14EncodingSourceE
__ZN7WebCore8Document16processHttpEquivERKNS_6StringES3_
__ZN7WebCore10HTMLParser24noscriptCreateErrorCheckEPNS_5TokenERN3WTF6RefPtrINS_4NodeEEE
__ZN7WebCoreL17scriptConstructorERKNS_13QualifiedNameEPNS_8DocumentEPNS_15HTMLFormElementEb
__ZN7WebCore17HTMLScriptElementC1ERKNS_13QualifiedNameEPNS_8DocumentEb
__ZN7WebCore17HTMLScriptElementC2ERKNS_13QualifiedNameEPNS_8DocumentEb
__ZN7WebCore17ScriptElementDataC1EPNS_13ScriptElementEPNS_7ElementE
__ZN7WebCore17ScriptElementDataC2EPNS_13ScriptElementEPNS_7ElementE
__ZN7WebCore17HTMLScriptElement20parseMappedAttributeEPNS_15MappedAttributeE
__ZNK7WebCore17HTMLScriptElement17endTagRequirementEv
__ZNK7WebCore17HTMLScriptElement11tagPriorityEv
__ZN7WebCore17HTMLScriptElement20insertedIntoDocumentEv
__ZNK7WebCore17HTMLScriptElement20sourceAttributeValueEv
__ZN7WebCore13ScriptElement20insertedIntoDocumentERNS_17ScriptElementDataERKNS_6StringE
__ZNK7WebCore17HTMLScriptElement13scriptCharsetEv
__ZNK7WebCore17ScriptElementData13scriptCharsetEv
__ZThn120_NK7WebCore17HTMLScriptElement21charsetAttributeValueEv
__ZNK7WebCore17HTMLScriptElement21charsetAttributeValueEv
__ZN7WebCore13HTMLTokenizer13scriptHandlerENS0_5StateE
__ZNK7WebCore17HTMLScriptElement25shouldExecuteAsJavaScriptEv
__ZNK7WebCore17ScriptElementData25shouldExecuteAsJavaScriptEv
__ZThn120_NK7WebCore17HTMLScriptElement18typeAttributeValueEv
__ZNK7WebCore17HTMLScriptElement18typeAttributeValueEv
__ZN7WebCore16MIMETypeRegistry29isSupportedJavaScriptMIMETypeERKNS_6StringE
__ZThn120_NK7WebCore17HTMLScriptElement17forAttributeValueEv
__ZNK7WebCore17HTMLScriptElement17forAttributeValueEv
__ZThn120_NK7WebCore17HTMLScriptElement19eventAttributeValueEv
__ZNK7WebCore17HTMLScriptElement19eventAttributeValueEv
__ZN7WebCore10HTMLParser20textCreateErrorCheckEPNS_5TokenERN3WTF6RefPtrINS_4NodeEEE
__ZN7WebCore17HTMLScriptElement8checkDTDEPKNS_4NodeE
__ZN7WebCore17HTMLScriptElement15childrenChangedEbPNS_4NodeES2_i
__ZN7WebCore13ScriptElement15childrenChangedERNS_17ScriptElementDataE
__ZNK7WebCore4Node11textContentEb
__ZN3WTF6VectorIN7WebCore6StringELm16EE6shrinkEm
__ZN7WebCore17HTMLScriptElement21finishParsingChildrenEv
__ZN7WebCore13ScriptElement21finishParsingChildrenERNS_17ScriptElementDataERKNS_6StringE
__ZNK7WebCore17ScriptElementData13scriptContentEv
__ZN7WebCore15SegmentedString7prependERKS0_
__ZN7WebCore15SegmentedString7prependERKNS_18SegmentedSubstringE
__ZNK7WebCore20StringSourceProvider6lengthEv
__ZN7WebCore13HTMLTokenizer15scriptExecutionERKNS_16ScriptSourceCodeENS0_5StateE
__ZN7WebCore16ScriptController13executeScriptERKNS_16ScriptSourceCodeE
__ZN7WebCore16ScriptController8evaluateERKNS_16ScriptSourceCodeE
__ZN7WebCore21mainThreadNormalWorldEv
__ZN7WebCore11normalWorldERN3JSC12JSGlobalDataE
__ZN7WebCore16ScriptController15evaluateInWorldERKNS_16ScriptSourceCodeEPNS_15DOMWrapperWorldE
__ZNK7WebCore20StringSourceProvider6sourceEv
__ZNK7WebCore10XSSAuditor11canEvaluateERKNS_6StringE
__ZNK7WebCore10XSSAuditor9isEnabledEv
__ZNK7WebCore10XSSAuditor13findInRequestERKNS0_8FindTaskE
__ZNK7WebCore10XSSAuditor13findInRequestEPNS_5FrameERKNS0_8FindTaskE
__ZN7WebCore10XSSAuditor23CachingURLCanonicalizer5clearEv
__ZN7WebCore10XSSAuditor12canonicalizeERKNS_6StringE
__ZN7WebCore10XSSAuditor18decodeHTMLEntitiesERKNS_6StringEb
__ZN7WebCoreL23isNonCanonicalCharacterEt
__ZN7WebCore10XSSAuditor23CachingURLCanonicalizer15canonicalizeURLERKNS_6StringERKNS_12TextEncodingEbb
__ZN7WebCore10XSSAuditor9decodeURLERKNS_6StringERKNS_12TextEncodingEbb
__ZNK7WebCore12TextEncoding6decodeEPKcmbRb
__ZN7WebCoreL21isIllegalURICharacterEt
__ZN3WTF9HashTableINS_6RefPtrIN7WebCore15DOMWrapperWorldEEESt4pairIS4_N3JSC12ProtectedPtrINS2_16JSDOMWindowShellEEEENS_18PairFi
__ZN7WebCore16ScriptController10initScriptEPNS_15DOMWrapperWorldE
__ZN7WebCore16ScriptController17createWindowShellEPNS_15DOMWrapperWorldE
__ZN7WebCore16JSDOMWindowShellnwEm
__ZN7WebCore16JSDOMWindowShellC1EN3WTF10PassRefPtrINS_9DOMWindowEEEPNS_15DOMWrapperWorldE
__ZN7WebCore16JSDOMWindowShellC2EN3WTF10PassRefPtrINS_9DOMWindowEEEPNS_15DOMWrapperWorldE
__ZN7WebCore16JSDOMWindowShell9setWindowEN3WTF10PassRefPtrINS_9DOMWindowEEE
__ZN7WebCore20JSDOMWindowPrototypenwEm
__ZN7WebCore11JSDOMWindowC1EN3WTF17NonNullPassRefPtrIN3JSC9StructureEEENS1_10PassRefPtrINS_9DOMWindowEEEPNS_16JSDOMWindowShellE
__ZN7WebCore11JSDOMWindowC2EN3WTF17NonNullPassRefPtrIN3JSC9StructureEEENS1_10PassRefPtrINS_9DOMWindowEEEPNS_16JSDOMWindowShellE
__ZN7WebCore15JSDOMWindowBaseC2EN3WTF17NonNullPassRefPtrIN3JSC9StructureEEENS1_10PassRefPtrINS_9DOMWindowEEEPNS_16JSDOMWindowSh
__ZN7WebCore15JSDOMWindowBase19JSDOMWindowBaseDataC1EN3WTF10PassRefPtrINS_9DOMWindowEEEPNS_16JSDOMWindowShellE
__ZN7WebCore15JSDOMWindowBase19JSDOMWindowBaseDataC2EN3WTF10PassRefPtrINS_9DOMWindowEEEPNS_16JSDOMWindowShellE
__ZN7WebCore17JSDOMGlobalObjectC2EN3WTF17NonNullPassRefPtrIN3JSC9StructureEEEPNS0_21JSDOMGlobalObjectDataEPNS3_8JSObjectE
__ZN7WebCore15JSDOMWindowBase10globalExecEv
__ZN7WebCore5Frame9keepAliveEv
__ZN3WTF7HashMapINS_6RefPtrIN7WebCore10StringImplEEEN3JSC16SymbolTableEntryENS5_17IdentifierRepHashENS_10HashTraitsIS4_EENS5_26
__ZN3WTF7HashMapINS_6RefPtrIN7WebCore15DOMWrapperWorldEEEN3JSC12ProtectedPtrINS2_16JSDOMWindowShellEEENS_7PtrHashIS4_EENS_10Has
__ZN3WTF7HashSetIPN7WebCore16ScriptControllerENS_7PtrHashIS3_EENS_10HashTraitsIS3_EEE3addERKS3_
__ZN3WTF9HashTableIPN7WebCore16ScriptControllerES3_NS_17IdentityExtractorIS3_EENS_7PtrHashIS3_EENS_10HashTraitsIS3_EES9_E6expan
__ZN3WTF9HashTableIPN7WebCore16ScriptControllerES3_NS_17IdentityExtractorIS3_EENS_7PtrHashIS3_EENS_10HashTraitsIS3_EES9_E6rehas
__ZN3WTF9HashTableIPN7WebCore16ScriptControllerES3_NS_17IdentityExtractorIS3_EENS_7PtrHashIS3_EENS_10HashTraitsIS3_EES9_E13allo
__ZN7WebCore15JSDOMWindowBase14updateDocumentEv
__ZN7WebCore13createWrapperEPN3JSC9ExecStateEPNS_17JSDOMGlobalObjectEPNS_4NodeE
__ZN7WebCore4toJSEPN3JSC9ExecStateEPNS_17JSDOMGlobalObjectEPNS_8DocumentE
__ZN7WebCore21getCachedDOMStructureEPNS_17JSDOMGlobalObjectEPKN3JSC9ClassInfoE
__ZNK3WTF7HashMapIPKN3JSC9ClassInfoENS_6RefPtrINS1_9StructureEEENS_7PtrHashIS4_EENS_10HashTraitsIS4_EENSA_IS7_EEE3getERKS4_
__ZN7WebCore14JSHTMLDocument15createPrototypeEPN3JSC9ExecStateEPNS1_14JSGlobalObjectE
__ZN7WebCore19JSDocumentPrototype4selfEPN3JSC9ExecStateEPNS1_14JSGlobalObjectE
__ZN7WebCore10JSDocument15createPrototypeEPN3JSC9ExecStateEPNS1_14JSGlobalObjectE
__ZN7WebCore15JSNodePrototype4selfEPN3JSC9ExecStateEPNS1_14JSGlobalObjectE
__ZN7WebCore6JSNode15createPrototypeEPN3JSC9ExecStateEPNS1_14JSGlobalObjectE
__ZN7WebCore17cacheDOMStructureEPNS_17JSDOMGlobalObjectEN3WTF17NonNullPassRefPtrIN3JSC9StructureEEEPKNS4_9ClassInfoE
__ZN3WTF7HashMapIPKN3JSC9ClassInfoENS_6RefPtrINS1_9StructureEEENS_7PtrHashIS4_EENS_10HashTraitsIS4_EENSA_IS7_EEE3setERKS4_RKS7_
__ZN3WTF9HashTableIPKN3JSC9ClassInfoESt4pairIS4_NS_6RefPtrINS1_9StructureEEEENS_18PairFirstExtractorIS9_EENS_7PtrHashIS4_EENS_1
__ZN7WebCore14JSHTMLDocumentC1EN3WTF17NonNullPassRefPtrIN3JSC9StructureEEEPNS_17JSDOMGlobalObjectENS1_10PassRefPtrINS_12HTMLDoc
__ZN7WebCore14JSHTMLDocumentC2EN3WTF17NonNullPassRefPtrIN3JSC9StructureEEEPNS_17JSDOMGlobalObjectENS1_10PassRefPtrINS_12HTMLDoc
__ZN7WebCore10JSDocumentC2EN3WTF17NonNullPassRefPtrIN3JSC9StructureEEEPNS_17JSDOMGlobalObjectENS1_10PassRefPtrINS_8DocumentEEE
__ZN7WebCore6JSNodeC2EN3WTF17NonNullPassRefPtrIN3JSC9StructureEEEPNS_17JSDOMGlobalObjectENS1_10PassRefPtrINS_4NodeEEE
__ZN7WebCore19cacheDOMNodeWrapperEPN3JSC9ExecStateEPNS_8DocumentEPNS_4NodeEPNS_6JSNodeE
__ZN7WebCore8Document18createWrapperCacheEPNS_15DOMWrapperWorldE
__ZN3WTF7HashMapIPN7WebCore15DOMWrapperWorldEPN3JSC9WeakGCMapIPNS1_4NodeEPNS1_6JSNodeEEENS_7PtrHashIS3_EENS_10HashTraitsIS3_EEN
__ZN3WTF7HashSetIPN7WebCore8DocumentENS_7PtrHashIS3_EENS_10HashTraitsIS3_EEE3addERKS3_
__ZN3WTF9HashTableIPN7WebCore8DocumentES3_NS_17IdentityExtractorIS3_EENS_7PtrHashIS3_EENS_10HashTraitsIS3_EES9_E6expandEv
__ZN3WTF9HashTableIPN7WebCore8DocumentES3_NS_17IdentityExtractorIS3_EENS_7PtrHashIS3_EENS_10HashTraitsIS3_EES9_E6rehashEi
__ZN3WTF9HashTableIPN7WebCore8DocumentES3_NS_17IdentityExtractorIS3_EENS_7PtrHashIS3_EENS_10HashTraitsIS3_EES9_E13allocateTable
__ZN3JSC9WeakGCMapIPN7WebCore4NodeEPNS1_6JSNodeEE3setERKS3_RKS5_
__ZN3WTF7HashMapIPN7WebCore4NodeEPNS1_6JSNodeENS_7PtrHashIS3_EENS_10HashTraitsIS3_EENS8_IS5_EEE3addERKS3_RKS5_
__ZN3WTF9HashTableIPN7WebCore4NodeESt4pairIS3_PNS1_6JSNodeEENS_18PairFirstExtractorIS7_EENS_7PtrHashIS3_EENS_14PairHashTraitsIN
__ZN7WebCore16ScriptController14attachDebuggerEPNS_16JSDOMWindowShellEPN3JSC8DebuggerE
__ZN7WebCore16ScriptController18windowScriptObjectEv
__ZN7WebCore16ScriptController17bindingRootObjectEv
__ZN3JSC8Bindings10RootObject6createEPKvPNS_14JSGlobalObjectE
__ZN3JSC8Bindings10RootObjectC1EPKvPNS_14JSGlobalObjectE
__ZN3JSC8Bindings10RootObjectC2EPKvPNS_14JSGlobalObjectE
__ZN3JSC8BindingsL13rootObjectSetEv
__ZN3WTF7HashSetIPN3JSC8Bindings10RootObjectENS_7PtrHashIS4_EENS_10HashTraitsIS4_EEE3addERKS4_
__ZN3WTF9HashTableIPN3JSC8Bindings10RootObjectES4_NS_17IdentityExtractorIS4_EENS_7PtrHashIS4_EENS_10HashTraitsIS4_EESA_E6expand
__ZN3WTF9HashTableIPN3JSC8Bindings10RootObjectES4_NS_17IdentityExtractorIS4_EENS_7PtrHashIS4_EENS_10HashTraitsIS4_EESA_E6rehash
__ZN3WTF9HashTableIPN3JSC8Bindings10RootObjectES4_NS_17IdentityExtractorIS4_EENS_7PtrHashIS4_EENS_10HashTraitsIS4_EESA_E13alloc
__ZN3WTF9HashTableIPN3JSC8Bindings10RootObjectES4_NS_17IdentityExtractorIS4_EENS_7PtrHashIS4_EENS_10HashTraitsIS4_EESA_E15deall
+[WebScriptObject scriptObjectForJSObject:originRootObject:rootObject:]
__Z16createDOMWrapperPN3JSC8JSObjectEN3WTF10PassRefPtrINS_8Bindings10RootObjectEEES6_
__ZNK7WebCore16JSDOMWindowShell9classInfoEv
__ZNK7WebCore16JSDOMWindowShell4implEv
__Z3kitPN7WebCore9DOMWindowE
-[WebScriptObject _hasImp]
-[WebScriptObject _setImp:originRootObject:rootObject:]
__ZN7WebCore12addJSWrapperEP8NSObjectPN3JSC8JSObjectE
__ZN3JSC8Bindings10RootObject9gcProtectEPNS_8JSObjectE
__ZNK3WTF9HashTableIPN3JSC8JSObjectESt4pairIS3_jENS_18PairFirstExtractorIS5_EENS_7PtrHashIS3_EENS_14PairHashTraitsINS_10HashTra
__ZN3WTF7HashMapIPN3JSC8JSObjectEjNS_7PtrHashIS3_EENS_10HashTraitsIS3_EENS6_IjEEE3addERKS3_RKj
__ZN3WTF9HashTableIPN3JSC8JSObjectESt4pairIS3_jENS_18PairFirstExtractorIS5_EENS_7PtrHashIS3_EENS_14PairHashTraitsINS_10HashTrai
__ZN7WebCore19InspectorController34inspectedWindowScriptObjectClearedEPNS_5FrameE
__ZNK7WebCore20StringSourceProvider4dataEv
__ZNK7WebCore15JSDOMWindowBase17supportsProfilingEv
__ZN7WebCore11JSDOMWindow18getOwnPropertySlotEPN3JSC9ExecStateERKNS1_10IdentifierERNS1_12PropertySlotE
__ZN7WebCore11JSDOMWindow3putEPN3JSC9ExecStateERKNS1_10IdentifierENS1_7JSValueERNS1_15PutPropertySlotE
__ZN7WebCore8Document26updateStyleForAllDocumentsEv
__ZN7WebCore15SegmentedString6appendERKS0_
__ZN7WebCore15SegmentedString6appendERKNS_18SegmentedSubstringE
__ZN7WebCore20StringSourceProviderD0Ev
__ZN7WebCore5TimerINS_5FrameEE5firedEv
__ZN7WebCore5Frame21lifeSupportTimerFiredEPNS_5TimerIS0_EE
__ZN7WebCore9CSSParser18parseFillShorthandEiPKiib
__ZN7WebCore9CSSParser15parseFillRepeatERN3WTF6RefPtrINS_8CSSValueEEES5_
__ZN7WebCore9CSSParser17parseFillPositionERN3WTF6RefPtrINS_8CSSValueEEES5_
__ZN7WebCore9CSSParser19parseFillPositionXYERbS1_
__ZN7WebCore9CSSParser20parseBackgroundColorEv
__ZN7WebCore9CSSParser12addFillValueERN3WTF6RefPtrINS_8CSSValueEEENS1_10PassRefPtrIS3_EE
__ZN3WTF6VectorIN7WebCore14CSSParserValueELm4EE14expandCapacityEmPKS2_
__ZN3WTF6VectorIN7WebCore14CSSParserValueELm4EE14expandCapacityEm
__ZN3WTF6VectorIN7WebCore14CSSParserValueELm4EE15reserveCapacityEm
__ZN7WebCore15FontFamilyValueC1ERKNS_6StringE
__ZN7WebCore15FontFamilyValueC2ERKNS_6StringE
__ZNK7WebCore13CSSStyleSheet11completeURLERKNS_6StringE
__ZNK7WebCore9StyleBase7baseURLEv
__ZN7WebCore4KURLC1ERKS0_RKNS_6StringERKNS_12TextEncodingE
__ZN7WebCore4KURLC2ERKS0_RKNS_6StringERKNS_12TextEncodingE
__ZNK7WebCore12TextEncoding25encodingForFormSubmissionEv
__ZNK7WebCore12TextEncoding22isNonByteBasedEncodingEv
__ZN7WebCore25UTF16LittleEndianEncodingEv
__ZN7WebCore22UTF16BigEndianEncodingEv
__ZN7WebCore22UTF32BigEndianEncodingEv
__ZN7WebCore25UTF32LittleEndianEncodingEv
__ZNK7WebCore12TextEncoding14isUTF7EncodingEv
__ZN7WebCoreL12UTF7EncodingEv
__ZN7WebCore13CSSImageValueC1ERKNS_6StringE
__ZN7WebCore13CSSImageValueC2ERKNS_6StringE
__ZN7WebCore9CSSParser22createFloatingFunctionEv
__ZN3WTF7HashSetIPN7WebCore17CSSParserFunctionENS_7PtrHashIS3_EENS_10HashTraitsIS3_EEE3addERKS3_
__ZN3WTF9HashTableIPN7WebCore17CSSParserFunctionES3_NS_17IdentityExtractorIS3_EENS_7PtrHashIS3_EENS_10HashTraitsIS3_EES9_E6expa
__ZN3WTF9HashTableIPN7WebCore17CSSParserFunctionES3_NS_17IdentityExtractorIS3_EENS_7PtrHashIS3_EENS_10HashTraitsIS3_EES9_E6reha
__ZN3WTF9HashTableIPN7WebCore17CSSParserFunctionES3_NS_17IdentityExtractorIS3_EENS_7PtrHashIS3_EENS_10HashTraitsIS3_EES9_E13all
__ZN3WTF9HashTableIPN7WebCore17CSSParserFunctionES3_NS_17IdentityExtractorIS3_EENS_7PtrHashIS3_EENS_10HashTraitsIS3_EES9_E4find
__ZN3WTF9HashTableIPN7WebCore17CSSParserFunctionES3_NS_17IdentityExtractorIS3_EENS_7PtrHashIS3_EENS_10HashTraitsIS3_EES9_E47rem
__ZN3WTF9HashTableIPN7WebCore17CSSParserFunctionES3_NS_17IdentityExtractorIS3_EENS_7PtrHashIS3_EENS_10HashTraitsIS3_EES9_E6remo
__ZN7WebCore9CSSParser13parseSVGValueEib
__ZN7WebCore9CSSParser31createFloatingMediaQueryExpListEv
__ZN7WebCore9CSSParser29sinkFloatingMediaQueryExpListEPN3WTF6VectorIPNS_13MediaQueryExpELm0EEE
__ZN7WebCore9CSSParser24createFloatingMediaQueryENS_10MediaQuery10RestrictorERKNS_6StringEPN3WTF6VectorIPNS_13MediaQueryExpELm0
__ZN7WebCore10MediaQueryC1ENS0_10RestrictorERKNS_6StringEPN3WTF6VectorIPNS_13MediaQueryExpELm0EEE
__ZN7WebCore10MediaQueryC2ENS0_10RestrictorERKNS_6StringEPN3WTF6VectorIPNS_13MediaQueryExpELm0EEE
__ZN7WebCore9CSSParser15createMediaListEv
__ZN7WebCore9CSSParser22sinkFloatingMediaQueryEPNS_10MediaQueryE
__ZN7WebCore9MediaList16appendMediaQueryEPNS_10MediaQueryE
__ZN3WTF6VectorIPN7WebCore10MediaQueryELm0EE14expandCapacityEmPKS3_
__ZN3WTF6VectorIPN7WebCore10MediaQueryELm0EE14expandCapacityEm
__ZN3WTF6VectorIPN7WebCore10MediaQueryELm0EE15reserveCapacityEm
__ZN7WebCore9CSSParser14createRuleListEv
__ZN7WebCore11CSSRuleListC1Ev
__ZN7WebCore11CSSRuleListC2Ev
__ZN3WTF6VectorINS_6RefPtrIN7WebCore11CSSRuleListEEELm0EE14expandCapacityEm
__ZN3WTF6VectorINS_6RefPtrIN7WebCore11CSSRuleListEEELm0EE15reserveCapacityEm
__ZN7WebCore11CSSRuleList6appendEPNS_7CSSRuleE
__ZN3WTF6VectorINS_6RefPtrIN7WebCore7CSSRuleEEELm0EE14expandCapacityEm
__ZN3WTF6VectorINS_6RefPtrIN7WebCore7CSSRuleEEELm0EE15reserveCapacityEm
__ZN7WebCore9CSSParser15createMediaRuleEPNS_9MediaListEPNS_11CSSRuleListE
__ZN7WebCore12CSSMediaRuleC1EPNS_13CSSStyleSheetEN3WTF10PassRefPtrINS_9MediaListEEENS4_INS_11CSSRuleListEEE
__ZN7WebCore12CSSMediaRuleC2EPNS_13CSSStyleSheetEN3WTF10PassRefPtrINS_9MediaListEEENS4_INS_11CSSRuleListEEE
__ZNK7WebCore4KURL14isHierarchicalEv
__ZN7WebCoreL11appendASCIIERKNS_6StringEPKcmRN3WTF6VectorIcLm512EEE
__ZN3WTF6VectorINS_6RefPtrIN7WebCore11CSSRuleListEEELm0EE6shrinkEm
__ZN7WebCore11RenderBlock24updateBeforeAfterContentENS_8PseudoIdE
__ZN7WebCore21RenderObjectChildList24updateBeforeAfterContentEPNS_12RenderObjectENS_8PseudoIdES2_
__ZNK7WebCore12RenderObject20getCachedPseudoStyleENS_8PseudoIdEPNS_11RenderStyleE
__ZN7WebCoreL20beforeAfterContainerEPNS_12RenderObjectENS_8PseudoIdE
__ZN7WebCore9StyleBase11isStyleRuleEv
__ZN7WebCore12CSSMediaRule11isMediaRuleEv
__ZNK7WebCore19MediaQueryEvaluator14mediaTypeMatchERKNS_6StringE
__ZN7WebCoreL15applyRestrictorENS_10MediaQuery10RestrictorEb
__ZNK7WebCore11CSSRuleList6lengthEv
__ZN7WebCore11CSSRuleList4itemEj
__ZNK7WebCore12RenderObject23createsAnonymousWrapperEv
__ZNK7WebCore9FrameTree5childERKNS_12AtomicStringE
__ZN7WebCore20JSDOMWindowPrototype18getOwnPropertySlotEPN3JSC9ExecStateERKNS1_10IdentifierERNS1_12PropertySlotE
__ZN7WebCore16findAtomicStringERKN3JSC10IdentifierE
__ZNK3WTF9HashTableIPN7WebCore16AtomicStringImplESt4pairIS3_jENS_18PairFirstExtractorIS5_EENS_7PtrHashIS3_EENS_14PairHashTraits
__ZNK3WTF9HashTableIPN7WebCore16AtomicStringImplESt4pairIS3_PNS1_7ElementEENS_18PairFirstExtractorIS7_EENS_7PtrHashIS3_EENS_14P
__ZN7WebCore16JSDOMWindowShell3putEPN3JSC9ExecStateERKNS1_10IdentifierENS1_7JSValueERNS1_15PutPropertySlotE
__ZN7WebCore16JSDOMWindowShell18getOwnPropertySlotEPN3JSC9ExecStateERKNS1_10IdentifierERNS1_12PropertySlotE
__ZN7WebCore21setJSDOMWindowOnerrorEPN3JSC9ExecStateEPNS0_8JSObjectENS0_7JSValueE
__ZNK7WebCore15JSDOMWindowBase16allowsAccessFromEPN3JSC9ExecStateE
__ZN7WebCore15JSEventListenerC1EPN3JSC8JSObjectES3_bPNS_15DOMWrapperWorldE
__ZN7WebCore15JSEventListenerC2EPN3JSC8JSObjectES3_bPNS_15DOMWrapperWorldE
__ZN7WebCore11EventTarget25setAttributeEventListenerERKNS_12AtomicStringEN3WTF10PassRefPtrINS_13EventListenerEEE
__ZN7WebCore11EventTarget27clearAttributeEventListenerERKNS_12AtomicStringE
__ZN7WebCore11EventTarget25getAttributeEventListenerERKNS_12AtomicStringE
__ZN7WebCore11EventTarget17getEventListenersERKNS_12AtomicStringE
__ZN7WebCore9DOMWindow16addEventListenerERKNS_12AtomicStringEN3WTF10PassRefPtrINS_13EventListenerEEEb
__ZN7WebCore11EventTarget16addEventListenerERKNS_12AtomicStringEN3WTF10PassRefPtrINS_13EventListenerEEEb
__ZN7WebCore9DOMWindow21ensureEventTargetDataEv
__ZN3WTF7HashMapIN7WebCore12AtomicStringEPNS_6VectorINS1_23RegisteredEventListenerELm1EEENS1_16AtomicStringHashENS_10HashTraits
__ZN3WTF9HashTableIN7WebCore12AtomicStringESt4pairIS2_PNS_6VectorINS1_23RegisteredEventListenerELm1EEEENS_18PairFirstExtractorI
__ZN7WebCore8Document23addListenerTypeIfNeededERKNS_12AtomicStringE
__ZN7WebCore38jsDOMWindowPrototypeFunctionSetTimeoutEPN3JSC9ExecStateEPNS0_8JSObjectENS0_7JSValueERKNS0_7ArgListE
__ZNK7WebCore15JSDOMWindowBase12toThisObjectEPN3JSC9ExecStateE
__ZNK7WebCore15JSDOMWindowBase5shellEv
__ZN7WebCore13toJSDOMWindowEN3JSC7JSValueE
__ZN7WebCore11JSDOMWindow10setTimeoutEPN3JSC9ExecStateERKNS1_7ArgListE
__ZN7WebCore15ScheduledAction6createEPN3JSC9ExecStateERKNS1_7ArgListEPNS_15DOMWrapperWorldE
__ZN7WebCore15ScheduledActionC1EN3JSC7JSValueERKNS1_7ArgListEPNS_15DOMWrapperWorldE
__ZN7WebCore15ScheduledActionC2EN3JSC7JSValueERKNS1_7ArgListEPNS_15DOMWrapperWorldE
__ZN7WebCore9DOMWindow10setTimeoutEN3WTF10PassOwnPtrINS_15ScheduledActionEEEiRi
__ZNK7WebCore9DOMWindow22scriptExecutionContextEv
__ZN7WebCore8DOMTimer7installEPNS_22ScriptExecutionContextEN3WTF10PassOwnPtrINS_15ScheduledActionEEEib
__ZN7WebCore8DOMTimerC1EPNS_22ScriptExecutionContextEN3WTF10PassOwnPtrINS_15ScheduledActionEEEib
__ZN7WebCore8DOMTimerC2EPNS_22ScriptExecutionContextEN3WTF10PassOwnPtrINS_15ScheduledActionEEEib
__ZN7WebCore15ActiveDOMObjectC2EPNS_22ScriptExecutionContextEPv
__ZN7WebCore22ScriptExecutionContext22createdActiveDOMObjectEPNS_15ActiveDOMObjectEPv
__ZN3WTF7HashMapIPN7WebCore15ActiveDOMObjectEPvNS_7PtrHashIS3_EENS_10HashTraitsIS3_EENS7_IS4_EEE3addERKS3_RKS4_
__ZN7WebCore22ScriptExecutionContext10addTimeoutEiPNS_8DOMTimerE
__ZN3WTF7HashMapIiPN7WebCore8DOMTimerENS_7IntHashIjEENS_10HashTraitsIiEENS6_IS3_EEE3setERKiRKS3_
__ZThn96_NK7WebCore8Document10isDocumentEv
__ZNK7WebCore8Document10isDocumentEv
__ZN7WebCore15setDOMExceptionEPN3JSC9ExecStateEi
__ZN7WebCore8Document15processViewportERKNS_6StringE
__ZN7WebCore8Document16processArgumentsERKNS_6StringEPvPFvS3_S3_PS0_S4_E
__ZN7WebCoreL11isSeparatorEt
__ZN7WebCore18setViewportFeatureERKNS_6StringES2_PNS_8DocumentEPv
__ZNK7WebCore15HTMLBodyElement10mapToEntryERKNS_13QualifiedNameERNS_20MappedAttributeEntryE
__ZN7WebCore15HTMLBodyElement20parseMappedAttributeEPNS_15MappedAttributeE
__ZN7WebCore28createAttributeEventListenerEPNS_5FrameEPNS_9AttributeE
__ZNK7WebCore10XSSAuditor28canCreateInlineEventListenerERKNS_6StringES3_
__ZN7WebCore13toJSDOMWindowEPNS_5FrameEPNS_15DOMWrapperWorldE
__ZN7WebCoreL18eventParameterNameEb
__ZN7WebCore19JSLazyEventListenerC1ERKNS_6StringES3_S3_PNS_4NodeES3_iPN3JSC8JSObjectEPNS_15DOMWrapperWorldE
__ZN7WebCore19JSLazyEventListenerC2ERKNS_6StringES3_S3_PNS_4NodeES3_iPN3JSC8JSObjectEPNS_15DOMWrapperWorldE
__ZN7WebCore8Document31setWindowAttributeEventListenerERKNS_12AtomicStringEN3WTF10PassRefPtrINS_13EventListenerEEE
__ZN3WTF7HashMapIPN7WebCore9DOMWindowEjNS_7PtrHashIS3_EENS_10HashTraitsIS3_EENS6_IjEEE3addERKS3_RKj
__ZN3WTF9HashTableIPN7WebCore9DOMWindowESt4pairIS3_jENS_18PairFirstExtractorIS5_EENS_7PtrHashIS3_EENS_14PairHashTraitsINS_10Has
__ZN7WebCore13StyledElement21classAttributeChangedERKNS_12AtomicStringE
__ZN7WebCore18NamedMappedAttrMap8setClassERKNS_6StringE
__ZN7WebCore4Node28dispatchSubtreeModifiedEventEv
__ZN7WebCore4Node31notifyNodeListsAttributeChangedEv
__ZN7WebCore4Node36notifyLocalNodeListsAttributeChangedEv
__ZN7WebCore20SpaceSplitStringData12createVectorEv
__ZNK7WebCore15CSSInitialValue12cssValueTypeEv
__ZN7WebCore7DataRefINS_19StyleBackgroundDataEE6accessEv
__ZN7WebCore19StyleBackgroundDataC1ERKS0_
__ZN7WebCore19StyleBackgroundDataC2ERKS0_
__ZN7WebCore9FillLayerC1ERKS0_
__ZN7WebCore9FillLayerC2ERKS0_
__ZNK7WebCore12RenderObject22getUncachedPseudoStyleENS_8PseudoIdEPNS_11RenderStyleES3_
__ZN7WebCore16CSSStyleSelector21pseudoStyleForElementENS_8PseudoIdEPNS_7ElementEPNS_11RenderStyleEb
__ZN7WebCore11RenderLayer19dirtyNormalFlowListEv
__ZN7WebCoreL14divConstructorERKNS_13QualifiedNameEPNS_8DocumentEPNS_15HTMLFormElementEb
__ZN7WebCore14HTMLDivElementC1ERKNS_13QualifiedNameEPNS_8DocumentE
__ZN7WebCore14HTMLDivElementC2ERKNS_13QualifiedNameEPNS_8DocumentE
__ZNK7WebCore14HTMLDivElement10mapToEntryERKNS_13QualifiedNameERNS_20MappedAttributeEntryE
__ZN7WebCore14HTMLDivElement20parseMappedAttributeEPNS_15MappedAttributeE
__ZNK7WebCore14HTMLDivElement17endTagRequirementEv
__ZNK7WebCore14HTMLDivElement11tagPriorityEv
__ZN7WebCore8Document14addElementByIdERKNS_12AtomicStringEPNS_7ElementE
__ZN3WTF7HashMapIPN7WebCore16AtomicStringImplEPNS1_7ElementENS_7PtrHashIS3_EENS_10HashTraitsIS3_EENS8_IS5_EEE3addERKS3_RKS5_
__ZNK7WebCore7Element14getIDAttributeEv
__ZN7WebCore10protocolIsERKNS_6StringEPKc
__ZNK7WebCore8Document11completeURLERKNS_6StringE
__ZN7WebCore14ResourceHandle13prepareForURLERKNS_4KURLE
__ZN7WebCore11prefetchDNSERKNS_6StringE
__ZN7WebCore15DNSResolveQueue6sharedEv
__ZN7WebCore15DNSResolveQueueC1Ev
__ZN7WebCore15DNSResolveQueueC2Ev
__ZN7WebCore15DNSResolveQueue3addERKNS_6StringE
__ZN7WebCore15DNSResolveQueue7resolveERKNS_6StringE
__ZN7WebCore12RenderObject29markContainingBlocksForLayoutEbPS0_
__ZN7WebCoreL16inputConstructorERKNS_13QualifiedNameEPNS_8DocumentEPNS_15HTMLFormElementEb
__ZN7WebCore16HTMLInputElementC1ERKNS_13QualifiedNameEPNS_8DocumentEPNS_15HTMLFormElementE
__ZN7WebCore16HTMLInputElementC2ERKNS_13QualifiedNameEPNS_8DocumentEPNS_15HTMLFormElementE
__ZN7WebCore26HTMLTextFormControlElementC2ERKNS_13QualifiedNameEPNS_8DocumentEPNS_15HTMLFormElementE
__ZN7WebCore31HTMLFormControlElementWithStateC2ERKNS_13QualifiedNameEPNS_8DocumentEPNS_15HTMLFormElementE
__ZN7WebCore22HTMLFormControlElementC2ERKNS_13QualifiedNameEPNS_8DocumentEPNS_15HTMLFormElementENS_4Node16ConstructionTypeE
__ZNK7WebCore11HTMLElement16findFormAncestorEv
__ZN3WTF11ListHashSetIPN7WebCore7ElementENS_7PtrHashIS3_EEE3addERKS3_
__ZN3WTF11ListHashSetIPN7WebCore7ElementENS_7PtrHashIS3_EEE10appendNodeEPNS_15ListHashSetNodeIS3_EE
__ZN7WebCore16InputElementDataC1Ev
__ZN7WebCore16InputElementDataC2Ev
__ZNK7WebCore16HTMLInputElement10mapToEntryERKNS_13QualifiedNameERNS_20MappedAttributeEntryE
__ZN7WebCore16HTMLInputElement20parseMappedAttributeEPNS_15MappedAttributeE
__ZN7WebCore16HTMLInputElement12setInputTypeERKNS_6StringE
__ZN7WebCoreL13createTypeMapEv
__ZN3WTF7HashMapIN7WebCore6StringENS1_16HTMLInputElement9InputTypeENS1_15CaseFoldingHashENS_10HashTraitsIS2_EENS6_IS4_EEE3addER
__ZN3WTF9HashTableIN7WebCore6StringESt4pairIS2_NS1_16HTMLInputElement9InputTypeEENS_18PairFirstExtractorIS6_EENS1_15CaseFolding
__ZNK3WTF7HashMapIN7WebCore6StringENS1_16HTMLInputElement9InputTypeENS1_15CaseFoldingHashENS_10HashTraitsIS2_EENS6_IS4_EEE3getE
__ZN7WebCore19CheckedRadioButtons12removeButtonEPNS_22HTMLFormControlElementE
__ZNK7WebCore16HTMLInputElement15formControlNameEv
__ZNK7WebCore16InputElementData4nameEv
__ZNK7WebCore16HTMLInputElement32storesValueSeparateFromAttributeEv
__ZN7WebCore22HTMLFormControlElement25setNeedsWillValidateCheckEv
__ZNK7WebCore16HTMLInputElement18recalcWillValidateEv
__ZNK7WebCore22HTMLFormControlElement18recalcWillValidateEv
__ZN7WebCore12InputElement19updateValueIfNeededERNS_16InputElementDataEPS0_
__ZN7WebCore12InputElement13sanitizeValueEPKS0_RKNS_6StringE
__ZN7WebCore12InputElement22sanitizeUserInputValueEPKS0_RKNS_6StringEi
__ZThn144_NK7WebCore16HTMLInputElement11isTextFieldEv
__ZNK7WebCore16HTMLInputElement11isTextFieldEv
__ZN7WebCore19CheckedRadioButtons9addButtonEPNS_22HTMLFormControlElementE
__ZNK7WebCore16HTMLInputElement13isRadioButtonEv
__ZN7WebCore22HTMLFormControlElement21setNeedsValidityCheckEv
__ZN7WebCore22HTMLFormControlElement8validityEv
__ZNK7WebCore13ValidityState5validEv
__ZNK7WebCore13ValidityState12typeMismatchEv
__ZNK7WebCore16HTMLInputElement5valueEv
__ZNK7WebCore16HTMLInputElement13sanitizeValueERKNS_6StringE
__ZNK7WebCore13ValidityState12stepMismatchEv
__ZNK7WebCore16HTMLInputElement12stepMismatchEv
__ZNK7WebCore16HTMLInputElement19getAllowedValueStepEPd
__ZNK7WebCore16HTMLInputElement17getStepParametersEPdS1_
__ZNK7WebCore13ValidityState14rangeUnderflowEv
__ZNK7WebCore16HTMLInputElement14rangeUnderflowEv
__ZNK7WebCore13ValidityState13rangeOverflowEv
__ZNK7WebCore16HTMLInputElement13rangeOverflowEv
__ZNK7WebCore16HTMLInputElement7tooLongEv
__ZNK7WebCore16HTMLInputElement15patternMismatchEv
__ZNK7WebCore16HTMLInputElement12valueMissingEv
__ZNK7WebCore16HTMLInputElement21isRequiredFormControlEv
__ZNK7WebCore22HTMLFormControlElement8requiredEv
__ZNK7WebCore22HTMLFormControlElement12willValidateEv
__ZN7WebCore12InputElement22notifyFormStateChangedEPNS_7ElementE
__ZN7WebCore26HTMLTextFormControlElement20parseMappedAttributeEPNS_15MappedAttributeE
__ZN7WebCore22HTMLFormControlElement20parseMappedAttributeEPNS_15MappedAttributeE
__ZNK7WebCore16HTMLInputElement17endTagRequirementEv
__ZNK7WebCore16HTMLInputElement11tagPriorityEv
__ZN7WebCore22HTMLFormControlElement16insertedIntoTreeEb
__ZN7WebCore16HTMLInputElement6attachEv
__ZN7WebCore22HTMLFormControlElement6attachEv
__ZNK7WebCore11CSSSelector9attributeEv
__ZN7WebCoreL36htmlAttributeHasCaseInsensitiveValueERKNS_13QualifiedNameE
__ZN7WebCoreL17addLocalNameToSetEPN3WTF7HashSetIPNS_16AtomicStringImplENS0_7PtrHashIS3_EENS0_10HashTraitsIS3_EEEERKNS_13Qualifi
__ZN7WebCore11CSSSelector8pseudoIdENS0_10PseudoTypeE
__ZNK7WebCore22HTMLFormControlElement20isFormControlElementEv
__ZN7WebCore14toInputElementEPNS_7ElementE
__ZThn144_NK7WebCore16HTMLInputElement12isAutofilledEv
__ZNK7WebCore16HTMLInputElement12isAutofilledEv
__ZNK7WebCore14RenderThemeMac10systemFontEiRNS_15FontDescriptionE
__ZN7WebCoreL12toFontWeightEl
__ZN7WebCore7DataRefINS_18StyleInheritedDataEE6accessEv
__ZN7WebCore11RenderStyle13setTextShadowEPNS_10ShadowDataEb
__ZN7WebCore22StyleRareInheritedDataC1ERKS0_
__ZN7WebCore22StyleRareInheritedDataC2ERKS0_
__ZN7WebCore7DataRefINS_25StyleRareNonInheritedDataEE6accessEv
__ZN7WebCore25StyleRareNonInheritedDataC1ERKS0_
__ZN7WebCore25StyleRareNonInheritedDataC2ERKS0_
__ZN7WebCoreL16colorForCSSValueEi
__ZN7WebCore17CSSPrimitiveValue18computeLengthShortEPNS_11RenderStyleES2_d
__ZN7WebCore16HTMLInputElement16rendererIsNeededEPNS_11RenderStyleE
__ZN7WebCore22StyleRareInheritedDataD1Ev
__ZN7WebCore22StyleRareInheritedDataD2Ev
__ZN7WebCore25StyleRareNonInheritedDataD1Ev
__ZN7WebCore25StyleRareNonInheritedDataD2Ev
__ZNK7WebCore16HTMLInputElement17isInputTypeHiddenEv
__ZNK7WebCore22HTMLFormControlElement9autofocusEv
__ZNK7WebCore7Element12hasAttributeERKNS_13QualifiedNameE
__ZNK7WebCore7Element14hasAttributeNSERKNS_6StringES3_
__ZN7WebCore31HTMLFormControlElementWithState21finishParsingChildrenEv
__ZNK7WebCore31HTMLFormControlElementWithState36shouldSaveAndRestoreFormControlStateEv
__ZNK7WebCore16HTMLInputElement12autoCompleteEv
__ZNK7WebCore31HTMLFormControlElementWithState12autoCompleteEv
__ZNK7WebCore8Document26hasStateForNewFormElementsEv
__ZN7WebCore9FillLayeraSERKS0_
__ZN7WebCore11RenderTheme11adjustStyleEPNS_16CSSStyleSelectorEPNS_11RenderStyleEPNS_7ElementEbRKNS_10BorderDataERKNS_9FillLayer
__ZNK7WebCore14RenderThemeMac15isControlStyledEPKNS_11RenderStyleERKNS_10BorderDataERKNS_9FillLayerERKNS_5ColorE
__ZNK7WebCore14NinePieceImageeqERKS0_
__ZN7WebCore11RenderStyle12setBoxShadowEPNS_10ShadowDataEb
__ZNK7WebCore14RenderThemeMac20adjustTextFieldStyleEPNS_16CSSStyleSelectorEPNS_11RenderStyleEPNS_7ElementE
__ZN7WebCoreL17iframeConstructorERKNS_13QualifiedNameEPNS_8DocumentEPNS_15HTMLFormElementEb
__ZN7WebCore17HTMLIFrameElement6createERKNS_13QualifiedNameEPNS_8DocumentE
__ZN7WebCore20HTMLFrameElementBaseC2ERKNS_13QualifiedNameEPNS_8DocumentE
__ZN7WebCore21HTMLFrameOwnerElementC2ERKNS_13QualifiedNameEPNS_8DocumentE
__ZNK7WebCore17HTMLIFrameElement10mapToEntryERKNS_13QualifiedNameERNS_20MappedAttributeEntryE
__ZN7WebCore17HTMLIFrameElement20parseMappedAttributeEPNS_15MappedAttributeE
__ZN7WebCore20HTMLFrameElementBase20parseMappedAttributeEPNS_15MappedAttributeE
__ZN7WebCore20HTMLFrameElementBase11setLocationERKNS_6StringE
__ZNK7WebCore17HTMLIFrameElement17endTagRequirementEv
__ZNK7WebCore17HTMLIFrameElement11tagPriorityEv
__ZN7WebCore17HTMLIFrameElement20insertedIntoDocumentEv
__ZN7WebCore12HTMLDocument17addExtraNamedItemERKNS_12AtomicStringE
__ZN7WebCoreL12addItemToMapERN3WTF14HashCountedSetIPNS_16AtomicStringImplENS0_7PtrHashIS3_EENS0_10HashTraitsIS3_EEEERKNS_12Atom
__ZN3WTF7HashMapIPN7WebCore16AtomicStringImplEjNS_7PtrHashIS3_EENS_10HashTraitsIS3_EENS6_IjEEE3addERKS3_RKj
__ZN7WebCore20HTMLFrameElementBase20insertedIntoDocumentEv
__ZN7WebCore20HTMLFrameElementBase6attachEv
__ZN7WebCore13ContainerNode23queuePostAttachCallbackEPFvPNS_4NodeEES2_
__ZN3WTF6VectorISt4pairIPFvPN7WebCore4NodeEENS_6RefPtrIS3_EEELm0EE14expandCapacityEmPKS9_
__ZN3WTF6VectorISt4pairIPFvPN7WebCore4NodeEENS_6RefPtrIS3_EEELm0EE14expandCapacityEm
__ZN3WTF6VectorISt4pairIPFvPN7WebCore4NodeEENS_6RefPtrIS3_EEELm0EE15reserveCapacityEm
__ZN7WebCore20HTMLFrameElementBase32setRemainsAliveOnRemovalFromTreeEb
__ZN7WebCore7DataRefINS_12StyleBoxDataEE6accessEv
__ZN7WebCore17HTMLIFrameElement16rendererIsNeededEPNS_11RenderStyleE
__ZNK7WebCore20HTMLFrameElementBase12isURLAllowedEv
__ZN7WebCore17HTMLIFrameElement14createRendererEPNS_11RenderArenaEPNS_11RenderStyleE
__ZN7WebCore12RenderIFrameC1EPNS_7ElementE
__ZN7WebCore12RenderIFrameC2EPNS_7ElementE
__ZN7WebCore15RenderFrameBaseC2EPNS_7ElementE
__ZN7WebCore10RenderPartC2EPNS_7ElementE
__ZN7WebCore12RenderWidgetC2EPNS_4NodeE
__ZN7WebCore14RenderReplacedC2EPNS_4NodeE
__ZN7WebCore10RenderView9addWidgetEPNS_12RenderWidgetE
__ZN3WTF7HashSetIPN7WebCore12RenderWidgetENS_7PtrHashIS3_EENS_10HashTraitsIS3_EEE3addERKS3_
__ZN3WTF9HashTableIPN7WebCore12RenderWidgetES3_NS_17IdentityExtractorIS3_EENS_7PtrHashIS3_EENS_10HashTraitsIS3_EES9_E6expandEv
__ZN3WTF9HashTableIPN7WebCore12RenderWidgetES3_NS_17IdentityExtractorIS3_EENS_7PtrHashIS3_EENS_10HashTraitsIS3_EES9_E6rehashEi
__ZN3WTF9HashTableIPN7WebCore12RenderWidgetES3_NS_17IdentityExtractorIS3_EENS_7PtrHashIS3_EENS_10HashTraitsIS3_EES9_E13allocate
__ZN7WebCore12RenderWidget14styleDidChangeENS_15StyleDifferenceEPKNS_11RenderStyleE
__ZN7WebCore14RenderReplaced14styleDidChangeENS_15StyleDifferenceEPKNS_11RenderStyleE
__ZNK7WebCore12RenderIFrame13requiresLayerEv
__ZN7WebCore13ContainerNode27dispatchPostAttachCallbacksEv
__ZN7WebCore20HTMLFrameElementBase25setNameAndOpenURLCallbackEPNS_4NodeE
__ZN7WebCore20HTMLFrameElementBase17setNameAndOpenURLEv
__ZN7WebCore20HTMLFrameElementBase7setNameEv
__ZNK7WebCore9FrameTree15uniqueChildNameERKNS_12AtomicStringE
__ZN7WebCore20HTMLFrameElementBase7openURLEbb
__ZN7WebCore11FrameLoader12requestFrameEPNS_21HTMLFrameOwnerElementERKNS_6StringERKNS_12AtomicStringEbb
__ZN7WebCore20protocolIsJavaScriptERKNS_6StringE
__ZN7WebCore11FrameLoader11completeURLERKNS_6StringE
__ZN7WebCore11FrameLoader12loadSubframeEPNS_21HTMLFrameOwnerElementERKNS_4KURLERKNS_6StringES8_
__ZNK7WebCore20HTMLFrameElementBase13scrollingModeEv
__ZN7WebCore14SecurityOrigin7canLoadERKNS_4KURLERKNS_6StringEPNS_8DocumentE
__ZN7WebCore14SecurityOrigin21shouldTreatURLAsLocalERKNS_6StringE
__ZN7WebCore14SecurityOrigin18shouldHideReferrerERKNS_4KURLERKNS_6StringE
__ZN7WebCore9FrameTree11appendChildEN3WTF10PassRefPtrINS_5FrameEEE
__ZNK7WebCore10RenderPart12isRenderPartEv
__ZN7WebCore10RenderPart9setWidgetEN3WTF10PassRefPtrINS_6WidgetEEE
__ZN7WebCore12RenderWidget9setWidgetEN3WTF10PassRefPtrINS_6WidgetEEE
__ZN7WebCoreL17widgetRendererMapEv
__ZN3WTF7HashMapIPKN7WebCore6WidgetEPNS1_12RenderWidgetENS_7PtrHashIS4_EENS_10HashTraitsIS4_EENS9_IS6_EEE3addERKS4_RKS6_
__ZN3WTF9HashTableIPKN7WebCore6WidgetESt4pairIS4_PNS1_12RenderWidgetEENS_18PairFirstExtractorIS8_EENS_7PtrHashIS4_EENS_14PairHa
__ZN7WebCore10ScrollView4hideEv
__ZN7WebCore6Widget4hideEv
__ZN7WebCoreL22moveWidgetToParentSoonEPNS_6WidgetEPNS_9FrameViewE
__ZN7WebCore10ScrollView8addChildEN3WTF10PassRefPtrINS_6WidgetEEE
__ZN7WebCore10ScrollView9setParentEPS0_
__ZN7WebCore6Widget9setParentEPNS_10ScrollViewE
__ZN3WTF7HashSetINS_6RefPtrIN7WebCore6WidgetEEENS_7PtrHashIS4_EENS_10HashTraitsIS4_EEE3addERKS4_
__ZN3WTF9HashTableINS_6RefPtrIN7WebCore6WidgetEEES4_NS_17IdentityExtractorIS4_EENS_7PtrHashIS4_EENS_10HashTraitsIS4_EESA_E6expa
__ZN3WTF9HashTableINS_6RefPtrIN7WebCore6WidgetEEES4_NS_17IdentityExtractorIS4_EENS_7PtrHashIS4_EENS_10HashTraitsIS4_EESA_E6reha
__ZN3WTF9HashTableINS_6RefPtrIN7WebCore6WidgetEEES4_NS_17IdentityExtractorIS4_EENS_7PtrHashIS4_EENS_10HashTraitsIS4_EESA_E13all
__ZN7WebCore10ScrollView16platformAddChildEPNS_6WidgetE
__ZN7WebCore10RenderPart11viewClearedEv
__ZN7WebCore9FrameView20setCanHaveScrollbarsEb
__ZN7WebCore10ScrollView20setCanHaveScrollbarsEb
__ZNK7WebCore14SecurityOrigin9canAccessEPKS0_
__ZN3WTF6VectorINS_6RefPtrIN7WebCore5FrameEEELm10EE6shrinkEm
__ZN7WebCore11FrameLoader21loadURLIntoChildFrameERKNS_4KURLERKNS_6StringEPNS_5FrameE
__ZNK7WebCore11HistoryItem8childrenEv
__ZN7WebCore14DocumentLoader21popArchiveForSubframeERKNS_6StringE
__ZN7WebCore11FrameLoader7loadURLERKNS_4KURLERKNS_6StringES6_bNS_13FrameLoadTypeEN3WTF10PassRefPtrINS_5EventEEENS9_INS_9FormSta
__ZN7WebCore14SecurityOrigin16createFromStringERKNS_6StringE
__ZNK7WebCore14SecurityOrigin8toStringEv
__ZN7WebCore11FrameLoader22findFrameForNavigationERKNS_12AtomicStringE
__ZNK7WebCore9FrameTree4findERKNS_12AtomicStringE
__ZNK7WebCore11FrameLoader21shouldAllowNavigationEPNS_5FrameE
__ZN7WebCore16NavigationActionC1ERKNS_4KURLENS_13FrameLoadTypeEbN3WTF10PassRefPtrINS_5EventEEE
__ZN7WebCore16NavigationActionC2ERKNS_4KURLENS_13FrameLoadTypeEbN3WTF10PassRefPtrINS_5EventEEE
__ZN7WebCore11FrameLoader24loadWithNavigationActionERKNS_15ResourceRequestERKNS_16NavigationActionEbNS_13FrameLoadTypeEN3WTF10P
__ZN7WebCore13ContainerNode23dispatchBeforeLoadEventERKNS_6StringE
__ZN7WebCore11FrameLoader29checkIfDisplayInsecureContentEPNS_14SecurityOriginERKNS_4KURLE
__ZN7WebCore11FrameLoader14isMixedContentEPNS_14SecurityOriginERKNS_4KURLE
__ZNK7WebCore12RenderWidget8isWidgetEv
__ZN7WebCore5Frame19setInViewSourceModeEb
__ZN3WTF6VectorISt4pairIPFvPN7WebCore4NodeEENS_6RefPtrIS3_EEELm0EE14shrinkCapacityEm
__ZN3WTF6VectorISt4pairIPFvPN7WebCore4NodeEENS_6RefPtrIS3_EEELm0EE6shrinkEm
__ZN7WebCore28createAttributeEventListenerEPNS_4NodeEPNS_9AttributeE
__ZN7WebCore4Node16addEventListenerERKNS_12AtomicStringEN3WTF10PassRefPtrINS_13EventListenerEEEb
__ZN7WebCore4Node21ensureEventTargetDataEv
__ZN7WebCore7Element14createRareDataEv
__ZNK7WebCore7Element19rareIDAttributeNameEv
__ZNK7WebCore4Node15rareDataFocusedEv
__ZNK7WebCore16CSSStyleSelector15smallerFontSizeEfb
__ZN7WebCoreL16imageConstructorERKNS_13QualifiedNameEPNS_8DocumentEPNS_15HTMLFormElementEb
__ZN7WebCore16HTMLImageElementC1ERKNS_13QualifiedNameEPNS_8DocumentEPNS_15HTMLFormElementE
__ZN7WebCore16HTMLImageElementC2ERKNS_13QualifiedNameEPNS_8DocumentEPNS_15HTMLFormElementE
__ZN7WebCore15HTMLImageLoaderC1EPNS_7ElementE
__ZN7WebCore15HTMLImageLoaderC2EPNS_7ElementE
__ZN7WebCore11ImageLoaderC2EPNS_7ElementE
__ZNK7WebCore16HTMLImageElement10mapToEntryERKNS_13QualifiedNameERNS_20MappedAttributeEntryE
__ZN7WebCore16HTMLImageElement20parseMappedAttributeEPNS_15MappedAttributeE
__ZN7WebCore11ImageLoader38updateFromElementIgnoringPreviousErrorEv
__ZN7WebCore11ImageLoader17updateFromElementEv
__ZNK7WebCore7Element24imageSourceAttributeNameEv
__ZNK7WebCore15HTMLImageLoader9sourceURIERKNS_12AtomicStringE
__ZN7WebCore9DocLoader12requestImageERKNS_6StringE
__ZNK7WebCore9DocLoader5frameEv
__ZN7WebCore9DocLoader15requestResourceENS_14CachedResource4TypeERKNS_6StringES5_b
__ZN7WebCore9DocLoader10canRequestENS_14CachedResource4TypeERKNS_4KURLE
__ZN7WebCore9DocLoader14checkForReloadERKNS_4KURLE
__ZN7WebCore5Cache14resourceForURLERKNS_6StringE
__ZNK3WTF7HashMapIN7WebCore6StringEPNS1_14CachedResourceENS1_10StringHashENS_10HashTraitsIS2_EENS6_IS4_EEE3getERKS2_
__ZN7WebCore5Cache15requestResourceEPNS_9DocLoaderENS_14CachedResource4TypeERKNS_4KURLERKNS_6StringEb
__ZN7WebCore14SecurityOrigin21restrictAccessToLocalEv
__ZN7WebCoreL14createResourceENS_14CachedResource4TypeERKNS_4KURLERKNS_6StringE
__ZN7WebCore11CachedImageC1ERKNS_6StringE
__ZN7WebCore11CachedImageC2ERKNS_6StringE
__ZN7WebCore14CachedResourceC2ERKNS_6StringENS0_4TypeE
__ZN7WebCore11CachedImage4loadEPNS_9DocLoaderE
__ZN7WebCore14CachedResource4loadEPNS_9DocLoaderEbNS_19SecurityCheckPolicyEb
__ZN7WebCore6Loader4loadEPNS_9DocLoaderEPNS_14CachedResourceEbNS_19SecurityCheckPolicyEb
__ZN7WebCore7RequestC1EPNS_9DocLoaderEPNS_14CachedResourceEbNS_19SecurityCheckPolicyEb
__ZN7WebCore7RequestC2EPNS_9DocLoaderEPNS_14CachedResourceEbNS_19SecurityCheckPolicyEb
__ZN7WebCore14CachedResource10setRequestEPNS_7RequestE
__ZNK3WTF7HashMapIPN7WebCore16AtomicStringImplENS_6RefPtrINS1_6Loader4HostEEENS_7PtrHashIS3_EENS_10HashTraitsIS3_EENSA_IS7_EEE3
__ZN3WTF7HashMapIPN7WebCore16AtomicStringImplENS_6RefPtrINS1_6Loader4HostEEENS_7PtrHashIS3_EENS_10HashTraitsIS3_EENSA_IS7_EEE3a
__ZN3WTF9HashTableIPN7WebCore16AtomicStringImplESt4pairIS3_NS_6RefPtrINS1_6Loader4HostEEEENS_18PairFirstExtractorIS9_EENS_7PtrH
__ZNK7WebCore6Loader17determinePriorityEPKNS_14CachedResourceE
__ZN7WebCore6Loader4Host10addRequestEPNS_7RequestENS0_8PriorityE
__ZN3WTF5DequeIPN7WebCore7RequestEE14expandCapacityEv
__ZN7WebCore9DocLoader21incrementRequestCountEv
__ZN7WebCore17SubresourceLoader6createEPNS_5FrameEPNS_23SubresourceLoaderClientERKNS_15ResourceRequestENS_19SecurityCheckPolicy
__ZNK7WebCore11FrameLoader16outgoingReferrerEv
__ZNK7WebCore11FrameLoader14outgoingOriginEv
__ZNK7WebCore19ResourceRequestBase13isConditionalEv
__ZNK7WebCore13HTTPHeaderMap8containsEPKc
__ZNK7WebCore11FrameLoader15originalRequestEv
__ZN7WebCore19ResourceRequestBase14setCachePolicyENS_26ResourceRequestCachePolicyE
__ZN7WebCore11FrameLoader34addExtraFieldsToSubresourceRequestERNS_15ResourceRequestE
__ZN7WebCore17SubresourceLoaderC1EPNS_5FrameEPNS_23SubresourceLoaderClientEbb
__ZN7WebCore17SubresourceLoaderC2EPNS_5FrameEPNS_23SubresourceLoaderClientEbb
__ZN7WebCore14DocumentLoader20addSubresourceLoaderEPNS_14ResourceLoaderE
__ZN3WTF7HashSetINS_6RefPtrIN7WebCore14ResourceLoaderEEENS_7PtrHashIS4_EENS_10HashTraitsIS4_EEE3addERKS4_
__ZN3WTF9HashTableINS_6RefPtrIN7WebCore14ResourceLoaderEEES4_NS_17IdentityExtractorIS4_EENS_7PtrHashIS4_EENS_10HashTraitsIS4_EE
__ZN7WebCore14ResourceLoader4loadERKNS_15ResourceRequestE
__ZN7WebCore17SubresourceLoader15willSendRequestERNS_15ResourceRequestERKNS_16ResourceResponseE
__ZN7WebCore14DocumentLoader19scheduleArchiveLoadEPNS_14ResourceLoaderERKNS_15ResourceRequestERKNS_4KURLE
__ZNK7WebCore14DocumentLoader21archiveResourceForURLERKNS_4KURLE
__ZN7WebCore20ApplicationCacheHost17maybeLoadResourceEPNS_14ResourceLoaderERNS_15ResourceRequestERKNS_4KURLE
__ZN7WebCore20ApplicationCacheHost38shouldLoadResourceFromApplicationCacheERKNS_15ResourceRequestERPNS_24ApplicationCacheResour
__ZN7WebCore17SubresourceLoader26shouldUseCredentialStorageEv
__ZN7WebCore23SubresourceLoaderClient29getShouldUseCredentialStorageEPNS_17SubresourceLoaderERb
__ZN3WTF7HashMapINS_6RefPtrIN7WebCore17SubresourceLoaderEEEPNS2_7RequestENS_7PtrHashIS4_EENS_10HashTraitsIS4_EENS9_IS6_EEE3addE
__ZN3WTF9HashTableINS_6RefPtrIN7WebCore17SubresourceLoaderEEESt4pairIS4_PNS2_7RequestEENS_18PairFirstExtractorIS8_EENS_7PtrHash
__ZN3WTF7HashMapIN7WebCore6StringEPNS1_14CachedResourceENS1_10StringHashENS_10HashTraitsIS2_EENS6_IS4_EEE3setERKS2_RKS4_
__ZN3WTF9HashTableIN7WebCore6StringESt4pairIS2_PNS1_14CachedResourceEENS_18PairFirstExtractorIS6_EENS1_10StringHashENS_14PairHa
__ZN7WebCore5Cache16resourceAccessedEPNS_14CachedResourceE
__ZN7WebCore5Cache17removeFromLRUListEPNS_14CachedResourceE
__ZNK7WebCore14CachedResource12overheadSizeEv
__ZN7WebCore5Cache10adjustSizeEbi
__ZN7WebCore5Cache15insertInLRUListEPNS_14CachedResourceE
__ZN7WebCore5Cache10lruListForEPNS_14CachedResourceE
__ZN3WTF6VectorIN7WebCore5Cache7LRUListELm32EE4growEm
__ZN3WTF7HashMapIN7WebCore6StringENS1_20CachedResourceHandleINS1_14CachedResourceEEENS1_10StringHashENS_10HashTraitsIS2_EENS7_I
__ZN3WTF9HashTableIN7WebCore6StringESt4pairIS2_NS1_20CachedResourceHandleINS1_14CachedResourceEEEENS_18PairFirstExtractorIS7_EE
__ZN7WebCore24CachedResourceHandleBase11setResourceEPNS_14CachedResourceE
__ZN7WebCore9DocLoader22checkCacheObjectStatusEPNS_14CachedResourceE
__ZN7WebCore14CachedResource9addClientEPNS_20CachedResourceClientE
__ZN7WebCore14CachedResource14addClientToSetEPNS_20CachedResourceClientE
__ZN7WebCore5Cache22addToLiveResourcesSizeEPNS_14CachedResourceE
__ZN3WTF7HashMapIPN7WebCore20CachedResourceClientEjNS_7PtrHashIS3_EENS_10HashTraitsIS3_EENS6_IjEEE3addERKS3_RKj
__ZN3WTF9HashTableIPN7WebCore20CachedResourceClientESt4pairIS3_jENS_18PairFirstExtractorIS5_EENS_7PtrHashIS3_EENS_14PairHashTra
__ZN7WebCore11CachedImage12didAddClientEPNS_20CachedResourceClientE
__ZN7WebCore11ImageLoader30dispatchPendingBeforeLoadEventEv
__ZN7WebCore11ImageLoader14updateRendererEv
__ZNK7WebCore16HTMLImageElement17endTagRequirementEv
__ZNK7WebCore16HTMLImageElement11tagPriorityEv
__ZN7WebCore16HTMLImageElement20insertedIntoDocumentEv
__ZN7WebCore12HTMLDocument12addNamedItemERKNS_12AtomicStringE
__ZN7WebCore16HTMLImageElement16insertedIntoTreeEb
__ZN7WebCore16HTMLImageElement6attachEv
__ZN7WebCore16CSSStyleSelector12mapFillImageEPNS_9FillLayerEPNS_8CSSValueE
__ZN7WebCore16CSSStyleSelector10styleImageEPNS_8CSSValueE
__ZNK7WebCore13CSSImageValue12isImageValueEv
__ZN7WebCore13CSSImageValue11cachedImageEPNS_9DocLoaderE
__ZNK7WebCore17CSSPrimitiveValue14getStringValueEv
__ZN7WebCore13CSSImageValue11cachedImageEPNS_9DocLoaderERKNS_6StringE
__ZN7WebCore16CSSStyleSelector14mapFillRepeatXEPNS_9FillLayerEPNS_8CSSValueE
__ZN7WebCore16CSSStyleSelector14mapFillRepeatYEPNS_9FillLayerEPNS_8CSSValueE
__ZN7WebCore16CSSStyleSelector16mapFillXPositionEPNS_9FillLayerEPNS_8CSSValueE
__ZN7WebCore16CSSStyleSelector16mapFillYPositionEPNS_9FillLayerEPNS_8CSSValueE
__ZN7WebCore16HTMLImageElement14createRendererEPNS_11RenderArenaEPNS_11RenderStyleE
__ZN7WebCore11RenderImageC1EPNS_4NodeE
__ZN7WebCore11RenderImageC2EPNS_4NodeE
__ZN7WebCore14RenderReplacedC2EPNS_4NodeERKNS_7IntSizeE
__ZN7WebCore11RenderImage13updateAltTextEv
__ZNK7WebCore16HTMLImageElement7altTextEv
__ZN7WebCore16StyleCachedImage9addClientEPNS_12RenderObjectE
__ZNK7WebCore11RenderImage7isImageEv
__ZNK7WebCore11RenderImage8hasImageEv
__ZN7WebCore11RenderImage14setCachedImageEPNS_11CachedImageE
__ZN7WebCoreeqINS_11CachedImageES1_EEbRKNS_20CachedResourceHandleIT_EEPKT0_
__ZN7WebCore10HTMLParser20formCreateErrorCheckEPNS_5TokenERN3WTF6RefPtrINS_4NodeEEE
__ZN7WebCore15HTMLFormElementC1ERKNS_13QualifiedNameEPNS_8DocumentE
__ZN7WebCore15HTMLFormElementC2ERKNS_13QualifiedNameEPNS_8DocumentE
__ZN7WebCore15FormDataBuilderC1Ev
__ZN7WebCore15FormDataBuilderC2Ev
__ZN7WebCore15HTMLFormElement20parseMappedAttributeEPNS_15MappedAttributeE
__ZNK7WebCore15HTMLFormElement17endTagRequirementEv
__ZNK7WebCore15HTMLFormElement11tagPriorityEv
__ZN7WebCore15HTMLFormElement20insertedIntoDocumentEv
__ZN7WebCore15HTMLFormElement6attachEv
__ZN7WebCore15HTMLFormElement16rendererIsNeededEPNS_11RenderStyleE
__ZN7WebCore15HTMLFormElement19registerFormElementEPNS_22HTMLFormControlElementE
__ZNK7WebCore22HTMLFormControlElement15formControlNameEv
__ZNK7WebCore22HTMLFormControlElement13isRadioButtonEv
__ZN7WebCore15HTMLFormElement16formElementIndexEPNS_22HTMLFormControlElementE
__ZN3WTF6VectorIPN7WebCore22HTMLFormControlElementELm0EE14expandCapacityEmPKS3_
__ZN3WTF6VectorIPN7WebCore22HTMLFormControlElementELm0EE14expandCapacityEm
__ZN3WTF6VectorIPN7WebCore22HTMLFormControlElementELm0EE15reserveCapacityEm
__ZN7WebCore22HTMLFormControlElement34setFormControlValueMatchesRendererEb
__ZN7WebCore15HTMLFormElement18registerImgElementEPNS_16HTMLImageElementE
__ZN3WTF6VectorIPN7WebCore16HTMLImageElementELm0EE14expandCapacityEmPKS3_
__ZN3WTF6VectorIPN7WebCore16HTMLImageElementELm0EE14expandCapacityEm
__ZN3WTF6VectorIPN7WebCore16HTMLImageElementELm0EE15reserveCapacityEm
__ZN7WebCore13StyledElement22getMappedAttributeDeclENS_20MappedAttributeEntryEPNS_9AttributeE
__ZN7WebCore13StyledElement12addCSSLengthEPNS_15MappedAttributeEiRKNS_6StringE
__ZN7WebCore13StyledElement16createMappedDeclEPNS_15MappedAttributeE
__ZN7WebCore26CSSMutableStyleDeclarationC2EPNS_7CSSRuleE
__ZN7WebCore26CSSMutableStyleDeclaration17setLengthPropertyEiRKNS_6StringEbb
__ZN7WebCore26CSSMutableStyleDeclaration11setPropertyEiRKNS_6StringEbb
__ZN7WebCore9CSSParser10parseValueEPNS_26CSSMutableStyleDeclarationEiRKNS_6StringEb
__ZN7WebCore13StyledElement22setMappedAttributeDeclENS_20MappedAttributeEntryEPNS_9AttributeEPNS_29CSSMappedAttributeDeclaratio
__ZN3WTF7HashMapIN7WebCore18MappedAttributeKeyEPNS1_29CSSMappedAttributeDeclarationENS1_19MappedAttributeHashENS1_24MappedAttri
__ZN7WebCore19MappedAttributeHash4hashERKNS_18MappedAttributeKeyE
__ZNK3WTF7HashMapIN7WebCore18MappedAttributeKeyEPNS1_29CSSMappedAttributeDeclarationENS1_19MappedAttributeHashENS1_24MappedAttr
__ZN7WebCore9FrameView25scheduleRelayoutOfSubtreeEPNS_12RenderObjectE
__ZN7WebCore10HTMLParser29pCloserStrictCreateErrorCheckEPNS_5TokenERN3WTF6RefPtrINS_4NodeEEE
__ZN7WebCoreL16tableConstructorERKNS_13QualifiedNameEPNS_8DocumentEPNS_15HTMLFormElementEb
__ZN7WebCore16HTMLTableElementC1ERKNS_13QualifiedNameEPNS_8DocumentE
__ZN7WebCore16HTMLTableElementC2ERKNS_13QualifiedNameEPNS_8DocumentE
__ZNK7WebCore16HTMLTableElement10mapToEntryERKNS_13QualifiedNameERNS_20MappedAttributeEntryE
__ZN7WebCore16HTMLTableElement20parseMappedAttributeEPNS_15MappedAttributeE
__ZNK7WebCore16HTMLTableElement11cellBordersEv
__ZNK7WebCore16HTMLTableElement17endTagRequirementEv
__ZNK7WebCore16HTMLTableElement11tagPriorityEv
__ZN7WebCore16HTMLTableElement6attachEv
__ZNK7WebCore16HTMLTableElement36canHaveAdditionalAttributeStyleDeclsEv
__ZN3WTF6VectorIPN7WebCore26CSSMutableStyleDeclarationELm0EE14shrinkCapacityEm
__ZN7WebCore16HTMLTableElement29additionalAttributeStyleDeclsERN3WTF6VectorIPNS_26CSSMutableStyleDeclarationELm0EEE
__ZN7WebCore11RenderTableC1EPNS_4NodeE
__ZN7WebCore11RenderTableC2EPNS_4NodeE
__ZN3WTF6VectorIiLm0EE4fillERKim
__ZN3WTF6VectorIiLm0EE14shrinkCapacityEm
__ZN3WTF6VectorIiLm0EE15reserveCapacityEm
__ZSt4fillIPiiEvT_S1_RKT0_
__ZN3WTF6VectorIN7WebCore11RenderTable12ColumnStructELm0EE4fillERKS3_m
__ZN3WTF6VectorIN7WebCore11RenderTable12ColumnStructELm0EE14shrinkCapacityEm
__ZN3WTF6VectorIN7WebCore11RenderTable12ColumnStructELm0EE15reserveCapacityEm
__ZSt4fillIPN7WebCore11RenderTable12ColumnStructES2_EvT_S4_RKT0_
__ZN7WebCore11RenderTable14styleDidChangeENS_15StyleDifferenceEPKNS_11RenderStyleE
__ZN7WebCore11RenderTable17updateFirstLetterEv
__ZN7WebCore15AutoTableLayoutC1EPNS_11RenderTableE
__ZN7WebCore15AutoTableLayoutC2EPNS_11RenderTableE
__ZN7WebCore10HTMLParser28tableSectionCreateErrorCheckEPNS_5TokenERN3WTF6RefPtrINS_4NodeEEE
__ZN7WebCoreL23tablesectionConstructorERKNS_13QualifiedNameEPNS_8DocumentEPNS_15HTMLFormElementEb
__ZN7WebCore23HTMLTableSectionElementC1ERKNS_13QualifiedNameEPNS_8DocumentE
__ZN7WebCore23HTMLTableSectionElementC2ERKNS_13QualifiedNameEPNS_8DocumentE
__ZNK7WebCore23HTMLTableSectionElement17endTagRequirementEv
__ZNK7WebCore23HTMLTableSectionElement11tagPriorityEv
__ZN7WebCore16HTMLTableElement8addChildEN3WTF10PassRefPtrINS_4NodeEEE
__ZN7WebCore16HTMLTableElement8checkDTDEPKNS_4NodeE
__ZNK7WebCore23HTMLTableSectionElement36canHaveAdditionalAttributeStyleDeclsEv
__ZN7WebCore23HTMLTableSectionElement29additionalAttributeStyleDeclsERN3WTF6VectorIPNS_26CSSMutableStyleDeclarationELm0EEE
__ZN7WebCore16HTMLTableElement19addSharedGroupDeclsEbRN3WTF6VectorIPNS_26CSSMutableStyleDeclarationELm0EEE
__ZNK7WebCore17CSSInheritedValue12cssValueTypeEv
__ZN7WebCore18RenderTableSectionC1EPNS_4NodeE
__ZN7WebCore18RenderTableSectionC2EPNS_4NodeE
__ZN7WebCore11RenderTable8addChildEPNS_12RenderObjectES2_
__ZNK7WebCore18RenderTableSection14isTableSectionEv
__ZNK7WebCore11RenderTable7isTableEv
__ZNK7WebCore18RenderTableSection15virtualChildrenEv
__ZN7WebCoreL19tablerowConstructorERKNS_13QualifiedNameEPNS_8DocumentEPNS_15HTMLFormElementEb
__ZN7WebCore19HTMLTableRowElementC1ERKNS_13QualifiedNameEPNS_8DocumentE
__ZN7WebCore19HTMLTableRowElementC2ERKNS_13QualifiedNameEPNS_8DocumentE
__ZNK7WebCore19HTMLTableRowElement17endTagRequirementEv
__ZNK7WebCore19HTMLTableRowElement11tagPriorityEv
__ZN7WebCore23HTMLTableSectionElement8addChildEN3WTF10PassRefPtrINS_4NodeEEE
__ZN7WebCore23HTMLTableSectionElement8checkDTDEPKNS_4NodeE
__ZN7WebCore14RenderTableRowC1EPNS_4NodeE
__ZN7WebCore14RenderTableRowC2EPNS_4NodeE
__ZN7WebCore14RenderTableRow15styleWillChangeENS_15StyleDifferenceEPKNS_11RenderStyleE
__ZNK7WebCore14RenderTableRow13requiresLayerEv
__ZN7WebCore18RenderTableSection8addChildEPNS_12RenderObjectES2_
__ZNK7WebCore14RenderTableRow10isTableRowEv
__ZN7WebCore18RenderTableSection10ensureRowsEi
__ZN3WTF6VectorIN7WebCore18RenderTableSection9RowStructELm0EE4growEm
__ZN3WTF6VectorIN7WebCore18RenderTableSection9RowStructELm0EE14expandCapacityEm
__ZN3WTF6VectorIN7WebCore18RenderTableSection9RowStructELm0EE15reserveCapacityEm
__ZN3WTF6VectorIN7WebCore18RenderTableSection10CellStructELm0EE4fillERKS3_m
__ZSt4fillIPN7WebCore18RenderTableSection10CellStructES2_EvT_S4_RKT0_
__ZN7WebCore18RenderTableSection15virtualChildrenEv
__ZNK7WebCore14RenderTableRow15virtualChildrenEv
__ZN7WebCore10HTMLParser25tableCellCreateErrorCheckEPNS_5TokenERN3WTF6RefPtrINS_4NodeEEE
__ZN7WebCoreL20tablecellConstructorERKNS_13QualifiedNameEPNS_8DocumentEPNS_15HTMLFormElementEb
__ZN7WebCore20HTMLTableCellElementC1ERKNS_13QualifiedNameEPNS_8DocumentE
__ZN7WebCore20HTMLTableCellElementC2ERKNS_13QualifiedNameEPNS_8DocumentE
__ZNK7WebCore20HTMLTableCellElement17endTagRequirementEv
__ZNK7WebCore20HTMLTableCellElement11tagPriorityEv
__ZN7WebCore19HTMLTableRowElement8addChildEN3WTF10PassRefPtrINS_4NodeEEE
__ZN7WebCore19HTMLTableRowElement8checkDTDEPKNS_4NodeE
__ZNK7WebCore20HTMLTableCellElement36canHaveAdditionalAttributeStyleDeclsEv
__ZN7WebCore20HTMLTableCellElement29additionalAttributeStyleDeclsERN3WTF6VectorIPNS_26CSSMutableStyleDeclarationELm0EEE
__ZN7WebCore16HTMLTableElement18addSharedCellDeclsERN3WTF6VectorIPNS_26CSSMutableStyleDeclarationELm0EEE
__ZN7WebCore16HTMLTableElement24addSharedCellBordersDeclERN3WTF6VectorIPNS_26CSSMutableStyleDeclarationELm0EEE
__ZN7WebCore13StyledElement22getMappedAttributeDeclENS_20MappedAttributeEntryERKNS_13QualifiedNameERKNS_12AtomicStringE
__ZN7WebCore8Document19scheduleStyleRecalcEv
__ZN7WebCore13StyledElement22setMappedAttributeDeclENS_20MappedAttributeEntryERKNS_13QualifiedNameERKNS_12AtomicStringEPNS_29CS
__ZN3WTF6VectorIPN7WebCore26CSSMutableStyleDeclarationELm0EE14expandCapacityEm
__ZN3WTF6VectorIPN7WebCore26CSSMutableStyleDeclarationELm0EE15reserveCapacityEm
__ZN7WebCore16HTMLTableElement24addSharedCellPaddingDeclERN3WTF6VectorIPNS_26CSSMutableStyleDeclarationELm0EEE
__ZN7WebCore15RenderTableCellC1EPNS_4NodeE
__ZN7WebCore15RenderTableCellC2EPNS_4NodeE
__ZN7WebCore15RenderTableCell17updateFromElementEv
__ZN7WebCore15RenderTableCell15styleWillChangeENS_15StyleDifferenceEPKNS_11RenderStyleE
__ZN7WebCore15RenderTableCell14styleDidChangeENS_15StyleDifferenceEPKNS_11RenderStyleE
__ZNK7WebCore15RenderTableCell13requiresLayerEv
__ZN7WebCore14RenderTableRow8addChildEPNS_12RenderObjectES2_
__ZNK7WebCore15RenderTableCell11isTableCellEv
__ZN7WebCore18RenderTableSection7addCellEPNS_15RenderTableCellEPNS_14RenderTableRowE
__ZN7WebCore14RenderTableRow15virtualChildrenEv
__ZN7WebCore11RenderTable12appendColumnEi
__ZN3WTF6VectorIN7WebCore11RenderTable12ColumnStructELm0EE4growEm
__ZN3WTF6VectorIN7WebCore11RenderTable12ColumnStructELm0EE14expandCapacityEm
__ZN7WebCore18RenderTableSection12appendColumnEi
__ZN3WTF6VectorIN7WebCore18RenderTableSection10CellStructELm0EE14expandCapacityEm
__ZN3WTF6VectorIN7WebCore18RenderTableSection10CellStructELm0EE15reserveCapacityEm
__ZN3WTF6VectorIiLm0EE4growEm
__ZN3WTF6VectorIiLm0EE14expandCapacityEm
__ZNK7WebCore20HTMLTableCellElement10mapToEntryERKNS_13QualifiedNameERNS_20MappedAttributeEntryE
__ZN7WebCore20HTMLTableCellElement20parseMappedAttributeEPNS_15MappedAttributeE
__ZN3WTF6VectorIPN7WebCore26CSSMutableStyleDeclarationELm0EE6shrinkEm
__ZN7WebCore4Node21setTabIndexExplicitlyEs
__ZN7WebCore12InputElement23parseMaxLengthAttributeERNS_16InputElementDataEPS0_PNS_7ElementEPNS_15MappedAttributeE
__ZN7WebCore31numCharactersInGraphemeClustersERKNS_6StringEj
__ZN7WebCore13textBreakNextEPNS_17TextBreakIteratorE
__ZNK7WebCore16HTMLInputElement9maxLengthEv
__ZN7WebCore16HTMLInputElement37registerForActivationCallbackIfNeededEv
__ZN7WebCore16HTMLInputElement23needsActivationCallbackEv
__ZN7WebCore8Document38registerForDocumentActivationCallbacksEPNS_7ElementE
__ZN3WTF7HashSetIPN7WebCore7ElementENS_7PtrHashIS3_EENS_10HashTraitsIS3_EEE3addERKS3_
__ZN3WTF9HashTableIPN7WebCore7ElementES3_NS_17IdentityExtractorIS3_EENS_7PtrHashIS3_EENS_10HashTraitsIS3_EES9_E6expandEv
__ZN3WTF9HashTableIPN7WebCore7ElementES3_NS_17IdentityExtractorIS3_EENS_7PtrHashIS3_EENS_10HashTraitsIS3_EES9_E6rehashEi
__ZN3WTF9HashTableIPN7WebCore7ElementES3_NS_17IdentityExtractorIS3_EENS_7PtrHashIS3_EENS_10HashTraitsIS3_EES9_E13allocateTableE
__ZN7WebCore16HTMLInputElement14createRendererEPNS_11RenderArenaEPNS_11RenderStyleE
__ZNK7WebCore26HTMLTextFormControlElement26placeholderShouldBeVisibleEv
__ZNK7WebCore16HTMLInputElement19supportsPlaceholderEv
__ZNK7WebCore16HTMLInputElement12isEmptyValueEv
__ZN7WebCore27RenderTextControlSingleLineC1EPNS_4NodeEb
__ZN7WebCore27RenderTextControlSingleLineC2EPNS_4NodeEb
__ZN7WebCore17RenderTextControlC2EPNS_4NodeEb
__ZN7WebCore27RenderTextControlSingleLine14styleDidChangeENS_15StyleDifferenceEPKNS_11RenderStyleE
__ZN7WebCore17RenderTextControl14styleDidChangeENS_15StyleDifferenceEPKNS_11RenderStyleE
__ZNK7WebCore17RenderTextControl15canHaveChildrenEv
__ZN7WebCore27RenderTextControlSingleLine17updateFromElementEv
__ZN7WebCore27RenderTextControlSingleLine21createSubtreeIfNeededEv
__ZNK7WebCore27RenderTextControlSingleLine12inputElementEv
__ZThn144_NK7WebCore16HTMLInputElement13isSearchFieldEv
__ZNK7WebCore16HTMLInputElement13isSearchFieldEv
__ZN7WebCore17RenderTextControl21createSubtreeIfNeededEPNS_23TextControlInnerElementE
__ZN7WebCore27TextControlInnerTextElementC1EPNS_8DocumentEPNS_4NodeE
__ZN7WebCore27TextControlInnerTextElementC2EPNS_8DocumentEPNS_4NodeE
__ZN7WebCore23TextControlInnerElementC2EPNS_8DocumentEPNS_4NodeE
__ZNK7WebCore27RenderTextControlSingleLine20createInnerTextStyleEPKNS_11RenderStyleE
__ZNK7WebCore17RenderTextControl20adjustInnerTextStyleEPKNS_11RenderStyleEPS1_
__ZNK7WebCore22HTMLFormControlElement20isEnabledFormControlEv
__ZNK7WebCore22HTMLFormControlElement8disabledEv
__ZNK7WebCore22HTMLFormControlElement21isReadOnlyFormControlEv
__ZThn144_NK7WebCore16HTMLInputElement13hasSpinButtonEv
__ZNK7WebCore16HTMLInputElement13hasSpinButtonEv
__ZN7WebCore23TextControlInnerElement18attachInnerElementEPNS_4NodeEN3WTF10PassRefPtrINS_11RenderStyleEEEPNS_11RenderArenaE
__ZN7WebCore27TextControlInnerTextElement14createRendererEPNS_11RenderArenaEPNS_11RenderStyleE
__ZNK7WebCore23TextControlInnerElement12isShadowNodeEv
__ZN7WebCore23TextControlInnerElement16shadowParentNodeEv
__ZNK7WebCore12RenderObject10isTextAreaEv
__ZNK7WebCore17RenderTextControl13isTextControlEv
__ZN7WebCore17RenderTextControl17updateFromElementEv
__ZThn144_NK7WebCore16HTMLInputElement14suggestedValueEv
__ZNK7WebCore16HTMLInputElement14suggestedValueEv
__ZThn144_NK7WebCore16HTMLInputElement5valueEv
__ZN7WebCore17RenderTextControl17setInnerTextValueERKNS_6StringE
__ZN7WebCore17RenderTextControl4textEv
__ZNK7WebCore17RenderTextControl10finishTextERN3WTF6VectorItLm0EEE
__ZN7WebCore11HTMLElement12setInnerTextERKNS_6StringERi
__ZN7WebCoreL19valueOrPropertyNameEi
__Z12getValueNamet
__ZN7WebCore16CSSStyleSelector17mapFillAttachmentEPNS_9FillLayerEPNS_8CSSValueE
__ZNK7WebCore14RenderThemeMac11systemColorEi
__ZNK3WTF9HashTableIiSt4pairIijENS_18PairFirstExtractorIS2_EENS_7IntHashIjEENS_14PairHashTraitsINS_10HashTraitsIiEENS8_IjEEEES9
__ZN7WebCoreL21convertNSColorToColorEP7NSColor
__ZN3WTF7HashMapIijNS_7IntHashIjEENS_10HashTraitsIiEENS3_IjEEE3setERKiRKj
__ZN7WebCore7DataRefINS_20StyleFlexibleBoxDataEE6accessEv
__ZN7WebCore20StyleFlexibleBoxDataC1ERKS0_
__ZN7WebCore20StyleFlexibleBoxDataC2ERKS0_
__ZNK3WTF7HashMapIijNS_7IntHashIjEENS_10HashTraitsIiEENS3_IjEEE3getERKi
__ZNK7WebCore11RenderTheme15isControlStyledEPKNS_11RenderStyleERKNS_10BorderDataERKNS_9FillLayerERKNS_5ColorE
__ZN7WebCore12RenderButtonC1EPNS_4NodeE
__ZN7WebCore12RenderButtonC2EPNS_4NodeE
__ZN7WebCore17RenderFlexibleBoxC2EPNS_4NodeE
__ZN7WebCore12RenderButton15styleWillChangeENS_15StyleDifferenceEPKNS_11RenderStyleE
__ZN7WebCore12RenderButton14styleDidChangeENS_15StyleDifferenceEPKNS_11RenderStyleE
__ZNK7WebCore12RenderButton15canHaveChildrenEv
__ZNK7WebCore11RenderTheme9isDefaultEPKNS_12RenderObjectE
__ZNK7WebCore11RenderTheme8isActiveEPKNS_12RenderObjectE
__ZN7WebCore12RenderButton17updateFromElementEv
__ZNK7WebCore16HTMLInputElement16valueWithDefaultEv
__ZN7WebCore12RenderButton7setTextERKNS_6StringE
__ZN7WebCore18RenderTextFragmentC1EPNS_4NodeEPNS_10StringImplE
__ZN7WebCore18RenderTextFragmentC2EPNS_4NodeEPNS_10StringImplE
__ZN7WebCore12RenderButton8addChildEPNS_12RenderObjectES2_
__ZN7WebCore12RenderButton15setupInnerStyleEPNS_11RenderStyleE
__ZNK7WebCore11RenderTheme24buttonInternalPaddingTopEv
__ZNK7WebCore11RenderTheme26buttonInternalPaddingRightEv
__ZNK7WebCore11RenderTheme27buttonInternalPaddingBottomEv
__ZNK7WebCore11RenderTheme25buttonInternalPaddingLeftEv
__ZNK7WebCore20HTMLTablePartElement10mapToEntryERKNS_13QualifiedNameERNS_20MappedAttributeEntryE
__ZN7WebCore20HTMLTablePartElement20parseMappedAttributeEPNS_15MappedAttributeE
__ZN7WebCore10HTMLParser22selectCreateErrorCheckEPNS_5TokenERN3WTF6RefPtrINS_4NodeEEE
__ZN7WebCoreL17selectConstructorERKNS_13QualifiedNameEPNS_8DocumentEPNS_15HTMLFormElementEb
__ZN7WebCore17HTMLSelectElementC1ERKNS_13QualifiedNameEPNS_8DocumentEPNS_15HTMLFormElementE
__ZN7WebCore17HTMLSelectElementC2ERKNS_13QualifiedNameEPNS_8DocumentEPNS_15HTMLFormElementE
__ZN7WebCore17SelectElementDataC1Ev
__ZN7WebCore17SelectElementDataC2Ev
__ZN7WebCore17HTMLSelectElement20parseMappedAttributeEPNS_15MappedAttributeE
__ZNK7WebCore22HTMLFormControlElement17endTagRequirementEv
__ZNK7WebCore17HTMLSelectElement11tagPriorityEv
__ZN7WebCore17HTMLSelectElement16insertedIntoTreeEb
__ZN7WebCore13SelectElement16insertedIntoTreeERNS_17SelectElementDataEPNS_7ElementE
__ZN7WebCore13SelectElement15recalcListItemsERNS_17SelectElementDataEPKNS_7ElementEb
__ZN3WTF6VectorIPN7WebCore7ElementELm0EE14shrinkCapacityEm
__ZN7WebCoreL17optionConstructorERKNS_13QualifiedNameEPNS_8DocumentEPNS_15HTMLFormElementEb
__ZN7WebCore17HTMLOptionElementC1ERKNS_13QualifiedNameEPNS_8DocumentEPNS_15HTMLFormElementE
__ZN7WebCore17HTMLOptionElementC2ERKNS_13QualifiedNameEPNS_8DocumentEPNS_15HTMLFormElementE
__ZN7WebCore17OptionElementDataC1Ev
__ZN7WebCore17OptionElementDataC2Ev
__ZN7WebCore17HTMLOptionElement20parseMappedAttributeEPNS_15MappedAttributeE
__ZNK7WebCore17HTMLOptionElement17endTagRequirementEv
__ZNK7WebCore17HTMLOptionElement11tagPriorityEv
__ZN7WebCore17HTMLSelectElement8checkDTDEPKNS_4NodeE
__ZN7WebCore17HTMLOptionElement16insertedIntoTreeEb
__ZNK7WebCore17HTMLOptionElement18ownerSelectElementEv
__ZN7WebCore17HTMLSelectElement18setRecalcListItemsEv
__ZN7WebCore13SelectElement18setRecalcListItemsERNS_17SelectElementDataEPNS_7ElementE
__ZN7WebCore13SelectElement27setOptionsChangedOnRendererERNS_17SelectElementDataEPNS_7ElementE
__ZNK7WebCore17HTMLOptionElement5indexEv
__ZN7WebCore13OptionElement11optionIndexEPNS_13SelectElementEPKNS_7ElementE
__ZThn144_NK7WebCore17HTMLSelectElement9listItemsEv
__ZNK7WebCore17HTMLSelectElement9listItemsEv
__ZNK7WebCore17SelectElementData9listItemsEPKNS_7ElementE
__ZN7WebCore20isOptionGroupElementEPNS_7ElementE
__ZN7WebCore15toOptionElementEPNS_7ElementE
__ZN3WTF6VectorIPN7WebCore7ElementELm0EE14expandCapacityEmPKS3_
__ZN3WTF6VectorIPN7WebCore7ElementELm0EE14expandCapacityEm
__ZN3WTF6VectorIPN7WebCore7ElementELm0EE15reserveCapacityEm
__ZThn144_N7WebCore17HTMLOptionElement16setSelectedStateEb
__ZN7WebCore17HTMLOptionElement16setSelectedStateEb
__ZN7WebCore13OptionElement16setSelectedStateERNS_17OptionElementDataEPNS_7ElementEb
__ZN7WebCore15isOptionElementEPNS_7ElementE
__ZN7WebCore17HTMLSelectElement16setSelectedIndexEib
__ZN7WebCore13SelectElement16setSelectedIndexERNS_17SelectElementDataEPNS_7ElementEibbb
__ZN7WebCore17SelectElementData9listItemsEPKNS_7ElementE
__ZN7WebCore13SelectElement17optionToListIndexERKNS_17SelectElementDataEPKNS_7ElementEi
__ZN7WebCore13SelectElement29setActiveSelectionAnchorIndexERNS_17SelectElementDataEPNS_7ElementEi
__ZN3WTF6VectorIbLm0EE14shrinkCapacityEm
__ZThn144_NK7WebCore17HTMLOptionElement8selectedEv
__ZNK7WebCore17HTMLOptionElement8selectedEv
__ZN7WebCore17HTMLSelectElement23recalcListItemsIfNeededEv
__ZN3WTF6VectorIbLm0EE14expandCapacityEmPKb
__ZN3WTF6VectorIbLm0EE14expandCapacityEm
__ZN3WTF6VectorIbLm0EE15reserveCapacityEm
__ZN7WebCore13SelectElement26setActiveSelectionEndIndexERNS_17SelectElementDataEi
__ZN7WebCore13SelectElement13deselectItemsERNS_17SelectElementDataEPNS_7ElementES4_
__ZN7WebCore13SelectElement17scrollToSelectionERNS_17SelectElementDataEPNS_7ElementE
__ZN7WebCore17HTMLSelectElement17scrollToSelectionEv
__ZN7WebCore17HTMLSelectElement15childrenChangedEbPNS_4NodeES2_i
__ZN7WebCore17HTMLOptionElement6attachEv
__ZN7WebCore17HTMLOptionElement8checkDTDEPKNS_4NodeE
__ZN7WebCore17HTMLOptionElement15childrenChangedEbPNS_4NodeES2_i
__ZNK7WebCore17HTMLOptionElement22nonRendererRenderStyleEv
__ZN7WebCore10HTMLParser25checkIfHasPElementInScopeEv
__ZN7WebCoreL14isTableSectionEPKNS_4NodeE
__ZN7WebCore14CachedResource13makePurgeableEb
__ZNK7WebCore9DocLoader11cachePolicyEv
__ZNK7WebCore11FrameLoader22subresourceCachePolicyEv
__ZNK7WebCore14CachedResource14mustRevalidateENS_11CachePolicyE
__ZNK7WebCore16HTMLUListElement10mapToEntryERKNS_13QualifiedNameERNS_20MappedAttributeEntryE
__ZN7WebCore16HTMLUListElement20parseMappedAttributeEPNS_15MappedAttributeE
__ZNK7WebCore13HTMLLIElement10mapToEntryERKNS_13QualifiedNameERNS_20MappedAttributeEntryE
__ZN7WebCore13HTMLLIElement20parseMappedAttributeEPNS_15MappedAttributeE
__ZN7WebCore17HTMLAnchorElement6setRelERKNS_6StringE
__ZN3WTF6VectorIN7WebCore12AtomicStringELm8EE6shrinkEm
__ZN7WebCoreL17buttonConstructorERKNS_13QualifiedNameEPNS_8DocumentEPNS_15HTMLFormElementEb
__ZN7WebCore17HTMLButtonElementC1ERKNS_13QualifiedNameEPNS_8DocumentEPNS_15HTMLFormElementE
__ZN7WebCore17HTMLButtonElementC2ERKNS_13QualifiedNameEPNS_8DocumentEPNS_15HTMLFormElementE
__ZN7WebCore17HTMLButtonElement20parseMappedAttributeEPNS_15MappedAttributeE
__ZNK7WebCore17HTMLButtonElement18recalcWillValidateEv
__ZNK7WebCore22HTMLFormControlElement11tagPriorityEv
__ZN7WebCore14PreloadScanner13consumeEntityERNS_15SegmentedStringERb
__ZN3WTF6VectorItLm10EE6shrinkEm
__ZN7WebCore13StyledElement14addCSSPropertyEPNS_15MappedAttributeEiRKNS_6StringE
__ZN7WebCore13StyledElement14addCSSPropertyEPNS_15MappedAttributeEii
__ZN7WebCore26CSSMutableStyleDeclaration11setPropertyEiibb
__ZN7WebCore26CSSMutableStyleDeclaration19setPropertyInternalERKNS_11CSSPropertyEPS1_
__ZNK7WebCore13HTMLBRElement10mapToEntryERKNS_13QualifiedNameERNS_20MappedAttributeEntryE
__ZN7WebCore13HTMLBRElement20parseMappedAttributeEPNS_15MappedAttributeE
__ZN7WebCore17CSSPrimitiveValue16computeLengthIntEPNS_11RenderStyleES2_d
__ZN7WebCoreL15fontConstructorERKNS_13QualifiedNameEPNS_8DocumentEPNS_15HTMLFormElementEb
__ZN7WebCore15HTMLFontElementC1ERKNS_13QualifiedNameEPNS_8DocumentE
__ZN7WebCore15HTMLFontElementC2ERKNS_13QualifiedNameEPNS_8DocumentE
__ZNK7WebCore15HTMLFontElement10mapToEntryERKNS_13QualifiedNameERNS_20MappedAttributeEntryE
__ZN7WebCore15HTMLFontElement20parseMappedAttributeEPNS_15MappedAttributeE
__ZNK7WebCore15HTMLFontElement17endTagRequirementEv
__ZNK7WebCore15HTMLFontElement11tagPriorityEv
__ZN7WebCore15jsDOMWindowSelfEPN3JSC9ExecStateENS0_7JSValueERKNS0_10IdentifierE
__ZNK7WebCore9DOMWindow4selfEv
__ZN7WebCore4toJSEPN3JSC9ExecStateEPNS_17JSDOMGlobalObjectEPNS_9DOMWindowE
__ZN7WebCore4toJSEPN3JSC9ExecStateEPNS_9DOMWindowE
__ZN7WebCore22jsDOMWindowInnerHeightEPN3JSC9ExecStateENS0_7JSValueERKNS0_10IdentifierE
__ZNK7WebCore9DOMWindow11innerHeightEv
__ZN7WebCore14JSHTMLDocument18getOwnPropertySlotEPN3JSC9ExecStateERKNS1_10IdentifierERNS1_12PropertySlotE
__ZN7WebCore14JSHTMLDocument18canGetItemsForNameEPN3JSC9ExecStateEPNS_12HTMLDocumentERKNS1_10IdentifierE
__ZN7WebCore23JSHTMLDocumentPrototype18getOwnPropertySlotEPN3JSC9ExecStateERKNS1_10IdentifierERNS1_12PropertySlotE
__ZN7WebCore19JSDocumentPrototype18getOwnPropertySlotEPN3JSC9ExecStateERKNS1_10IdentifierERNS1_12PropertySlotE
__ZN7WebCore41jsDocumentPrototypeFunctionGetElementByIdEPN3JSC9ExecStateEPNS0_8JSObjectENS0_7JSValueERKNS0_7ArgListE
__ZNK7WebCore14JSHTMLDocument9classInfoEv
__ZNK3JSC7JSValue8toStringEPNS_9ExecStateE
__ZNK7WebCore8Document14getElementByIdERKNS_12AtomicStringE
__ZNK3WTF7HashMapIPN7WebCore16AtomicStringImplEPNS1_7ElementENS_7PtrHashIS3_EENS_10HashTraitsIS3_EENS8_IS5_EEE3getERKS3_
__ZN7WebCore19createJSHTMLWrapperEPN3JSC9ExecStateEPNS_17JSDOMGlobalObjectEN3WTF10PassRefPtrINS_11HTMLElementEEE
__ZN3WTF7HashMapIPN7WebCore16AtomicStringImplEPFPNS1_6JSNodeEPN3JSC9ExecStateEPNS1_17JSDOMGlobalObjectENS_10PassRefPtrINS1_11HT
__ZN3WTF9HashTableIPN7WebCore16AtomicStringImplESt4pairIS3_PFPNS1_6JSNodeEPN3JSC9ExecStateEPNS1_17JSDOMGlobalObjectENS_10PassRe
__ZNK3WTF7HashMapIPN7WebCore16AtomicStringImplEPFPNS1_6JSNodeEPN3JSC9ExecStateEPNS1_17JSDOMGlobalObjectENS_10PassRefPtrINS1_11H
__ZN7WebCoreL27createHTMLDivElementWrapperEPN3JSC9ExecStateEPNS_17JSDOMGlobalObjectEN3WTF10PassRefPtrINS_11HTMLElementEEE
__ZN7WebCore16JSHTMLDivElement15createPrototypeEPN3JSC9ExecStateEPNS1_14JSGlobalObjectE
__ZN7WebCore22JSHTMLElementPrototype4selfEPN3JSC9ExecStateEPNS1_14JSGlobalObjectE
__ZN7WebCore13JSHTMLElement15createPrototypeEPN3JSC9ExecStateEPNS1_14JSGlobalObjectE
__ZN7WebCore18JSElementPrototype4selfEPN3JSC9ExecStateEPNS1_14JSGlobalObjectE
__ZN7WebCore9JSElement15createPrototypeEPN3JSC9ExecStateEPNS1_14JSGlobalObjectE
__ZN7WebCore16JSHTMLDivElementC1EN3WTF17NonNullPassRefPtrIN3JSC9StructureEEEPNS_17JSDOMGlobalObjectENS1_10PassRefPtrINS_14HTMLD
__ZN7WebCore16JSHTMLDivElementC2EN3WTF17NonNullPassRefPtrIN3JSC9StructureEEEPNS_17JSDOMGlobalObjectENS1_10PassRefPtrINS_14HTMLD
__ZN7WebCore13JSHTMLElementC2EN3WTF17NonNullPassRefPtrIN3JSC9StructureEEEPNS_17JSDOMGlobalObjectENS1_10PassRefPtrINS_11HTMLElem
__ZN7WebCore9JSElementC2EN3WTF17NonNullPassRefPtrIN3JSC9StructureEEEPNS_17JSDOMGlobalObjectENS1_10PassRefPtrINS_7ElementEEE
__ZN7WebCore16JSHTMLDivElement18getOwnPropertySlotEPN3JSC9ExecStateERKNS1_10IdentifierERNS1_12PropertySlotE
__ZN7WebCore13JSHTMLElement18getOwnPropertySlotEPN3JSC9ExecStateERKNS1_10IdentifierERNS1_12PropertySlotE
__ZN7WebCore14jsElementStyleEPN3JSC9ExecStateENS0_7JSValueERKNS0_10IdentifierE
__ZN7WebCore13StyledElement5styleEv
__ZN7WebCore4toJSEPN3JSC9ExecStateEPNS_17JSDOMGlobalObjectEPNS_19CSSStyleDeclarationE
__ZN7WebCore25getCachedDOMObjectWrapperEPN3JSC9ExecStateEPv
__ZNK3WTF7HashMapIPvPN7WebCore9DOMObjectENS_7PtrHashIS1_EENS_10HashTraitsIS1_EENS7_IS4_EEE3getERKS1_
__ZN7WebCore21JSCSSStyleDeclaration15createPrototypeEPN3JSC9ExecStateEPNS1_14JSGlobalObjectE
__ZN7WebCore21JSCSSStyleDeclarationC1EN3WTF17NonNullPassRefPtrIN3JSC9StructureEEEPNS_17JSDOMGlobalObjectENS1_10PassRefPtrINS_19
__ZN7WebCore21JSCSSStyleDeclarationC2EN3WTF17NonNullPassRefPtrIN3JSC9StructureEEEPNS_17JSDOMGlobalObjectENS1_10PassRefPtrINS_19
__ZN7WebCore21cacheDOMObjectWrapperEPN3JSC9ExecStateEPvPNS_9DOMObjectE
__ZN3JSC9WeakGCMapIPvPN7WebCore9DOMObjectEE3setERKS1_RKS4_
__ZN3WTF7HashMapIPvPN7WebCore9DOMObjectENS_7PtrHashIS1_EENS_10HashTraitsIS1_EENS7_IS4_EEE3addERKS1_RKS4_
__ZN7WebCore21JSCSSStyleDeclaration3putEPN3JSC9ExecStateERKNS1_10IdentifierENS1_7JSValueERNS1_15PutPropertySlotE
__ZN7WebCore21JSCSSStyleDeclaration11putDelegateEPN3JSC9ExecStateERKNS1_10IdentifierENS1_7JSValueERNS1_15PutPropertySlotE
__ZN7WebCoreL17isCSSPropertyNameERKN3JSC10IdentifierE
__ZN7WebCoreL15cssPropertyNameERKN3JSC10IdentifierEPb
__ZN7WebCoreL24hasCSSPropertyNamePrefixERKN3JSC10IdentifierEPKc
__ZN7WebCore19CSSStyleDeclaration14isPropertyNameERKNS_6StringE
__ZN7WebCore13cssPropertyIDERKNS_6StringE
__ZN7WebCore26valueToStringWithNullCheckEPN3JSC9ExecStateENS0_7JSValueE
__ZN7WebCore19CSSStyleDeclaration11setPropertyERKNS_6StringES3_Ri
__ZN7WebCore19CSSStyleDeclaration11setPropertyERKNS_6StringES3_S3_Ri
__ZN7WebCore26CSSMutableStyleDeclaration11setPropertyEiRKNS_6StringEbRi
__ZN7WebCore20jsDOMWindowStatusbarEPN3JSC9ExecStateENS0_7JSValueERKNS0_10IdentifierE
__ZNK7WebCore9DOMWindow9statusbarEv
__ZN7WebCore7BarInfoC1EPNS_5FrameENS0_4TypeE
__ZN7WebCore7BarInfoC2EPNS_5FrameENS0_4TypeE
__ZN7WebCore4toJSEPN3JSC9ExecStateEPNS_17JSDOMGlobalObjectEPNS_7BarInfoE
__ZN7WebCore9JSBarInfo15createPrototypeEPN3JSC9ExecStateEPNS1_14JSGlobalObjectE
__ZN7WebCore9JSBarInfoC1EN3WTF17NonNullPassRefPtrIN3JSC9StructureEEEPNS_17JSDOMGlobalObjectENS1_10PassRefPtrINS_7BarInfoEEE
__ZN7WebCore9JSBarInfoC2EN3WTF17NonNullPassRefPtrIN3JSC9StructureEEEPNS_17JSDOMGlobalObjectENS1_10PassRefPtrINS_7BarInfoEEE
__ZN7WebCore9JSBarInfo18getOwnPropertySlotEPN3JSC9ExecStateERKNS1_10IdentifierERNS1_12PropertySlotE
__ZN7WebCore16jsBarInfoVisibleEPN3JSC9ExecStateENS0_7JSValueERKNS0_10IdentifierE
__ZNK7WebCore7BarInfo7visibleEv
__ZNK7WebCore6Chrome16statusbarVisibleEv
__ZN7WebCore18jsElementOffsetTopEPN3JSC9ExecStateENS0_7JSValueERKNS0_10IdentifierE
__ZN7WebCore7Element9offsetTopEv
__ZNK7WebCore14SVGRenderStyle17inheritedNotEqualEPKS0_
__ZNK7WebCore17StyleSurroundDataeqERKS0_
__ZN7WebCore7Element25pseudoStyleCacheIsInvalidEPKNS_11RenderStyleEPS1_
__ZN7WebCore12RenderObject16setStyleInternalEN3WTF10PassRefPtrINS_11RenderStyleEEE
__ZN7WebCore22HTMLFormControlElement11recalcStyleENS_4Node11StyleChangeE
__ZNK7WebCore19StyleBackgroundDataeqERKS0_
__ZNK7WebCore9FillLayereqERKS0_
__ZNK7WebCore25StyleRareNonInheritedDataeqERKS0_
__ZN3WTFeqIN7WebCore20StyleDashboardRegionELm0EEEbRKNS_6VectorIT_XT0_EEES7_
__ZNK7WebCore25StyleRareNonInheritedData20shadowDataEquivalentERKS0_
__ZNK7WebCore25StyleRareNonInheritedData24reflectionDataEquivalentERKS0_
__ZNK7WebCore25StyleRareNonInheritedData23animationDataEquivalentERKS0_
__ZNK7WebCore25StyleRareNonInheritedData24transitionDataEquivalentERKS0_
__ZNK7WebCore22StyleRareInheritedDataeqERKS0_
__ZNK7WebCore22StyleRareInheritedData20shadowDataEquivalentERKS0_
__ZN7WebCore10FontFamilyD2Ev
__ZNK7WebCore20StyleFlexibleBoxDataeqERKS0_
__ZN7WebCore17HTMLOptionElement6detachEv
__ZN7WebCore4Text11recalcStyleENS_4Node11StyleChangeE
__ZN7WebCore17HTMLSelectElement11recalcStyleENS_4Node11StyleChangeE
__ZN3WTF9HashTableIPN7WebCore8DocumentES3_NS_17IdentityExtractorIS3_EENS_7PtrHashIS3_EENS_10HashTraitsIS3_EES9_E4findIS3_NS_22I
__ZN3WTF9HashTableIPN7WebCore8DocumentES3_NS_17IdentityExtractorIS3_EENS_7PtrHashIS3_EENS_10HashTraitsIS3_EES9_E47removeAndInva
__ZN3WTF9HashTableIPN7WebCore8DocumentES3_NS_17IdentityExtractorIS3_EENS_7PtrHashIS3_EENS_10HashTraitsIS3_EES9_E6removeEPS3_
__ZN7WebCoreL25updateFromElementCallbackEPNS_4NodeE
__ZN7WebCore10RenderText7setTextEN3WTF10PassRefPtrINS_10StringImplEEEb
__ZNK7WebCore12RenderObject18isSVGForeignObjectEv
__ZN7WebCore11RenderBlock22insertPositionedObjectEPNS_9RenderBoxE
__ZN3WTF11ListHashSetIPN7WebCore9RenderBoxENS_7PtrHashIS3_EEE3addERKS3_
__ZN3WTF9HashTableIPNS_15ListHashSetNodeIPN7WebCore9RenderBoxEEES6_NS_17IdentityExtractorIS6_EENS_28ListHashSetNodeHashFunction
__ZN3WTF11ListHashSetIPN7WebCore9RenderBoxENS_7PtrHashIS3_EEE10appendNodeEPNS_15ListHashSetNodeIS3_EE
__ZN7WebCore11RenderBlock21adjustPositionedBlockEPNS_9RenderBoxERKNS0_10MarginInfoE
__ZN7WebCore11RenderBlock20insertFloatingObjectEPNS_9RenderBoxE
__ZN7WebCore11RenderBlock14calcPrefWidthsEv
__ZN7WebCore11RenderBlock20calcInlinePrefWidthsEv
__ZN7WebCore20InlineMinMaxIterator4nextEv
__ZN7WebCoreL11getBPMWidthEiNS_6LengthE
__ZN7WebCore10RenderText17trimmedPrefWidthsEiRiRbS1_S2_S2_S2_S1_S1_S1_S1_S2_
__ZN3WTF7HashMapIiPN7WebCore15GlyphMetricsMapIfE16GlyphMetricsPageENS_7IntHashIjEENS_10HashTraitsIiEENS8_IS5_EEE3setERKiRKS5_
__ZN3WTF9HashTableIiSt4pairIiPN7WebCore15GlyphMetricsMapIfE16GlyphMetricsPageEENS_18PairFirstExtractorIS7_EENS_7IntHashIjEENS_1
__ZNK3WTF7HashMapIiPN7WebCore15GlyphMetricsMapIfE16GlyphMetricsPageENS_7IntHashIjEENS_10HashTraitsIiEENS8_IS5_EEE3getERKi
__ZNK7WebCore9RenderBox12maxPrefWidthEv
__ZN7WebCore9InlineBox6removeEv
__ZN7WebCore13InlineFlowBox11removeChildEPNS_9InlineBoxE
__ZN7WebCore9InlineBox14dirtyLineBoxesEv
__ZN7WebCore13RootInlineBox12childRemovedEPNS_9InlineBoxE
__ZN7WebCore11RenderBlock19adjustFloatingBlockERKNS0_10MarginInfoE
__ZN7WebCore11RenderBlock37markAllDescendantsWithFloatsForLayoutEPNS_9RenderBoxEb
__ZN7WebCore11RenderBlock18addIntrudingFloatsEPS0_ii
__ZNK3WTF7HashMapIPN7WebCore12RenderObjectEPNS1_11RenderBlock14FloatingObjectENS_7PtrHashIS3_EENS_10HashTraitsIS3_EENS9_IS6_EEE
__ZN7WebCore14RenderReplaced6layoutEv
__ZNK7WebCore11RenderImage21minimumReplacedHeightEv
__ZNK7WebCore11RenderImage13errorOccurredEv
__ZNK7WebCore11RenderImage17calcReplacedWidthEb
__ZNK7WebCore11RenderImage21imageHasRelativeWidthEv
__ZNK7WebCore11CachedImage21imageHasRelativeWidthEv
__ZNK7WebCore11RenderImage16isWidthSpecifiedEv
__ZN7WebCore11RenderImage14calcPrefWidthsEv
__ZNK7WebCore11RenderImage18calcReplacedHeightEv
__ZNK7WebCore11RenderImage17isHeightSpecifiedEv
__ZNK7WebCore9RenderBox23calcReplacedHeightUsingENS_6LengthE
__ZNK7WebCore9RenderBox20calcContentBoxHeightEi
__ZNK7WebCore14RenderReplaced10lineHeightEbb
__ZNK7WebCore14RenderReplaced16baselinePositionEbb
__ZN7WebCore11RenderBlock20addOverhangingFloatsEPS0_iib
__ZN7WebCore9RenderBox21calcHorizontalMarginsERKNS_6LengthES3_i
__ZNK7WebCore11RenderTable12avoidsFloatsEv
__ZN7WebCore11RenderTable6layoutEv
__ZN7WebCore11RenderTable9calcWidthEv
__ZN7WebCore11RenderTable14calcPrefWidthsEv
__ZN7WebCore11RenderTable23recalcHorizontalBordersEv
__ZNK7WebCore11RenderTable14calcBorderLeftEv
__ZNK7WebCore11RenderTable10colElementEiPbS1_
__ZNK7WebCore11RenderTable15calcBorderRightEv
__ZN7WebCore15AutoTableLayout14calcPrefWidthsERiS1_
__ZN7WebCore15AutoTableLayout10fullRecalcEv
__ZN3WTF6VectorIN7WebCore15AutoTableLayout6LayoutELm4EE14expandCapacityEm
__ZN3WTF6VectorIN7WebCore15AutoTableLayout6LayoutELm4EE15reserveCapacityEm
__ZN3WTF6VectorIN7WebCore15AutoTableLayout6LayoutELm4EE4fillERKS3_m
__ZSt4fillIPN7WebCore15AutoTableLayout6LayoutES2_EvT_S4_RKT0_
__ZN3WTF6VectorIPN7WebCore15RenderTableCellELm4EE4fillERKS3_m
__ZSt4fillIPPN7WebCore15RenderTableCellES2_EvT_S4_RKT0_
__ZN7WebCore15AutoTableLayout12recalcColumnEi
__ZN7WebCore15RenderTableCell14calcPrefWidthsEv
__ZN7WebCore11RenderBlock19calcBlockPrefWidthsEv
__ZNK7WebCore15RenderTableCell15styleOrColWidthEv
__ZNK7WebCore15RenderTableCell10borderLeftEv
__ZNK7WebCore15RenderTableCell14borderHalfLeftEb
__ZNK7WebCore15RenderTableCell19collapsedLeftBorderEb
__ZNK7WebCore11RenderTable10cellBeforeEPKNS_15RenderTableCellE
__ZN7WebCoreL14compareBordersERKNS_20CollapsedBorderValueES2_
__ZNK7WebCore15RenderTableCell11borderRightEv
__ZNK7WebCore15RenderTableCell15borderHalfRightEb
__ZNK7WebCore15RenderTableCell20collapsedRightBorderEb
__ZNK7WebCore11RenderTable9cellAfterEPKNS_15RenderTableCellE
__ZN7WebCore17RenderTextControl14calcPrefWidthsEv
__ZN7WebCore27RenderTextControlSingleLine15getAvgCharWidthENS_12AtomicStringE
__ZN7WebCore17RenderTextControl15getAvgCharWidthENS_12AtomicStringE
__ZN7WebCore17RenderTextControl20hasValidAvgCharWidthENS_12AtomicStringE
__ZN3WTF7HashSetIN7WebCore12AtomicStringENS1_16AtomicStringHashENS_10HashTraitsIS2_EEE3addERKS2_
__ZN3WTF9HashTableIN7WebCore12AtomicStringES2_NS_17IdentityExtractorIS2_EENS1_16AtomicStringHashENS_10HashTraitsIS2_EES7_E6expa
__ZN3WTF9HashTableIN7WebCore12AtomicStringES2_NS_17IdentityExtractorIS2_EENS1_16AtomicStringHashENS_10HashTraitsIS2_EES7_E6reha
__ZN3WTF9HashTableIN7WebCore12AtomicStringES2_NS_17IdentityExtractorIS2_EENS1_16AtomicStringHashENS_10HashTraitsIS2_EES7_E13all
__ZN3WTF9HashTableIN7WebCore12AtomicStringES2_NS_17IdentityExtractorIS2_EENS1_16AtomicStringHashENS_10HashTraitsIS2_EES7_E15dea
__ZN3WTF9HashTableIN7WebCore12AtomicStringES2_NS_17IdentityExtractorIS2_EENS1_16AtomicStringHashENS_10HashTraitsIS2_EES7_E4find
__ZNK3WTF9HashTableIN7WebCore12AtomicStringES2_NS_17IdentityExtractorIS2_EENS1_16AtomicStringHashENS_10HashTraitsIS2_EES7_E8con
__ZNK7WebCore27RenderTextControlSingleLine21preferredContentWidthEf
__ZThn144_NK7WebCore16HTMLInputElement4sizeEv
__ZNK7WebCore16HTMLInputElement4sizeEv
__ZNK7WebCore4Node9renderBoxEv
__ZN7WebCore17RenderFlexibleBox14calcPrefWidthsEv
__ZN7WebCore17RenderFlexibleBox24calcHorizontalPrefWidthsEv
__ZNK7WebCore11RenderTable10borderLeftEv
__ZNK7WebCore11RenderTable11borderRightEv
__ZN7WebCore15AutoTableLayout18calcEffectiveWidthEv
__ZN7WebCore15AutoTableLayout6layoutEv
__ZN7WebCore11RenderTable13setCellWidthsEv
__ZN7WebCore18RenderTableSection13setCellWidthsEv
__ZN7WebCore15RenderTableCell11updateWidthEi
__ZN7WebCore18RenderTableSection6layoutEv
__ZN7WebCore14RenderTableRow6layoutEv
__ZN7WebCore15RenderTableCell6layoutEv
__ZN7WebCore15RenderTableCell9calcWidthEv
__ZNK7WebCore15RenderTableCell9borderTopEv
__ZNK7WebCore15RenderTableCell13borderHalfTopEb
__ZNK7WebCore15RenderTableCell18collapsedTopBorderEv
__ZNK7WebCore11RenderTable9cellAboveEPKNS_15RenderTableCellE
__ZNK7WebCore11RenderTable12sectionAboveEPKNS_18RenderTableSectionEb
__ZNK7WebCore15RenderTableCell10paddingTopEb
__ZNK7WebCore15RenderTableCell12borderBottomEv
__ZNK7WebCore15RenderTableCell16borderHalfBottomEb
__ZNK7WebCore15RenderTableCell21collapsedBottomBorderEv
__ZNK7WebCore11RenderTable9cellBelowEPKNS_15RenderTableCellE
__ZNK7WebCore11RenderTable12sectionBelowEPKNS_18RenderTableSectionEb
__ZNK7WebCore15RenderTableCell13paddingBottomEb
__ZN3WTF6VectorIN7WebCore11RenderBlock13FloatWithRectELm0EE14expandCapacityEmPKS3_
__ZN3WTF6VectorIN7WebCore11RenderBlock13FloatWithRectELm0EE14expandCapacityEm
__ZN3WTF6VectorIN7WebCore11RenderBlock13FloatWithRectELm0EE15reserveCapacityEm
__ZN7WebCore27RenderTextControlSingleLine6layoutEv
__ZN7WebCore17RenderTextControl10calcHeightEv
__ZN7WebCore27RenderTextControlSingleLine36adjustControlHeightBasedOnLineHeightEi
__ZNK7WebCore17RenderTextControl12avoidsFloatsEv
__ZNK7WebCore17RenderTextControl16innerTextElementEv
__ZNK7WebCore17RenderTextControl15textBlockHeightEv
__ZNK7WebCore27RenderTextControlSingleLine14textBlockWidthEv
__ZNK7WebCore17RenderTextControl14textBlockWidthEv
__ZNK7WebCore27RenderTextControlSingleLine20decorationWidthRightEv
__ZN7WebCore11RenderLayer27updateScrollInfoAfterLayoutEv
__ZN7WebCore11RenderLayer23computeScrollDimensionsEPbS1_
__ZNK7WebCore9RenderBox12clientHeightEv
__ZN7WebCore11RenderLayer11scrollWidthEv
__ZN7WebCore11RenderLayer12scrollHeightEv
__ZN3WTF6VectorIN7WebCore11RenderBlock13FloatWithRectELm0EE6shrinkEm
__ZN7WebCore17RenderFlexibleBox11layoutBlockEb
__ZN7WebCore17RenderFlexibleBox19layoutHorizontalBoxEb
__ZN7WebCoreL22gatherFlexChildrenInfoERNS_15FlexBoxIteratorEbRjS2_Rb
__ZN7WebCore9RenderBox15setOverrideSizeEi
__ZN7WebCore11RenderBlock26startDelayUpdateScrollInfoEv
__ZNK7WebCore17RenderFlexibleBox13isFlexibleBoxEv
__ZNK7WebCore17RenderFlexibleBox20isStretchingChildrenEv
__ZN7WebCore17RenderFlexibleBox10placeChildEPNS_9RenderBoxEii
__ZN7WebCore11RenderBlock27finishDelayUpdateScrollInfoEv
__ZN3WTF9HashTableIPN7WebCore11RenderBlockES3_NS_17IdentityExtractorIS3_EENS_7PtrHashIS3_EENS_10HashTraitsIS3_EES9_E15deallocat
__ZNK7WebCore12RenderButton14hasControlClipEv
__ZNK7WebCore11RenderBlock19lastLineBoxBaselineEv
__ZN7WebCore13InlineFlowBox25adjustMaxAscentAndDescentERiS1_ii
__ZNK7WebCore15RenderTableCell16baselinePositionEbb
__ZN7WebCore18RenderTableSection13calcRowHeightEv
__ZNK7WebCore9RenderBox12overrideSizeEv
__ZN7WebCore18RenderTableSection17recalcOuterBorderEv
__ZNK7WebCore18RenderTableSection18calcOuterBorderTopEv
__ZNK7WebCore18RenderTableSection21calcOuterBorderBottomEv
__ZNK7WebCore18RenderTableSection19calcOuterBorderLeftEb
__ZNK7WebCore18RenderTableSection20calcOuterBorderRightEb
__ZNK7WebCore11RenderTable9borderTopEv
__ZNK7WebCore11RenderTable14outerBorderTopEv
__ZNK7WebCore11RenderTable12borderBottomEv
__ZNK7WebCore11RenderTable17outerBorderBottomEv
__ZN7WebCore18RenderTableSection10layoutRowsEi
__ZNK7WebCore11RenderBlock24percentHeightDescendantsEv
__ZNK7WebCore11RenderTable16outerBorderRightEv
__ZNK7WebCore11RenderTable15outerBorderLeftEv
__ZN7WebCore9RenderBox22calcAbsoluteHorizontalEv
__ZNK7WebCore9RenderBox33containingBlockWidthForPositionedEPKNS_20RenderBoxModelObjectE
__ZN7WebCore9RenderBox28calcAbsoluteHorizontalValuesENS_6LengthEPKNS_20RenderBoxModelObjectENS_13TextDirectionEiiS1_S1_S1_S1_Ri
__ZN7WebCore9RenderBox30calcAbsoluteHorizontalReplacedEv
__ZN7WebCore9RenderBox20calcAbsoluteVerticalEv
__ZN7WebCore9RenderBox28calcAbsoluteVerticalReplacedEv
__ZNK7WebCore9RenderBox34containingBlockHeightForPositionedEPKNS_20RenderBoxModelObjectE
__ZN7WebCore9RenderBox26calcAbsoluteVerticalValuesENS_6LengthEPKNS_20RenderBoxModelObjectEiiS1_S1_S1_S1_RiS5_S5_S5_
__ZNK7WebCore18RenderTableSection17rightmostPositionEbb
__ZNK7WebCore27RenderTextControlSingleLine14hasControlClipEv
__ZNK7WebCore20RenderBoxModelObject23relativePositionOffsetXEv
__ZNK7WebCore18RenderTableSection14lowestPositionEbb
__ZNK7WebCore20RenderBoxModelObject23relativePositionOffsetYEv
__ZNK7WebCore9RenderBox15availableHeightEv
__ZNK7WebCore9RenderBox20availableHeightUsingERKNS_6LengthE
__ZNK7WebCore11RenderImage22usesImageContainerSizeEv
__ZNK7WebCore11CachedImage22usesImageContainerSizeEv
__ZNK7WebCore11RenderImage20calcAspectRatioWidthEv
__ZNK7WebCore14RenderReplaced13intrinsicSizeEv
__ZNK7WebCore11RenderImage22imageHasRelativeHeightEv
__ZNK7WebCore11CachedImage22imageHasRelativeHeightEv
__ZNK7WebCore11RenderImage21calcAspectRatioHeightEv
__ZNK7WebCore11RenderLayer22verticalScrollbarWidthEv
__ZNK7WebCore11RenderLayer25horizontalScrollbarHeightEv
__ZNK7WebCore9InlineBox16nextOnLineExistsEv
__ZN7WebCore12RenderIFrame6layoutEv
__ZNK7WebCore9RenderBox18calcReplacedHeightEv
__ZN7WebCore12RenderIFrame12flattenFrameEv
__ZN7WebCore12RenderWidget6layoutEv
__ZN7WebCore17lineBreakIteratorEPKti
__ZNK7WebCore11RenderLayer27enclosingPositionedAncestorEv
__ZNK7WebCore12RenderInline16linesBoundingBoxEv
__ZN7WebCore12RenderInline29clippedOverflowRectForRepaintEPNS_20RenderBoxModelObjectE
__ZNK7WebCore12RenderInline31linesVisibleOverflowBoundingBoxEv
__ZNK7WebCore12RenderObject23outlineBoundsForRepaintEPNS_20RenderBoxModelObjectEPNS_8IntPointE
__ZN7WebCore14RenderReplaced29clippedOverflowRectForRepaintEPNS_20RenderBoxModelObjectE
__ZNK7WebCore14RenderReplaced18localSelectionRectEb
__ZNK7WebCore12RenderObject22outlineStyleForRepaintEv
__ZN7WebCore15RenderTableCell21computeRectForRepaintEPNS_20RenderBoxModelObjectERNS_7IntRectEb
__ZN7WebCore12RenderInline21computeRectForRepaintEPNS_20RenderBoxModelObjectERNS_7IntRectEb
__ZN7WebCore12RenderWidget20updateWidgetPositionEv
__ZNK7WebCore12RenderObject15localToAbsoluteENS_10FloatPointEbb
__ZNK7WebCore9RenderBox19mapLocalToContainerEPNS_20RenderBoxModelObjectEbbRNS_14TransformStateE
__ZNK7WebCore14TransformState11mappedPointEv
__ZNK7WebCore10RenderView19mapLocalToContainerEPNS_20RenderBoxModelObjectEbbRNS_14TransformStateE
__ZN7WebCore12RenderWidget17setWidgetGeometryERKNS_7IntRectE
__ZNK7WebCore11RenderLayer16childrenClipRectEv
__ZNK7WebCore11RenderLayer12clippingRootEv
__ZNK7WebCore11RenderLayer11boundingBoxEPKS0_
__ZNK7WebCore11RenderLayer16localBoundingBoxEv
__ZN7WebCore9RenderBox16overflowClipRectEii
__ZNK7WebCore12RenderObject20localToContainerQuadERKNS_9FloatQuadEPNS_20RenderBoxModelObjectEb
__ZN7WebCore10ScrollView12setFrameRectERKNS_7IntRectE
__ZN7WebCore6Widget12setFrameRectERKNS_7IntRectE
__ZNK7WebCore10RenderView8viewRectEv
__ZN7WebCore12RenderObject16repaintRectangleERKNS_7IntRectEb
__ZN7WebCore12RenderWidget5derefEPNS_11RenderArenaE
__ZNK7WebCore9FrameView11isFrameViewEv
__ZN7WebCore12RenderObject26repaintAfterLayoutIfNeededEPNS_20RenderBoxModelObjectERKNS_7IntRectES5_PS4_S6_
__ZNK7WebCore12RenderObject29mustRepaintBackgroundOrBorderEv
__ZN7WebCoreL21mustRepaintFillLayersEPKNS_12RenderObjectEPKNS_9FillLayerE
__ZN7WebCore12RenderWidget22widgetPositionsUpdatedEv
__ZN7WebCore6Widget22widgetPositionsUpdatedEv
__ZN3WTF6VectorIPN7WebCore12RenderWidgetELm0EE6shrinkEm
__ZNK7WebCore4Node20renderBoxModelObjectEv
__ZN7WebCore21jsElementOffsetParentEPN3JSC9ExecStateENS0_7JSValueERKNS0_10IdentifierE
__ZN7WebCore7Element12offsetParentEv
__ZNK7WebCore20RenderBoxModelObject16isBoxModelObjectEv
__ZNK7WebCore20RenderBoxModelObject9offsetTopEv
__ZNK7WebCore12RenderObject12offsetParentEv
__ZN7WebCoreL18adjustForLocalZoomEiPNS_12RenderObjectE
__ZN7WebCoreL28createHTMLBodyElementWrapperEPN3JSC9ExecStateEPNS_17JSDOMGlobalObjectEN3WTF10PassRefPtrINS_11HTMLElementEEE
__ZN7WebCore17JSHTMLBodyElement15createPrototypeEPN3JSC9ExecStateEPNS1_14JSGlobalObjectE
__ZN7WebCore17JSHTMLBodyElementC1EN3WTF17NonNullPassRefPtrIN3JSC9StructureEEEPNS_17JSDOMGlobalObjectENS1_10PassRefPtrINS_15HTML
__ZN7WebCore17JSHTMLBodyElementC2EN3WTF17NonNullPassRefPtrIN3JSC9StructureEEEPNS_17JSDOMGlobalObjectENS1_10PassRefPtrINS_15HTML
__ZN7WebCore17JSHTMLBodyElement18getOwnPropertySlotEPN3JSC9ExecStateERKNS1_10IdentifierERNS1_12PropertySlotE
__ZN7WebCore21jsElementOffsetHeightEPN3JSC9ExecStateENS0_7JSValueERKNS0_10IdentifierE
__ZN7WebCore7Element12offsetHeightEv
__ZN7WebCore11LayoutStatenwEmPNS_11RenderArenaE
__ZN7WebCore11LayoutStateC1EPS0_PNS_9RenderBoxERKNS_7IntSizeE
__ZN7WebCore11LayoutStateC2EPS0_PNS_9RenderBoxERKNS_7IntSizeE
__ZN7WebCore11LayoutState7destroyEPNS_11RenderArenaE
__ZN7WebCore11LayoutStatedlEPvm
__ZN7WebCore9RenderBox26repaintDuringLayoutIfMovedERKNS_7IntRectE
__ZN7WebCore11RenderBlock24repaintOverhangingFloatsEb
__ZN7WebCore11RenderBlock20determineEndPositionEPNS_13RootInlineBoxERNS_14InlineIteratorERNS_10BidiStatusERi
__ZN7WebCore13InlineFlowBox10deleteLineEPNS_11RenderArenaE
__ZN7WebCore13InlineTextBox10deleteLineEPNS_11RenderArenaE
__ZN7WebCore10RenderText13removeTextBoxEPNS_13InlineTextBoxE
__ZN7WebCore13RootInlineBox29removeLineBoxFromRenderObjectEv
__ZNK7WebCore13RootInlineBox5blockEv
__ZN7WebCore17RenderLineBoxList13removeLineBoxEPNS_13InlineFlowBoxE
__ZNK7WebCore16StyleCachedImage9canRenderEf
__ZNK7WebCore11CachedImage9imageSizeEf
__ZN7WebCore20jsElementOffsetWidthEPN3JSC9ExecStateENS0_7JSValueERKNS0_10IdentifierE
__ZN7WebCore7Element11offsetWidthEv
__ZNK7WebCore9RenderBox11offsetWidthEv
__ZNK7WebCore9RenderBox12offsetHeightEv
__ZN7WebCore16jsNodeFirstChildEPN3JSC9ExecStateENS0_7JSValueERKNS0_10IdentifierE
__ZN7WebCore19jsElementOffsetLeftEPN3JSC9ExecStateENS0_7JSValueERKNS0_10IdentifierE
__ZN7WebCore7Element10offsetLeftEv
__ZNK7WebCore20RenderBoxModelObject10offsetLeftEv
__ZN7WebCore20jsElementClientWidthEPN3JSC9ExecStateENS0_7JSValueERKNS0_10IdentifierE
__ZN7WebCore7Element11clientWidthEv
__ZN7WebCore21jsElementClientHeightEPN3JSC9ExecStateENS0_7JSValueERKNS0_10IdentifierE
__ZN7WebCore7Element12clientHeightEv
__ZN7WebCore20jsDOMWindowNavigatorEPN3JSC9ExecStateENS0_7JSValueERKNS0_10IdentifierE
__ZNK7WebCore9DOMWindow9navigatorEv
__ZN7WebCore9NavigatorC1EPNS_5FrameE
__ZN7WebCore9NavigatorC2EPNS_5FrameE
__ZN7WebCore4toJSEPN3JSC9ExecStateEPNS_17JSDOMGlobalObjectEPNS_9NavigatorE
__ZN7WebCore11JSNavigator15createPrototypeEPN3JSC9ExecStateEPNS1_14JSGlobalObjectE
__ZN7WebCore11JSNavigatorC1EN3WTF17NonNullPassRefPtrIN3JSC9StructureEEEPNS_17JSDOMGlobalObjectENS1_10PassRefPtrINS_9NavigatorEE
__ZN7WebCore11JSNavigatorC2EN3WTF17NonNullPassRefPtrIN3JSC9StructureEEEPNS_17JSDOMGlobalObjectENS1_10PassRefPtrINS_9NavigatorEE
__ZN7WebCore11JSNavigator18getOwnPropertySlotEPN3JSC9ExecStateERKNS1_10IdentifierERNS1_12PropertySlotE
__ZN7WebCore22jsNavigatorGeolocationEPN3JSC9ExecStateENS0_7JSValueERKNS0_10IdentifierE
__ZNK7WebCore9Navigator11geolocationEv
__ZN7WebCore11GeolocationC1EPNS_5FrameE
__ZN7WebCore11GeolocationC2EPNS_5FrameE
__ZN7WebCore24GeolocationPositionCacheC1Ev
__ZN7WebCore24GeolocationPositionCacheC2Ev
__ZN7WebCore24GeolocationPositionCache10readFromDBEv
__ZN7WebCore14SQLiteDatabaseD1Ev
__ZN7WebCore14SQLiteDatabaseD2Ev
__ZN7WebCore4toJSEPN3JSC9ExecStateEPNS_17JSDOMGlobalObjectEPNS_11GeolocationE
__ZN7WebCore13JSGeolocation15createPrototypeEPN3JSC9ExecStateEPNS1_14JSGlobalObjectE
__ZN7WebCore13JSGeolocationC1EN3WTF17NonNullPassRefPtrIN3JSC9StructureEEEPNS_17JSDOMGlobalObjectENS1_10PassRefPtrINS_11Geolocat
__ZN7WebCore13JSGeolocationC2EN3WTF17NonNullPassRefPtrIN3JSC9StructureEEEPNS_17JSDOMGlobalObjectENS1_10PassRefPtrINS_11Geolocat
__ZN7WebCore16JSHTMLDivElement3putEPN3JSC9ExecStateERKNS1_10IdentifierENS1_7JSValueERNS1_15PutPropertySlotE
__ZN7WebCore13JSHTMLElement3putEPN3JSC9ExecStateERKNS1_10IdentifierENS1_7JSValueERNS1_15PutPropertySlotE
__ZN7WebCore25setJSHTMLElementInnerHTMLEPN3JSC9ExecStateEPNS0_8JSObjectENS0_7JSValueE
__ZN7WebCore11HTMLElement12setInnerHTMLERKNS_6StringERi
__ZN7WebCore11HTMLElement24createContextualFragmentERKNS_6StringENS_27FragmentScriptingPermissionE
__ZN7WebCore7Element24createContextualFragmentERKNS_6StringENS_27FragmentScriptingPermissionE
__ZN7WebCore16DocumentFragment6createEPNS_8DocumentE
__ZN7WebCore25parseHTMLDocumentFragmentERKNS_6StringEPNS_16DocumentFragmentENS_27FragmentScriptingPermissionE
__ZN7WebCore13HTMLTokenizerC1EPNS_16DocumentFragmentENS_27FragmentScriptingPermissionE
__ZN7WebCore13HTMLTokenizerC2EPNS_16DocumentFragmentENS_27FragmentScriptingPermissionE
__ZN7WebCore10HTMLParserC1EPNS_16DocumentFragmentENS_27FragmentScriptingPermissionE
__ZN7WebCore10HTMLParserC2EPNS_16DocumentFragmentENS_27FragmentScriptingPermissionE
__ZN7WebCore13HTMLTokenizer19setForceSynchronousEb
__ZN7WebCore16DocumentFragment16childTypeAllowedENS_4Node8NodeTypeE
__ZN7WebCore13HTMLTokenizerD1Ev
__ZN7WebCore13HTMLTokenizerD2Ev
__ZN7WebCoreL27replaceChildrenWithFragmentEPNS_11HTMLElementEN3WTF10PassRefPtrINS_16DocumentFragmentEEERi
__ZN7WebCoreL15willRemoveChildEPNS_4NodeE
__ZN7WebCore8Document17nodeWillBeRemovedEPNS_4NodeE
__ZN7WebCoreL20disableRangeMutationEPNS_4PageE
__ZN7WebCore19SelectionController17nodeWillBeRemovedEPNS_4NodeE
__ZN7WebCore11RenderImageD0Ev
__ZN7WebCore14CachedResource12removeClientEPNS_20CachedResourceClientE
__ZN7WebCore14RenderReplacedD2Ev
__ZN3WTF6VectorINS_6RefPtrIN7WebCore4NodeEEELm0EE14expandCapacityEm
__ZN3WTF6VectorINS_6RefPtrIN7WebCore4NodeEEELm0EE15reserveCapacityEm
__ZN7WebCore10RenderText29clippedOverflowRectForRepaintEPNS_20RenderBoxModelObjectE
__ZN7WebCore8Document19nodeChildrenChangedEPNS_13ContainerNodeE
__ZN7WebCore16HTMLImageElement19removedFromDocumentEv
__ZN7WebCore12HTMLDocument15removeNamedItemERKNS_12AtomicStringE
__ZN7WebCoreL17removeItemFromMapERN3WTF14HashCountedSetIPNS_16AtomicStringImplENS0_7PtrHashIS3_EENS0_10HashTraitsIS3_EEEERKNS_1
__ZN7WebCore12HTMLDocument20removeExtraNamedItemERKNS_12AtomicStringE
__ZN7WebCore7Element19removedFromDocumentEv
__ZN7WebCore13ContainerNode19removedFromDocumentEv
__ZN7WebCore4Node19removedFromDocumentEv
__ZN7WebCore16HTMLImageElement15removedFromTreeEb
__ZN7WebCore13ContainerNode15removedFromTreeEb
__ZN3WTF6VectorINS_6RefPtrIN7WebCore4NodeEEELm0EE6shrinkEm
__ZThn8_N7WebCore16HTMLImageElementD0Ev
__ZN7WebCore16HTMLImageElementD0Ev
__ZN7WebCore15HTMLImageLoaderD1Ev
__ZN7WebCore15HTMLImageLoaderD2Ev
__ZN7WebCore11ImageLoaderD2Ev
__ZN7WebCore16ImageEventSender11cancelEventEPNS_11ImageLoaderE
__ZThn8_N7WebCore13HTMLBRElementD0Ev
__ZN7WebCore13ContainerNode11appendChildEN3WTF10PassRefPtrINS_4NodeEEERib
__ZN7WebCore4Node13checkAddChildEPS0_Ri
__ZNK7WebCore16DocumentFragment8nodeTypeEv
__ZN7WebCoreL18collectTargetNodesEPNS_4NodeERN3WTF6VectorINS2_6RefPtrIS0_EELm1EEE
__ZN3WTF6VectorINS_6RefPtrIN7WebCore4NodeEEELm1EE14expandCapacityEm
__ZN3WTF6VectorINS_6RefPtrIN7WebCore4NodeEEELm1EE15reserveCapacityEm
__ZN7WebCore13ContainerNode11removeChildEPNS_4NodeERi
__ZN7WebCoreL19notifyChildInsertedEPNS_4NodeE
__ZN7WebCoreL28dispatchChildInsertionEventsEPNS_4NodeE
__ZN3WTF6VectorINS_6RefPtrIN7WebCore4NodeEEELm1EE6shrinkEm
__ZThn8_N7WebCore16DocumentFragmentD0Ev
__ZN7WebCore16DocumentFragmentD0Ev
__ZN7WebCore40jsDocumentPrototypeFunctionCreateElementEPN3JSC9ExecStateEPNS0_8JSObjectENS0_7JSValueERKNS0_7ArgListE
__ZN7WebCore12HTMLDocument13createElementERKNS_12AtomicStringERi
__ZN7WebCore8Document11isValidNameERKNS_6StringE
__ZN7WebCore16toJSNewlyCreatedEPN3JSC9ExecStateEPNS_17JSDOMGlobalObjectEPNS_7ElementE
__ZN7WebCoreL30createHTMLScriptElementWrapperEPN3JSC9ExecStateEPNS_17JSDOMGlobalObjectEN3WTF10PassRefPtrINS_11HTMLElementEEE
__ZN7WebCore19JSHTMLScriptElement15createPrototypeEPN3JSC9ExecStateEPNS1_14JSGlobalObjectE
__ZN7WebCore19JSHTMLScriptElementC1EN3WTF17NonNullPassRefPtrIN3JSC9StructureEEEPNS_17JSDOMGlobalObjectENS1_10PassRefPtrINS_17HT
__ZN7WebCore19JSHTMLScriptElementC2EN3WTF17NonNullPassRefPtrIN3JSC9StructureEEEPNS_17JSDOMGlobalObjectENS1_10PassRefPtrINS_17HT
__ZN7WebCore19JSHTMLScriptElement3putEPN3JSC9ExecStateERKNS1_10IdentifierENS1_7JSValueERNS1_15PutPropertySlotE
__ZN7WebCore25setJSHTMLScriptElementSrcEPN3JSC9ExecStateEPNS0_8JSObjectENS0_7JSValueE
__ZN7WebCore17HTMLScriptElement6setSrcERKNS_6StringE
__ZN7WebCore7Element12setAttributeERKNS_13QualifiedNameERKNS_12AtomicStringE
__ZN7WebCore7Element12setAttributeERKNS_13QualifiedNameERKNS_12AtomicStringERi
__ZNK7WebCore13StyledElement18createAttributeMapEv
__ZN7WebCore13StyledElement15createAttributeERKNS_13QualifiedNameERKNS_12AtomicStringE
__ZN3WTF6VectorINS_6RefPtrIN7WebCore9AttributeEEELm0EE14expandCapacityEmPKS4_
__ZN3WTF6VectorINS_6RefPtrIN7WebCore9AttributeEEELm0EE14expandCapacityEm
__ZN3WTF6VectorINS_6RefPtrIN7WebCore9AttributeEEELm0EE15reserveCapacityEm
__ZN7WebCore13ScriptElement21handleSourceAttributeERNS_17ScriptElementDataERKNS_6StringE
__ZNK7WebCore17ScriptElementData18ignoresLoadRequestEv
__ZN7WebCore7Element25dispatchAttrAdditionEventEPNS_9AttributeE
__ZN7WebCore14jsDocumentBodyEPN3JSC9ExecStateENS0_7JSValueERKNS0_10IdentifierE
__ZN7WebCore22JSHTMLElementPrototype18getOwnPropertySlotEPN3JSC9ExecStateERKNS1_10IdentifierERNS1_12PropertySlotE
__ZN7WebCore18JSElementPrototype18getOwnPropertySlotEPN3JSC9ExecStateERKNS1_10IdentifierERNS1_12PropertySlotE
__ZN7WebCore15JSNodePrototype18getOwnPropertySlotEPN3JSC9ExecStateERKNS1_10IdentifierERNS1_12PropertySlotE
__ZN7WebCore34jsNodePrototypeFunctionAppendChildEPN3JSC9ExecStateEPNS0_8JSObjectENS0_7JSValueERKNS0_7ArgListE
__ZNK7WebCore17JSHTMLBodyElement9classInfoEv
__ZN7WebCore6JSNode11appendChildEPN3JSC9ExecStateERKNS1_7ArgListE
__ZN7WebCore6toNodeEN3JSC7JSValueE
__ZNK7WebCore19JSHTMLScriptElement9classInfoEv
__ZN7WebCore17ScriptElementData13requestScriptERKNS_6StringE
__ZN7WebCore9DocLoader13requestScriptERKNS_6StringES3_
__ZN7WebCore11FrameLoader25checkIfRunInsecureContentEPNS_14SecurityOriginERKNS_4KURLE
__ZN7WebCore12CachedScriptC1ERKNS_6StringES3_
__ZN7WebCore12CachedScriptC2ERKNS_6StringES3_
__ZN7WebCore14CachedResource4loadEPNS_9DocLoaderE
__ZN7WebCore12CachedScript12didAddClientEPNS_20CachedResourceClientE
__ZN7WebCore4Node10lazyAttachEv
__ZN7WebCore4Node13canLazyAttachEv
__ZN7WebCore22jsHTMLElementInnerHTMLEPN3JSC9ExecStateENS0_7JSValueERKNS0_10IdentifierE
__ZNK7WebCore11HTMLElement9innerHTMLEv
__ZN7WebCore12createMarkupEPKNS_4NodeENS_13EChildrenOnlyEPN3WTF6VectorIPS0_Lm0EEE
__ZN7WebCore17MarkupAccumulator12appendMarkupEPNS_4NodeENS_13EChildrenOnlyEPKN3WTF7HashMapIPNS_16AtomicStringImplES7_NS4_7PtrHa
__ZN3WTF9HashTableIPN7WebCore16AtomicStringImplESt4pairIS3_S3_ENS_18PairFirstExtractorIS5_EENS_7PtrHashIS3_EENS_14PairHashTrait
__ZN7WebCoreL17appendStartMarkupERN3WTF6VectorItLm0EEEPKNS_4NodeEPKNS_5RangeENS_23EAnnotateForInterchangeEbPNS0_7HashMapIPNS_16
__ZNK7WebCore7Element22nodeNamePreservingCaseEv
__ZNK7WebCore13QualifiedName8toStringEv
__ZNK7WebCore7Element10attributesEv
__ZNK7WebCore7Element14isURLAttributeEPNS_9AttributeE
__ZN7WebCoreL20appendAttributeValueERN3WTF6VectorItLm0EEERKNS_6StringEb
__ZNK7WebCore17HTMLAnchorElement14isURLAttributeEPNS_9AttributeE
__ZN7WebCoreL29appendQuotedURLAttributeValueERN3WTF6VectorItLm0EEERKNS_6StringE
__ZNK7WebCore16HTMLImageElement14isURLAttributeEPNS_9AttributeE
__ZN7WebCoreL15appendEndMarkupERN3WTF6VectorItLm0EEEPKNS_4NodeE
__ZN7WebCoreL20appendEscapedContentERN3WTF6VectorItLm0EEESt4pairIPKtmEb
__ZNK7WebCore15HTMLFormElement14isURLAttributeEPNS_9AttributeE
__ZNK7WebCore20HTMLTableCellElement14isURLAttributeEPNS_9AttributeE
__ZNK7WebCore16HTMLInputElement14isURLAttributeEPNS_9AttributeE
__ZNK7WebCore16HTMLTableElement14isURLAttributeEPNS_9AttributeE
__ZNK3WTF7HashMapIPN7WebCore10StringImplEPN3JSC8JSStringENS1_10StringHashENS_10HashTraitsIS3_EENS8_IS6_EEE3getERKS3_
__ZN7WebCore16jsStringSlowCaseEPN3JSC9ExecStateERNS0_9WeakGCMapIPNS_10StringImplEPNS0_8JSStringEEES5_
__ZN3JSC9WeakGCMapIPN7WebCore10StringImplEPNS_8JSStringEE3setERKS3_RKS5_
__ZN3WTF7HashMapIPN7WebCore10StringImplEPN3JSC8JSStringENS1_10StringHashENS_10HashTraitsIS3_EENS8_IS6_EEE3addERKS3_RKS6_
__ZN7WebCore20setJSDOMWindowOnloadEPN3JSC9ExecStateEPNS0_8JSObjectENS0_7JSValueE
__ZN7WebCore39jsNodePrototypeFunctionAddEventListenerEPN3JSC9ExecStateEPNS0_8JSObjectENS0_7JSValueERKNS0_7ArgListE
-[WebCoreResourceHandleAsDelegate connection:willCacheResponse:]
__ZN7WebCore14ResourceLoader17willCacheResponseEPNS_14ResourceHandleEP19NSCachedURLResponse
__ZN7WebCore14ResourceLoader17willCacheResponseEPNS_14ResourceHandleERNS_18CacheStoragePolicyE
__ZN3WTF6VectorIPN7WebCore6Loader4HostELm0EE14expandCapacityEmPKS4_
__ZN3WTF6VectorIPN7WebCore6Loader4HostELm0EE14expandCapacityEm
__ZN3WTF6VectorIPN7WebCore6Loader4HostELm0EE15reserveCapacityEm
__ZN3WTF6VectorIPN7WebCore6Loader4HostELm0EE6shrinkEm
__ZN7WebCoreL13compareZIndexEPNS_11RenderLayerES1_
__ZSt25__unguarded_linear_insertIPPN7WebCore11RenderLayerES2_PFbS2_S2_EEvT_T0_T1_
__ZSt17__merge_sort_loopIPPN7WebCore11RenderLayerES3_lPFbS2_S2_EEvT_S6_T0_T1_T2_
__ZSt5mergeIPPN7WebCore11RenderLayerES3_S3_PFbS2_S2_EET1_T_S7_T0_S8_S6_T2_
__ZN7WebCore9RenderBox27paintBoxDecorationsWithSizeERNS_12RenderObject9PaintInfoEiiii
__ZNK7WebCore11RenderBlock15borderFitAdjustERiS1_
__ZN7WebCore20RenderBoxModelObject14paintBoxShadowEPNS_15GraphicsContextEiiiiPKNS_11RenderStyleENS_11ShadowStyleEbb
__ZN7WebCore15GraphicsContext4clipERKNS_9FloatRectE
__ZN7WebCore9RenderBox15popContentsClipERNS_12RenderObject9PaintInfoENS_10PaintPhaseEii
__ZN7WebCore11RenderLayer21paintOverflowControlsEPNS_15GraphicsContextEiiRKNS_7IntRectE
__ZN7WebCore11RenderLayer17paintScrollCornerEPNS_15GraphicsContextEiiRKNS_7IntRectE
__ZN7WebCoreL16scrollCornerRectEPKNS_11RenderLayerERKNS_7IntRectE
__ZN7WebCore11RenderLayer12paintResizerEPNS_15GraphicsContextEiiRKNS_7IntRectE
__ZN7WebCore11RenderImage5paintERNS_12RenderObject9PaintInfoEii
__ZN7WebCore14RenderReplaced5paintERNS_12RenderObject9PaintInfoEii
__ZN7WebCore14RenderReplaced11shouldPaintERNS_12RenderObject9PaintInfoERiS4_
__ZNK7WebCore14RenderReplaced10isSelectedEv
__ZNK7WebCore9RenderBox15borderFitAdjustERiS1_
__ZN7WebCore11RenderImage13paintReplacedERNS_12RenderObject9PaintInfoEii
__ZN7WebCore11RenderImage5imageEii
__ZNK7WebCore11CachedImage5imageEv
__ZN7WebCoreL9nullImageEv
__ZNK7WebCore11BitmapImage4sizeEv
__ZN7WebCore11RenderImage15paintFocusRingsERNS_12RenderObject9PaintInfoEPKNS_11RenderStyleE
__ZNK7WebCore11RenderImage8imageMapEv
__ZNK7WebCore8Document11getImageMapERKNS_6StringE
__ZN7WebCore20RenderBoxModelObject11paintBorderEPNS_15GraphicsContextEiiiiPKNS_11RenderStyleEbb
__ZN7WebCore20RenderBoxModelObject19paintNinePieceImageEPNS_15GraphicsContextEiiiiPKNS_11RenderStyleERKNS_14NinePieceImageENS_1
__ZN7WebCore12RenderObject18drawLineForBoxSideEPNS_15GraphicsContextEiiiiNS_7BoxSideENS_5ColorENS_12EBorderStyleEii
__ZN7WebCore12RenderInline5paintERNS_12RenderObject9PaintInfoEii
__ZN7WebCore11RenderTable5paintERNS_12RenderObject9PaintInfoEii
__ZN7WebCore11RenderTable11paintObjectERNS_12RenderObject9PaintInfoEii
__ZN7WebCore18RenderTableSection5paintERNS_12RenderObject9PaintInfoEii
__ZN7WebCore18RenderTableSection11paintObjectERNS_12RenderObject9PaintInfoEii
__ZN7WebCore15RenderTableCell26paintBackgroundsBehindCellERNS_12RenderObject9PaintInfoEiiPS1_
__ZN7WebCore15RenderTableCell5paintERNS_12RenderObject9PaintInfoEii
__ZN7WebCore15RenderTableCell19paintBoxDecorationsERNS_12RenderObject9PaintInfoEii
__ZNK7WebCore12RenderObject14nextInPreOrderEv
__ZNK7WebCore15RenderTableCell19collectBorderStylesERN3WTF6VectorINS_20CollapsedBorderValueELm100EEE
__ZN7WebCoreL14addBorderStyleERN3WTF6VectorINS_20CollapsedBorderValueELm100EEES2_
__ZN7WebCore15RenderTableCell16sortBorderStylesERN3WTF6VectorINS_20CollapsedBorderValueELm100EEE
__ZN7WebCore15RenderTableCell20paintCollapsedBorderEPNS_15GraphicsContextEiiii
__ZN7WebCoreL20collapsedBorderStyleENS_12EBorderStyleE
__ZN3WTF6VectorIN7WebCore20CollapsedBorderValueELm100EE6shrinkEm
__ZN7WebCore27RenderTextControlSingleLine5paintERNS_12RenderObject9PaintInfoEii
__ZN7WebCore27RenderTextControlSingleLine19paintBoxDecorationsERNS_12RenderObject9PaintInfoEii
__ZN7WebCore15GraphicsContext17drawConvexPolygonEmPKNS_10FloatPointEb
__ZN7WebCore11RenderLayer23beginTransparencyLayersEPNS_15GraphicsContextEPKS0_j
__ZN7WebCore11RenderLayer27transparentPaintingAncestorEv
__ZN7WebCoreL19transparencyClipBoxEPKNS_11RenderLayerES2_j
__ZN7WebCoreL41expandClipRectForDescendantsAndReflectionERNS_7IntRectEPKNS_11RenderLayerES4_j
__ZN7WebCore15GraphicsContext22beginTransparencyLayerEf
__ZN7WebCore15GraphicsContext20endTransparencyLayerEv
__ZNK7WebCore11RenderStyle21getBorderRadiiForRectERKNS_7IntRectERNS_7IntSizeES5_S5_S5_
__ZN7WebCore15GraphicsContext18addRoundedRectClipERKNS_7IntRectERKNS_7IntSizeES6_S6_S6_
__ZN7WebCore4Path22createRoundedRectangleERKNS_9FloatRectERKNS_9FloatSizeES6_S6_S6_
__ZN7WebCore4PathC1Ev
__ZN7WebCore4PathC2Ev
__ZN7WebCore4Path6moveToERKNS_10FloatPointE
__ZN7WebCore4Path9addLineToERKNS_10FloatPointE
__ZN7WebCore4Path16addBezierCurveToERKNS_10FloatPointES3_S3_
__ZN7WebCore4Path12closeSubpathEv
__ZN7WebCore4PathC1ERKS0_
__ZN7WebCore4PathC2ERKS0_
__ZN7WebCore4PathD1Ev
__ZN7WebCore4PathD2Ev
__ZN7WebCore15GraphicsContext4clipERKNS_4PathE
__ZN7WebCore15GraphicsContext23addInnerRoundedRectClipERKNS_7IntRectEi
__ZN7WebCore12RenderObject17drawArcForBoxSideEPNS_15GraphicsContextEiifNS_7IntSizeEiiNS_7BoxSideENS_5ColorENS_12EBorderStyleEb
__ZN7WebCore15GraphicsContext9strokeArcERKNS_7IntRectEii
__ZNK7WebCore12RenderButton15controlClipRectEii
__ZN7WebCoreL14clientCallbackEP8__CFHost14CFHostInfoTypePK13CFStreamErrorPv
__ZN7WebCore15DNSResolveQueue21decrementRequestCountEv
__ZN7WebCore17SubresourceLoader18didReceiveResponseERKNS_16ResourceResponseE
__ZN7WebCore6Loader4Host18didReceiveResponseEPNS_17SubresourceLoaderERKNS_16ResourceResponseE
__ZNK3WTF7HashMapINS_6RefPtrIN7WebCore17SubresourceLoaderEEEPNS2_7RequestENS_7PtrHashIS4_EENS_10HashTraitsIS4_EENS9_IS6_EEE3get
__ZN7WebCore14CachedResource11setResponseERKNS_16ResourceResponseE
__ZNK7WebCore20ResourceResponseBase16textEncodingNameEv
__ZN7WebCore17SubresourceLoader14didReceiveDataEPKcixb
__ZN7WebCore6Loader4Host14didReceiveDataEPNS_17SubresourceLoaderEPKci
__ZN7WebCore11CachedImage4dataEN3WTF10PassRefPtrINS_12SharedBufferEEEb
__ZN7WebCore11CachedImage23maximumDecodedImageSizeEv
__ZNK7WebCore11ImageSource4sizeEv
__ZN7WebCore11CachedImage15notifyObserversEPKNS_7IntRectE
__ZN7WebCore26CachedResourceClientWalkerC1ERKN3WTF14HashCountedSetIPNS_20CachedResourceClientENS1_7PtrHashIS4_EENS1_10HashTrait
__ZN7WebCore26CachedResourceClientWalkerC2ERKN3WTF14HashCountedSetIPNS_20CachedResourceClientENS1_7PtrHashIS4_EENS1_10HashTrait
__ZN7WebCore26CachedResourceClientWalker4nextEv
__ZNK3WTF9HashTableIPN7WebCore20CachedResourceClientESt4pairIS3_jENS_18PairFirstExtractorIS5_EENS_7PtrHashIS3_EENS_14PairHashTr
__ZN7WebCore12RenderObject12imageChangedEPNS_11CachedImageEPKNS_7IntRectE
__ZN7WebCore11RenderImage12imageChangedEPvPKNS_7IntRectE
__ZNK7WebCore11RenderImage8imagePtrEv
__ZNK7WebCore11RenderImage9imageSizeEf
__ZN7WebCore14RenderReplaced16setIntrinsicSizeERKNS_7IntSizeE
__ZNK7WebCore5Image16hasRelativeWidthEv
__ZN7WebCore11RenderLayer22rendererContentChangedEv
__ZN7WebCore20CachedResourceClient12imageChangedEPNS_11CachedImageEPKNS_7IntRectE
__ZN3WTF6VectorIPN7WebCore20CachedResourceClientELm0EE6shrinkEm
__ZN7WebCore14CachedResource14setEncodedSizeEj
__ZN7WebCore17SubresourceLoader16didFinishLoadingEv
__ZN7WebCore6Loader4Host16didFinishLoadingEPNS_17SubresourceLoaderE
__ZN7WebCore9DocLoader21decrementRequestCountEv
__ZN7WebCore9DocLoader17setLoadInProgressEb
-[WebCoreSharedBufferData dealloc]
-[WebCoreSharedBufferData .cxx_destruct]
__ZN7WebCore11CachedImage11checkNotifyEv
__ZN7WebCore11RenderImage14notifyFinishedEPNS_14CachedResourceE
__ZN7WebCoreeqINS_11CachedImageENS_14CachedResourceEEEbPKT0_RKNS_20CachedResourceHandleIT_EE
__ZN7WebCore15HTMLImageLoader14notifyFinishedEPNS_14CachedResourceE
__ZN7WebCore11ImageLoader14notifyFinishedEPNS_14CachedResourceE
__ZN7WebCoreneINS_11CachedImageES1_EEbRKNS_20CachedResourceHandleIT_EEPKT0_
__ZN7WebCore16ImageEventSender17dispatchEventSoonEPNS_11ImageLoaderE
__ZN3WTF6VectorIPN7WebCore11ImageLoaderELm0EE14expandCapacityEmPKS3_
__ZN3WTF6VectorIPN7WebCore11ImageLoaderELm0EE14expandCapacityEm
__ZN3WTF6VectorIPN7WebCore11ImageLoaderELm0EE15reserveCapacityEm
__ZN7WebCore14CachedResource6finishEv
__ZN7WebCore7RequestD1Ev
__ZN7WebCore7RequestD2Ev
__ZN7WebCore11FrameLoader8loadDoneEv
__ZN7WebCore9DocLoader23checkForPendingPreloadsEv
__ZN7WebCore14DocumentLoader23removeSubresourceLoaderEPNS_14ResourceLoaderE
__ZN7WebCore17SubresourceLoaderD0Ev
__ZN7WebCore11RenderImage13paintIntoRectEPNS_15GraphicsContextERKNS_7IntRectE
__ZN7WebCore24RenderImageScaleObserver28shouldImagePaintAtLowQualityEPNS_11RenderImageERKNS_7IntSizeE
__ZNK7WebCore11BitmapImage13isBitmapImageEv
__ZN7WebCore15GraphicsContext9drawImageEPNS_5ImageENS_10ColorSpaceERKNS_7IntRectENS_17CompositeOperatorEb
__ZN7WebCore15GraphicsContext9drawImageEPNS_5ImageENS_10ColorSpaceERKNS_7IntRectES6_NS_17CompositeOperatorEb
__ZN7WebCore15GraphicsContext9drawImageEPNS_5ImageENS_10ColorSpaceERKNS_9FloatRectES6_NS_17CompositeOperatorEb
__ZN7WebCore11BitmapImage4drawEPNS_15GraphicsContextERKNS_9FloatRectES5_NS_10ColorSpaceENS_17CompositeOperatorE
__ZN7WebCore11BitmapImage14startAnimationEb
__ZN7WebCore11BitmapImage13shouldAnimateEv
__ZThn440_N7WebCore11CachedImage18decodedSizeChangedEPKNS_5ImageEi
__ZN7WebCore11CachedImage18decodedSizeChangedEPKNS_5ImageEi
__ZN7WebCore14CachedResource14setDecodedSizeEj
__ZN7WebCore5Cache32insertInLiveDecodedResourcesListEPNS_14CachedResourceE
__ZN7WebCore11BitmapImage21mayFillWithSolidColorEv
__ZNK7WebCore11BitmapImage16currentFrameSizeEv
__ZN7WebCoreL19imageWithColorSpaceEP7CGImageNS_10ColorSpaceE
__ZThn440_N7WebCore11CachedImage7didDrawEPKNS_5ImageE
__ZN7WebCore11CachedImage7didDrawEPKNS_5ImageE
__ZN7WebCore14CachedResource20didAccessDecodedDataEd
__ZN7WebCore5Cache34removeFromLiveDecodedResourcesListEPNS_14CachedResourceE
-[DOMHTMLCollection item:]
__ZNK7WebCore14HTMLCollection4itemEj
-[DOMHTMLFormElement elements]
__ZN7WebCore15HTMLFormElement8elementsEv
__ZN7WebCore18HTMLFormCollection6createEN3WTF10PassRefPtrINS_15HTMLFormElementEEE
__ZN7WebCore18HTMLFormCollectionC1EN3WTF10PassRefPtrINS_15HTMLFormElementEEE
__ZN7WebCore18HTMLFormCollectionC2EN3WTF10PassRefPtrINS_15HTMLFormElementEEE
__ZN7WebCore14HTMLCollectionC2EN3WTF10PassRefPtrINS_4NodeEEENS_14CollectionTypeEPNS_15CollectionCacheE
__ZNK7WebCore18HTMLFormCollection10calcLengthEv
__ZNK7WebCore15HTMLFormElement6lengthEv
__ZNK7WebCore16HTMLInputElement14isEnumeratableEv
__ZNK7WebCore17HTMLSelectElement14isEnumeratableEv
__ZNK7WebCore22HTMLFormControlElement14isEnumeratableEv
__ZNK7WebCore18HTMLFormCollection4itemEj
-[DOMHTMLInputElement(FormAutoFillTransition) _isTextField]
__Z4coreP19DOMHTMLInputElement
__ZN7WebCore18HTMLFormCollectionD0Ev
__ZN7WebCore14HTMLCollectionD2Ev
__ZNK3WTF7HashMapIPN7WebCore15DOMWrapperWorldEPN3JSC9WeakGCMapIPNS1_4NodeEPNS1_6JSNodeEEENS_7PtrHashIS3_EENS_10HashTraitsIS3_EE
__ZNK3WTF7HashMapIPN7WebCore4NodeEPNS1_6JSNodeENS_7PtrHashIS3_EENS_10HashTraitsIS3_EENS8_IS5_EEE3getERKS3_
__ZN7WebCore18jsDOMWindowScrollYEPN3JSC9ExecStateENS0_7JSValueERKNS0_10IdentifierE
__ZNK7WebCore9DOMWindow7scrollYEv
__ZN7WebCore18jsDOMWindowScrollXEPN3JSC9ExecStateENS0_7JSValueERKNS0_10IdentifierE
__ZNK7WebCore9DOMWindow7scrollXEv
__ZN7WebCore18jsDocumentLocationEPN3JSC9ExecStateENS0_7JSValueERKNS0_10IdentifierE
__ZNK7WebCore10JSDocument8locationEPN3JSC9ExecStateE
__ZNK7WebCore9DOMWindow8locationEv
__ZN7WebCore8LocationC1EPNS_5FrameE
__ZN7WebCore8LocationC2EPNS_5FrameE
__ZN7WebCore10JSLocation15createPrototypeEPN3JSC9ExecStateEPNS1_14JSGlobalObjectE
__ZN7WebCore10JSLocationC1EN3WTF17NonNullPassRefPtrIN3JSC9StructureEEEPNS_17JSDOMGlobalObjectENS1_10PassRefPtrINS_8LocationEEE
__ZN7WebCore10JSLocationC2EN3WTF17NonNullPassRefPtrIN3JSC9StructureEEEPNS_17JSDOMGlobalObjectENS1_10PassRefPtrINS_8LocationEEE
__ZN7WebCore10JSLocation18getOwnPropertySlotEPN3JSC9ExecStateERKNS1_10IdentifierERNS1_12PropertySlotE
__ZN7WebCore10JSLocation26getOwnPropertySlotDelegateEPN3JSC9ExecStateERKNS1_10IdentifierERNS1_12PropertySlotE
__ZN7WebCore21allowsAccessFromFrameEPN3JSC9ExecStateEPNS_5FrameERNS_6StringE
__ZN7WebCore18jsLocationHostnameEPN3JSC9ExecStateENS0_7JSValueERKNS0_10IdentifierE
__ZNK7WebCore8Location8hostnameEv
__ZN7WebCore47jsDocumentPrototypeFunctionGetElementsByTagNameEPN3JSC9ExecStateEPNS0_8JSObjectENS0_7JSValueERKNS0_7ArgListE
__ZN7WebCore4toJSEPN3JSC9ExecStateEPNS_17JSDOMGlobalObjectEPNS_8NodeListE
__ZN7WebCore10JSNodeList15createPrototypeEPN3JSC9ExecStateEPNS1_14JSGlobalObjectE
__ZN7WebCore10JSNodeListC1EN3WTF17NonNullPassRefPtrIN3JSC9StructureEEEPNS_17JSDOMGlobalObjectENS1_10PassRefPtrINS_8NodeListEEE
__ZN7WebCore10JSNodeListC2EN3WTF17NonNullPassRefPtrIN3JSC9StructureEEEPNS_17JSDOMGlobalObjectENS1_10PassRefPtrINS_8NodeListEEE
__ZN7WebCore10JSNodeList18getOwnPropertySlotEPN3JSC9ExecStateERKNS1_10IdentifierERNS1_12PropertySlotE
__ZN7WebCore16jsNodeListLengthEPN3JSC9ExecStateENS0_7JSValueERKNS0_10IdentifierE
__ZN7WebCore10JSNodeList18getOwnPropertySlotEPN3JSC9ExecStateEjRNS1_12PropertySlotE
__ZN7WebCore10JSNodeList11indexGetterEPN3JSC9ExecStateENS1_7JSValueEj
__ZNK7WebCore15DynamicNodeList4itemEj
__ZNK7WebCore15DynamicNodeList23itemForwardsFromCurrentEPNS_4NodeEji
__ZN7WebCoreL28createHTMLHtmlElementWrapperEPN3JSC9ExecStateEPNS_17JSDOMGlobalObjectEN3WTF10PassRefPtrINS_11HTMLElementEEE
__ZN7WebCore17JSHTMLHtmlElement15createPrototypeEPN3JSC9ExecStateEPNS1_14JSGlobalObjectE
__ZN7WebCore17JSHTMLHtmlElementC1EN3WTF17NonNullPassRefPtrIN3JSC9StructureEEEPNS_17JSDOMGlobalObjectENS1_10PassRefPtrINS_15HTML
__ZN7WebCore17JSHTMLHtmlElementC2EN3WTF17NonNullPassRefPtrIN3JSC9StructureEEEPNS_17JSDOMGlobalObjectENS1_10PassRefPtrINS_15HTML
__ZN7WebCore17JSHTMLHtmlElement18getOwnPropertySlotEPN3JSC9ExecStateERKNS1_10IdentifierERNS1_12PropertySlotE
__ZN7WebCore16jsElementTagNameEPN3JSC9ExecStateENS0_7JSValueERKNS0_10IdentifierE
__ZNK7WebCore11HTMLElement8nodeNameEv
__ZNK7WebCore13QualifiedName14localNameUpperEv
__ZN7WebCore14jsStringOrNullEPN3JSC9ExecStateERKNS_6StringE
__ZN7WebCoreL28createHTMLHeadElementWrapperEPN3JSC9ExecStateEPNS_17JSDOMGlobalObjectEN3WTF10PassRefPtrINS_11HTMLElementEEE
__ZN7WebCore17JSHTMLHeadElement15createPrototypeEPN3JSC9ExecStateEPNS1_14JSGlobalObjectE
__ZN7WebCore17JSHTMLHeadElementC1EN3WTF17NonNullPassRefPtrIN3JSC9StructureEEEPNS_17JSDOMGlobalObjectENS1_10PassRefPtrINS_15HTML
__ZN7WebCore17JSHTMLHeadElementC2EN3WTF17NonNullPassRefPtrIN3JSC9StructureEEEPNS_17JSDOMGlobalObjectENS1_10PassRefPtrINS_15HTML
__ZN7WebCore17JSHTMLHeadElement18getOwnPropertySlotEPN3JSC9ExecStateERKNS1_10IdentifierERNS1_12PropertySlotE
__ZN7WebCore47jsElementPrototypeFunctionGetBoundingClientRectEPN3JSC9ExecStateEPNS0_8JSObjectENS0_7JSValueERKNS0_7ArgListE
__ZNK7WebCore17JSHTMLHeadElement9classInfoEv
__ZNK7WebCore7Element21getBoundingClientRectEv
__ZN7WebCore10ClientRectC1Ev
__ZN7WebCore10ClientRectC2Ev
__ZN7WebCore4toJSEPN3JSC9ExecStateEPNS_17JSDOMGlobalObjectEPNS_10ClientRectE
__ZN7WebCore12JSClientRect15createPrototypeEPN3JSC9ExecStateEPNS1_14JSGlobalObjectE
__ZN7WebCore12JSClientRectC1EN3WTF17NonNullPassRefPtrIN3JSC9StructureEEEPNS_17JSDOMGlobalObjectENS1_10PassRefPtrINS_10ClientRec
__ZN7WebCore12JSClientRectC2EN3WTF17NonNullPassRefPtrIN3JSC9StructureEEEPNS_17JSDOMGlobalObjectENS1_10PassRefPtrINS_10ClientRec
__ZN7WebCore17JSHTMLHeadElement3putEPN3JSC9ExecStateERKNS1_10IdentifierENS1_7JSValueERNS1_15PutPropertySlotE
__ZN7WebCore9JSElement3putEPN3JSC9ExecStateERKNS1_10IdentifierENS1_7JSValueERNS1_15PutPropertySlotE
__ZN7WebCore6JSNode3putEPN3JSC9ExecStateERKNS1_10IdentifierENS1_7JSValueERNS1_15PutPropertySlotE
__ZN7WebCore12JSClientRect18getOwnPropertySlotEPN3JSC9ExecStateERKNS1_10IdentifierERNS1_12PropertySlotE
__ZN7WebCore17jsClientRectWidthEPN3JSC9ExecStateENS0_7JSValueERKNS0_10IdentifierE
__ZN7WebCoreL28createHTMLMetaElementWrapperEPN3JSC9ExecStateEPNS_17JSDOMGlobalObjectEN3WTF10PassRefPtrINS_11HTMLElementEEE
__ZN7WebCore17JSHTMLMetaElement15createPrototypeEPN3JSC9ExecStateEPNS1_14JSGlobalObjectE
__ZN7WebCore17JSHTMLMetaElementC1EN3WTF17NonNullPassRefPtrIN3JSC9StructureEEEPNS_17JSDOMGlobalObjectENS1_10PassRefPtrINS_15HTML
__ZN7WebCore17JSHTMLMetaElementC2EN3WTF17NonNullPassRefPtrIN3JSC9StructureEEEPNS_17JSDOMGlobalObjectENS1_10PassRefPtrINS_15HTML
__ZN7WebCore17JSHTMLMetaElement18getOwnPropertySlotEPN3JSC9ExecStateERKNS1_10IdentifierERNS1_12PropertySlotE
__ZNK7WebCore17JSHTMLMetaElement9classInfoEv
__ZN7WebCore17JSHTMLMetaElement3putEPN3JSC9ExecStateERKNS1_10IdentifierENS1_7JSValueERNS1_15PutPropertySlotE
__ZN7WebCore13JSHTMLElementC1EN3WTF17NonNullPassRefPtrIN3JSC9StructureEEEPNS_17JSDOMGlobalObjectENS1_10PassRefPtrINS_11HTMLElem
__ZNK7WebCore13JSHTMLElement9classInfoEv
__ZN7WebCoreL29createHTMLTitleElementWrapperEPN3JSC9ExecStateEPNS_17JSDOMGlobalObjectEN3WTF10PassRefPtrINS_11HTMLElementEEE
__ZN7WebCore18JSHTMLTitleElement15createPrototypeEPN3JSC9ExecStateEPNS1_14JSGlobalObjectE
__ZN7WebCore18JSHTMLTitleElementC1EN3WTF17NonNullPassRefPtrIN3JSC9StructureEEEPNS_17JSDOMGlobalObjectENS1_10PassRefPtrINS_16HTM
__ZN7WebCore18JSHTMLTitleElementC2EN3WTF17NonNullPassRefPtrIN3JSC9StructureEEEPNS_17JSDOMGlobalObjectENS1_10PassRefPtrINS_16HTM
__ZN7WebCore18JSHTMLTitleElement18getOwnPropertySlotEPN3JSC9ExecStateERKNS1_10IdentifierERNS1_12PropertySlotE
__ZNK7WebCore18JSHTMLTitleElement9classInfoEv
__ZN7WebCore18JSHTMLTitleElement3putEPN3JSC9ExecStateERKNS1_10IdentifierENS1_7JSValueERNS1_15PutPropertySlotE
__ZN7WebCore19JSHTMLScriptElement18getOwnPropertySlotEPN3JSC9ExecStateERKNS1_10IdentifierERNS1_12PropertySlotE
__ZN7WebCoreL29createHTMLStyleElementWrapperEPN3JSC9ExecStateEPNS_17JSDOMGlobalObjectEN3WTF10PassRefPtrINS_11HTMLElementEEE
__ZN7WebCore18JSHTMLStyleElement15createPrototypeEPN3JSC9ExecStateEPNS1_14JSGlobalObjectE
__ZN7WebCore18JSHTMLStyleElementC1EN3WTF17NonNullPassRefPtrIN3JSC9StructureEEEPNS_17JSDOMGlobalObjectENS1_10PassRefPtrINS_16HTM
__ZN7WebCore18JSHTMLStyleElementC2EN3WTF17NonNullPassRefPtrIN3JSC9StructureEEEPNS_17JSDOMGlobalObjectENS1_10PassRefPtrINS_16HTM
__ZN7WebCore18JSHTMLStyleElement18getOwnPropertySlotEPN3JSC9ExecStateERKNS1_10IdentifierERNS1_12PropertySlotE
__ZNK7WebCore16JSHTMLDivElement9classInfoEv
__ZN7WebCore11RenderBlock13absoluteQuadsERN3WTF6VectorINS_9FloatQuadELm0EEE
__ZN3WTF6VectorIN7WebCore9FloatQuadELm0EE14expandCapacityEmPKS2_
__ZN3WTF6VectorIN7WebCore9FloatQuadELm0EE14expandCapacityEm
__ZN3WTF6VectorIN7WebCore9FloatQuadELm0EE15reserveCapacityEm
__ZN7WebCore10ClientRectC1ERKNS_7IntRectE
__ZN7WebCore10ClientRectC2ERKNS_7IntRectE
__ZN3WTF6VectorIN7WebCore9FloatQuadELm0EE6shrinkEm
__ZN7WebCore18jsClientRectHeightEPN3JSC9ExecStateENS0_7JSValueERKNS0_10IdentifierE
__ZN7WebCore15jsClientRectTopEPN3JSC9ExecStateENS0_7JSValueERKNS0_10IdentifierE
__ZN7WebCore42jsElementPrototypeFunctionQuerySelectorAllEPN3JSC9ExecStateEPNS0_8JSObjectENS0_7JSValueERKNS0_7ArgListE
__ZN7WebCore4Node16querySelectorAllERKNS_6StringERi
__ZN7WebCore9CSSParser13parseSelectorERKNS_6StringEPNS_8DocumentERNS_15CSSSelectorListE
__ZN7WebCore15CSSSelectorList32selectorsNeedNamespaceResolutionEv
__ZN7WebCoreL18forEachTagSelectorINS_39SelectorNeedsNamespaceResolutionFunctorEEEbRT_PNS_11CSSSelectorE
__ZN7WebCore22createSelectorNodeListEPNS_4NodeERKNS_15CSSSelectorListE
__ZNK7WebCore16CSSStyleSelector15SelectorChecker13checkSelectorEPNS_11CSSSelectorEPNS_7ElementE
__ZNK7WebCore14StaticNodeList6lengthEv
__ZNK7WebCore14StaticNodeList4itemEj
__ZN7WebCoreL28createHTMLFormElementWrapperEPN3JSC9ExecStateEPNS_17JSDOMGlobalObjectEN3WTF10PassRefPtrINS_11HTMLElementEEE
__ZN7WebCore17JSHTMLFormElement15createPrototypeEPN3JSC9ExecStateEPNS1_14JSGlobalObjectE
__ZN7WebCore17JSHTMLFormElementC1EN3WTF17NonNullPassRefPtrIN3JSC9StructureEEEPNS_17JSDOMGlobalObjectENS1_10PassRefPtrINS_15HTML
__ZN7WebCore17JSHTMLFormElementC2EN3WTF17NonNullPassRefPtrIN3JSC9StructureEEEPNS_17JSDOMGlobalObjectENS1_10PassRefPtrINS_15HTML
__ZN7WebCore17JSHTMLFormElement18getOwnPropertySlotEPN3JSC9ExecStateERKNS1_10IdentifierERNS1_12PropertySlotE
__ZN7WebCore17JSHTMLFormElement18canGetItemsForNameEPN3JSC9ExecStateEPNS_15HTMLFormElementERKNS1_10IdentifierE
__ZN7WebCore15HTMLFormElement16getNamedElementsERKNS_12AtomicStringERN3WTF6VectorINS4_6RefPtrINS_4NodeEEELm0EEE
__ZNK7WebCore14HTMLCollection10namedItemsERKNS_12AtomicStringERN3WTF6VectorINS4_6RefPtrINS_4NodeEEELm0EEE
__ZNK7WebCore18HTMLFormCollection15updateNameCacheEv
__ZNK3WTF7HashMapIPN7WebCore16AtomicStringImplEPNS_6VectorIPNS1_7ElementELm0EEENS_7PtrHashIS3_EENS_10HashTraitsIS3_EENSB_IS8_EE
__ZN3WTF7HashMapIPN7WebCore16AtomicStringImplEPNS_6VectorIPNS1_7ElementELm0EEENS_7PtrHashIS3_EENS_10HashTraitsIS3_EENSB_IS8_EEE
__ZN7WebCore15HTMLFormElement15elementForAliasERKNS_12AtomicStringE
__ZN7WebCore26JSHTMLFormElementPrototype18getOwnPropertySlotEPN3JSC9ExecStateERKNS1_10IdentifierERNS1_12PropertySlotE
__ZNK7WebCore17JSHTMLFormElement9classInfoEv
__ZN7WebCore17JSHTMLFormElement3putEPN3JSC9ExecStateERKNS1_10IdentifierENS1_7JSValueERNS1_15PutPropertySlotE
__ZN7WebCoreL29createHTMLUListElementWrapperEPN3JSC9ExecStateEPNS_17JSDOMGlobalObjectEN3WTF10PassRefPtrINS_11HTMLElementEEE
__ZN7WebCore18JSHTMLUListElement15createPrototypeEPN3JSC9ExecStateEPNS1_14JSGlobalObjectE
__ZN7WebCore18JSHTMLUListElementC1EN3WTF17NonNullPassRefPtrIN3JSC9StructureEEEPNS_17JSDOMGlobalObjectENS1_10PassRefPtrINS_16HTM
__ZN7WebCore18JSHTMLUListElementC2EN3WTF17NonNullPassRefPtrIN3JSC9StructureEEEPNS_17JSDOMGlobalObjectENS1_10PassRefPtrINS_16HTM
__ZN7WebCore18JSHTMLUListElement18getOwnPropertySlotEPN3JSC9ExecStateERKNS1_10IdentifierERNS1_12PropertySlotE
__ZNK7WebCore18JSHTMLUListElement9classInfoEv
__ZN7WebCore18JSHTMLUListElement3putEPN3JSC9ExecStateERKNS1_10IdentifierENS1_7JSValueERNS1_15PutPropertySlotE
__ZN7WebCoreL26createHTMLLIElementWrapperEPN3JSC9ExecStateEPNS_17JSDOMGlobalObjectEN3WTF10PassRefPtrINS_11HTMLElementEEE
__ZN7WebCore15JSHTMLLIElement15createPrototypeEPN3JSC9ExecStateEPNS1_14JSGlobalObjectE
__ZN7WebCore15JSHTMLLIElementC1EN3WTF17NonNullPassRefPtrIN3JSC9StructureEEEPNS_17JSDOMGlobalObjectENS1_10PassRefPtrINS_13HTMLLI
__ZN7WebCore15JSHTMLLIElementC2EN3WTF17NonNullPassRefPtrIN3JSC9StructureEEEPNS_17JSDOMGlobalObjectENS1_10PassRefPtrINS_13HTMLLI
__ZN7WebCore44jsDOMWindowPrototypeFunctionGetComputedStyleEPN3JSC9ExecStateEPNS0_8JSObjectENS0_7JSValueERKNS0_7ArgListE
__ZN7WebCore9toElementEN3JSC7JSValueE
__ZNK7WebCore15JSHTMLLIElement9classInfoEv
__ZNK7WebCore9DOMWindow16getComputedStyleEPNS_7ElementERKNS_6StringE
__ZN7WebCore27CSSComputedStyleDeclarationC1EN3WTF10PassRefPtrINS_4NodeEEEbRKNS_6StringE
__ZN7WebCore27CSSComputedStyleDeclarationC2EN3WTF10PassRefPtrINS_4NodeEEEbRKNS_6StringE
__ZN7WebCore21JSCSSStyleDeclaration18getOwnPropertySlotEPN3JSC9ExecStateERKNS1_10IdentifierERNS1_12PropertySlotE
__ZN7WebCore21JSCSSStyleDeclaration18canGetItemsForNameEPN3JSC9ExecStateEPNS_19CSSStyleDeclarationERKNS1_10IdentifierE
__ZN7WebCore21JSCSSStyleDeclaration10nameGetterEPN3JSC9ExecStateENS1_7JSValueERKNS1_10IdentifierE
__ZN7WebCore19CSSStyleDeclaration19getPropertyCSSValueERKNS_6StringE
__ZNK7WebCore27CSSComputedStyleDeclaration19getPropertyCSSValueEi
__ZNK7WebCore27CSSComputedStyleDeclaration19getPropertyCSSValueEiNS_13EUpdateLayoutE
__ZN7WebCore7Element20virtualComputedStyleENS_8PseudoIdE
__ZN7WebCore7Element13computedStyleENS_8PseudoIdE
__ZNK7WebCore17CSSPrimitiveValue7cssTextEv
__ZN7WebCore33jsDOMWindowXPathResultConstructorEPN3JSC9ExecStateENS0_7JSValueERKNS0_10IdentifierE
__ZN7WebCore13JSXPathResult14getConstructorEPN3JSC9ExecStateEPNS1_14JSGlobalObjectE
__ZNK3WTF7HashMapIPKN3JSC9ClassInfoEPNS1_8JSObjectENS_7PtrHashIS4_EENS_10HashTraitsIS4_EENS9_IS6_EEE3getERKS4_
__ZN7WebCore22JSXPathResultPrototype4selfEPN3JSC9ExecStateEPNS1_14JSGlobalObjectE
__ZN7WebCore13JSXPathResult15createPrototypeEPN3JSC9ExecStateEPNS1_14JSGlobalObjectE
__ZN3JSC8JSObject17putDirectInternalERKNS_10IdentifierENS_7JSValueEjbRNS_15PutPropertySlotEPNS_6JSCellE
__ZN3WTF7HashMapIPKN3JSC9ClassInfoEPNS1_8JSObjectENS_7PtrHashIS4_EENS_10HashTraitsIS4_EENS9_IS6_EEE3setERKS4_RKS6_
__ZN3WTF9HashTableIPKN3JSC9ClassInfoESt4pairIS4_PNS1_8JSObjectEENS_18PairFirstExtractorIS8_EENS_7PtrHashIS4_EENS_14PairHashTrai
__ZN7WebCore24JSXPathResultConstructor18getOwnPropertySlotEPN3JSC9ExecStateERKNS1_10IdentifierERNS1_12PropertySlotE
__ZN7WebCore39jsXPathResultORDERED_NODE_SNAPSHOT_TYPEEPN3JSC9ExecStateENS0_7JSValueERKNS0_10IdentifierE
__ZN7WebCore35jsDocumentPrototypeFunctionEvaluateEPN3JSC9ExecStateEPNS0_8JSObjectENS0_7JSValueERKNS0_7ArgListE
__ZN7WebCore17toXPathNSResolverEN3JSC7JSValueE
__ZN7WebCore23JSCustomXPathNSResolver6createEPN3JSC9ExecStateENS1_7JSValueE
__ZN7WebCore13toXPathResultEN3JSC7JSValueE
__ZN7WebCore8Document8evaluateERKNS_6StringEPNS_4NodeEPNS_15XPathNSResolverEtPNS_11XPathResultERi
__ZN7WebCore14XPathEvaluator8evaluateERKNS_6StringEPNS_4NodeEPNS_15XPathNSResolverEtPNS_11XPathResultERi
__ZN7WebCore5XPath18isValidContextNodeEPNS_4NodeE
__ZN7WebCore14XPathEvaluator16createExpressionERKNS_6StringEPNS_15XPathNSResolverERi
__ZN7WebCore15XPathExpression16createExpressionERKNS_6StringEPNS_15XPathNSResolverERi
__ZN7WebCore5XPath6ParserC1Ev
__ZN7WebCore5XPath6ParserC2Ev
__ZN7WebCore5XPath6Parser5resetERKNS_6StringE
__ZN7WebCore5XPath6Parser14parseStatementERKNS_6StringEN3WTF10PassRefPtrINS_15XPathNSResolverEEERi
__Z12xpathyyparsePv
__ZN7WebCore5XPath6Parser3lexEPv
__ZN7WebCore5XPath6Parser9nextTokenEv
__ZN7WebCore5XPath6Parser17nextTokenInternalEv
__ZN7WebCore5XPath6Parser6skipWSEv
__ZN7WebCore5XPath6Parser13peekCurHelperEv
__ZN7WebCore5XPath6Parser9lexNCNameERNS_6StringE
__ZN7WebCore5XPathL7charCatEt
__ZNK7WebCore5XPath6Parser17isOperatorContextEv
__ZN7WebCore5XPathL14isNodeTypeNameERKNS_6StringE
__ZN7WebCore5XPath6Parser14registerStringEPNS_6StringE
__ZN3WTF7HashSetIPN7WebCore6StringENS_7PtrHashIS3_EENS_10HashTraitsIS3_EEE3addERKS3_
__ZN3WTF9HashTableIPN7WebCore6StringES3_NS_17IdentityExtractorIS3_EENS_7PtrHashIS3_EENS_10HashTraitsIS3_EES9_E6expandEv
__ZN3WTF9HashTableIPN7WebCore6StringES3_NS_17IdentityExtractorIS3_EENS_7PtrHashIS3_EENS_10HashTraitsIS3_EES9_E6rehashEi
__ZN3WTF9HashTableIPN7WebCore6StringES3_NS_17IdentityExtractorIS3_EENS_7PtrHashIS3_EENS_10HashTraitsIS3_EES9_E13allocateTableEi
__ZN3WTF9HashTableIPN7WebCore6StringES3_NS_17IdentityExtractorIS3_EENS_7PtrHashIS3_EENS_10HashTraitsIS3_EES9_E15deallocateTable
__ZN7WebCore5XPath6Parser19makeTokenAndAdvanceEii
__ZN7WebCore5XPath6Parser12deleteStringEPNS_6StringE
__ZN3WTF9HashTableIPN7WebCore6StringES3_NS_17IdentityExtractorIS3_EENS_7PtrHashIS3_EENS_10HashTraitsIS3_EES9_E4findIS3_NS_22Ide
__ZN3WTF9HashTableIPN7WebCore6StringES3_NS_17IdentityExtractorIS3_EENS_7PtrHashIS3_EENS_10HashTraitsIS3_EES9_E47removeAndInvali
__ZN3WTF9HashTableIPN7WebCore6StringES3_NS_17IdentityExtractorIS3_EENS_7PtrHashIS3_EENS_10HashTraitsIS3_EES9_E6removeEPS3_
__ZN7WebCore5XPath6Parser16registerNodeTestEPNS0_4Step8NodeTestE
__ZN3WTF7HashSetIPN7WebCore5XPath4Step8NodeTestENS_7PtrHashIS5_EENS_10HashTraitsIS5_EEE3addERKS5_
__ZN3WTF9HashTableIPN7WebCore5XPath4Step8NodeTestES5_NS_17IdentityExtractorIS5_EENS_7PtrHashIS5_EENS_10HashTraitsIS5_EESB_E6exp
__ZN3WTF9HashTableIPN7WebCore5XPath4Step8NodeTestES5_NS_17IdentityExtractorIS5_EENS_7PtrHashIS5_EENS_10HashTraitsIS5_EESB_E6reh
__ZN3WTF9HashTableIPN7WebCore5XPath4Step8NodeTestES5_NS_17IdentityExtractorIS5_EENS_7PtrHashIS5_EENS_10HashTraitsIS5_EESB_E13al
__ZN3WTF9HashTableIPN7WebCore5XPath4Step8NodeTestES5_NS_17IdentityExtractorIS5_EENS_7PtrHashIS5_EENS_10HashTraitsIS5_EESB_E15de
__ZN7WebCore5XPath4StepC1ENS1_4AxisERKNS1_8NodeTestERKN3WTF6VectorIPNS0_9PredicateELm0EEE
__ZN7WebCore5XPath4StepC2ENS1_4AxisERKNS1_8NodeTestERKN3WTF6VectorIPNS0_9PredicateELm0EEE
__ZN3WTF6VectorIPN7WebCore5XPath9PredicateELm0EEC1ERKS5_
__ZN3WTF6VectorIPN7WebCore5XPath9PredicateELm0EEC2ERKS5_
__ZN7WebCore5XPath6Parser14deleteNodeTestEPNS0_4Step8NodeTestE
__ZN3WTF9HashTableIPN7WebCore5XPath4Step8NodeTestES5_NS_17IdentityExtractorIS5_EENS_7PtrHashIS5_EENS_10HashTraitsIS5_EESB_E4fin
__ZN3WTF9HashTableIPN7WebCore5XPath4Step8NodeTestES5_NS_17IdentityExtractorIS5_EENS_7PtrHashIS5_EENS_10HashTraitsIS5_EESB_E47re
__ZN3WTF9HashTableIPN7WebCore5XPath4Step8NodeTestES5_NS_17IdentityExtractorIS5_EENS_7PtrHashIS5_EENS_10HashTraitsIS5_EESB_E6rem
__ZN7WebCore5XPath6Parser17registerParseNodeEPNS0_9ParseNodeE
__ZN3WTF7HashSetIPN7WebCore5XPath9ParseNodeENS_7PtrHashIS4_EENS_10HashTraitsIS4_EEE3addERKS4_
__ZN3WTF9HashTableIPN7WebCore5XPath9ParseNodeES4_NS_17IdentityExtractorIS4_EENS_7PtrHashIS4_EENS_10HashTraitsIS4_EESA_E6expandE
__ZN3WTF9HashTableIPN7WebCore5XPath9ParseNodeES4_NS_17IdentityExtractorIS4_EENS_7PtrHashIS4_EENS_10HashTraitsIS4_EESA_E6rehashE
__ZN3WTF9HashTableIPN7WebCore5XPath9ParseNodeES4_NS_17IdentityExtractorIS4_EENS_7PtrHashIS4_EENS_10HashTraitsIS4_EESA_E13alloca
__ZN3WTF9HashTableIPN7WebCore5XPath9ParseNodeES4_NS_17IdentityExtractorIS4_EENS_7PtrHashIS4_EENS_10HashTraitsIS4_EESA_E15deallo
__ZN7WebCore5XPath12LocationPathC1Ev
__ZN7WebCore5XPath12LocationPathC2Ev
__ZN7WebCore5XPath10ExpressionC2Ev
__ZN7WebCore5XPath12LocationPath10appendStepEPNS0_4StepE
__ZN7WebCore5XPath4Step8optimizeEv
__ZN3WTF6VectorIPN7WebCore5XPath4StepELm0EE14expandCapacityEmPKS4_
__ZN3WTF6VectorIPN7WebCore5XPath4StepELm0EE14expandCapacityEm
__ZN3WTF6VectorIPN7WebCore5XPath4StepELm0EE15reserveCapacityEm
__ZN7WebCore5XPath6Parser19unregisterParseNodeEPNS0_9ParseNodeE
__ZN3WTF9HashTableIPN7WebCore5XPath9ParseNodeES4_NS_17IdentityExtractorIS4_EENS_7PtrHashIS4_EENS_10HashTraitsIS4_EESA_E4findIS4
__ZN3WTF9HashTableIPN7WebCore5XPath9ParseNodeES4_NS_17IdentityExtractorIS4_EENS_7PtrHashIS4_EENS_10HashTraitsIS4_EESA_E47remove
__ZN3WTF9HashTableIPN7WebCore5XPath9ParseNodeES4_NS_17IdentityExtractorIS4_EENS_7PtrHashIS4_EENS_10HashTraitsIS4_EESA_E6removeE
__ZN7WebCore5XPath6Parser15peekAheadHelperEv
__ZN7WebCore5XPath6Parser11expandQNameERKNS_6StringERS2_S5_
__ZN7WebCore5XPath16optimizeStepPairEPNS0_4StepES2_Rb
__ZN3WTF6VectorIPN7WebCore5XPath10ExpressionELm0EE14expandCapacityEmPKS4_
__ZN3WTF6VectorIPN7WebCore5XPath10ExpressionELm0EE14expandCapacityEm
__ZN3WTF6VectorIPN7WebCore5XPath10ExpressionELm0EE15reserveCapacityEm
__ZN7WebCore5XPath14createFunctionERKNS_6StringERKN3WTF6VectorIPNS0_10ExpressionELm0EEE
__ZN7WebCore5XPathL17createFunctionMapEv
__ZN3WTF7HashMapIN7WebCore6StringENS1_5XPath11FunctionRecENS1_10StringHashENS_10HashTraitsIS2_EENS6_IS4_EEE3setERKS2_RKS4_
__ZN3WTF9HashTableIN7WebCore6StringESt4pairIS2_NS1_5XPath11FunctionRecEENS_18PairFirstExtractorIS6_EENS1_10StringHashENS_14Pair
__ZN7WebCore5XPathL13createFunLastEv
__ZN7WebCore5XPath8Function12setArgumentsERKN3WTF6VectorIPNS0_10ExpressionELm0EEE
__ZN7WebCore5XPath6Parser19makeTokenAndAdvanceEiNS0_8EqTestOp6OpcodeEi
__ZN7WebCore5XPath6Parser9lexNumberEv
__ZN7WebCore5XPath6NumberC1Ed
__ZN7WebCore5XPath6NumberC2Ed
__ZN7WebCore5XPath8EqTestOpC1ENS1_6OpcodeEPNS0_10ExpressionES4_
__ZN7WebCore5XPath8EqTestOpC2ENS1_6OpcodeEPNS0_10ExpressionES4_
__ZN7WebCore5XPath9PredicateC1EPNS0_10ExpressionE
__ZN7WebCore5XPath9PredicateC2EPNS0_10ExpressionE
__ZN3WTF6VectorIPN7WebCore5XPath9PredicateELm0EE14expandCapacityEmPKS4_
__ZN3WTF6VectorIPN7WebCore5XPath9PredicateELm0EE14expandCapacityEm
__ZN3WTF6VectorIPN7WebCore5XPath9PredicateELm0EE15reserveCapacityEm
__ZN7WebCore5XPath6Parser23registerPredicateVectorEPN3WTF6VectorIPNS0_9PredicateELm0EEE
__ZN3WTF7HashSetIPNS_6VectorIPN7WebCore5XPath9PredicateELm0EEENS_7PtrHashIS7_EENS_10HashTraitsIS7_EEE3addERKS7_
__ZN3WTF9HashTableIPNS_6VectorIPN7WebCore5XPath9PredicateELm0EEES7_NS_17IdentityExtractorIS7_EENS_7PtrHashIS7_EENS_10HashTraits
__ZN7WebCore5XPath6Parser21deletePredicateVectorEPN3WTF6VectorIPNS0_9PredicateELm0EEE
__ZN3WTF6VectorIPN7WebCore5XPath9PredicateELm0EE6shrinkEm
__ZNK7WebCore5XPath8EqTestOp10resultTypeEv
__ZN3WTF9HashTableIPN7WebCore5XPath9ParseNodeES4_NS_17IdentityExtractorIS4_EENS_7PtrHashIS4_EENS_10HashTraitsIS4_EESA_E5clearEv
__ZN3WTF9HashTableIPNS_6VectorIPN7WebCore5XPath10ExpressionELm0EEES7_NS_17IdentityExtractorIS7_EENS_7PtrHashIS7_EENS_10HashTrai
__ZN7WebCore15XPathExpression8evaluateEPNS_4NodeEtPNS_11XPathResultERi
__ZN7WebCore5XPath10Expression17evaluationContextEv
__ZNK7WebCore5XPath5Union8evaluateEv
__ZNK7WebCore5XPath12LocationPath8evaluateEv
__ZNK7WebCore5XPath12LocationPath8evaluateERNS0_7NodeSetE
__ZNK7WebCore5XPath4Step8evaluateEPNS_4NodeERNS0_7NodeSetE
__ZNK7WebCore5XPath4Step11nodesInAxisEPNS_4NodeERNS0_7NodeSetE
__ZNK7WebCore4Node15isAttributeNodeEv
__ZN7WebCore5XPathL11nodeMatchesEPNS_4NodeENS0_4Step4AxisERKNS3_8NodeTestE
__ZN3WTF9HashTableIPN7WebCore4NodeES3_NS_17IdentityExtractorIS3_EENS_7PtrHashIS3_EENS_10HashTraitsIS3_EES9_E15deallocateTableEP
__ZN7WebCore5XPath5Value17modifiableNodeSetEv
__ZNK7WebCore5XPath5Value9toNodeSetEv
__ZN3WTF7HashSetIPN7WebCore4NodeENS_7PtrHashIS3_EENS_10HashTraitsIS3_EEE3addERKS3_
__ZN3WTF9HashTableIPN7WebCore4NodeES3_NS_17IdentityExtractorIS3_EENS_7PtrHashIS3_EENS_10HashTraitsIS3_EES9_E6expandEv
__ZN3WTF9HashTableIPN7WebCore4NodeES3_NS_17IdentityExtractorIS3_EENS_7PtrHashIS3_EENS_10HashTraitsIS3_EES9_E6rehashEi
__ZN3WTF9HashTableIPN7WebCore4NodeES3_NS_17IdentityExtractorIS3_EENS_7PtrHashIS3_EENS_10HashTraitsIS3_EES9_E13allocateTableEi
__ZN7WebCore11XPathResultC1EPNS_8DocumentERKNS_5XPath5ValueE
__ZN7WebCore11XPathResultC2EPNS_8DocumentERKNS_5XPath5ValueE
__ZN3WTF6VectorINS_6RefPtrIN7WebCore4NodeEEELm0EEaSERKS5_
__ZN3WTF6VectorINS_6RefPtrIN7WebCore4NodeEEELm0EE14shrinkCapacityEm
__ZN7WebCore11XPathResult9convertToEtRi
__ZNK7WebCore5XPath7NodeSet4sortEv
__ZN3WTF6VectorIPN7WebCore4NodeELm0EE14expandCapacityEmPKS3_
__ZN3WTF6VectorIPN7WebCore4NodeELm0EE14expandCapacityEm
__ZN3WTF6VectorIPN7WebCore4NodeELm0EE15reserveCapacityEm
__ZN7WebCore5XPathL9sortBlockEjjRN3WTF6VectorINS2_IPNS_4NodeELm0EEELm0EEEb
__ZNK3WTF9HashTableIPN7WebCore4NodeES3_NS_17IdentityExtractorIS3_EENS_7PtrHashIS3_EENS_10HashTraitsIS3_EES9_E8containsIS3_NS_22
__ZN3WTF6VectorINS0_IPN7WebCore4NodeELm0EEELm0EE6shrinkEm
__ZN3WTF6VectorIPN7WebCore4NodeELm0EE6shrinkEm
__ZN7WebCore15XPathExpressionD1Ev
__ZN7WebCore15XPathExpressionD2Ev
__ZN7WebCore5XPath5UnionD0Ev
__ZN7WebCore5XPath10ExpressionD2Ev
__ZN3WTF15deleteAllValuesIPN7WebCore5XPath10ExpressionELm0EEEvRKNS_6VectorIT_XT0_EEE
__ZN7WebCore5XPath12LocationPathD0Ev
__ZN3WTF15deleteAllValuesIPN7WebCore5XPath4StepELm0EEEvRKNS_6VectorIT_XT0_EEE
__ZN7WebCore5XPath4StepD0Ev
__ZN3WTF15deleteAllValuesIPN7WebCore5XPath9PredicateELm0EEEvRKNS_6VectorIT_XT0_EEE
__ZN3WTF6VectorIPN7WebCore5XPath4StepELm0EE6shrinkEm
__ZN3WTF6VectorIPN7WebCore5XPath10ExpressionELm0EE6shrinkEm
__ZN7WebCore5XPath9PredicateD1Ev
__ZN7WebCore5XPath9PredicateD2Ev
__ZN7WebCore5XPath8EqTestOpD0Ev
__ZN7WebCore5XPath7FunLastD0Ev
__ZN7WebCore5XPath6NumberD0Ev
__ZN7WebCore4toJSEPN3JSC9ExecStateEPNS_17JSDOMGlobalObjectEPNS_11XPathResultE
__ZN7WebCore13JSXPathResultC1EN3WTF17NonNullPassRefPtrIN3JSC9StructureEEEPNS_17JSDOMGlobalObjectENS1_10PassRefPtrINS_11XPathRes
__ZN7WebCore13JSXPathResultC2EN3WTF17NonNullPassRefPtrIN3JSC9StructureEEEPNS_17JSDOMGlobalObjectENS1_10PassRefPtrINS_11XPathRes
__ZN7WebCore13JSXPathResult18getOwnPropertySlotEPN3JSC9ExecStateERKNS1_10IdentifierERNS1_12PropertySlotE
__ZN7WebCore27jsXPathResultSnapshotLengthEPN3JSC9ExecStateENS0_7JSValueERKNS0_10IdentifierE
__ZNK7WebCore11XPathResult14snapshotLengthERi
__ZNK7WebCore11XPathResult10resultTypeEv
__ZN7WebCore22JSXPathResultPrototype18getOwnPropertySlotEPN3JSC9ExecStateERKNS1_10IdentifierERNS1_12PropertySlotE
__ZN7WebCore42jsXPathResultPrototypeFunctionSnapshotItemEPN3JSC9ExecStateEPNS0_8JSObjectENS0_7JSValueERKNS0_7ArgListE
__ZNK7WebCore13JSXPathResult9classInfoEv
__ZN7WebCore11XPathResult12snapshotItemEmRi
__ZN7WebCore6JSText15createPrototypeEPN3JSC9ExecStateEPNS1_14JSGlobalObjectE
__ZN7WebCore24JSCharacterDataPrototype4selfEPN3JSC9ExecStateEPNS1_14JSGlobalObjectE
__ZN7WebCore15JSCharacterData15createPrototypeEPN3JSC9ExecStateEPNS1_14JSGlobalObjectE
__ZN3JSC9Structure6createENS_7JSValueERKNS_8TypeInfoEj
__ZN7WebCore6JSTextC1EN3WTF17NonNullPassRefPtrIN3JSC9StructureEEEPNS_17JSDOMGlobalObjectENS1_10PassRefPtrINS_4TextEEE
__ZN7WebCore6JSTextC2EN3WTF17NonNullPassRefPtrIN3JSC9StructureEEEPNS_17JSDOMGlobalObjectENS1_10PassRefPtrINS_4TextEEE
__ZN7WebCore15JSCharacterDataC2EN3WTF17NonNullPassRefPtrIN3JSC9StructureEEEPNS_17JSDOMGlobalObjectENS1_10PassRefPtrINS_13Charac
__ZN7WebCore6JSText18getOwnPropertySlotEPN3JSC9ExecStateERKNS1_10IdentifierERNS1_12PropertySlotE
__ZN7WebCore15JSCharacterData18getOwnPropertySlotEPN3JSC9ExecStateERKNS1_10IdentifierERNS1_12PropertySlotE
__ZN7WebCore16jsNodeParentNodeEPN3JSC9ExecStateENS0_7JSValueERKNS0_10IdentifierE
__ZN7WebCore14jsNodeNodeTypeEPN3JSC9ExecStateENS0_7JSValueERKNS0_10IdentifierE
__ZN7WebCore26jsDOMWindowNodeConstructorEPN3JSC9ExecStateENS0_7JSValueERKNS0_10IdentifierE
__ZN7WebCore6JSNode14getConstructorEPN3JSC9ExecStateEPNS1_14JSGlobalObjectE
__ZN7WebCore17JSNodeConstructor18getOwnPropertySlotEPN3JSC9ExecStateERKNS1_10IdentifierERNS1_12PropertySlotE
__ZN7WebCore15jsNodeTEXT_NODEEPN3JSC9ExecStateENS0_7JSValueERKNS0_10IdentifierE
__ZN7WebCore15jsNodeNodeValueEPN3JSC9ExecStateENS0_7JSValueERKNS0_10IdentifierE
__ZN7WebCore38jsElementPrototypeFunctionGetAttributeEPN3JSC9ExecStateEPNS0_8JSObjectENS0_7JSValueERKNS0_7ArgListE
__ZNK7WebCore7Element12getAttributeERKNS_6StringE
__ZN7WebCore22jsHTMLElementClassNameEPN3JSC9ExecStateENS0_7JSValueERKNS0_10IdentifierE
__ZN7WebCore19jsNodeParentElementEPN3JSC9ExecStateENS0_7JSValueERKNS0_10IdentifierE
__ZNK7WebCore12NamedNodeMap24getAttributeItemSlowCaseERKNS_6StringEb
__ZNK7WebCore17JSHTMLHtmlElement9classInfoEv
__ZN7WebCoreL30createHTMLAnchorElementWrapperEPN3JSC9ExecStateEPNS_17JSDOMGlobalObjectEN3WTF10PassRefPtrINS_11HTMLElementEEE
__ZN7WebCore19JSHTMLAnchorElement15createPrototypeEPN3JSC9ExecStateEPNS1_14JSGlobalObjectE
__ZN7WebCore19JSHTMLAnchorElementC1EN3WTF17NonNullPassRefPtrIN3JSC9StructureEEEPNS_17JSDOMGlobalObjectENS1_10PassRefPtrINS_17HT
__ZN7WebCore19JSHTMLAnchorElementC2EN3WTF17NonNullPassRefPtrIN3JSC9StructureEEEPNS_17JSDOMGlobalObjectENS1_10PassRefPtrINS_17HT
__ZN7WebCore19JSHTMLAnchorElement18getOwnPropertySlotEPN3JSC9ExecStateERKNS1_10IdentifierERNS1_12PropertySlotE
__ZN7WebCore21jsCharacterDataLengthEPN3JSC9ExecStateENS0_7JSValueERKNS0_10IdentifierE
__ZN7WebCoreL29createHTMLInputElementWrapperEPN3JSC9ExecStateEPNS_17JSDOMGlobalObjectEN3WTF10PassRefPtrINS_11HTMLElementEEE
__ZN7WebCore18JSHTMLInputElement15createPrototypeEPN3JSC9ExecStateEPNS1_14JSGlobalObjectE
__ZN7WebCore18JSHTMLInputElementC1EN3WTF17NonNullPassRefPtrIN3JSC9StructureEEEPNS_17JSDOMGlobalObjectENS1_10PassRefPtrINS_16HTM
__ZN7WebCore18JSHTMLInputElementC2EN3WTF17NonNullPassRefPtrIN3JSC9StructureEEEPNS_17JSDOMGlobalObjectENS1_10PassRefPtrINS_16HTM
__ZN7WebCore18JSHTMLInputElement18getOwnPropertySlotEPN3JSC9ExecStateERKNS1_10IdentifierERNS1_12PropertySlotE
__ZN7WebCore27JSHTMLInputElementPrototype18getOwnPropertySlotEPN3JSC9ExecStateERKNS1_10IdentifierERNS1_12PropertySlotE
__ZNK7WebCore18JSHTMLInputElement9classInfoEv
__ZN7WebCore18JSHTMLInputElement3putEPN3JSC9ExecStateERKNS1_10IdentifierENS1_7JSValueERNS1_15PutPropertySlotE
__ZN7WebCoreL30createHTMLIFrameElementWrapperEPN3JSC9ExecStateEPNS_17JSDOMGlobalObjectEN3WTF10PassRefPtrINS_11HTMLElementEEE
__ZN7WebCore19JSHTMLIFrameElement15createPrototypeEPN3JSC9ExecStateEPNS1_14JSGlobalObjectE
__ZN7WebCore19JSHTMLIFrameElementC1EN3WTF17NonNullPassRefPtrIN3JSC9StructureEEEPNS_17JSDOMGlobalObjectENS1_10PassRefPtrINS_17HT
__ZN7WebCore19JSHTMLIFrameElementC2EN3WTF17NonNullPassRefPtrIN3JSC9StructureEEEPNS_17JSDOMGlobalObjectENS1_10PassRefPtrINS_17HT
__ZN7WebCore19JSHTMLIFrameElement18getOwnPropertySlotEPN3JSC9ExecStateERKNS1_10IdentifierERNS1_12PropertySlotE
__ZN7WebCore12RenderInline13absoluteQuadsERN3WTF6VectorINS_9FloatQuadELm0EEE
__ZNK7WebCore12RenderInline19mapLocalToContainerEPNS_20RenderBoxModelObjectEbbRNS_14TransformStateE
__ZNK7WebCore12RenderObject16adjustForColumnsERNS_7IntSizeERKNS_8IntPointE
__ZN7WebCoreL29createHTMLImageElementWrapperEPN3JSC9ExecStateEPNS_17JSDOMGlobalObjectEN3WTF10PassRefPtrINS_11HTMLElementEEE
__ZN7WebCore18JSHTMLImageElement15createPrototypeEPN3JSC9ExecStateEPNS1_14JSGlobalObjectE
__ZN7WebCore18JSHTMLImageElementC1EN3WTF17NonNullPassRefPtrIN3JSC9StructureEEEPNS_17JSDOMGlobalObjectENS1_10PassRefPtrINS_16HTM
__ZN7WebCore18JSHTMLImageElementC2EN3WTF17NonNullPassRefPtrIN3JSC9StructureEEEPNS_17JSDOMGlobalObjectENS1_10PassRefPtrINS_16HTM
__ZN7WebCore18JSHTMLImageElement18getOwnPropertySlotEPN3JSC9ExecStateERKNS1_10IdentifierERNS1_12PropertySlotE
__ZNK7WebCore18JSHTMLImageElement9classInfoEv
__ZN7WebCore9RenderBox13absoluteQuadsERN3WTF6VectorINS_9FloatQuadELm0EEE
__ZN7WebCore18JSHTMLImageElement3putEPN3JSC9ExecStateERKNS1_10IdentifierENS1_7JSValueERNS1_15PutPropertySlotE
__ZN7WebCoreL31createHTMLHeadingElementWrapperEPN3JSC9ExecStateEPNS_17JSDOMGlobalObjectEN3WTF10PassRefPtrINS_11HTMLElementEEE
__ZN7WebCore20JSHTMLHeadingElement15createPrototypeEPN3JSC9ExecStateEPNS1_14JSGlobalObjectE
__ZN7WebCore20JSHTMLHeadingElementC1EN3WTF17NonNullPassRefPtrIN3JSC9StructureEEEPNS_17JSDOMGlobalObjectENS1_10PassRefPtrINS_18H
__ZN7WebCore20JSHTMLHeadingElementC2EN3WTF17NonNullPassRefPtrIN3JSC9StructureEEEPNS_17JSDOMGlobalObjectENS1_10PassRefPtrINS_18H
__ZN7WebCore20JSHTMLHeadingElement18getOwnPropertySlotEPN3JSC9ExecStateERKNS1_10IdentifierERNS1_12PropertySlotE
__ZNK7WebCore20JSHTMLHeadingElement9classInfoEv
__ZN7WebCore20JSHTMLHeadingElement3putEPN3JSC9ExecStateERKNS1_10IdentifierENS1_7JSValueERNS1_15PutPropertySlotE
__ZN7WebCoreL29createHTMLTableElementWrapperEPN3JSC9ExecStateEPNS_17JSDOMGlobalObjectEN3WTF10PassRefPtrINS_11HTMLElementEEE
__ZN7WebCore18JSHTMLTableElement15createPrototypeEPN3JSC9ExecStateEPNS1_14JSGlobalObjectE
__ZN7WebCore18JSHTMLTableElementC1EN3WTF17NonNullPassRefPtrIN3JSC9StructureEEEPNS_17JSDOMGlobalObjectENS1_10PassRefPtrINS_16HTM
__ZN7WebCore18JSHTMLTableElementC2EN3WTF17NonNullPassRefPtrIN3JSC9StructureEEEPNS_17JSDOMGlobalObjectENS1_10PassRefPtrINS_16HTM
__ZN7WebCore18JSHTMLTableElement18getOwnPropertySlotEPN3JSC9ExecStateERKNS1_10IdentifierERNS1_12PropertySlotE
__ZN7WebCore27JSHTMLTableElementPrototype18getOwnPropertySlotEPN3JSC9ExecStateERKNS1_10IdentifierERNS1_12PropertySlotE
__ZNK7WebCore18JSHTMLTableElement9classInfoEv
__ZN7WebCore18JSHTMLTableElement3putEPN3JSC9ExecStateERKNS1_10IdentifierENS1_7JSValueERNS1_15PutPropertySlotE
__ZN7WebCoreL36createHTMLTableSectionElementWrapperEPN3JSC9ExecStateEPNS_17JSDOMGlobalObjectEN3WTF10PassRefPtrINS_11HTMLElement
__ZN7WebCore25JSHTMLTableSectionElement15createPrototypeEPN3JSC9ExecStateEPNS1_14JSGlobalObjectE
__ZN7WebCore25JSHTMLTableSectionElementC1EN3WTF17NonNullPassRefPtrIN3JSC9StructureEEEPNS_17JSDOMGlobalObjectENS1_10PassRefPtrIN
__ZN7WebCore25JSHTMLTableSectionElementC2EN3WTF17NonNullPassRefPtrIN3JSC9StructureEEEPNS_17JSDOMGlobalObjectENS1_10PassRefPtrIN
__ZN7WebCore25JSHTMLTableSectionElement18getOwnPropertySlotEPN3JSC9ExecStateERKNS1_10IdentifierERNS1_12PropertySlotE
__ZN7WebCore34JSHTMLTableSectionElementPrototype18getOwnPropertySlotEPN3JSC9ExecStateERKNS1_10IdentifierERNS1_12PropertySlotE
__ZNK7WebCore25JSHTMLTableSectionElement9classInfoEv
__ZN7WebCore25JSHTMLTableSectionElement3putEPN3JSC9ExecStateERKNS1_10IdentifierENS1_7JSValueERNS1_15PutPropertySlotE
__ZN7WebCoreL32createHTMLTableRowElementWrapperEPN3JSC9ExecStateEPNS_17JSDOMGlobalObjectEN3WTF10PassRefPtrINS_11HTMLElementEEE
__ZN7WebCore21JSHTMLTableRowElement15createPrototypeEPN3JSC9ExecStateEPNS1_14JSGlobalObjectE
__ZN7WebCore21JSHTMLTableRowElementC1EN3WTF17NonNullPassRefPtrIN3JSC9StructureEEEPNS_17JSDOMGlobalObjectENS1_10PassRefPtrINS_19
__ZN7WebCore21JSHTMLTableRowElementC2EN3WTF17NonNullPassRefPtrIN3JSC9StructureEEEPNS_17JSDOMGlobalObjectENS1_10PassRefPtrINS_19
__ZN7WebCore21JSHTMLTableRowElement18getOwnPropertySlotEPN3JSC9ExecStateERKNS1_10IdentifierERNS1_12PropertySlotE
__ZN7WebCore30JSHTMLTableRowElementPrototype18getOwnPropertySlotEPN3JSC9ExecStateERKNS1_10IdentifierERNS1_12PropertySlotE
__ZNK7WebCore21JSHTMLTableRowElement9classInfoEv
__ZN7WebCore21JSHTMLTableRowElement3putEPN3JSC9ExecStateERKNS1_10IdentifierENS1_7JSValueERNS1_15PutPropertySlotE
__ZN7WebCoreL33createHTMLTableCellElementWrapperEPN3JSC9ExecStateEPNS_17JSDOMGlobalObjectEN3WTF10PassRefPtrINS_11HTMLElementEEE
__ZN7WebCore22JSHTMLTableCellElement15createPrototypeEPN3JSC9ExecStateEPNS1_14JSGlobalObjectE
__ZN7WebCore22JSHTMLTableCellElementC1EN3WTF17NonNullPassRefPtrIN3JSC9StructureEEEPNS_17JSDOMGlobalObjectENS1_10PassRefPtrINS_2
__ZN7WebCore22JSHTMLTableCellElementC2EN3WTF17NonNullPassRefPtrIN3JSC9StructureEEEPNS_17JSDOMGlobalObjectENS1_10PassRefPtrINS_2
__ZN7WebCore22JSHTMLTableCellElement18getOwnPropertySlotEPN3JSC9ExecStateERKNS1_10IdentifierERNS1_12PropertySlotE
__ZNK7WebCore22JSHTMLTableCellElement9classInfoEv
__ZNK7WebCore15RenderTableCell19offsetFromContainerEPNS_12RenderObjectERKNS_8IntPointE
__ZN7WebCore22JSHTMLTableCellElement3putEPN3JSC9ExecStateERKNS1_10IdentifierENS1_7JSValueERNS1_15PutPropertySlotE
__ZN7WebCoreL30createHTMLSelectElementWrapperEPN3JSC9ExecStateEPNS_17JSDOMGlobalObjectEN3WTF10PassRefPtrINS_11HTMLElementEEE
__ZN7WebCore19JSHTMLSelectElement15createPrototypeEPN3JSC9ExecStateEPNS1_14JSGlobalObjectE
__ZN7WebCore19JSHTMLSelectElementC1EN3WTF17NonNullPassRefPtrIN3JSC9StructureEEEPNS_17JSDOMGlobalObjectENS1_10PassRefPtrINS_17HT
__ZN7WebCore19JSHTMLSelectElementC2EN3WTF17NonNullPassRefPtrIN3JSC9StructureEEEPNS_17JSDOMGlobalObjectENS1_10PassRefPtrINS_17HT
__ZN7WebCore19JSHTMLSelectElement18getOwnPropertySlotEPN3JSC9ExecStateERKNS1_10IdentifierERNS1_12PropertySlotE
__ZN7WebCore28JSHTMLSelectElementPrototype18getOwnPropertySlotEPN3JSC9ExecStateERKNS1_10IdentifierERNS1_12PropertySlotE
__ZNK7WebCore19JSHTMLSelectElement9classInfoEv
__ZN7WebCore19JSHTMLSelectElement3putEPN3JSC9ExecStateERKNS1_10IdentifierENS1_7JSValueERNS1_15PutPropertySlotE
__ZN7WebCoreL30createHTMLOptionElementWrapperEPN3JSC9ExecStateEPNS_17JSDOMGlobalObjectEN3WTF10PassRefPtrINS_11HTMLElementEEE
__ZN7WebCore19JSHTMLOptionElement15createPrototypeEPN3JSC9ExecStateEPNS1_14JSGlobalObjectE
__ZN7WebCore19JSHTMLOptionElementC1EN3WTF17NonNullPassRefPtrIN3JSC9StructureEEEPNS_17JSDOMGlobalObjectENS1_10PassRefPtrINS_17HT
__ZN7WebCore19JSHTMLOptionElementC2EN3WTF17NonNullPassRefPtrIN3JSC9StructureEEEPNS_17JSDOMGlobalObjectENS1_10PassRefPtrINS_17HT
__ZN7WebCore19JSHTMLOptionElement18getOwnPropertySlotEPN3JSC9ExecStateERKNS1_10IdentifierERNS1_12PropertySlotE
__ZN7WebCore15JSHTMLLIElement18getOwnPropertySlotEPN3JSC9ExecStateERKNS1_10IdentifierERNS1_12PropertySlotE
__ZN7WebCoreL30createHTMLButtonElementWrapperEPN3JSC9ExecStateEPNS_17JSDOMGlobalObjectEN3WTF10PassRefPtrINS_11HTMLElementEEE
__ZN7WebCore19JSHTMLButtonElement15createPrototypeEPN3JSC9ExecStateEPNS1_14JSGlobalObjectE
__ZN7WebCore19JSHTMLButtonElementC1EN3WTF17NonNullPassRefPtrIN3JSC9StructureEEEPNS_17JSDOMGlobalObjectENS1_10PassRefPtrINS_17HT
__ZN7WebCore19JSHTMLButtonElementC2EN3WTF17NonNullPassRefPtrIN3JSC9StructureEEEPNS_17JSDOMGlobalObjectENS1_10PassRefPtrINS_17HT
__ZN7WebCore19JSHTMLButtonElement18getOwnPropertySlotEPN3JSC9ExecStateERKNS1_10IdentifierERNS1_12PropertySlotE
__ZN7WebCore28JSHTMLButtonElementPrototype18getOwnPropertySlotEPN3JSC9ExecStateERKNS1_10IdentifierERNS1_12PropertySlotE
__ZNK7WebCore19JSHTMLButtonElement9classInfoEv
__ZN7WebCore19JSHTMLButtonElement3putEPN3JSC9ExecStateERKNS1_10IdentifierENS1_7JSValueERNS1_15PutPropertySlotE
__ZN7WebCoreL26createHTMLBRElementWrapperEPN3JSC9ExecStateEPNS_17JSDOMGlobalObjectEN3WTF10PassRefPtrINS_11HTMLElementEEE
__ZN7WebCore15JSHTMLBRElement15createPrototypeEPN3JSC9ExecStateEPNS1_14JSGlobalObjectE
__ZN7WebCore15JSHTMLBRElementC1EN3WTF17NonNullPassRefPtrIN3JSC9StructureEEEPNS_17JSDOMGlobalObjectENS1_10PassRefPtrINS_13HTMLBR
__ZN7WebCore15JSHTMLBRElementC2EN3WTF17NonNullPassRefPtrIN3JSC9StructureEEEPNS_17JSDOMGlobalObjectENS1_10PassRefPtrINS_13HTMLBR
__ZN7WebCore15JSHTMLBRElement18getOwnPropertySlotEPN3JSC9ExecStateERKNS1_10IdentifierERNS1_12PropertySlotE
__ZNK7WebCore15JSHTMLBRElement9classInfoEv
__ZN7WebCore15JSHTMLBRElement3putEPN3JSC9ExecStateERKNS1_10IdentifierENS1_7JSValueERNS1_15PutPropertySlotE
__ZN7WebCoreL28createHTMLFontElementWrapperEPN3JSC9ExecStateEPNS_17JSDOMGlobalObjectEN3WTF10PassRefPtrINS_11HTMLElementEEE
__ZN7WebCore17JSHTMLFontElement15createPrototypeEPN3JSC9ExecStateEPNS1_14JSGlobalObjectE
__ZN7WebCore17JSHTMLFontElementC1EN3WTF17NonNullPassRefPtrIN3JSC9StructureEEEPNS_17JSDOMGlobalObjectENS1_10PassRefPtrINS_15HTML
__ZN7WebCore17JSHTMLFontElementC2EN3WTF17NonNullPassRefPtrIN3JSC9StructureEEEPNS_17JSDOMGlobalObjectENS1_10PassRefPtrINS_15HTML
__ZN7WebCore17JSHTMLFontElement18getOwnPropertySlotEPN3JSC9ExecStateERKNS1_10IdentifierERNS1_12PropertySlotE
__ZNK7WebCore17JSHTMLFontElement9classInfoEv
__ZN7WebCore17JSHTMLFontElement3putEPN3JSC9ExecStateERKNS1_10IdentifierENS1_7JSValueERNS1_15PutPropertySlotE
__ZNK7WebCore12RenderObject16isBoxModelObjectEv
__ZN7WebCore16JSDOMWindowShell12markChildrenERN3JSC9MarkStackE
__ZN7WebCore11JSDOMWindow12markChildrenERN3JSC9MarkStackE
__ZN7WebCore17JSDOMGlobalObject12markChildrenERN3JSC9MarkStackE
__ZN7WebCore15JSEventListener14markJSFunctionERN3JSC9MarkStackE
__ZN7WebCore20markDOMObjectWrapperERN3JSC9MarkStackERNS0_12JSGlobalDataEPv
__ZN7WebCore11JSNavigator12markChildrenERN3JSC9MarkStackE
__ZN7WebCore10JSDocument12markChildrenERN3JSC9MarkStackE
__ZN7WebCore6JSNode12markChildrenERN3JSC9MarkStackE
__ZNK7WebCore4Node13ownerDocumentEv
__ZN7WebCore23markDOMNodesForDocumentERN3JSC9MarkStackEPNS_8DocumentE
__ZN7WebCore27markActiveObjectsForContextERN3JSC9MarkStackERNS0_12JSGlobalDataEPNS_22ScriptExecutionContextE
__ZThn32_NK7WebCore8DOMTimer18hasPendingActivityEv
__ZNK7WebCore8DOMTimer18hasPendingActivityEv
__ZNK7WebCore8Document14implementationEv
__ZN7WebCore8Document11styleSheetsEv
__ZN7WebCore4Node23markCachedNodeListsSlowERN3JSC9MarkStackERNS1_12JSGlobalDataE
__ZN7WebCore13markNodeListsIN3WTF7HashMapINS_6StringEPNS_13ClassNodeListENS_10StringHashENS1_10HashTraitsIS3_EENS7_IS5_EEEEEEvR
__ZN7WebCore13markNodeListsIN3WTF7HashMapINS_6StringEPNS_12NameNodeListENS_10StringHashENS1_10HashTraitsIS3_EENS7_IS5_EEEEEEvRK
__ZN7WebCore13markNodeListsIN3WTF7HashMapINS1_6RefPtrINS_13QualifiedName17QualifiedNameImplEEEPNS_11TagNodeListENS1_7PtrHashIS6
__ZN7WebCore9JSElement12markChildrenERN3JSC9MarkStackE
__ZN7WebCore18markDOMNodeWrapperERN3JSC9MarkStackEPNS_8DocumentEPNS_4NodeE
__ZN7WebCore21JSCSSStyleDeclaration12markChildrenERN3JSC9MarkStackE
__ZNK7WebCore26CSSMutableStyleDeclaration25isMutableStyleDeclarationEv
__ZN7WebCore16JSHTMLDivElementD1Ev
__ZN7WebCore6JSNodeD2Ev
__ZN7WebCore13forgetDOMNodeEPNS_6JSNodeEPNS_4NodeEPNS_8DocumentE
__ZN3JSC9WeakGCMapIPN7WebCore4NodeEPNS1_6JSNodeEE15uncheckedRemoveERKS3_RKS5_
__ZN7WebCore17JSHTMLBodyElementD1Ev
__ZN7WebCore19JSHTMLScriptElementD1Ev
__ZN7WebCoreL22stringWrapperDestroyedEPN3JSC8JSStringEPv
__ZN3JSC9WeakGCMapIPN7WebCore10StringImplEPNS_8JSStringEE15uncheckedRemoveERKS3_RKS5_
__ZN7WebCore17JSHTMLHtmlElementD1Ev
__ZN7WebCore18JSHTMLStyleElementD1Ev
__ZN7WebCore10JSNodeListD1Ev
__ZN7WebCore10JSNodeListD2Ev
__ZN7WebCore15forgetDOMObjectEPNS_9DOMObjectEPv
__ZN3JSC9WeakGCMapIPvPN7WebCore9DOMObjectEE15uncheckedRemoveERKS1_RKS4_
__ZN7WebCore14StaticNodeListD0Ev
__ZN7WebCore15JSHTMLLIElementD1Ev
__ZN7WebCore21JSCSSStyleDeclarationD1Ev
__ZN7WebCore21JSCSSStyleDeclarationD2Ev
__ZN7WebCore27CSSComputedStyleDeclarationD0Ev
__ZN7WebCore13JSXPathResultD1Ev
__ZN7WebCore13JSXPathResultD2Ev
__ZN7WebCore11XPathResultD1Ev
__ZN7WebCore11XPathResultD2Ev
__ZN7WebCore6JSTextD1Ev
__ZN7WebCore19JSHTMLAnchorElementD1Ev
__ZN7WebCore19JSHTMLIFrameElementD1Ev
__ZN7WebCore19JSHTMLOptionElementD1Ev
__ZN7WebCore8Document19destroyWrapperCacheEPNS_15DOMWrapperWorldE
__ZN7WebCore16ScriptController18destroyWindowShellEPNS_15DOMWrapperWorldE
__ZN3WTF9HashTableIPN7WebCore16ScriptControllerES3_NS_17IdentityExtractorIS3_EENS_7PtrHashIS3_EENS_10HashTraitsIS3_EES9_E4findI
__ZN3WTF9HashTableIPN7WebCore16ScriptControllerES3_NS_17IdentityExtractorIS3_EENS_7PtrHashIS3_EENS_10HashTraitsIS3_EES9_E47remo
__ZN3WTF9HashTableIPN7WebCore16ScriptControllerES3_NS_17IdentityExtractorIS3_EENS_7PtrHashIS3_EENS_10HashTraitsIS3_EES9_E6remov
__ZN7WebCore5TimerINS_16ImageEventSenderEE5firedEv
__ZN7WebCore16ImageEventSender10timerFiredEPNS_5TimerIS0_EE
__ZN7WebCore11ImageLoader24dispatchPendingLoadEventEv
__ZN7WebCore15HTMLImageLoader17dispatchLoadEventEv
__ZN3WTF6VectorIPN7WebCore11ImageLoaderELm0EE6shrinkEm
__ZN7WebCore12CachedScript4dataEN3WTF10PassRefPtrINS_12SharedBufferEEEb
__ZN7WebCore12CachedScript11checkNotifyEv
__ZN7WebCore17ScriptElementData14notifyFinishedEPNS_14CachedResourceE
__ZN7WebCore8Document17executeScriptSoonEPNS_17ScriptElementDataENS_20CachedResourceHandleINS_12CachedScriptEEE
__ZN3WTF6VectorISt4pairIPN7WebCore17ScriptElementDataENS2_20CachedResourceHandleINS2_12CachedScriptEEEELm0EE14expandCapacityEmP
__ZN3WTF6VectorISt4pairIPN7WebCore17ScriptElementDataENS2_20CachedResourceHandleINS2_12CachedScriptEEEELm0EE14expandCapacityEm
__ZN3WTF6VectorISt4pairIPN7WebCore17ScriptElementDataENS2_20CachedResourceHandleINS2_12CachedScriptEEEELm0EE15reserveCapacityEm
__ZN7WebCore5TimerINS_8DocumentEE5firedEv
__ZN7WebCore8Document27executeScriptSoonTimerFiredEPNS_5TimerIS0_EE
__ZN7WebCore17ScriptElementData7executeEPNS_12CachedScriptE
__ZN7WebCore20CachedResourceClient14notifyFinishedEPNS_14CachedResourceE
__ZNK7WebCore26CachedScriptSourceProvider6lengthEv
__ZN7WebCore12CachedScript6scriptEv
__ZN7WebCore17ScriptElementData14evaluateScriptERKNS_16ScriptSourceCodeE
__ZThn120_NK7WebCore17HTMLScriptElement22languageAttributeValueEv
__ZNK7WebCore17HTMLScriptElement22languageAttributeValueEv
__ZNK7WebCore26CachedScriptSourceProvider6sourceEv
__ZNK7WebCore26CachedScriptSourceProvider4dataEv
__ZN7WebCore27jsDOMWindowImageConstructorEPN3JSC9ExecStateENS0_7JSValueERKNS0_10IdentifierE
__ZNK7WebCore11JSDOMWindow5imageEPN3JSC9ExecStateE
__ZN7WebCore18JSImageConstructorC1EPN3JSC9ExecStateEPNS_17JSDOMGlobalObjectE
__ZN7WebCore18JSImageConstructorC2EPN3JSC9ExecStateEPNS_17JSDOMGlobalObjectE
__ZN7WebCore27JSHTMLImageElementPrototype4selfEPN3JSC9ExecStateEPNS1_14JSGlobalObjectE
__ZN7WebCore18JSImageConstructor16getConstructDataERN3JSC13ConstructDataE
__ZN7WebCoreL14constructImageEPN3JSC9ExecStateEPNS0_8JSObjectERKNS0_7ArgListE
__ZNK7WebCore15JSDOMWindowBase22scriptExecutionContextEv
__ZN7WebCore16HTMLImageElement22createForJSConstructorEPNS_8DocumentEPKiS4_
__ZN7WebCore20jsNavigatorUserAgentEPN3JSC9ExecStateENS0_7JSValueERKNS0_10IdentifierE
__ZNK7WebCore9Navigator9userAgentEv
__ZNK7WebCore11FrameLoader9userAgentERKNS_4KURLE
__ZN7WebCore32hasCachedDOMNodeWrapperUncheckedEPNS_8DocumentEPNS_4NodeE
__ZN7WebCore10JSLocationD1Ev
__ZN7WebCore10JSLocationD2Ev
__ZN7WebCore15JSEventListener20invalidateJSFunctionEPN3JSC8JSObjectE
__ZN7WebCore38jsElementPrototypeFunctionSetAttributeEPN3JSC9ExecStateEPNS0_8JSObjectENS0_7JSValueERKNS0_7ArgListE
__ZNK7WebCore18JSHTMLStyleElement9classInfoEv
__ZN7WebCore9JSElement12setAttributeEPN3JSC9ExecStateERKNS1_7ArgListE
__ZN7WebCore30allowSettingSrcToJavascriptURLEPN3JSC9ExecStateEPNS_7ElementERKNS_6StringES7_
__ZN7WebCore7Element12setAttributeERKNS_12AtomicStringES3_Ri
__ZN7WebCore41jsDocumentPrototypeFunctionCreateTextNodeEPN3JSC9ExecStateEPNS0_8JSObjectENS0_7JSValueERKNS0_7ArgListE
__ZN7WebCore8Document14createTextNodeERKNS_6StringE
__ZN7WebCore16toJSNewlyCreatedEPN3JSC9ExecStateEPNS_17JSDOMGlobalObjectEPNS_4TextE
__ZNK7WebCore6JSText9classInfoEv
__ZN7WebCore4Node30notifyNodeListsChildrenChangedEv
__ZN7WebCore4Node35notifyLocalNodeListsChildrenChangedEv
__ZN7WebCore4Node16insertedIntoTreeEb
__ZN7WebCore18JSHTMLStyleElement3putEPN3JSC9ExecStateERKNS1_10IdentifierENS1_7JSValueERNS1_15PutPropertySlotE
__ZN7WebCore10JSNodeList18canGetItemsForNameEPN3JSC9ExecStateEPNS_8NodeListERKNS1_10IdentifierE
__ZNK7WebCore15DynamicNodeList12itemWithNameERKNS_12AtomicStringE
__ZN7WebCore19JSNodeListPrototype18getOwnPropertySlotEPN3JSC9ExecStateERKNS1_10IdentifierERNS1_12PropertySlotE
__ZN7WebCore14jsNodeNodeNameEPN3JSC9ExecStateENS0_7JSValueERKNS0_10IdentifierE
__ZN7WebCore46jsElementPrototypeFunctionGetElementsByTagNameEPN3JSC9ExecStateEPNS0_8JSObjectENS0_7JSValueERKNS0_7ArgListE
__ZN7WebCore17NodeListsNodeData16invalidateCachesEv
__ZN7WebCore15DynamicNodeList6Caches5resetEv
__ZN7WebCore15DynamicNodeList15invalidateCacheEv
__ZN7WebCore17NodeListsNodeData38invalidateCachesThatDependOnAttributesEv
__ZN7WebCore4Node23compareDocumentPositionEPS0_
__ZN3WTF6VectorIPN7WebCore4NodeELm16EE6shrinkEm
__ZN3WTF11ListHashSetIPN7WebCore4NodeENS_7PtrHashIS3_EEE12insertBeforeERKS3_S8_
__ZN3WTF11ListHashSetIPN7WebCore4NodeENS_7PtrHashIS3_EEE12insertBeforeENS_19ListHashSetIteratorIS3_S5_EERKS3_
__ZN3WTF11ListHashSetIPN7WebCore4NodeENS_7PtrHashIS3_EEE16insertNodeBeforeEPNS_15ListHashSetNodeIS3_EES9_
__ZN7WebCore12StyleElement20insertedIntoDocumentEPNS_8DocumentEPNS_7ElementE
__ZN7WebCore16HTMLInputElement6detachEv
__ZN7WebCore17RenderTextControl17setInnerTextStyleEN3WTF10PassRefPtrINS_11RenderStyleEEE
__ZN7WebCore11RenderBlock29removePercentHeightDescendantEPNS_9RenderBoxE
__ZN7WebCore24setJSHTMLImageElementSrcEPN3JSC9ExecStateEPNS0_8JSObjectENS0_7JSValueE
__ZN7WebCore18setJSElementOnloadEPN3JSC9ExecStateEPNS0_8JSObjectENS0_7JSValueE
__ZN7WebCore7Element9setOnloadEN3WTF10PassRefPtrINS_13EventListenerEEE
__ZN7WebCore19setJSElementOnerrorEPN3JSC9ExecStateEPNS0_8JSObjectENS0_7JSValueE
__ZN7WebCore7Element10setOnerrorEN3WTF10PassRefPtrINS_13EventListenerEEE
__ZN7WebCore26CSSMutableStyleDeclaration21removePropertiesInSetEPKijb
__ZN3WTF7HashSetIiNS_7IntHashIjEENS_10HashTraitsIiEEE3addERKi
__ZN3WTF9HashTableIiiNS_17IdentityExtractorIiEENS_7IntHashIjEENS_10HashTraitsIiEES6_E6expandEv
__ZN3WTF9HashTableIiiNS_17IdentityExtractorIiEENS_7IntHashIjEENS_10HashTraitsIiEES6_E6rehashEi
__ZN3WTF9HashTableIiiNS_17IdentityExtractorIiEENS_7IntHashIjEENS_10HashTraitsIiEES6_E13allocateTableEi
__ZN3WTF9HashTableIiiNS_17IdentityExtractorIiEENS_7IntHashIjEENS_10HashTraitsIiEES6_E15deallocateTableEPii
__ZNK3WTF9HashTableIiiNS_17IdentityExtractorIiEENS_7IntHashIjEENS_10HashTraitsIiEES6_E8containsIiNS_22IdentityHashTranslatorIii
__ZN3WTF6VectorIN7WebCore11CSSPropertyELm4EEaSERKS3_
__ZN3WTF6VectorIN7WebCore11CSSPropertyELm4EE14expandCapacityEmPKS2_
__ZN3WTF6VectorIN7WebCore11CSSPropertyELm4EE14expandCapacityEm
__ZN7WebCore14JSHTMLDocument3putEPN3JSC9ExecStateERKNS1_10IdentifierENS1_7JSValueERNS1_15PutPropertySlotE
__ZN7WebCore10JSDocument3putEPN3JSC9ExecStateERKNS1_10IdentifierENS1_7JSValueERNS1_15PutPropertySlotE
__ZN7WebCore19setJSDocumentCookieEPN3JSC9ExecStateEPNS0_8JSObjectENS0_7JSValueE
__ZN7WebCore8Document9setCookieERKNS_6StringERi
__ZN7WebCore10setCookiesEPNS_8DocumentERKNS_4KURLERKNS_6StringE
__ZN7WebCoreL13filterCookiesEP7NSArray
__ZN7WebCoreL10isHTTPOnlyEP12NSHTTPCookie
__ZN7WebCore16jsDocumentCookieEPN3JSC9ExecStateENS0_7JSValueERKNS0_10IdentifierE
__ZNK7WebCore8Document6cookieERi
__ZN7WebCore7cookiesEPKNS_8DocumentERKNS_4KURLE
__ZThn120_N7WebCore17HTMLScriptElement17dispatchLoadEventEv
__ZN7WebCore17HTMLScriptElement17dispatchLoadEventEv
__ZN3WTF6VectorISt4pairIPN7WebCore17ScriptElementDataENS2_20CachedResourceHandleINS2_12CachedScriptEEEELm0EE6shrinkEm
__ZN3WTF7HashMapIPN7WebCore12RenderObjectEPNS1_11RenderBlock14FloatingObjectENS_7PtrHashIS3_EENS_10HashTraitsIS3_EENS9_IS6_EEE3
__ZN7WebCore15RenderTableCell29clippedOverflowRectForRepaintEPNS_20RenderBoxModelObjectE
__ZN7WebCore9RenderBox12imageChangedEPvPKNS_7IntRectE
__ZN7WebCore9RenderBox25repaintLayerRectsForImageEPvPKNS_9FillLayerEb
__ZNK7WebCore16StyleCachedImage4dataEv
__ZNK7WebCore5Image17usesContainerSizeEv
__ZNK7WebCore5Image17hasRelativeHeightEv
__ZN7WebCoreL27isObjectAncestorContainerOfEPNS_12RenderObjectES1_
__ZNK7WebCore4Page34inLowQualityImageInterpolationModeEv
__ZN3WTF7HashMapIPN7WebCore11RenderImageEPNS1_20RenderImageScaleDataENS_7PtrHashIS3_EENS_10HashTraitsIS3_EENS8_IS5_EEE3setERKS3
__ZN3WTF9HashTableIPN7WebCore11RenderImageESt4pairIS3_PNS1_20RenderImageScaleDataEENS_18PairFirstExtractorIS7_EENS_7PtrHashIS3_
__ZNK7WebCore11BitmapImage10solidColorEv
__ZN7WebCore5Image18fillWithSolidColorEPNS_15GraphicsContextERKNS_9FloatRectERKNS_5ColorENS_10ColorSpaceENS_17CompositeOperator
__ZNK3WTF7HashMapIPN7WebCore11RenderImageEPNS1_20RenderImageScaleDataENS_7PtrHashIS3_EENS_10HashTraitsIS3_EENS8_IS5_EEE3getERKS
__ZN7WebCore11ImageSource20frameDurationAtIndexEm
__ZN7WebCore20RenderBoxModelObject32calculateBackgroundImageGeometryEPKNS_9FillLayerEiiiiRNS_7IntRectERNS_8IntPointERNS_7IntSiz
__ZNK7WebCore20RenderBoxModelObject21calculateFillTileSizeEPKNS_9FillLayerENS_7IntSizeE
__ZN7WebCore16StyleCachedImage21setImageContainerSizeERKNS_7IntSizeE
__ZN7WebCore11CachedImage21setImageContainerSizeERKNS_7IntSizeE
__ZN7WebCore5Image16setContainerSizeERKNS_7IntSizeE
__ZNK7WebCore16StyleCachedImage9imageSizeEPKNS_12RenderObjectEf
__ZNK7WebCore16StyleCachedImage5imageEPNS_12RenderObjectERKNS_7IntSizeE
__ZN7WebCore27RenderBoxModelScaleObserver33shouldPaintBackgroundAtLowQualityEPNS_15GraphicsContextEPNS_20RenderBoxModelObjectEP
__ZNK7WebCore15GraphicsContext6getCTMEv
__ZN7WebCore15AffineTransformC1Edddddd
__ZN7WebCore15AffineTransformC2Edddddd
__ZN7WebCore15AffineTransform9setMatrixEdddddd
__ZN7WebCore15GraphicsContext14drawTiledImageEPNS_5ImageENS_10ColorSpaceERKNS_7IntRectERKNS_8IntPointERKNS_7IntSizeENS_17Compos
__ZN7WebCore5Image9drawTiledEPNS_15GraphicsContextERKNS_9FloatRectERKNS_10FloatPointERKNS_9FloatSizeENS_10ColorSpaceENS_17Compo
__ZNK7WebCore9FloatRect8containsERKS0_
__ZN7WebCore12RenderObject12imageChangedEPvPKNS_7IntRectE
__ZN7WebCore6Loader4HostD0Ev
__ZN7WebCore8DOMTimer5firedEv
__ZN7WebCore8DOMTimerD0Ev
__ZN7WebCore22ScriptExecutionContext13removeTimeoutEi
__ZN7WebCore15ActiveDOMObjectD2Ev
__ZN7WebCore22ScriptExecutionContext24destroyedActiveDOMObjectEPNS_15ActiveDOMObjectE
__ZN7WebCore15ScheduledAction7executeEPNS_22ScriptExecutionContextE
__ZN7WebCore15ScheduledAction7executeEPNS_8DocumentE
__ZN7WebCore15ScheduledAction24executeFunctionInContextEPN3JSC14JSGlobalObjectENS1_7JSValueE
__ZN7WebCore11EventTarget18fireEventListenersEPNS_5EventEPNS_15EventTargetDataERN3WTF6VectorINS_23RegisteredEventListenerELm1EE
__ZN7WebCore15JSEventListener11handleEventEPNS_22ScriptExecutionContextEPNS_5EventE
__ZThn96_NK7WebCore8Document23isJSExecutionTerminatedEv
__ZNK7WebCore8Document23isJSExecutionTerminatedEv
__ZN7WebCore19toJSDOMGlobalObjectEPNS_22ScriptExecutionContextEPNS_15DOMWrapperWorldE
__ZN7WebCore19toJSDOMGlobalObjectEPNS_8DocumentEPNS_15DOMWrapperWorldE
__ZN7WebCore4toJSEPN3JSC9ExecStateEPNS_17JSDOMGlobalObjectEPNS_5EventE
__ZNK7WebCore5Event9isUIEventEv
__ZNK7WebCore5Event15isMutationEventEv
__ZNK7WebCore5Event15isOverflowEventEv
__ZNK7WebCore5Event14isMessageEventEv
__ZNK7WebCore5Event21isPageTransitionEventEv
__ZNK7WebCore5Event15isProgressEventEv
__ZNK7WebCore5Event17isBeforeLoadEventEv
__ZNK7WebCore5Event14isStorageEventEv
__ZNK7WebCore5Event22isWebKitAnimationEventEv
__ZNK7WebCore5Event23isWebKitTransitionEventEv
__ZNK7WebCore5Event12isErrorEventEv
__ZNK7WebCore5Event15isPopStateEventEv
__ZNK7WebCore5Event13isCustomEventEv
__ZN7WebCore22createDOMObjectWrapperINS_7JSEventENS_5EventEEEPNS_9DOMObjectEPN3JSC9ExecStateEPNS_17JSDOMGlobalObjectEPT0_
__ZN7WebCore7JSEvent15createPrototypeEPN3JSC9ExecStateEPNS1_14JSGlobalObjectE
__ZN7WebCore7JSEventC1EN3WTF17NonNullPassRefPtrIN3JSC9StructureEEEPNS_17JSDOMGlobalObjectENS1_10PassRefPtrINS_5EventEEE
__ZN7WebCore7JSEventC2EN3WTF17NonNullPassRefPtrIN3JSC9StructureEEEPNS_17JSDOMGlobalObjectENS1_10PassRefPtrINS_5EventEEE
__ZNK7WebCore17JSDOMGlobalObject12currentEventEv
__ZN7WebCore17JSDOMGlobalObject15setCurrentEventEPNS_5EventE
__ZN7WebCore4toJSEPN3JSC9ExecStateEPNS_17JSDOMGlobalObjectEPNS_11EventTargetE
__ZN7WebCore11EventTarget13toEventSourceEv
__ZN7WebCore11EventTarget20toSVGElementInstanceEv
__ZN7WebCore23jsHTMLImageElementWidthEPN3JSC9ExecStateENS0_7JSValueERKNS0_10IdentifierE
__ZNK7WebCore16HTMLImageElement5widthEb
__ZN7WebCore24jsHTMLImageElementHeightEPN3JSC9ExecStateENS0_7JSValueERKNS0_10IdentifierE
__ZNK7WebCore16HTMLImageElement6heightEb
__ZNK7WebCore13StyledElement20updateStyleAttributeEv
__ZNK7WebCore26CSSMutableStyleDeclaration7cssTextEv
__ZNK7WebCore11CSSProperty7cssTextEv
__Z15getPropertyName13CSSPropertyID
__ZNK7WebCore15CSSInitialValue7cssTextEv
__ZNK7WebCore20ResourceResponseBase27cacheControlContainsNoCacheEv
__ZNK7WebCore20ResourceResponseBase27parseCacheControlDirectivesEv
__ZNK3WTF7HashMapIN7WebCore12AtomicStringENS1_6StringENS1_15CaseFoldingHashENS_10HashTraitsIS2_EENS5_IS3_EEE3getERKS2_
__ZN7WebCoreL16parseCacheHeaderERKNS_6StringERN3WTF6VectorISt4pairIS0_S0_ELm0EEE
__ZN7WebCoreL18isControlCharacterEt
__ZN7WebCoreL22isCacheHeaderSeparatorEt
__ZN3WTF6VectorISt4pairIN7WebCore6StringES3_ELm0EE14expandCapacityEmPKS4_
__ZN3WTF6VectorISt4pairIN7WebCore6StringES3_ELm0EE14expandCapacityEm
__ZN3WTF6VectorISt4pairIN7WebCore6StringES3_ELm0EE15reserveCapacityEm
__ZN3WTF6VectorISt4pairIN7WebCore6StringES3_ELm0EE6shrinkEm
__ZNK7WebCore20ResourceResponseBase27cacheControlContainsNoStoreEv
__ZNK7WebCore14CachedResource9isExpiredEv
__ZNK7WebCore14CachedResource10currentAgeEv
__ZNK7WebCore20ResourceResponseBase4dateEv
__ZN7WebCoreL22parseDateValueInHeaderERKNS_13HTTPHeaderMapERKNS_12AtomicStringE
__ZN7WebCore9parseDateERKNS_6StringE
__ZNK7WebCore20ResourceResponseBase3ageEv
__ZNK7WebCore14CachedResource17freshnessLifetimeEv
__ZNK7WebCore20ResourceResponseBase18cacheControlMaxAgeEv
__ZN7WebCore11FrameLoader29loadedResourceFromMemoryCacheEPKNS_14CachedResourceE
__ZN7WebCore19InspectorController30didLoadResourceFromMemoryCacheEPNS_14DocumentLoaderEPKNS_14CachedResourceE
__ZN7WebCore40jsDOMWindowPrototypeFunctionClearTimeoutEPN3JSC9ExecStateEPNS0_8JSObjectENS0_7JSValueERKNS0_7ArgListE
__ZN7WebCore9DOMWindow12clearTimeoutEi
__ZN7WebCore8DOMTimer10removeByIdEPNS_22ScriptExecutionContextEi
__ZN7WebCore22ScriptExecutionContext11findTimeoutEi
__ZNK3WTF7HashMapIiPN7WebCore8DOMTimerENS_7IntHashIjEENS_10HashTraitsIiEENS6_IS3_EEE3getERKi
__ZN3WTF6VectorIN3JSC8RegisterELm8EE6shrinkEm
__ZN3WTF6VectorIN7WebCore19FiringEventIteratorELm1EE6shrinkEm
__ZN7WebCore15HTMLFormElement17handleLocalEventsEPNS_5EventE
__ZN7WebCore5TimerINS_12CachedScriptEE5firedEv
__ZN7WebCore12CachedScript29decodedDataDeletionTimerFiredEPNS_5TimerIS0_EE
__ZN7WebCore12CachedScript18destroyDecodedDataEv
__ZNK7WebCore14CachedResource21isSafeToMakePurgeableEv
__ZN7WebCore5TimerINS_9FrameViewEE5firedEv
__ZN7WebCore9FrameView16layoutTimerFiredEPNS_5TimerIS0_EE
__ZN7WebCore9InlineBox10deleteLineEPNS_11RenderArenaE
__ZN7WebCore13InlineFlowBox29removeLineBoxFromRenderObjectEv
__ZN7WebCore6Loader4Host14cancelRequestsEPNS_9DocLoaderE
__ZN7WebCore6Loader4Host21cancelPendingRequestsERN3WTF5DequeIPNS_7RequestEEEPNS_9DocLoaderE
__ZN7WebCore17HistoryController42updateForRedirectWithLockedBackForwardListEv
__ZN7WebCore11HistoryItem12setChildItemEN3WTF10PassRefPtrIS0_EE
__ZN7WebCoreL16findTextEncodingEPKci
__ZN3WTF6VectorIcLm64EE6shrinkEm
__ZNK7WebCore12TextEncoding26closestByteBasedEquivalentEv
__ZNK7WebCore19JSLazyEventListener20initializeJSFunctionEPNS_22ScriptExecutionContextE
__ZN7WebCore11EventTarget6toNodeEv
__ZN7WebCore9DOMWindow11toDOMWindowEv
__ZN7WebCore17jsDOMWindowParentEPN3JSC9ExecStateENS0_7JSValueERKNS0_10IdentifierE
__ZNK7WebCore9DOMWindow6parentEv
__ZNK7WebCore5Frame14isDisconnectedEv
__ZN7WebCore31jsElementPrototypeFunctionFocusEPN3JSC9ExecStateEPNS0_8JSObjectENS0_7JSValueERKNS0_7ArgListE
__ZN7WebCore7Element5focusEb
__ZNK7WebCore22HTMLFormControlElement13supportsFocusEv
__ZNK7WebCore22HTMLFormControlElement11isFocusableEv
__ZNK7WebCore4Node11isFocusableEv
__ZN7WebCore15FocusController14setFocusedNodeEPNS_4NodeEN3WTF10PassRefPtrINS_5FrameEEE
__ZN7WebCore26HTMLTextFormControlElement18dispatchFocusEventEv
__ZN7WebCore26HTMLTextFormControlElement27updatePlaceholderVisibilityEb
__ZN7WebCore17RenderTextControl27updatePlaceholderVisibilityEbb
__ZN7WebCore16HTMLInputElement16handleFocusEventEv
__ZN7WebCore12InputElement18dispatchFocusEventEPS0_PNS_7ElementE
__ZThn144_NK7WebCore16HTMLInputElement15isPasswordFieldEv
__ZNK7WebCore16HTMLInputElement15isPasswordFieldEv
__ZN7WebCore22HTMLFormControlElement18dispatchFocusEventEv
__ZN7WebCore4Node18dispatchFocusEventEv
__ZN7WebCore16HTMLInputElement23preDispatchEventHandlerEPNS_5EventE
__ZN7WebCore16HTMLInputElement24postDispatchEventHandlerEPNS_5EventEPv
__ZN7WebCore16HTMLInputElement19defaultEventHandlerEPNS_5EventE
__ZNK7WebCore5Event25isBeforeTextInsertedEventEv
__ZNK7WebCore5Event12isMouseEventEv
__ZNK7WebCore5Event11isDragEventEv
__ZNK7WebCore5Event12isWheelEventEv
__ZN7WebCore27RenderTextControlSingleLine12forwardEventEPNS_5EventE
__ZN7WebCore27RenderTextControlSingleLine27capsLockStateMayHaveChangedEv
__ZN7WebCore17RenderTextControl12forwardEventEPNS_5EventE
__ZN7WebCore31HTMLFormControlElementWithState19defaultEventHandlerEPNS_5EventE
__ZN7WebCore4Node15dispatchUIEventERKNS_12AtomicStringEiN3WTF10PassRefPtrINS_5EventEEE
__ZN7WebCore7UIEventC1ERKNS_12AtomicStringEbbN3WTF10PassRefPtrINS_9DOMWindowEEEi
__ZNK7WebCore5Event11aliasedTypeEv
__ZN7WebCore7UIEventD0Ev
__ZN7WebCore13ContainerNode8setFocusEb
__ZN7WebCore4Node8setFocusEb
__ZN7WebCore11RenderTheme14focusRingColorEv
__ZN7WebCoreL20customFocusRingColorEv
__ZNK7WebCore14RenderThemeMac22platformFocusRingColorEv
__ZNK7WebCore14RenderThemeMac26usesTestModeFocusRingColorEv
__ZN7WebCore26usesTestModeFocusRingColorEv
__ZN7WebCoreL13widgetForNodeEPNS_4NodeE
__ZN7WebCore6Widget8setFocusEb
__ZN7WebCore5Frame14frameForWidgetEPKNS_6WidgetE
__ZN7WebCore12RenderWidget4findEPKNS_6WidgetE
__ZNK3WTF7HashMapIPKN7WebCore6WidgetEPNS1_12RenderWidgetENS_7PtrHashIS4_EENS_10HashTraitsIS4_EENS9_IS6_EEE3getERKS4_
-[NSScrollView(WebCoreView) _webcore_effectiveFirstResponder]
-[NSClipView(WebCoreView) _webcore_effectiveFirstResponder]
-[NSView(WebCoreView) _webcore_effectiveFirstResponder]
__ZN7WebCore6Chrome11focusNSViewEP6NSView
__ZNK7WebCore6Chrome18focusedNodeChangedEPNS_4NodeE
__ZNK7WebCore16HTMLInputElement20shouldUseInputMethodEv
__ZN7WebCore8Document27cancelFocusAppearanceUpdateEv
__ZN7WebCore16HTMLInputElement21updateFocusAppearanceEb
__ZN7WebCore12InputElement21updateFocusAppearanceERNS_16InputElementDataEPS0_PNS_7ElementEb
__ZThn144_N7WebCore16HTMLInputElement6selectEv
__ZN7WebCore16HTMLInputElement6selectEv
__ZN7WebCore26HTMLTextFormControlElement6selectEv
__ZN7WebCore26HTMLTextFormControlElement29textRendererAfterUpdateLayoutEv
__ZNK7WebCore16HTMLInputElement17isTextFormControlEv
__ZN7WebCore17RenderTextControl6selectEv
__ZN7WebCore17RenderTextControl17setSelectionRangeEii
__ZN7WebCore17RenderTextControl23visiblePositionForIndexEi
__ZNK7WebCore8Position29atFirstEditingPositionForNodeEv
__ZN7WebCore16VisibleSelectionC1ERKNS_15VisiblePositionES3_
__ZN7WebCore16VisibleSelectionC2ERKNS_15VisiblePositionES3_
__ZN7WebCore16VisibleSelection8validateENS_15TextGranularityE
__ZN7WebCore16VisibleSelection33setBaseAndExtentToDeepEquivalentsEv
__ZN7WebCore15VisiblePositionC1ERKNS_8PositionENS_9EAffinityE
__ZN7WebCore15VisiblePositionC2ERKNS_8PositionENS_9EAffinityE
__ZN7WebCore16comparePositionsERKNS_8PositionES2_
__ZN7WebCore16VisibleSelection52setStartAndEndFromBaseAndExtentRespectingGranularityENS_15TextGranularityE
__ZN7WebCore16VisibleSelection47adjustSelectionToAvoidCrossingEditingBoundariesEv
__ZN7WebCore22lowestEditableAncestorEPNS_4NodeE
__ZN7WebCore16VisibleSelection19updateSelectionTypeEv
__ZN7WebCore5Frame22setFocusedNodeIfNeededEv
__ZNK7WebCore16VisibleSelection19rootEditableElementEv
__ZNK7WebCore23TextControlInnerElement16isMouseFocusableEv
__ZNK7WebCore16HTMLInputElement16isMouseFocusableEv
__ZNK7WebCore15VisiblePosition14localCaretRectERPNS_12RenderObjectE
__ZN7WebCore11RenderBlock14localCaretRectEPNS_9InlineBoxEiPi
__ZNK7WebCore19SelectionController22caretRendersInsideNodeEPNS_4NodeE
__ZNK7WebCore19SelectionController16caretRepaintRectEv
__ZNK7WebCore19SelectionController18shouldRepaintCaretEPKNS_10RenderViewE
__ZNK7WebCore11RenderTheme18caretBlinkIntervalEv
__ZN7WebCore19SelectionController41selectFrameElementInParentIfFullySelectedEv
__ZN7WebCore5Frame31notifyRendererOfSelectionChangeEb
__ZN7WebCore17RenderTextControl16selectionChangedEb
__ZN7WebCore17RenderTextControl12selectionEndEv
__ZN7WebCore17RenderTextControl23indexForVisiblePositionERKNS_15VisiblePositionE
__ZN7WebCore12TextIterator11rangeLengthEPKNS_5RangeEb
__ZN7WebCore17RenderTextControl14selectionStartEv
__ZN7WebCore27RenderTextControlSingleLine14cacheSelectionEii
__ZThn144_N7WebCore16HTMLInputElement14cacheSelectionEii
__ZN7WebCore16HTMLInputElement14cacheSelectionEii
__ZN7WebCore5Frame25respondToChangedSelectionERKNS_16VisibleSelectionEb
__ZN7WebCore6Editor32isContinuousSpellCheckingEnabledEv
__ZN7WebCore6Editor24isGrammarCheckingEnabledEv
__ZN7WebCore9endOfWordERKNS_15VisiblePositionENS_9EWordSideE
__ZN7WebCore16isEndOfParagraphERKNS_15VisiblePositionE
__ZN7WebCore14endOfParagraphERKNS_15VisiblePositionE
__ZN7WebCore35isRenderedAsNonInlineTableImageOrHREPKNS_4NodeE
__ZN7WebCore14enclosingBlockEPNS_4NodeE
__ZN7WebCore19enclosingNodeOfTypeERKNS_8PositionEPFbPKNS_4NodeEEb
__ZN7WebCore7isBlockEPKNS_4NodeE
__ZN7WebCore11startOfWordERKNS_15VisiblePositionENS_9EWordSideE
__ZN7WebCoreL16previousBoundaryERKNS_15VisiblePositionEPFjPKtjjNS_33BoundarySearchContextAvailabilityERbE
__ZNK7WebCore4Node25enclosingBlockFlowElementEv
__ZNK7WebCore4Node11isBlockFlowEv
__ZN7WebCore24rangeCompliantEquivalentERKNS_8PositionE
__ZNK7WebCore15VisiblePosition14characterAfterEv
__ZN7WebCore31SimplifiedBackwardsTextIteratorC1EPKNS_5RangeE
__ZN7WebCore31SimplifiedBackwardsTextIteratorC2EPKNS_5RangeE
__ZN7WebCore31SimplifiedBackwardsTextIterator7advanceEv
__ZN7WebCore31SimplifiedBackwardsTextIterator8exitNodeEv
__ZN7WebCore31SimplifiedBackwardsTextIterator13emitCharacterEtPNS_4NodeEii
__ZN3WTF6VectorItLm1024EE7prependItEEvPKT_m
__ZN3WTF6VectorItLm1024EE6insertItEEvmPKT_m
__ZN7WebCoreL17startWordBoundaryEPKtjjNS_33BoundarySearchContextAvailabilityERb
__ZN7WebCoreL30startOfLastWordBoundaryContextEPKti
__ZN7WebCore16findWordBoundaryEPKtiiPiS2_
__ZNK7WebCore31SimplifiedBackwardsTextIterator5rangeEv
__ZN7WebCore5Range6createEN3WTF10PassRefPtrINS_8DocumentEEENS2_INS_4NodeEEEiS6_i
__ZNK7WebCore5Range14startContainerERi
__ZN7WebCore26BackwardsCharacterIteratorC1EPKNS_5RangeE
__ZN7WebCore26BackwardsCharacterIteratorC2EPKNS_5RangeE
__ZN7WebCore26BackwardsCharacterIterator7advanceEi
__ZNK7WebCore26BackwardsCharacterIterator5rangeEv
__ZNK7WebCore8Position28atLastEditingPositionForNodeEv
__ZNK7WebCore12RenderObject14caretMinOffsetEv
__ZNK7WebCore16VisibleSelection17toNormalizedRangeEv
__ZN7WebCore5Range6createEN3WTF10PassRefPtrINS_8DocumentEEERKNS_8PositionES7_
__ZN7WebCore8Document13removeMarkersEPNS_5RangeENS_14DocumentMarker10MarkerTypeE
__ZN7WebCore8Document13removeMarkersENS_14DocumentMarker10MarkerTypeE
__ZN7WebCore6Editor25respondToChangedSelectionERKNS_16VisibleSelectionE
__ZNK7WebCore19SelectionController17isInPasswordFieldEv
__ZNK7WebCore6Editor16fontForSelectionERb
__ZNK7WebCore5Frame22styleForSelectionStartERPNS_4NodeE
__ZN7WebCore22DeleteButtonController25respondToChangedSelectionERKNS_16VisibleSelectionE
__ZN7WebCoreL25enclosingDeletableElementERKNS_16VisibleSelectionE
__ZNK7WebCore5Range23commonAncestorContainerERi
__ZN7WebCore5Range23commonAncestorContainerEPNS_4NodeES2_
__ZN7WebCoreL18isDeletableElementEPKNS_4NodeE
__ZN7WebCore19SelectionController37notifyAccessibilityForSelectionChangeEv
__ZN7WebCore5Frame15revealSelectionERKNS_15ScrollAlignmentEb
__ZN7WebCore19SelectionController19absoluteCaretBoundsEv
__ZN7WebCore11RenderLayer19scrollRectToVisibleERKNS_7IntRectEbRKNS_15ScrollAlignmentES6_
__ZN7WebCore11RenderLayer15getRectToExposeERKNS_7IntRectES3_RKNS_15ScrollAlignmentES6_
__ZNK7WebCore9RenderBox28canBeProgramaticallyScrolledEb
__ZN7WebCore9FrameView17setScrollPositionERKNS_8IntPointE
__ZN7WebCore10ScrollView17setScrollPositionERKNS_8IntPointE
__ZN7WebCore10ScrollView25platformSetScrollPositionERKNS_8IntPointE
__ZNK7WebCore6Chrome18scrollRectIntoViewERKNS_7IntRectE
__ZN7WebCore18jsDOMWindowConsoleEPN3JSC9ExecStateENS0_7JSValueERKNS0_10IdentifierE
__ZNK7WebCore9DOMWindow7consoleEv
__ZN7WebCore7ConsoleC1EPNS_5FrameE
__ZN7WebCore7ConsoleC2EPNS_5FrameE
__ZN7WebCore4toJSEPN3JSC9ExecStateEPNS_17JSDOMGlobalObjectEPNS_7ConsoleE
__ZN7WebCore9JSConsole15createPrototypeEPN3JSC9ExecStateEPNS1_14JSGlobalObjectE
__ZN7WebCore9JSConsoleC1EN3WTF17NonNullPassRefPtrIN3JSC9StructureEEEPNS_17JSDOMGlobalObjectENS1_10PassRefPtrINS_7ConsoleEEE
__ZN7WebCore9JSConsoleC2EN3WTF17NonNullPassRefPtrIN3JSC9StructureEEEPNS_17JSDOMGlobalObjectENS1_10PassRefPtrINS_7ConsoleEEE
__ZN7WebCore9JSConsole18getOwnPropertySlotEPN3JSC9ExecStateERKNS1_10IdentifierERNS1_12PropertySlotE
__ZN7WebCore18JSConsolePrototype18getOwnPropertySlotEPN3JSC9ExecStateERKNS1_10IdentifierERNS1_12PropertySlotE
__ZN7WebCore38jsConsolePrototypeFunctionMarkTimelineEPN3JSC9ExecStateEPNS0_8JSObjectENS0_7JSValueERKNS0_7ArgListE
__ZNK7WebCore9JSConsole9classInfoEv
__ZN7WebCore15ScriptCallStackC1EPN3JSC9ExecStateERKNS1_7ArgListEj
__ZN7WebCore15ScriptCallStackC2EPN3JSC9ExecStateERKNS1_7ArgListEj
__ZN7WebCore15ScriptCallFrameC1ERKN3JSC7UStringES4_iRKNS1_7ArgListEj
__ZN7WebCore15ScriptCallFrameC2ERKN3JSC7UStringES4_iRKNS1_7ArgListEj
__ZN3WTF6VectorIN7WebCore11ScriptValueELm0EE14expandCapacityEmPKS2_
__ZN3WTF6VectorIN7WebCore11ScriptValueELm0EE14expandCapacityEm
__ZN3WTF6VectorIN7WebCore11ScriptValueELm0EE15reserveCapacityEm
__ZN3WTF6VectorIN7WebCore15ScriptCallFrameELm0EE14expandCapacityEmPKS2_
__ZN3WTF6VectorIN7WebCore15ScriptCallFrameELm0EE14expandCapacityEm
__ZN3WTF6VectorIN7WebCore15ScriptCallFrameELm0EE15reserveCapacityEm
__ZN3WTF6VectorIN7WebCore11ScriptValueELm0EEC1ERKS3_
__ZN3WTF6VectorIN7WebCore11ScriptValueELm0EEC2ERKS3_
__ZN7WebCore15ScriptCallFrameD1Ev
__ZN7WebCore15ScriptCallFrameD2Ev
__ZN3WTF6VectorIN7WebCore11ScriptValueELm0EE6shrinkEm
__ZN7WebCore11ScriptValueD1Ev
__ZN7WebCore7Console12markTimelineEPNS_15ScriptCallStackE
__ZN7WebCore15ScriptCallStack2atEj
__ZN7WebCoreL24getFirstArgumentAsStringEPN3JSC9ExecStateERKNS_15ScriptCallFrameERNS_6StringEb
__ZNK7WebCore15ScriptCallFrame10argumentAtEj
__ZN7WebCore19InspectorController12markTimelineERKNS_6StringE
__ZN7WebCore15ScriptCallStackD1Ev
__ZN7WebCore15ScriptCallStackD2Ev
__ZN3WTF6VectorIN7WebCore15ScriptCallFrameELm0EE6shrinkEm
__ZN7WebCore42jsNodePrototypeFunctionRemoveEventListenerEPN3JSC9ExecStateEPNS0_8JSObjectENS0_7JSValueERKNS0_7ArgListE
__ZN7WebCore4Node19removeEventListenerERKNS_12AtomicStringEPNS_13EventListenerEb
__ZN7WebCore11EventTarget19removeEventListenerERKNS_12AtomicStringEPNS_13EventListenerEb
__ZNK3WTF6VectorIN7WebCore23RegisteredEventListenerELm1EE4findIS2_EEmRKT_
__ZN7WebCore15JSEventListenereqERKNS_13EventListenerE
__ZN7WebCore15JSEventListenerD0Ev
__ZN7WebCore19jsDOMWindowLocationEPN3JSC9ExecStateENS0_7JSValueERKNS0_10IdentifierE
__ZNK7WebCore11JSDOMWindow8locationEPN3JSC9ExecStateE
__ZN7WebCore19JSLocationPrototype18getOwnPropertySlotEPN3JSC9ExecStateERKNS1_10IdentifierERNS1_12PropertySlotE
__ZN7WebCore35jsLocationPrototypeFunctionToStringEPN3JSC9ExecStateEPNS0_8JSObjectENS0_7JSValueERKNS0_7ArgListE
__ZNK7WebCore10JSLocation9classInfoEv
__ZN7WebCore10JSLocation8toStringEPN3JSC9ExecStateERKNS1_7ArgListE
__ZN7WebCore21allowsAccessFromFrameEPN3JSC9ExecStateEPNS_5FrameE
__ZNK7WebCore8Location8toStringEv
__ZNK7WebCore4KURL9prettyURLEv
__ZN7WebCore19jsNodeOwnerDocumentEPN3JSC9ExecStateENS0_7JSValueERKNS0_10IdentifierE
__ZN7WebCore21jsDocumentDefaultViewEPN3JSC9ExecStateENS0_7JSValueERKNS0_10IdentifierE
__ZN7WebCore17CSSPrimitiveValueD0Ev
__ZN7WebCore17CSSPrimitiveValue7cleanupEv
__ZN7WebCore30JSCSSStyleDeclarationPrototype18getOwnPropertySlotEPN3JSC9ExecStateERKNS1_10IdentifierERNS1_12PropertySlotE
__ZN7WebCore11RenderBlock23removePositionedObjectsEPS0_
__ZNK7WebCore12RenderObject14isDescendantOfEPKS0_
__ZNK7WebCore11RenderLayer15reflectionLayerEv
__ZN3WTF6VectorIPN7WebCore11RenderLayerELm0EE14shrinkCapacityEm
__ZNK7WebCore16StyleCachedImage22usesImageContainerSizeEv
__ZNK7WebCore17RenderTextControl14scaleEmToUnitsEi
__ZN7WebCore11RenderBlock14fitBelowFloatsEibRi
__ZNK7WebCore11RenderBlock20nextFloatBottomBelowEi
__ZNK7WebCore11RenderTheme18isControlContainerENS_11ControlPartE
__ZN7WebCore25setJSHTMLElementClassNameEPN3JSC9ExecStateEPNS0_8JSObjectENS0_7JSValueE
__ZNK7WebCore26CSSMutableStyleDeclaration19getPropertyCSSValueEi
__ZN7WebCore19CSSStyleDeclaration16getPropertyValueERKNS_6StringE
__ZNK7WebCore26CSSMutableStyleDeclaration16getPropertyValueEi
__ZN3WTF6VectorIiLm0EE14expandCapacityEmPKi
__ZNK7WebCore10StyleSheet11completeURLERKNS_6StringE
__ZN7WebCore19CSSCursorImageValueC1ERKNS_6StringERKNS_8IntPointE
__ZN7WebCore19CSSCursorImageValueC2ERKNS_6StringERKNS_8IntPointE
__ZN3WTF6VectorIiLm0EE6shrinkEm
__ZN7WebCore44jsDOMWindowPrototypeFunctionAddEventListenerEPN3JSC9ExecStateEPNS0_8JSObjectENS0_7JSValueERKNS0_7ArgListE
__ZN7WebCore11JSDOMWindow16addEventListenerEPN3JSC9ExecStateERKNS1_7ArgListE
__ZN3WTF6VectorIN7WebCore23RegisteredEventListenerELm1EE14expandCapacityEmPKS2_
__ZN3WTF6VectorIN7WebCore23RegisteredEventListenerELm1EE14expandCapacityEm
__ZN3WTF6VectorIN7WebCore23RegisteredEventListenerELm1EE15reserveCapacityEm
__ZN7WebCore19CSSCursorImageValue23updateIfSVGCursorIsUsedEPNS_7ElementE
__ZN7WebCore19CSSCursorImageValue11cachedImageEPNS_9DocLoaderE
__ZN7WebCore11RenderStyle9addCursorEPNS_11CachedImageERKNS_8IntPointE
__ZN3WTF6VectorIN7WebCore10CursorDataELm0EE14expandCapacityEmPKS2_
__ZN3WTF6VectorIN7WebCore10CursorDataELm0EE14expandCapacityEm
__ZN3WTF6VectorIN7WebCore10CursorDataELm0EE15reserveCapacityEm
__ZN7WebCore28JSHTMLIFrameElementPrototype18getOwnPropertySlotEPN3JSC9ExecStateERKNS1_10IdentifierERNS1_12PropertySlotE
__ZNK7WebCore19JSHTMLIFrameElement9classInfoEv
__ZN7WebCore20HTMLFrameElementBase13canLazyAttachEv
__ZN3WTF6VectorIPN7WebCore5FrameELm16EE6shrinkEm
__ZNK7WebCore11HistoryItem6targetEv
__ZN7WebCore8Document4headEv
__ZN7WebCore32jsHTMLIFrameElementContentWindowEPN3JSC9ExecStateENS0_7JSValueERKNS0_10IdentifierE
__ZNK7WebCore21HTMLFrameOwnerElement13contentWindowEv
__ZN7WebCore35jsHTMLDocumentPrototypeFunctionOpenEPN3JSC9ExecStateEPNS0_8JSObjectENS0_7JSValueERKNS0_7ArgListE
__ZN7WebCore14JSHTMLDocument4openEPN3JSC9ExecStateERKNS1_7ArgListE
__ZN7WebCore8Document4openEPS0_
__ZN7WebCore12RenderObject12removeLayersEPNS_11RenderLayerE
__ZN7WebCore11RenderLayer11removeChildEPS0_
__ZN7WebCore21RenderLayerCompositor18layerWillBeRemovedEPNS_11RenderLayerES2_
__ZN7WebCore11RenderLayer28dirtyVisibleDescendantStatusEv
__ZThn8_N7WebCore15HTMLHtmlElementD0Ev
__ZN7WebCore11FrameLoader15didExplicitOpenEv
__ZN7WebCore36jsHTMLDocumentPrototypeFunctionCloseEPN3JSC9ExecStateEPNS0_8JSObjectENS0_7JSValueERKNS0_7ArgListE
__ZN7WebCore7DataRefINS_22StyleRareInheritedDataEE6accessEv
__ZN7WebCore17jsNodeNextSiblingEPN3JSC9ExecStateENS0_7JSValueERKNS0_10IdentifierE
__ZN7WebCore28JSHTMLAnchorElementPrototype18getOwnPropertySlotEPN3JSC9ExecStateERKNS1_10IdentifierERNS1_12PropertySlotE
__ZNK7WebCore19JSHTMLAnchorElement9classInfoEv
__ZN7WebCore19JSHTMLAnchorElement3putEPN3JSC9ExecStateERKNS1_10IdentifierENS1_7JSValueERNS1_15PutPropertySlotE
__ZN7WebCore21jsDOMWindowInnerWidthEPN3JSC9ExecStateENS0_7JSValueERKNS0_10IdentifierE
__ZNK7WebCore9DOMWindow10innerWidthEv
__ZN7WebCore25jsDocumentDocumentElementEPN3JSC9ExecStateENS0_7JSValueERKNS0_10IdentifierE
__ZN7WebCore15jsHTMLElementIdEPN3JSC9ExecStateENS0_7JSValueERKNS0_10IdentifierE
__ZN7WebCore17JSHTMLBodyElement3putEPN3JSC9ExecStateERKNS1_10IdentifierENS1_7JSValueERNS1_15PutPropertySlotE
__ZN7WebCore20jsNavigatorMimeTypesEPN3JSC9ExecStateENS0_7JSValueERKNS0_10IdentifierE
__ZNK7WebCore9Navigator9mimeTypesEv
__ZN7WebCore13MimeTypeArrayC1EPNS_5FrameE
__ZN7WebCore13MimeTypeArrayC2EPNS_5FrameE
__ZN7WebCore4toJSEPN3JSC9ExecStateEPNS_17JSDOMGlobalObjectEPNS_13MimeTypeArrayE
__ZN7WebCore15JSMimeTypeArray15createPrototypeEPN3JSC9ExecStateEPNS1_14JSGlobalObjectE
__ZN7WebCore15JSMimeTypeArrayC1EN3WTF17NonNullPassRefPtrIN3JSC9StructureEEEPNS_17JSDOMGlobalObjectENS1_10PassRefPtrINS_13MimeTy
__ZN7WebCore15JSMimeTypeArrayC2EN3WTF17NonNullPassRefPtrIN3JSC9StructureEEEPNS_17JSDOMGlobalObjectENS1_10PassRefPtrINS_13MimeTy
__ZN7WebCore15JSMimeTypeArray18getOwnPropertySlotEPN3JSC9ExecStateERKNS1_10IdentifierERNS1_12PropertySlotE
__ZN7WebCore15JSMimeTypeArray18canGetItemsForNameEPN3JSC9ExecStateEPNS_13MimeTypeArrayERKNS1_10IdentifierE
__ZN7WebCore13MimeTypeArray18canGetItemsForNameERKNS_12AtomicStringE
__ZNK7WebCore13MimeTypeArray13getPluginDataEv
__ZNK7WebCore4Page10pluginDataEv
__ZN7WebCore11FrameLoader12allowPluginsENS_28ReasonForCallingAllowPluginsE
__ZN7WebCore10PluginDataC1EPKNS_4PageE
__ZN7WebCore10PluginDataC2EPKNS_4PageE
__ZN7WebCore10PluginData11initPluginsEv
__ZN7WebCore16MIMETypeRegistry26getSupportedImageMIMETypesEv
__ZN3WTF6VectorIPN7WebCore13MimeClassInfoELm0EE14expandCapacityEmPKS3_
__ZN3WTF6VectorIPN7WebCore13MimeClassInfoELm0EE14expandCapacityEm
__ZN3WTF6VectorIPN7WebCore13MimeClassInfoELm0EE15reserveCapacityEm
__ZN3WTF6VectorIPN7WebCore10PluginInfoELm0EE14expandCapacityEmPKS3_
__ZN3WTF6VectorIPN7WebCore10PluginInfoELm0EE14expandCapacityEm
__ZN3WTF6VectorIPN7WebCore10PluginInfoELm0EE15reserveCapacityEm
__ZN7WebCore15JSMimeTypeArray10nameGetterEPN3JSC9ExecStateENS1_7JSValueERKNS1_10IdentifierE
__ZN7WebCore13MimeTypeArray9namedItemERKNS_12AtomicStringE
__ZN7WebCore8MimeTypeC1EN3WTF10PassRefPtrINS_10PluginDataEEEj
__ZN7WebCore8MimeTypeC2EN3WTF10PassRefPtrINS_10PluginDataEEEj
__ZN7WebCore4toJSEPN3JSC9ExecStateEPNS_17JSDOMGlobalObjectEPNS_8MimeTypeE
__ZN7WebCore10JSMimeType15createPrototypeEPN3JSC9ExecStateEPNS1_14JSGlobalObjectE
__ZN7WebCore10JSMimeTypeC1EN3WTF17NonNullPassRefPtrIN3JSC9StructureEEEPNS_17JSDOMGlobalObjectENS1_10PassRefPtrINS_8MimeTypeEEE
__ZN7WebCore10JSMimeTypeC2EN3WTF17NonNullPassRefPtrIN3JSC9StructureEEEPNS_17JSDOMGlobalObjectENS1_10PassRefPtrINS_8MimeTypeEEE
__ZN7WebCore10JSMimeType18getOwnPropertySlotEPN3JSC9ExecStateERKNS1_10IdentifierERNS1_12PropertySlotE
__ZN7WebCore23jsMimeTypeEnabledPluginEPN3JSC9ExecStateENS0_7JSValueERKNS0_10IdentifierE
__ZNK7WebCore8MimeType13enabledPluginEv
__ZN7WebCore6PluginC1EPNS_10PluginDataEj
__ZN7WebCore6PluginC2EPNS_10PluginDataEj
__ZN7WebCore4toJSEPN3JSC9ExecStateEPNS_17JSDOMGlobalObjectEPNS_6PluginE
__ZN7WebCore8JSPlugin15createPrototypeEPN3JSC9ExecStateEPNS1_14JSGlobalObjectE
__ZN7WebCore8JSPluginC1EN3WTF17NonNullPassRefPtrIN3JSC9StructureEEEPNS_17JSDOMGlobalObjectENS1_10PassRefPtrINS_6PluginEEE
__ZN7WebCore8JSPluginC2EN3WTF17NonNullPassRefPtrIN3JSC9StructureEEEPNS_17JSDOMGlobalObjectENS1_10PassRefPtrINS_6PluginEEE
__ZN7WebCore18setJSDocumentTitleEPN3JSC9ExecStateEPNS0_8JSObjectENS0_7JSValueE
__ZN7WebCore23jsHTMLInputElementValueEPN3JSC9ExecStateENS0_7JSValueERKNS0_10IdentifierE
__ZN3WTF6VectorIPN7WebCore7ElementELm0EE6shrinkEm
__ZN7WebCore15HTMLFormElement15addElementAliasEPNS_22HTMLFormControlElementERKNS_12AtomicStringE
__ZN3WTF7HashMapINS_6RefPtrIN7WebCore16AtomicStringImplEEENS1_INS2_22HTMLFormControlElementEEENS_7PtrHashIS4_EENS_10HashTraitsI
__ZN3WTF9HashTableINS_6RefPtrIN7WebCore16AtomicStringImplEEESt4pairIS4_NS1_INS2_22HTMLFormControlElementEEEENS_18PairFirstExtra
__ZN7WebCore17JSHTMLFormElement10nameGetterEPN3JSC9ExecStateENS1_7JSValueERKNS1_10IdentifierE
__ZNK3WTF7HashMapINS_6RefPtrIN7WebCore16AtomicStringImplEEENS1_INS2_22HTMLFormControlElementEEENS_7PtrHashIS4_EENS_10HashTraits
__ZN7WebCore26setJSHTMLInputElementValueEPN3JSC9ExecStateEPNS0_8JSObjectENS0_7JSValueE
__ZN7WebCore16HTMLInputElement8setValueERKNS_6StringEb
__ZN7WebCore19numGraphemeClustersERKNS_6StringE
__ZN7WebCore12InputElement20updateSelectionRangeEPS0_PNS_7ElementEii
__ZN7WebCore9RenderBox45removeFloatingOrPositionedChildFromBlockListsEv
__ZN7WebCore11RenderBlock22removePositionedObjectEPNS_9RenderBoxE
__ZN3WTF11ListHashSetIPN7WebCore9RenderBoxENS_7PtrHashIS3_EEE15unlinkAndDeleteEPNS_15ListHashSetNodeIS3_EE
__ZN3WTFeqIN7WebCore10CursorDataELm0EEEbRKNS_6VectorIT_XT0_EEES7_
__ZN3WTF6VectorIN7WebCore10CursorDataELm0EE6shrinkEm
__ZN7WebCore11RenderLayer27repaintIncludingDescendantsEv
__ZN7WebCore30setJSHTMLSelectElementDisabledEPN3JSC9ExecStateEPNS0_8JSObjectENS0_7JSValueE
__ZN7WebCore22HTMLFormControlElement11setDisabledEb
__ZN7WebCore21setJSElementScrollTopEPN3JSC9ExecStateEPNS0_8JSObjectENS0_7JSValueE
__ZN7WebCore7Element12setScrollTopEi
__ZN7WebCore9RenderBox12setScrollTopEi
__ZN7WebCore11RenderLayer14scrollToOffsetEiibb
__ZN7WebCore17JSHTMLHtmlElement3putEPN3JSC9ExecStateERKNS1_10IdentifierENS1_7JSValueERNS1_15PutPropertySlotE
__ZN7WebCore13ContainerNode12replaceChildEN3WTF10PassRefPtrINS_4NodeEEEPS3_Rib
__ZN7WebCore4Node17checkReplaceChildEPS0_S1_Ri
__ZN7WebCore4Node15canReplaceChildEPS0_S1_
__ZN7WebCore15highestAncestorEPNS_4NodeE
__ZN7WebCoreL27removingNodeRemovesPositionEPNS_4NodeERKNS_8PositionE
__ZNK7WebCore4Node8containsEPKS0_
__ZN3WTF7HashMapIPN7WebCore11RenderImageEPNS1_20RenderImageScaleDataENS_7PtrHashIS3_EENS_10HashTraitsIS3_EENS8_IS5_EEE4takeERKS
__ZN3WTF11ListHashSetIPN7WebCore9RenderBoxENS_7PtrHashIS3_EEE14deleteAllNodesEv
__ZN7WebCore15RenderTableCell7destroyEv
__ZN7WebCore15RenderTableCellD0Ev
__ZN7WebCore14RenderTableRow7destroyEv
__ZN7WebCore18RenderTableSection11removeChildEPNS_12RenderObjectE
__ZN7WebCore14RenderTableRow29clippedOverflowRectForRepaintEPNS_20RenderBoxModelObjectE
__ZN7WebCore14RenderTableRowD0Ev
__ZN7WebCore18RenderTableSection7destroyEv
__ZN7WebCore11RenderTable11removeChildEPNS_12RenderObjectE
__ZN7WebCore18RenderTableSectionD0Ev
__ZN7WebCore18RenderTableSection9clearGridEv
__ZN3WTF6VectorIN7WebCore18RenderTableSection10CellStructELm0EE6shrinkEm
__ZN3WTF6VectorIN7WebCore18RenderTableSection9RowStructELm0EE6shrinkEm
__ZN7WebCore11RenderTableD0Ev
__ZN7WebCore15AutoTableLayoutD0Ev
__ZN3WTF6VectorIN7WebCore15AutoTableLayout6LayoutELm4EE6shrinkEm
__ZN3WTF6VectorIN7WebCore11RenderTable12ColumnStructELm0EE6shrinkEm
__ZN7WebCore8Document17removeElementByIdERKNS_12AtomicStringEPNS_7ElementE
__ZN7WebCore15HTMLFormElement19removedFromDocumentEv
__ZN7WebCore22HTMLFormControlElement15removedFromTreeEb
__ZNK7WebCore13HTMLTokenizer15isHTMLTokenizerEv
__ZN7WebCore4Node15removedFromTreeEb
__ZN7WebCore16JSDOMWindowShellD1Ev
__ZN7WebCore16JSDOMWindowShellD2Ev
__ZN7WebCore20JSDOMWindowPrototypeD1Ev
__ZN7WebCore11JSDOMWindowD1Ev
__ZN7WebCore11JSDOMWindowD2Ev
__ZN7WebCore15JSDOMWindowBase26destroyJSDOMWindowBaseDataEPv
__ZN3WTF9HashTableINS_6RefPtrI21OpaqueJSWeakObjectMapEES3_NS_17IdentityExtractorIS3_EENS_7PtrHashIS3_EENS_10HashTraitsIS3_EES9_
__ZN3WTF9HashTableIPN3JSC15GlobalCodeBlockES3_NS_17IdentityExtractorIS3_EENS_7PtrHashIS3_EENS_10HashTraitsIS3_EES9_E15deallocat
__ZN3WTF9HashTableINS_6RefPtrIN7WebCore10StringImplEEESt4pairIS4_N3JSC16SymbolTableEntryEENS_18PairFirstExtractorIS8_EENS6_17Id
__ZN7WebCore15JSNodePrototypeD1Ev
__ZN7WebCore19JSDocumentPrototypeD1Ev
__ZN7WebCore23JSHTMLDocumentPrototypeD1Ev
__ZN7WebCore14JSHTMLDocumentD1Ev
__ZN7WebCore19JSLocationPrototypeD1Ev
__ZN7WebCore19JSNodeListPrototypeD1Ev
__ZN7WebCore18JSElementPrototypeD1Ev
__ZN7WebCore22JSHTMLElementPrototypeD1Ev
__ZN7WebCore26JSHTMLHtmlElementPrototypeD1Ev
__ZN7WebCore26JSHTMLHeadElementPrototypeD1Ev
__ZN7WebCore17JSHTMLHeadElementD1Ev
__ZN7WebCore21JSClientRectPrototypeD1Ev
__ZN7WebCore12JSClientRectD1Ev
__ZN7WebCore12JSClientRectD2Ev
__ZN7WebCore26JSHTMLMetaElementPrototypeD1Ev
__ZN7WebCore17JSHTMLMetaElementD1Ev
__ZN7WebCore13JSHTMLElementD1Ev
__ZN7WebCore27JSHTMLTitleElementPrototypeD1Ev
__ZN7WebCore18JSHTMLTitleElementD1Ev
__ZN7WebCore28JSHTMLScriptElementPrototypeD1Ev
__ZN7WebCore27JSHTMLStyleElementPrototypeD1Ev
__ZN7WebCore26JSHTMLBodyElementPrototypeD1Ev
__ZN3WTF10RefCountedIN3JSC9StructureEE5derefEv
__ZN7WebCore25JSHTMLDivElementPrototypeD1Ev
__ZN7WebCore26JSHTMLFormElementPrototypeD1Ev
__ZN7WebCore17JSHTMLFormElementD1Ev
__ZN7WebCore27JSHTMLUListElementPrototypeD1Ev
__ZN7WebCore18JSHTMLUListElementD1Ev
__ZN7WebCore24JSHTMLLIElementPrototypeD1Ev
__ZN7WebCore30JSCSSStyleDeclarationPrototypeD1Ev
__ZN7WebCore24JSXPathResultConstructorD1Ev
__ZN7WebCore22JSXPathResultPrototypeD1Ev
__ZN7WebCore24JSCharacterDataPrototypeD1Ev
__ZN7WebCore15JSTextPrototypeD1Ev
__ZN7WebCore17JSNodeConstructorD1Ev
__ZN7WebCore28JSHTMLAnchorElementPrototypeD1Ev
__ZN7WebCore27JSHTMLInputElementPrototypeD1Ev
__ZN7WebCore18JSHTMLInputElementD1Ev
__ZN7WebCore28JSHTMLIFrameElementPrototypeD1Ev
__ZN7WebCore27JSHTMLImageElementPrototypeD1Ev
__ZN7WebCore18JSHTMLImageElementD1Ev
__ZN7WebCore29JSHTMLHeadingElementPrototypeD1Ev
__ZN7WebCore20JSHTMLHeadingElementD1Ev
__ZN7WebCore27JSHTMLTableElementPrototypeD1Ev
__ZN7WebCore18JSHTMLTableElementD1Ev
__ZN7WebCore34JSHTMLTableSectionElementPrototypeD1Ev
__ZN7WebCore25JSHTMLTableSectionElementD1Ev
__ZN7WebCore30JSHTMLTableRowElementPrototypeD1Ev
__ZN7WebCore21JSHTMLTableRowElementD1Ev
__ZN7WebCore31JSHTMLTableCellElementPrototypeD1Ev
__ZN7WebCore22JSHTMLTableCellElementD1Ev
__ZN7WebCore28JSHTMLSelectElementPrototypeD1Ev
__ZN7WebCore19JSHTMLSelectElementD1Ev
__ZN7WebCore28JSHTMLOptionElementPrototypeD1Ev
__ZN7WebCore28JSHTMLButtonElementPrototypeD1Ev
__ZN7WebCore19JSHTMLButtonElementD1Ev
__ZN7WebCore24JSHTMLBRElementPrototypeD1Ev
__ZN7WebCore15JSHTMLBRElementD1Ev
__ZThn8_N7WebCore14HTMLDivElementD0Ev
__ZN7WebCore14HTMLDivElementD0Ev
__ZN7WebCore4PairD0Ev
__ZN7WebCore26JSHTMLFontElementPrototypeD1Ev
__ZN7WebCore17JSHTMLFontElementD1Ev
__ZThn8_N7WebCore15HTMLFontElementD0Ev
__ZN7WebCore15HTMLFontElementD0Ev
__ZThn8_N7WebCore16HTMLTableElementD0Ev
__ZN7WebCore16HTMLTableElementD0Ev
__ZThn8_N7WebCore23HTMLTableSectionElementD0Ev
__ZN7WebCore23HTMLTableSectionElementD0Ev
__ZThn8_N7WebCore19HTMLTableRowElementD0Ev
__ZN7WebCore19HTMLTableRowElementD0Ev
__ZThn8_N7WebCore20HTMLTableCellElementD0Ev
__ZN7WebCore20HTMLTableCellElementD0Ev
__ZN7WebCore34jsNodePrototypeFunctionRemoveChildEPN3JSC9ExecStateEPNS0_8JSObjectENS0_7JSValueERKNS0_7ArgListE
__ZN7WebCore6JSNode11removeChildEPN3JSC9ExecStateERKNS1_7ArgListE
__ZN7WebCore18jsLocationProtocolEPN3JSC9ExecStateENS0_7JSValueERKNS0_10IdentifierE
__ZNK7WebCore8Location8protocolEv
__ZN7WebCore14jsLocationHostEPN3JSC9ExecStateENS0_7JSValueERKNS0_10IdentifierE
__ZNK7WebCore8Location4hostEv
__ZN7WebCore7JSEventD1Ev
__ZN7WebCore7JSEventD2Ev
__ZN3WTF6VectorIN7WebCore23RegisteredEventListenerELm1EE6shrinkEm
__ZN7WebCore26setJSHTMLAnchorElementHrefEPN3JSC9ExecStateEPNS0_8JSObjectENS0_7JSValueE
__ZN7WebCore18jsDOMWindowHistoryEPN3JSC9ExecStateENS0_7JSValueERKNS0_10IdentifierE
__ZNK7WebCore11JSDOMWindow7historyEPN3JSC9ExecStateE
__ZNK7WebCore9DOMWindow7historyEv
__ZN7WebCore7HistoryC1EPNS_5FrameE
__ZN7WebCore7HistoryC2EPNS_5FrameE
__ZN7WebCore9JSHistory15createPrototypeEPN3JSC9ExecStateEPNS1_14JSGlobalObjectE
__ZN7WebCore9JSHistoryC1EN3WTF17NonNullPassRefPtrIN3JSC9StructureEEEPNS_17JSDOMGlobalObjectENS1_10PassRefPtrINS_7HistoryEEE
__ZN7WebCore9JSHistoryC2EN3WTF17NonNullPassRefPtrIN3JSC9StructureEEEPNS_17JSDOMGlobalObjectENS1_10PassRefPtrINS_7HistoryEEE
__ZN7WebCore9JSHistory18getOwnPropertySlotEPN3JSC9ExecStateERKNS1_10IdentifierERNS1_12PropertySlotE
__ZN7WebCore9JSHistory26getOwnPropertySlotDelegateEPN3JSC9ExecStateERKNS1_10IdentifierERNS1_12PropertySlotE
__ZNK7WebCore7History5frameEv
__ZN7WebCore18JSHistoryPrototype18getOwnPropertySlotEPN3JSC9ExecStateERKNS1_10IdentifierERNS1_12PropertySlotE
__ZN7WebCore15jsDocumentTitleEPN3JSC9ExecStateENS0_7JSValueERKNS0_10IdentifierE
__ZN7WebCore38jsHistoryPrototypeFunctionReplaceStateEPN3JSC9ExecStateEPNS0_8JSObjectENS0_7JSValueERKNS0_7ArgListE
__ZNK7WebCore9JSHistory9classInfoEv
__ZN7WebCore9JSHistory12replaceStateEPN3JSC9ExecStateERKNS1_7ArgListE
__ZN7WebCore25SerializedScriptValueData9serializeEPN3JSC9ExecStateENS1_7JSValueE
__ZN7WebCore4walkINS_21SerializingTreeWalkerEEENT_10OutputTypeERS2_NS2_9InputTypeE
__ZN7WebCore21SerializingTreeWalker17convertIfTerminalEN3JSC7JSValueE
__ZN7WebCore25SerializedScriptValueDataD2Ev
__ZN3WTF7HashSetIPN3JSC8JSObjectENS_7PtrHashIS3_EENS_10HashTraitsIS3_EEE3addERKS3_
__ZN3WTF9HashTableIPN3JSC8JSObjectES3_NS_17IdentityExtractorIS3_EENS_7PtrHashIS3_EENS_10HashTraitsIS3_EES9_E6expandEv
__ZN3WTF9HashTableIPN3JSC8JSObjectES3_NS_17IdentityExtractorIS3_EENS_7PtrHashIS3_EENS_10HashTraitsIS3_EES9_E6rehashEi
__ZN3WTF9HashTableIPN3JSC8JSObjectES3_NS_17IdentityExtractorIS3_EENS_7PtrHashIS3_EENS_10HashTraitsIS3_EES9_E13allocateTableEi
__ZN3WTF9HashTableIPN3JSC8JSObjectES3_NS_17IdentityExtractorIS3_EENS_7PtrHashIS3_EENS_10HashTraitsIS3_EES9_E15deallocateTableEP
__ZN3WTF9HashTableIPN7WebCore10StringImplES3_NS_17IdentityExtractorIS3_EENS_7PtrHashIS3_EENS_10HashTraitsIS3_EES9_EC1ERKSA_
__ZN3WTF9HashTableIPN7WebCore10StringImplES3_NS_17IdentityExtractorIS3_EENS_7PtrHashIS3_EENS_10HashTraitsIS3_EES9_EC2ERKSA_
__ZN3WTF9HashTableIPN7WebCore10StringImplES3_NS_17IdentityExtractorIS3_EENS_7PtrHashIS3_EENS_10HashTraitsIS3_EES9_E15deallocate
__ZN3WTF9HashTableIPN3JSC8JSObjectES3_NS_17IdentityExtractorIS3_EENS_7PtrHashIS3_EENS_10HashTraitsIS3_EES9_E4findIS3_NS_22Ident
__ZN3WTF9HashTableIPN3JSC8JSObjectES3_NS_17IdentityExtractorIS3_EENS_7PtrHashIS3_EENS_10HashTraitsIS3_EES9_E47removeAndInvalida
__ZN3WTF9HashTableIPN3JSC8JSObjectES3_NS_17IdentityExtractorIS3_EENS_7PtrHashIS3_EENS_10HashTraitsIS3_EES9_E6removeEPS3_
__ZN7WebCore25SerializedScriptValueDataC1EN3WTF6RefPtrINS_16SerializedObjectEEE
__ZN7WebCore25SerializedScriptValueDataC2EN3WTF6RefPtrINS_16SerializedObjectEEE
__ZN7WebCore25SerializedScriptValueDataaSERKS0_
__ZN7WebCore25SerializedScriptValueData22tearDownSerializedDataEv
__ZN3WTF6VectorIPN3JSC8JSObjectELm16EE6shrinkEm
__ZN3WTF6VectorINS_6RefPtrIN7WebCore16SerializedObjectEEELm16EE6shrinkEm
__ZN3WTF6VectorIjLm16EE6shrinkEm
__ZN3WTF6VectorIN3JSC17PropertyNameArrayELm16EE6shrinkEm
__ZN3WTF6VectorIjLm16EED2Ev
__ZN7WebCore37valueToStringWithUndefinedOrNullCheckEPN3JSC9ExecStateENS0_7JSValueE
__ZN7WebCore7History16stateObjectAddedEN3WTF10PassRefPtrINS_21SerializedScriptValueEEERKNS_6StringES7_NS0_15StateObjectTypeERi
__ZN7WebCore7History11urlForStateERKNS_6StringE
__ZNK7WebCore11FrameLoader7baseURLEv
__ZN7WebCore17HistoryController12replaceStateEN3WTF10PassRefPtrINS_21SerializedScriptValueEEERKNS_6StringES7_
__ZN7WebCore11HistoryItem12setURLStringERKNS_6StringE
__ZN7WebCore11HistoryItem14setStateObjectEN3WTF10PassRefPtrINS_21SerializedScriptValueEEE
__ZN7WebCore8Document30updateURLForPushOrReplaceStateERKNS_4KURLE
__ZN7WebCore14DocumentLoader42replaceRequestURLForSameDocumentNavigationERKNS_4KURLE
__ZN7WebCore19ResourceRequestBase6setURLERKNS_4KURLE
__ZN7WebCore14jsLocationHrefEPN3JSC9ExecStateENS0_7JSValueERKNS0_10IdentifierE
__ZNK7WebCore8Location4hrefEv
__ZN7WebCore21SerializedScriptValueD1Ev
__ZN7WebCore21SerializedScriptValueD2Ev
__ZN7WebCore4walkINS_18TeardownTreeWalkerEEENT_10OutputTypeERS2_NS2_9InputTypeE
__ZN7WebCore20SharedSerializedData8asObjectEv
__ZN3WTF6VectorINS_6RefPtrIN7WebCore10StringImplEEELm0EEC1ERKS5_
__ZN3WTF6VectorINS_6RefPtrIN7WebCore10StringImplEEELm0EEC2ERKS5_
__ZN3WTF6VectorINS_6RefPtrIN7WebCore10StringImplEEELm0EE14shrinkCapacityEm
__ZN3WTF6VectorIN7WebCore25SerializedScriptValueDataELm0EE14shrinkCapacityEm
__ZN3WTF6VectorIbLm16EE6shrinkEm
__ZN3WTF6VectorINS0_INS_6RefPtrIN7WebCore10StringImplEEELm0EEELm16EE6shrinkEm
__ZN7WebCore16SerializedObjectD0Ev
__ZN7WebCore15JSMimeTypeArrayD1Ev
__ZN7WebCore15JSMimeTypeArrayD2Ev
__ZN7WebCore10JSMimeTypeD1Ev
__ZN7WebCore10JSMimeTypeD2Ev
__ZN7WebCore8MimeTypeD1Ev
__ZN7WebCore8MimeTypeD2Ev
__ZN7WebCore8JSPluginD1Ev
__ZN7WebCore8JSPluginD2Ev
__ZN7WebCore6PluginD1Ev
__ZN7WebCore6PluginD2Ev
__ZNK7WebCore13PageURLRecord8snapshotEb
__ZN3WTF7HashMapIN7WebCore6StringENS1_15PageURLSnapshotENS1_10StringHashENS_10HashTraitsIS2_EENS5_IS3_EEE3setERKS2_RKS3_
__ZN3WTF9HashTableIN7WebCore6StringESt4pairIS2_NS1_15PageURLSnapshotEENS_18PairFirstExtractorIS5_EENS1_10StringHashENS_14PairHa
__ZN7WebCore13PageURLRecordD1Ev
__ZN7WebCore13PageURLRecordD2Ev
__ZN7WebCore12IconDatabase24scheduleOrDeferSyncTimerEv
__ZNK7WebCore11RenderBlock17offsetForContentsERiS1_
__ZN7WebCore19SelectionController10paintCaretEPNS_15GraphicsContextEiiRKNS_7IntRectE
__ZN7WebCore12RenderWidget5paintERNS_12RenderObject9PaintInfoEii
__ZN7WebCore15DNSResolveQueue5firedEv
__ZN7WebCore11RenderLayer20setHasVisibleContentEb
__ZN7WebCore5TimerINS_19SelectionControllerEE5firedEv
__ZN7WebCore19SelectionController20caretBlinkTimerFiredEPNS_5TimerIS0_EE
__ZN7WebCore11RenderImage14resetAnimationEv
__ZN7WebCore11BitmapImage14resetAnimationEv
__ZN7WebCore11BitmapImage13stopAnimationEv
__ZN7WebCore11BitmapImage29destroyDecodedDataIfNecessaryEb
__ZN7WebCore21jsHTMLImageElementSrcEPN3JSC9ExecStateENS0_7JSValueERKNS0_10IdentifierE
__ZNK7WebCore7Element15getURLAttributeERKNS_13QualifiedNameE
__ZN7WebCore8jsStringEPN3JSC9ExecStateERKNS_4KURLE
__ZN7WebCore35jsNodePrototypeFunctionReplaceChildEPN3JSC9ExecStateEPNS0_8JSObjectENS0_7JSValueERKNS0_7ArgListE
__ZN7WebCore6JSNode12replaceChildEPN3JSC9ExecStateERKNS1_7ArgListE
__ZN7WebCore16HTMLStyleElement19removedFromDocumentEv
__ZN7WebCore8Document29removeStyleSheetCandidateNodeEPNS_4NodeE
__ZN3WTF11ListHashSetIPN7WebCore4NodeENS_7PtrHashIS3_EEE15unlinkAndDeleteEPNS_15ListHashSetNodeIS3_EE
__ZN7WebCore12StyleElement19removedFromDocumentEPNS_8DocumentE
__ZNK7WebCore27RenderTextControlSingleLine11isTextFieldEv
__ZNK7WebCore7UIEvent9isUIEventEv
__ZN7WebCore22createDOMObjectWrapperINS_15JSKeyboardEventENS_13KeyboardEventEEEPNS_9DOMObjectEPN3JSC9ExecStateEPNS_17JSDOMGloba
__ZN7WebCore15JSKeyboardEvent15createPrototypeEPN3JSC9ExecStateEPNS1_14JSGlobalObjectE
__ZN7WebCore18JSUIEventPrototype4selfEPN3JSC9ExecStateEPNS1_14JSGlobalObjectE
__ZN7WebCore9JSUIEvent15createPrototypeEPN3JSC9ExecStateEPNS1_14JSGlobalObjectE
__ZN7WebCore16JSEventPrototype4selfEPN3JSC9ExecStateEPNS1_14JSGlobalObjectE
__ZN7WebCore15JSKeyboardEventC1EN3WTF17NonNullPassRefPtrIN3JSC9StructureEEEPNS_17JSDOMGlobalObjectENS1_10PassRefPtrINS_13Keyboa
__ZN7WebCore15JSKeyboardEventC2EN3WTF17NonNullPassRefPtrIN3JSC9StructureEEEPNS_17JSDOMGlobalObjectENS1_10PassRefPtrINS_13Keyboa
__ZN7WebCore9JSUIEventC2EN3WTF17NonNullPassRefPtrIN3JSC9StructureEEEPNS_17JSDOMGlobalObjectENS1_10PassRefPtrINS_7UIEventEEE
__ZN7WebCore5Frame27doTextFieldCommandFromEventEPNS_7ElementEPNS_13KeyboardEventE
__Z3kitPN7WebCore16HTMLInputElementE
__ZN7WebCore12CachedScript11setEncodingERKNS_6StringE
__ZN7WebCore4Node16dispatchKeyEventERKNS_21PlatformKeyboardEventE
__ZN3WTF6VectorIcLm10EE6shrinkEm
__ZN3WTF5DequeIN7WebCore18SegmentedSubstringEE14expandCapacityEv
__ZN7WebCore19jsNavigatorPlatformEPN3JSC9ExecStateENS0_7JSValueERKNS0_10IdentifierE
__ZNK7WebCore13NavigatorBase8platformEv
__ZN7WebCore35jsNodePrototypeFunctionInsertBeforeEPN3JSC9ExecStateEPNS0_8JSObjectENS0_7JSValueERKNS0_7ArgListE
__ZN7WebCore6JSNode12insertBeforeEPN3JSC9ExecStateERKNS1_7ArgListE
__ZN7WebCore13ContainerNode12insertBeforeEN3WTF10PassRefPtrINS_4NodeEEEPS3_Rib
__ZN7WebCore26CachedScriptSourceProviderD0Ev
__ZN7WebCore5Cache27removeFromLiveResourcesSizeEPNS_14CachedResourceE
__ZN7WebCore12CachedScript17allClientsRemovedEv
__ZN7WebCore14ResourceHandle15willSendRequestERNS_15ResourceRequestERKNS_16ResourceResponseE
__ZN7WebCore14ResourceLoader15willSendRequestEPNS_14ResourceHandleERNS_15ResourceRequestERKNS_16ResourceResponseE
__ZN7WebCore20ApplicationCacheHost28maybeLoadFallbackForRedirectEPNS_14ResourceLoaderERNS_15ResourceRequestERKNS_16ResourceResp
__ZN7WebCore27protocolHostAndPortAreEqualERKNS_4KURLES2_
__ZN7WebCore20ApplicationCacheHost48scheduleLoadFallbackResourceFromApplicationCacheEPNS_14ResourceLoaderEPNS_16ApplicationCach
__ZN7WebCore20ApplicationCacheHost35getApplicationCacheFallbackResourceERKNS_15ResourceRequestERPNS_24ApplicationCacheResourceE
__ZNK7WebCore11FrameLoader14initialRequestEv
__ZN7WebCore11FrameLoader50didReceiveServerRedirectForProvisionalLoadForFrameEv
__ZN7WebCore13PolicyChecker21checkNavigationPolicyERKNS_15ResourceRequestEPFvPvS3_N3WTF10PassRefPtrINS_9FormStateEEEbES4_
__ZN7WebCore18MainResourceLoader33callContinueAfterNavigationPolicyEPvRKNS_15ResourceRequestEN3WTF10PassRefPtrINS_9FormStateEEE
__ZN7WebCore18MainResourceLoader29continueAfterNavigationPolicyERKNS_15ResourceRequestEb
__ZN7WebCore18setJSHTMLElementIdEPN3JSC9ExecStateEPNS0_8JSObjectENS0_7JSValueE
__ZNK7WebCore12CSSValueList7cssTextEv
__ZNK7WebCore15FontFamilyValue7cssTextEv
__ZN7WebCore22quoteCSSStringIfNeededERKNS_6StringE
__ZN7WebCore21setJSHTMLElementTitleEPN3JSC9ExecStateEPNS0_8JSObjectENS0_7JSValueE
__ZN7WebCore32jsNodePrototypeFunctionCloneNodeEPN3JSC9ExecStateEPNS0_8JSObjectENS0_7JSValueERKNS0_7ArgListE
__ZN7WebCore7Element9cloneNodeEb
__ZN7WebCore7Element24cloneElementWithChildrenEv
__ZN7WebCore7Element27cloneElementWithoutChildrenEv
__ZN7WebCore8Document13createElementERKNS_13QualifiedNameEb
__ZN7WebCore12NamedNodeMap13setAttributesERKS0_
__ZNK7WebCore15MappedAttribute5cloneEv
__ZN7WebCore13StyledElement26copyNonAttributePropertiesEPKNS_7ElementE
__ZN7WebCore13ContainerNode15cloneChildNodesEPS0_
__ZN7WebCore22DeleteButtonController7disableEv
__ZN7WebCore22DeleteButtonController4hideEv
__ZN7WebCore22DeleteButtonController6enableEv
__ZN7WebCore22DeleteButtonController4showEPNS_11HTMLElementE
__ZN7WebCore41jsElementPrototypeFunctionRemoveAttributeEPN3JSC9ExecStateEPNS0_8JSObjectENS0_7JSValueERKNS0_7ArgListE
__ZN7WebCore7Element15removeAttributeERKNS_6StringERi
__ZN7WebCore12NamedNodeMap15removeNamedItemERKNS_6StringERi
__ZN7WebCore12NamedNodeMap15removeNamedItemERKNS_13QualifiedNameERi
__ZN7WebCore9Attribute18createAttrIfNeededEPNS_7ElementE
__ZN7WebCore4Attr6createEPNS_7ElementEPNS_8DocumentEN3WTF10PassRefPtrINS_9AttributeEEE
__ZN7WebCore4Attr15createTextChildEv
__ZNK7WebCore4Attr4isIdEv
__ZN7WebCore12NamedNodeMap15removeAttributeERKNS_13QualifiedNameE
__ZN7WebCore7Element24dispatchAttrRemovalEventEPNS_9AttributeE
__ZThn8_N7WebCore4AttrD0Ev
__ZN7WebCore4AttrD0Ev
__ZN7WebCore26CSSMutableStyleDeclarationaSERKS0_
__ZN7WebCore16jsNodeChildNodesEPN3JSC9ExecStateENS0_7JSValueERKNS0_10IdentifierE
__ZN7WebCore4Node10childNodesEv
__ZN7WebCore13ChildNodeListC1EN3WTF10PassRefPtrINS_4NodeEEEPNS_15DynamicNodeList6CachesE
__ZN7WebCore13ChildNodeListC2EN3WTF10PassRefPtrINS_4NodeEEEPNS_15DynamicNodeList6CachesE
__ZN7WebCore15DynamicNodeListC2EN3WTF10PassRefPtrINS_4NodeEEEPNS0_6CachesE
__ZNK7WebCore13ChildNodeList6lengthEv
__ZNK7WebCore13ChildNodeList4itemEj
__ZN7WebCore15jsNodeLastChildEPN3JSC9ExecStateENS0_7JSValueERKNS0_10IdentifierE
__ZN7WebCore16HTMLInputElement26copyNonAttributePropertiesEPKNS_7ElementE
__ZN7WebCore16HTMLInputElement10setCheckedEbb
__ZN7WebCore28setJSHTMLInputElementCheckedEPN3JSC9ExecStateEPNS0_8JSObjectENS0_7JSValueE
__ZN7WebCore16HTMLInputElement25updateCheckedRadioButtonsEv
__ZN7WebCore11RenderImage22setImageSizeForAltTextEPNS_11CachedImageE
__ZN7WebCore17jsNodeTextContentEPN3JSC9ExecStateENS0_7JSValueERKNS0_10IdentifierE
__ZN7WebCore20setJSNodeTextContentEPN3JSC9ExecStateEPNS0_8JSObjectENS0_7JSValueE
__ZN7WebCore6JSNode14setTextContentEPN3JSC9ExecStateENS1_7JSValueE
__ZN7WebCore4Node14setTextContentERKNS_6StringERi
__ZN7WebCore16StyleCachedImage12removeClientEPNS_12RenderObjectE
__ZN7WebCoreL16labelConstructorERKNS_13QualifiedNameEPNS_8DocumentEPNS_15HTMLFormElementEb
__ZN7WebCore16HTMLLabelElementC1ERKNS_13QualifiedNameEPNS_8DocumentE
__ZN7WebCore16HTMLLabelElementC2ERKNS_13QualifiedNameEPNS_8DocumentE
__ZNK7WebCore16HTMLLabelElement11tagPriorityEv
__ZN7WebCoreL29createHTMLLabelElementWrapperEPN3JSC9ExecStateEPNS_17JSDOMGlobalObjectEN3WTF10PassRefPtrINS_11HTMLElementEEE
__ZN7WebCore18JSHTMLLabelElement15createPrototypeEPN3JSC9ExecStateEPNS1_14JSGlobalObjectE
__ZN7WebCore18JSHTMLLabelElementC1EN3WTF17NonNullPassRefPtrIN3JSC9StructureEEEPNS_17JSDOMGlobalObjectENS1_10PassRefPtrINS_16HTM
__ZN7WebCore18JSHTMLLabelElementC2EN3WTF17NonNullPassRefPtrIN3JSC9StructureEEEPNS_17JSDOMGlobalObjectENS1_10PassRefPtrINS_16HTM
__ZN7WebCore18JSHTMLLabelElement18getOwnPropertySlotEPN3JSC9ExecStateERKNS1_10IdentifierERNS1_12PropertySlotE
__ZNK7WebCore18JSHTMLLabelElement9classInfoEv
__ZN7WebCore18JSHTMLLabelElement3putEPN3JSC9ExecStateERKNS1_10IdentifierENS1_7JSValueERNS1_15PutPropertySlotE
__ZN7WebCore4Text9cloneNodeEb
__ZN3WTF7HashMapIPN7WebCore16AtomicStringImplEPNS1_7ElementENS_7PtrHashIS3_EENS_10HashTraitsIS3_EENS8_IS5_EEE3setERKS3_RKS5_
__ZN3WTF6VectorIPN7WebCore9RenderBoxELm16EE6shrinkEm
__ZN7WebCore12RenderObject10moveLayersEPNS_11RenderLayerES2_
__ZN7WebCore11RenderLayer25dirtyVisibleContentStatusEv
__ZN7WebCore28setJSHTMLLabelElementHtmlForEPN3JSC9ExecStateEPNS0_8JSObjectENS0_7JSValueE
__ZN7WebCore16HTMLLabelElement10setHtmlForERKNS_6StringE
__ZN7WebCore25setJSElementOnselectstartEPN3JSC9ExecStateEPNS0_8JSObjectENS0_7JSValueE
__ZN7WebCore29setJSHTMLInputElementDisabledEPN3JSC9ExecStateEPNS0_8JSObjectENS0_7JSValueE
__ZN7WebCore19JSLazyEventListenerD0Ev
__ZN7WebCore15JSEventListenerD2Ev
__ZThn8_N7WebCore16HTMLStyleElementD0Ev
__ZN7WebCore12CSSMediaRuleD0Ev
__ZN7WebCore11CSSRuleListD1Ev
__ZN7WebCore11CSSRuleListD2Ev
__ZN3WTF6VectorINS_6RefPtrIN7WebCore7CSSRuleEEELm0EE6shrinkEm
__ZN7WebCore13CSSImageValueD0Ev
__ZN7WebCore17CSSPrimitiveValueD2Ev
__ZN7WebCore10MediaQueryD1Ev
__ZN7WebCore10MediaQueryD2Ev
__ZN3WTF15deleteAllValuesIPN7WebCore13MediaQueryExpELm0EEEvRKNS_6VectorIT_XT0_EEE
__ZN3WTF6VectorIPN7WebCore10MediaQueryELm0EE6shrinkEm
__ZN7WebCore15PurgeableBuffer6createEPKcm
__ZN7WebCore15PurgeableBufferC1EPcm
__ZN7WebCore15PurgeableBufferC2EPcm
__ZN7WebCore15PurgeableBuffer13makePurgeableEb
__ZN7WebCore15JSKeyboardEventD1Ev
__ZN7WebCore13ChildNodeListD0Ev
__ZN7WebCore15JSTextPrototype18getOwnPropertySlotEPN3JSC9ExecStateERKNS1_10IdentifierERNS1_12PropertySlotE
__ZN7WebCore24JSCharacterDataPrototype18getOwnPropertySlotEPN3JSC9ExecStateERKNS1_10IdentifierERNS1_12PropertySlotE
__ZN7WebCore16HTMLLabelElementD0Ev
__ZN7WebCore16HTMLInputElementD0Ev
__ZN7WebCore22HTMLFormControlElement14removeFromFormEv
__ZN7WebCore26HTMLTextFormControlElementD2Ev
__ZN7WebCore31HTMLFormControlElementWithStateD2Ev
__ZN3WTF11ListHashSetIPN7WebCore7ElementENS_7PtrHashIS3_EEE15unlinkAndDeleteEPNS_15ListHashSetNodeIS3_EE
__ZN7WebCore22HTMLFormControlElementD2Ev
-[WebCoreResourceHandleAsDelegate connection:canAuthenticateAgainstProtectionSpace:]
__ZN7WebCore4coreEP20NSURLProtectionSpace
__ZN7WebCore15ProtectionSpaceC1ERKNS_6StringEiNS_25ProtectionSpaceServerTypeES3_NS_35ProtectionSpaceAuthenticationSchemeE
__ZN7WebCore15ProtectionSpaceC2ERKNS_6StringEiNS_25ProtectionSpaceServerTypeES3_NS_35ProtectionSpaceAuthenticationSchemeE
__ZN7WebCore14ResourceHandle37canAuthenticateAgainstProtectionSpaceERKNS_15ProtectionSpaceE
__ZN7WebCore14ResourceLoader37canAuthenticateAgainstProtectionSpaceEPNS_14ResourceHandleERKNS_15ProtectionSpaceE
__ZN7WebCore14ResourceLoader37canAuthenticateAgainstProtectionSpaceERKNS_15ProtectionSpaceE
__ZN7WebCore11FrameLoader37canAuthenticateAgainstProtectionSpaceEPNS_14ResourceLoaderERKNS_15ProtectionSpaceE
__ZN7WebCore3macERKNS_15ProtectionSpaceE
__ZNK7WebCore15ProtectionSpace10serverTypeEv
__ZNK7WebCore15ProtectionSpace20authenticationSchemeEv
__ZNK7WebCore15ProtectionSpace5realmEv
__ZNK7WebCore15ProtectionSpace4portEv
__ZNK7WebCore15ProtectionSpace4hostEv
__ZN7WebCore4KURL11setProtocolERKNS_6StringE
__ZN7WebCore4KURL7setHostERKNS_6StringE
__ZN7WebCore4KURL7setPathERKNS_6StringE
__ZN7WebCore28encodeWithURLEscapeSequencesERKNS_6StringE
__ZN7WebCore12IconDatabase22loadDecisionForIconURLERKNS_6StringEPNS_14DocumentLoaderE
__ZN7WebCore11FrameLoader27commitIconURLToIconDatabaseERKNS_4KURLE
__ZN7WebCore12IconDatabase20setIconURLForPageURLERKNS_6StringES3_
__ZNK7WebCore11FrameLoader18originalRequestURLEv
__ZN7WebCore12IconDatabase23iconDataKnownForIconURLERKNS_6StringE
__ZN7WebCore17HTMLScriptElement19removedFromDocumentEv
__ZN7WebCore13ScriptElement19removedFromDocumentERNS_17ScriptElementDataE
__ZN7WebCore17ScriptElementData15stopLoadRequestEv
__ZN7WebCore11FrameLoader35shouldInterruptLoadForXFrameOptionsERKNS_6StringERKNS_4KURLE
__ZN7WebCore10HTMLParser24framesetCreateErrorCheckEPNS_5TokenERN3WTF6RefPtrINS_4NodeEEE
__ZN7WebCoreL19framesetConstructorERKNS_13QualifiedNameEPNS_8DocumentEPNS_15HTMLFormElementEb
__ZN7WebCore19HTMLFrameSetElementC1ERKNS_13QualifiedNameEPNS_8DocumentE
__ZN7WebCore19HTMLFrameSetElementC2ERKNS_13QualifiedNameEPNS_8DocumentE
__ZNK7WebCore19HTMLFrameSetElement10mapToEntryERKNS_13QualifiedNameERNS_20MappedAttributeEntryE
__ZN7WebCore19HTMLFrameSetElement20parseMappedAttributeEPNS_15MappedAttributeE
__ZN7WebCore14newLengthArrayERKNS_6StringERi
__ZN7WebCoreL14countCharacterEPKtjt
__ZN7WebCoreL11parseLengthEPKtj
__ZNK7WebCore19HTMLFrameSetElement17endTagRequirementEv
__ZNK7WebCore19HTMLFrameSetElement11tagPriorityEv
__ZN7WebCore19HTMLFrameSetElement6attachEv
__ZN7WebCore19HTMLFrameSetElement16rendererIsNeededEPNS_11RenderStyleE
__ZNK7WebCore11RenderStyle16isStyleAvailableEv
__ZN7WebCore19HTMLFrameSetElement14createRendererEPNS_11RenderArenaEPNS_11RenderStyleE
__ZN7WebCore14RenderFrameSetC1EPNS_19HTMLFrameSetElementE
__ZN7WebCore14RenderFrameSetC2EPNS_19HTMLFrameSetElementE
__ZN7WebCore14RenderFrameSet8GridAxisC1Ev
__ZN7WebCore14RenderFrameSet8GridAxisC2Ev
__ZNK7WebCore14RenderFrameSet15virtualChildrenEv
__ZN7WebCore19HTMLFrameSetElement8checkDTDEPKNS_4NodeE
__ZNK7WebCore14RenderFrameSet10isFrameSetEv
__ZN7WebCoreL16frameConstructorERKNS_13QualifiedNameEPNS_8DocumentEPNS_15HTMLFormElementEb
__ZN7WebCore16HTMLFrameElement6createERKNS_13QualifiedNameEPNS_8DocumentE
__ZN7WebCore16HTMLFrameElement20parseMappedAttributeEPNS_15MappedAttributeE
__ZNK7WebCore16HTMLFrameElement17endTagRequirementEv
__ZNK7WebCore16HTMLFrameElement11tagPriorityEv
__ZN7WebCore16HTMLFrameElement6attachEv
__ZN7WebCore16HTMLFrameElement16rendererIsNeededEPNS_11RenderStyleE
__ZN7WebCoreL20copyPathRemovingDotsEPcPKcii
__ZN7WebCore16HTMLFrameElement14createRendererEPNS_11RenderArenaEPNS_11RenderStyleE
__ZN7WebCore11RenderFrameC1EPNS_16HTMLFrameElementE
__ZN7WebCore11RenderFrameC2EPNS_16HTMLFrameElementE
__ZNK7WebCore14RenderFrameSet14isChildAllowedEPNS_12RenderObjectEPNS_11RenderStyleE
__ZNK7WebCore11RenderFrame7isFrameEv
__ZN7WebCore14RenderFrameSet15virtualChildrenEv
__ZN7WebCore11RenderFrame11viewClearedEv
__ZN7WebCore14SecurityOrigin28shouldTreatURLSchemeAsSecureERKNS_6StringE
__ZNK7WebCore12RenderObject7isFrameEv
__ZN7WebCore7Console10addMessageENS_13MessageSourceENS_11MessageTypeENS_12MessageLevelERKNS_6StringEjS6_
__ZN7WebCore19InspectorController19addMessageToConsoleENS_13MessageSourceENS_11MessageTypeENS_12MessageLevelERKNS_6StringEjS6_
__ZN7WebCore7Console21shouldPrintExceptionsEv
__ZNK7WebCore13HTMLTokenizer14processingDataEv
__ZN7WebCore26HTMLTextFormControlElement17dispatchBlurEventEv
__ZN7WebCore16HTMLInputElement15handleBlurEventEv
__ZN7WebCore12InputElement17dispatchBlurEventEPS0_PNS_7ElementE
__ZN7WebCore5Frame22textFieldDidEndEditingEPNS_7ElementE
__ZN7WebCore22HTMLFormControlElement17dispatchBlurEventEv
__ZN7WebCore4Node17dispatchBlurEventEv
__ZN7WebCore14RenderFrameSet6layoutEv
__ZN7WebCore14RenderFrameSet8GridAxis6resizeEi
__ZN7WebCore14RenderFrameSet10layOutAxisERNS0_8GridAxisEPKNS_6LengthEi
__ZNK7WebCore14RenderFrameSet15flattenFrameSetEv
__ZN7WebCore14RenderFrameSet14positionFramesEv
__ZN7WebCore9RenderBox6layoutEv
__ZN7WebCore14RenderFrameSet15computeEdgeInfoEv
__ZN3WTF6VectorIbLm0EE4fillERKbm
__ZSt4fillIPbbEvT_S1_RKT0_
__ZNK7WebCore11RenderFrame8edgeInfoEv
__ZN3WTF6VectorIbLm0EEaSERKS1_
__ZN3WTF6VectorIbLm0EE6shrinkEm
__ZN7WebCore14RenderFrameSet16fillFromEdgeInfoERKNS_13FrameEdgeInfoEii
__ZNK7WebCore14RenderFrameSet8edgeInfoEv
__ZNK7WebCore9RenderBox12maxTopMarginEb
__ZNK7WebCore9RenderBox21isSelfCollapsingBlockEv
__ZNK7WebCore9RenderBox15maxBottomMarginEb
__ZN7WebCore14RenderFrameSet5paintERNS_12RenderObject9PaintInfoEii
__ZN7WebCore10ScrollView5paintEPNS_15GraphicsContextERKNS_7IntRectE
__ZN7WebCore6Widget5paintEPNS_15GraphicsContextERKNS_7IntRectE
__ZNK7WebCore11RenderLayer20requiresSlowRepaintsEv
__ZNK7WebCore9FrameView30useSlowRepaintsIfNotOverlappedEv
__ZN3WTF7HashMapIPN7WebCore24OverlapTestRequestClientENS1_7IntRectENS_7PtrHashIS3_EENS_10HashTraitsIS3_EENS7_IS4_EEE3setERKS3_R
__ZThn128_N7WebCore12RenderWidget20setOverlapTestResultEb
__ZN7WebCore12RenderWidget20setOverlapTestResultEb
__ZN7WebCore9FrameView15setIsOverlappedEb
__ZN7WebCore8Document21styleRecalcTimerFiredEPNS_5TimerIS0_EE
__ZNK7WebCore14SecurityOrigin20isSameSchemeHostPortEPKS0_
__ZN7WebCoreL15linkConstructorERKNS_13QualifiedNameEPNS_8DocumentEPNS_15HTMLFormElementEb
__ZN7WebCore15HTMLLinkElementC1ERKNS_13QualifiedNameEPNS_8DocumentEb
__ZN7WebCore15HTMLLinkElementC2ERKNS_13QualifiedNameEPNS_8DocumentEb
__ZN7WebCore15HTMLLinkElement20parseMappedAttributeEPNS_15MappedAttributeE
__ZN7WebCore15HTMLLinkElement20tokenizeRelAttributeERKNS_12AtomicStringERbS4_S4_S4_
__ZN7WebCore15HTMLLinkElement7processEv
__ZNK7WebCore15HTMLLinkElement17endTagRequirementEv
__ZNK7WebCore15HTMLLinkElement11tagPriorityEv
__ZN7WebCore15HTMLLinkElement20insertedIntoDocumentEv
__ZN7WebCore9DocLoader20requestCSSStyleSheetERKNS_6StringES3_
__ZN7WebCore19CachedCSSStyleSheetC1ERKNS_6StringES3_
__ZN7WebCore19CachedCSSStyleSheetC2ERKNS_6StringES3_
__ZN7WebCore19ResourceRequestBase17clearHTTPReferrerEv
__ZN7WebCore19CachedCSSStyleSheet12didAddClientEPNS_20CachedResourceClientE
__ZN7WebCore15HTMLLinkElement21finishParsingChildrenEv
__ZN7WebCore13HTMLTokenizer12parseCommentERNS_15SegmentedStringENS0_5StateE
__ZN7WebCore10HTMLParser23commentCreateErrorCheckEPNS_5TokenERN3WTF6RefPtrINS_4NodeEEE
__ZN7WebCore7Comment6createEPNS_8DocumentERKNS_6StringE
__ZNK7WebCore7Comment8nodeTypeEv
__ZN7WebCore13StyledElement11addCSSColorEPNS_15MappedAttributeEiRKNS_6StringE
__ZN7WebCore17CSSPrimitiveValue14getDoubleValueEt
__ZN7WebCore13StyledElement19addCSSImagePropertyEPNS_15MappedAttributeEiRKNS_6StringE
__ZN7WebCore26CSSMutableStyleDeclaration16setImagePropertyEiRKNS_6StringEb
__ZN7WebCore11HTMLElement16addHTMLAlignmentEPNS_15MappedAttributeE
__ZN7WebCore11HTMLElement31addHTMLAlignmentToStyledElementEPNS_13StyledElementEPNS_15MappedAttributeE
__ZN3WTF9HashTableIN7WebCore18MappedAttributeKeyESt4pairIS2_PNS1_29CSSMappedAttributeDeclarationEENS_18PairFirstExtractorIS6_EE
__ZN7WebCore23SubresourceLoaderClient15willSendRequestEPNS_17SubresourceLoaderERNS_15ResourceRequestERKNS_16ResourceResponseE
__ZN7WebCore16JSDOMWindowShell15unwrappedObjectEv
__ZNK3JSC14JSGlobalObject14isGlobalObjectEv
__ZNK7WebCore11JSDOMWindow9classInfoEv
__ZN7WebCore26setJSHTMLScriptElementTypeEPN3JSC9ExecStateEPNS0_8JSObjectENS0_7JSValueE
__ZN7WebCore17HTMLScriptElement7setTypeERKNS_6StringE
__ZN7WebCore14ResourceHandle16setDefersLoadingEb
__ZNK7WebCore16RunLoopTimerBase8isActiveEv
__ZN7WebCore39jsDOMWindowPrototypeFunctionSetIntervalEPN3JSC9ExecStateEPNS0_8JSObjectENS0_7JSValueERKNS0_7ArgListE
__ZN7WebCore11JSDOMWindow11setIntervalEPN3JSC9ExecStateERKNS1_7ArgListE
__ZN7WebCore9DOMWindow11setIntervalEN3WTF10PassOwnPtrINS_15ScheduledActionEEEiRi
__ZN7WebCore19CachedCSSStyleSheet4dataEN3WTF10PassRefPtrINS_12SharedBufferEEEb
__ZN7WebCore19TextResourceDecoder18checkForCSSCharsetEPKcmRb
__ZN7WebCore19CachedCSSStyleSheet11checkNotifyEv
__ZThn120_N7WebCore15HTMLLinkElement16setCSSStyleSheetERKNS_6StringERKNS_4KURLES3_PKNS_19CachedCSSStyleSheetE
__ZN7WebCore15HTMLLinkElement16setCSSStyleSheetERKNS_6StringERKNS_4KURLES3_PKNS_19CachedCSSStyleSheetE
__ZNK7WebCore19CachedCSSStyleSheet9sheetTextEbPb
__ZNK7WebCore19CachedCSSStyleSheet11canUseSheetEbPb
__ZN7WebCore28extractMIMETypeFromMediaTypeERKNS_6StringE
__ZN3WTF6VectorItLm64EE15reserveCapacityEm
__ZN3WTF6VectorItLm64EE6shrinkEm
__ZN7WebCore15FontFamilyValue20appendSpaceSeparatedEPKtj
__ZN7WebCore9CSSParser9parseFontEb
__ZN7WebCore9CSSParser11parseShadowEib
__ZN7WebCore18ShadowParseContext11commitValueEv
__ZN7WebCore11ShadowValueC1EN3WTF10PassRefPtrINS_17CSSPrimitiveValueEEES4_S4_S4_S4_S4_
__ZN7WebCore11ShadowValueC2EN3WTF10PassRefPtrINS_17CSSPrimitiveValueEEES4_S4_S4_S4_S4_
__ZNK7WebCore14SecurityOrigin10canRequestERKNS_4KURLE
__ZN7WebCore15HTMLLinkElement11sheetLoadedEv
__ZNK7WebCore15HTMLLinkElement9isLoadingEv
__ZNK7WebCore15HTMLLinkElement5sheetEv
__ZNK7WebCore15FontDescription13lighterWeightEv
__ZN7WebCore12RenderObject24repaintOverhangingFloatsEb
__ZNK7WebCore10XSSAuditor28canLoadExternalScriptFromSrcERKNS_6StringES3_
__ZNK7WebCore10XSSAuditor20isSameOriginResourceERKNS_6StringE
__ZNK7WebCore4KURL5queryEv
__ZN3WTF5DequeIN7WebCore20CachedResourceHandleINS1_12CachedScriptEEEE14expandCapacityEv
__ZN7WebCore14PreloadScannerC1EPNS_8DocumentE
__ZN7WebCore14PreloadScannerC2EPNS_8DocumentE
__ZN7WebCore14PreloadScanner5beginEv
__ZN7WebCore14PreloadScanner5resetEv
__ZN3WTF6VectorItLm16EE14shrinkCapacityEm
__ZN7WebCore14PreloadScanner5writeERKNS_15SegmentedStringE
__ZN7WebCore14PreloadScanner8tokenizeERKNS_15SegmentedStringE
__ZN7WebCore14PreloadScanner7emitTagEv
__ZN7WebCore14PreloadScanner16processAttributeEv
__ZN7WebCore15AffineTransformC1Ev
__ZN7WebCore15AffineTransformC2Ev
__ZN7WebCore15AffineTransform15scaleNonUniformEdd
__ZN7WebCore15AffineTransform5scaleEdd
__ZN7WebCore5Image11drawPatternEPNS_15GraphicsContextERKNS_9FloatRectERKNS_15AffineTransformERKNS_10FloatPointENS_10ColorSpaceE
__ZN7WebCore11BitmapImage26nativeImageForCurrentFrameEv
__ZNK7WebCore15AffineTransform12isInvertibleEv
__ZNK7WebCore15AffineTransform3detEv
__ZN7WebCore7Console15disconnectFrameEv
__ZN7WebCore17RedirectScheduler16scheduleRedirectEdRKNS_6StringE
__ZN7WebCore17RedirectScheduler8scheduleEN3WTF10PassOwnPtrINS_19ScheduledNavigationEEE
__ZNK7WebCore11FrameLoader10isCompleteEv
__ZNK7WebCore17ScheduledRedirect16isLocationChangeEv
__ZN7WebCore17ScheduledRedirect16shouldStartTimerEPNS_5FrameE
__ZNK7WebCore11FrameLoader23allAncestorsAreCompleteEv
__ZThn24_N7WebCore13HTMLTokenizer14notifyFinishedEPNS_14CachedResourceE
__ZN7WebCore13HTMLTokenizer14notifyFinishedEPNS_14CachedResourceE
__ZN7WebCore13HTMLTokenizer29executeExternalScriptsIfReadyEv
__ZN7WebCore13HTMLTokenizer32continueExecutingExternalScriptsEd
__ZN7WebCore36jsHTMLDocumentPrototypeFunctionWriteEPN3JSC9ExecStateEPNS0_8JSObjectENS0_7JSValueERKNS0_7ArgListE
__ZN7WebCore14JSHTMLDocument5writeEPN3JSC9ExecStateERKNS1_7ArgListE
__ZN7WebCoreL13documentWriteEPN3JSC9ExecStateERKNS0_7ArgListEPNS_12HTMLDocumentENS_18NewlineRequirementE
__ZN7WebCore8Document5writeERKNS_15SegmentedStringEPS0_
__ZN7WebCore13HTMLTokenizer15asHTMLTokenizerEv
__ZNK7WebCore13HTMLTokenizer16forceSynchronousEv
__ZN7WebCore15SegmentedString21setExcludeLineNumbersEv
__ZN7WebCore14PreloadScannerD1Ev
__ZN7WebCore14PreloadScannerD2Ev
__ZN7WebCore22ScheduledURLNavigation13didStartTimerEPNS_5FrameEPNS_5TimerINS_17RedirectSchedulerEEE
__ZNK7WebCore9TimerBase16nextFireIntervalEv
__ZN7WebCore11FrameLoader16clientRedirectedERKNS_4KURLEddb
__ZN7WebCore11RenderTable19paintBoxDecorationsERNS_12RenderObject9PaintInfoEii
__ZN7WebCore5TimerINS_17RedirectSchedulerEE5firedEv
__ZN7WebCore17RedirectScheduler10timerFiredEPNS_5TimerIS0_EE
__ZN7WebCore22ScheduledURLNavigation4fireEPNS_5FrameE
__ZN7WebCore11FrameLoader14changeLocationERKNS_4KURLERKNS_6StringEbbbb
__ZN7WebCore16ScriptController22executeIfJavaScriptURLERKNS_4KURLEbb
__ZN7WebCore11FrameLoader11urlSelectedERKNS_15ResourceRequestERKNS_6StringEN3WTF10PassRefPtrINS_5EventEEEbbbNS_14ReferrerPolicy
__ZN7WebCore11FrameLoader16loadFrameRequestERKNS_16FrameLoadRequestEbbN3WTF10PassRefPtrINS_5EventEEENS5_INS_9FormStateEEENS_14R
__ZN7WebCore17ScheduledRedirectD0Ev
__ZThn8_N7WebCore17HTMLScriptElementD0Ev
__ZN7WebCore17HTMLScriptElementD0Ev
__ZN7WebCore17ScriptElementDataD1Ev
__ZN7WebCore17ScriptElementDataD2Ev
__ZN7WebCoreL32createHTMLFrameSetElementWrapperEPN3JSC9ExecStateEPNS_17JSDOMGlobalObjectEN3WTF10PassRefPtrINS_11HTMLElementEEE
__ZN7WebCore21JSHTMLFrameSetElement15createPrototypeEPN3JSC9ExecStateEPNS1_14JSGlobalObjectE
__ZN7WebCore21JSHTMLFrameSetElementC1EN3WTF17NonNullPassRefPtrIN3JSC9StructureEEEPNS_17JSDOMGlobalObjectENS1_10PassRefPtrINS_19
__ZN7WebCore21JSHTMLFrameSetElementC2EN3WTF17NonNullPassRefPtrIN3JSC9StructureEEEPNS_17JSDOMGlobalObjectENS1_10PassRefPtrINS_19
__ZN7WebCore21JSHTMLFrameSetElement18getOwnPropertySlotEPN3JSC9ExecStateERKNS1_10IdentifierERNS1_12PropertySlotE
__ZN7WebCore21JSHTMLFrameSetElement18canGetItemsForNameEPN3JSC9ExecStateEPNS_19HTMLFrameSetElementERKNS1_10IdentifierE
__ZN7WebCore11HTMLElement8childrenEv
__ZNK7WebCore14HTMLCollection9namedItemERKNS_12AtomicStringE
__ZNK7WebCore14HTMLCollection17checkForNameMatchEPNS_7ElementEbRKNS_12AtomicStringE
__ZNK7WebCore21JSHTMLFrameSetElement9classInfoEv
__ZN7WebCore21JSHTMLFrameSetElement3putEPN3JSC9ExecStateERKNS1_10IdentifierENS1_7JSValueERNS1_15PutPropertySlotE
__ZN7WebCoreL29createHTMLFrameElementWrapperEPN3JSC9ExecStateEPNS_17JSDOMGlobalObjectEN3WTF10PassRefPtrINS_11HTMLElementEEE
__ZN7WebCore18JSHTMLFrameElement15createPrototypeEPN3JSC9ExecStateEPNS1_14JSGlobalObjectE
__ZN7WebCore18JSHTMLFrameElementC1EN3WTF17NonNullPassRefPtrIN3JSC9StructureEEEPNS_17JSDOMGlobalObjectENS1_10PassRefPtrINS_16HTM
__ZN7WebCore18JSHTMLFrameElementC2EN3WTF17NonNullPassRefPtrIN3JSC9StructureEEEPNS_17JSDOMGlobalObjectENS1_10PassRefPtrINS_16HTM
__ZN7WebCore18JSHTMLFrameElement18getOwnPropertySlotEPN3JSC9ExecStateERKNS1_10IdentifierERNS1_12PropertySlotE
__ZN7WebCore27JSHTMLFrameElementPrototype18getOwnPropertySlotEPN3JSC9ExecStateERKNS1_10IdentifierERNS1_12PropertySlotE
__ZNK7WebCore18JSHTMLFrameElement9classInfoEv
__ZN7WebCore18JSHTMLFrameElement3putEPN3JSC9ExecStateERKNS1_10IdentifierENS1_7JSValueERNS1_15PutPropertySlotE
__ZN7WebCore15HTMLFormElementD0Ev
__ZN7WebCore15FormDataBuilderD1Ev
__ZN7WebCore15FormDataBuilderD2Ev
__ZN3WTF6VectorIPN7WebCore22HTMLFormControlElementELm0EE6shrinkEm
__ZN7WebCore11HistoryItem6setURLERKNS_4KURLE
__ZN7WebCore11HistoryItem18clearDocumentStateEv
__ZN7WebCore6Widget16removeFromParentEv
__ZN7WebCore10ScrollView11removeChildEPNS_6WidgetE
__ZN3WTF9HashTableINS_6RefPtrIN7WebCore6WidgetEEES4_NS_17IdentityExtractorIS4_EENS_7PtrHashIS4_EENS_10HashTraitsIS4_EESA_E4find
__ZN3WTF9HashTableINS_6RefPtrIN7WebCore6WidgetEEES4_NS_17IdentityExtractorIS4_EENS_7PtrHashIS4_EENS_10HashTraitsIS4_EESA_E47rem
__ZN3WTF9HashTableINS_6RefPtrIN7WebCore6WidgetEEES4_NS_17IdentityExtractorIS4_EENS_7PtrHashIS4_EENS_10HashTraitsIS4_EESA_E6remo
__ZN7WebCore10ScrollView19platformRemoveChildEPNS_6WidgetE
__ZN7WebCore6Widget19removeFromSuperviewEv
__ZN7WebCoreL23safeRemoveFromSuperviewEP6NSView
__ZN7WebCore12RenderWidget11clearWidgetEv
__ZNK7WebCore9RenderBox18absoluteContentBoxEv
__ZN7WebCore11FrameLoader33clientRedirectCancelledOrFinishedEb
__ZN7WebCoreL29isSupportedJavaScriptLanguageERKNS_6StringE
__ZN7WebCore38jsHTMLDocumentPrototypeFunctionWritelnEPN3JSC9ExecStateEPNS0_8JSObjectENS0_7JSValueERKNS0_7ArgListE
__ZN7WebCore14JSHTMLDocument7writelnEPN3JSC9ExecStateERKNS1_7ArgListE
__ZThn8_N7WebCore11HTMLElementD0Ev
__ZN7WebCore14RenderFrameSet17paintColumnBorderERKNS_12RenderObject9PaintInfoERKNS_7IntRectE
__ZN7WebCore14RenderFrameSet14paintRowBorderERKNS_12RenderObject9PaintInfoERKNS_7IntRectE
__ZN7WebCoreL15borderFillColorEv
__ZN7WebCoreL20borderStartEdgeColorEv
__ZN7WebCoreL18borderEndEdgeColorEv
__ZN7WebCore18jsNavigatorPluginsEPN3JSC9ExecStateENS0_7JSValueERKNS0_10IdentifierE
__ZNK7WebCore9Navigator7pluginsEv
__ZN7WebCore11PluginArrayC1EPNS_5FrameE
__ZN7WebCore11PluginArrayC2EPNS_5FrameE
__ZN7WebCore4toJSEPN3JSC9ExecStateEPNS_17JSDOMGlobalObjectEPNS_11PluginArrayE
__ZN7WebCore13JSPluginArray15createPrototypeEPN3JSC9ExecStateEPNS1_14JSGlobalObjectE
__ZN7WebCore13JSPluginArrayC1EN3WTF17NonNullPassRefPtrIN3JSC9StructureEEEPNS_17JSDOMGlobalObjectENS1_10PassRefPtrINS_11PluginAr
__ZN7WebCore13JSPluginArrayC2EN3WTF17NonNullPassRefPtrIN3JSC9StructureEEEPNS_17JSDOMGlobalObjectENS1_10PassRefPtrINS_11PluginAr
__ZN7WebCore13JSPluginArray18getOwnPropertySlotEPN3JSC9ExecStateERKNS1_10IdentifierERNS1_12PropertySlotE
__ZN7WebCore19jsPluginArrayLengthEPN3JSC9ExecStateENS0_7JSValueERKNS0_10IdentifierE
__ZNK7WebCore11PluginArray6lengthEv
__ZNK7WebCore11PluginArray13getPluginDataEv
__ZN7WebCore13JSPluginArray18getOwnPropertySlotEPN3JSC9ExecStateEjRNS1_12PropertySlotE
__ZN7WebCore13JSPluginArray11indexGetterEPN3JSC9ExecStateENS1_7JSValueEj
__ZN7WebCore11PluginArray4itemEj
__ZN7WebCore8JSPlugin18getOwnPropertySlotEPN3JSC9ExecStateERKNS1_10IdentifierERNS1_12PropertySlotE
__ZN7WebCore12jsPluginNameEPN3JSC9ExecStateENS0_7JSValueERKNS0_10IdentifierE
__ZNK7WebCore6Plugin4nameEv
__ZN7WebCore15HTMLFontElement26cssValueFromFontSizeNumberERKNS_6StringERi
__ZN7WebCoreL17objectConstructorERKNS_13QualifiedNameEPNS_8DocumentEPNS_15HTMLFormElementEb
__ZN7WebCore17HTMLObjectElement6createERKNS_13QualifiedNameEPNS_8DocumentEb
__ZN7WebCore22HTMLPlugInImageElementC2ERKNS_13QualifiedNameEPNS_8DocumentE
__ZN7WebCore17HTMLPlugInElementC2ERKNS_13QualifiedNameEPNS_8DocumentE
__ZNK7WebCore17HTMLPlugInElement10mapToEntryERKNS_13QualifiedNameERNS_20MappedAttributeEntryE
__ZN7WebCore17HTMLObjectElement20parseMappedAttributeEPNS_15MappedAttributeE
__ZN7WebCore22HTMLPlugInImageElement11isImageTypeEv
__ZN7WebCore16MIMETypeRegistry24isSupportedImageMIMETypeERKNS_6StringE
__ZN7WebCore17HTMLPlugInElement20parseMappedAttributeEPNS_15MappedAttributeE
__ZNK7WebCore17HTMLPlugInElement17endTagRequirementEv
__ZNK7WebCore17HTMLObjectElement11tagPriorityEv
__ZN7WebCore17HTMLObjectElement20insertedIntoDocumentEv
__ZN7WebCore17HTMLObjectElement6attachEv
__ZN7WebCore17HTMLPlugInElement20updateWidgetCallbackEPNS_4NodeE
__ZN7WebCore17HTMLObjectElement12updateWidgetEv
__ZN7WebCore17HTMLPlugInElement8checkDTDEPKNS_4NodeE
__ZN7WebCore17HTMLObjectElement15childrenChangedEbPNS_4NodeES2_i
__ZN7WebCore17HTMLObjectElement18updateDocNamedItemEv
__ZN7WebCoreL16paramConstructorERKNS_13QualifiedNameEPNS_8DocumentEPNS_15HTMLFormElementEb
__ZN7WebCore16HTMLParamElementC1ERKNS_13QualifiedNameEPNS_8DocumentE
__ZN7WebCore16HTMLParamElementC2ERKNS_13QualifiedNameEPNS_8DocumentE
__ZN7WebCore16HTMLParamElement20parseMappedAttributeEPNS_15MappedAttributeE
__ZNK7WebCore16HTMLParamElement17endTagRequirementEv
__ZNK7WebCore16HTMLParamElement11tagPriorityEv
__ZN7WebCore11HTMLElement19isRecognizedTagNameERKNS_13QualifiedNameE
__ZN7WebCore9HTMLNames11getHTMLTagsEPm
__ZN7WebCoreL16embedConstructorERKNS_13QualifiedNameEPNS_8DocumentEPNS_15HTMLFormElementEb
__ZN7WebCore16HTMLEmbedElement6createERKNS_13QualifiedNameEPNS_8DocumentE
__ZN7WebCore16HTMLEmbedElement16attributeChangedEPNS_9AttributeEb
__ZNK7WebCore16HTMLEmbedElement10mapToEntryERKNS_13QualifiedNameERNS_20MappedAttributeEntryE
__ZN7WebCore16HTMLEmbedElement20parseMappedAttributeEPNS_15MappedAttributeE
__ZNK7WebCore16HTMLEmbedElement17endTagRequirementEv
__ZNK7WebCore16HTMLEmbedElement11tagPriorityEv
__ZN7WebCore16HTMLEmbedElement20insertedIntoDocumentEv
__ZN7WebCore16HTMLEmbedElement6attachEv
__ZN7WebCore16HTMLEmbedElement12updateWidgetEv
__ZN7WebCore17HTMLObjectElement11recalcStyleENS_4Node11StyleChangeE
__ZN7WebCore17HTMLObjectElement21finishParsingChildrenEv
__ZN7WebCore15FormDataBuilder15parseMethodTypeERKNS_6StringE
__ZN7WebCore9CSSParser15parseMediaQueryEPNS_9MediaListERKNS_6StringE
__ZN7WebCore12TextIterator21handleReplacedElementEv
__ZNK7WebCore8CSSValue12cssValueTypeEv
__ZNK7WebCore9FontValue11isFontValueEv
__ZN7WebCore17HTMLObjectElement6detachEv
__ZN7WebCore17HTMLPlugInElement6detachEv
__ZNK7WebCore18NamedMappedAttrMap14mapsEquivalentEPKS0_
__ZNK7WebCore18NamedMappedAttrMap9declCountEv
__ZN7WebCore17HTMLObjectElement16rendererIsNeededEPNS_11RenderStyleE
__ZN7WebCore17HTMLObjectElement14createRendererEPNS_11RenderArenaEPNS_11RenderStyleE
__ZN7WebCore20RenderEmbeddedObjectC1EPNS_7ElementE
__ZN7WebCore20RenderEmbeddedObjectC2EPNS_7ElementE
__ZNK7WebCore20RenderEmbeddedObject13requiresLayerEv
__ZNK7WebCore20RenderEmbeddedObject28allowsAcceleratedCompositingEv
__ZNK7WebCore14RenderReplaced15canHaveChildrenEv
__ZN7WebCore20RenderEmbeddedObject12updateWidgetEb
__ZN7WebCoreL12isURLAllowedEPNS_8DocumentERKNS_6StringE
__ZN3WTF9HashTableIPN7WebCore10StringImplES3_NS_17IdentityExtractorIS3_EENS1_15CaseFoldingHashENS_10HashTraitsIS3_EES8_E15deall
__ZN7WebCore14RenderReplaced14calcPrefWidthsEv
__ZN7WebCore20RenderEmbeddedObject6layoutEv
__ZN7WebCore9FrameView17addWidgetToUpdateEPNS_20RenderEmbeddedObjectE
__ZN3WTF7HashSetIPN7WebCore20RenderEmbeddedObjectENS_7PtrHashIS3_EENS_10HashTraitsIS3_EEE3addERKS3_
__ZN3WTF9HashTableIPN7WebCore20RenderEmbeddedObjectES3_NS_17IdentityExtractorIS3_EENS_7PtrHashIS3_EENS_10HashTraitsIS3_EES9_E6e
__ZN3WTF9HashTableIPN7WebCore20RenderEmbeddedObjectES3_NS_17IdentityExtractorIS3_EENS_7PtrHashIS3_EENS_10HashTraitsIS3_EES9_E6r
__ZN3WTF9HashTableIPN7WebCore20RenderEmbeddedObjectES3_NS_17IdentityExtractorIS3_EENS_7PtrHashIS3_EENS_10HashTraitsIS3_EES9_E13
__ZN3WTF9HashTableIPN7WebCore20RenderEmbeddedObjectES3_NS_17IdentityExtractorIS3_EENS_7PtrHashIS3_EENS_10HashTraitsIS3_EES9_E15
__ZN3WTF6VectorIPN7WebCore20RenderEmbeddedObjectELm0EE15reserveCapacityEm
__ZN7WebCore11FrameLoader13requestObjectEPNS_20RenderEmbeddedObjectERKNS_6StringERKNS_12AtomicStringES5_RKN3WTF6VectorIS3_Lm0EE
__ZNK7WebCore10XSSAuditor13canLoadObjectERKNS_6StringE
__ZN7WebCore11FrameLoader15shouldUsePluginERKNS_4KURLERKNS_6StringEbRb
__ZNK7WebCore11FrameLoader19isDocumentSandboxedEi
__ZN7WebCore11FrameLoader10loadPluginEPNS_20RenderEmbeddedObjectERKNS_4KURLERKNS_6StringERKN3WTF6VectorIS6_Lm0EEESD_b
__ZNK7WebCore12RenderWidget14windowClipRectEv
__ZNK7WebCore9FrameView14windowClipRectEb
__ZNK7WebCore10ScrollView16contentsToWindowERKNS_7IntRectE
__ZNK7WebCore6Widget25convertToContainingWindowERKNS_7IntRectE
__ZNK7WebCore9FrameView23convertToContainingViewERKNS_7IntRectE
__ZNK7WebCore9FrameView19convertFromRendererEPKNS_12RenderObjectERKNS_7IntRectE
__ZN7WebCore6Widget33convertFromRootToContainingWindowEPKS0_RKNS_7IntRectE
__ZNK7WebCore9FrameView22windowClipRectForLayerEPKNS_11RenderLayerEb
__ZN7WebCore4Page14didStartPluginEPNS_14HaltablePluginE
__ZN7WebCore12PluginHalter14didStartPluginEPNS_14HaltablePluginE
__ZN7WebCore20RenderEmbeddedObject11viewClearedEv
__ZN3WTF9HashTableIPN7WebCore20RenderEmbeddedObjectES3_NS_17IdentityExtractorIS3_EENS_7PtrHashIS3_EENS_10HashTraitsIS3_EES9_E4f
__ZN3WTF9HashTableIPN7WebCore20RenderEmbeddedObjectES3_NS_17IdentityExtractorIS3_EENS_7PtrHashIS3_EENS_10HashTraitsIS3_EES9_E47
__ZN3WTF6VectorIPN7WebCore20RenderEmbeddedObjectELm0EE6shrinkEm
__ZN7WebCore31setJSCSSStyleDeclarationCssTextEPN3JSC9ExecStateEPNS0_8JSObjectENS0_7JSValueE
__ZN7WebCore26CSSMutableStyleDeclaration10setCssTextERKNS_6StringERi
__ZN7WebCore18jsNavigatorAppNameEPN3JSC9ExecStateENS0_7JSValueERKNS0_10IdentifierE
__ZNK7WebCore13NavigatorBase7appNameEv
__ZN7WebCore16HTMLEmbedElement16rendererIsNeededEPNS_11RenderStyleE
__ZN7WebCore16HTMLEmbedElement14createRendererEPNS_11RenderArenaEPNS_11RenderStyleE
__ZN7WebCoreL29createHTMLEmbedElementWrapperEPN3JSC9ExecStateEPNS_17JSDOMGlobalObjectEN3WTF10PassRefPtrINS_11HTMLElementEEE
__ZN7WebCore18JSHTMLEmbedElement15createPrototypeEPN3JSC9ExecStateEPNS1_14JSGlobalObjectE
__ZN7WebCore18JSHTMLEmbedElementC1EN3WTF17NonNullPassRefPtrIN3JSC9StructureEEEPNS_17JSDOMGlobalObjectENS1_10PassRefPtrINS_16HTM
__ZN7WebCore18JSHTMLEmbedElementC2EN3WTF17NonNullPassRefPtrIN3JSC9StructureEEEPNS_17JSDOMGlobalObjectENS1_10PassRefPtrINS_16HTM
__ZN7WebCore18JSHTMLEmbedElement18getOwnPropertySlotEPN3JSC9ExecStateERKNS1_10IdentifierERNS1_12PropertySlotE
__ZN7WebCore18JSHTMLEmbedElement26getOwnPropertySlotDelegateEPN3JSC9ExecStateERKNS1_10IdentifierERNS1_12PropertySlotE
__ZN7WebCore37runtimeObjectCustomGetOwnPropertySlotEPN3JSC9ExecStateERKNS0_10IdentifierERNS0_12PropertySlotEPNS_13JSHTMLElement
__ZN7WebCoreL16getRuntimeObjectEPN3JSC9ExecStateEPNS_4NodeE
__ZN7WebCore14pluginInstanceEPNS_4NodeE
__ZNK7WebCore17HTMLPlugInElement11getInstanceEv
__ZNK7WebCore16HTMLEmbedElement25renderWidgetForJSBindingsEv
__ZN7WebCore16ScriptController29createScriptInstanceForWidgetEPNS_6WidgetE
__ZN7WebCore16ScriptController16createRootObjectEPv
__ZN3WTF7HashMapIPvNS_6RefPtrIN3JSC8Bindings10RootObjectEEENS_7PtrHashIS1_EENS_10HashTraitsIS1_EENS9_IS6_EEE3setERKS1_RKS6_
__ZN3WTF9HashTableIPvSt4pairIS1_NS_6RefPtrIN3JSC8Bindings10RootObjectEEEENS_18PairFirstExtractorIS8_EENS_7PtrHashIS1_EENS_14Pai
__ZN7WebCore27JSHTMLEmbedElementPrototype18getOwnPropertySlotEPN3JSC9ExecStateERKNS1_10IdentifierERNS1_12PropertySlotE
__ZN7WebCore21HTMLFrameOwnerElement10willRemoveEv
__ZN7WebCore12RenderWidget7destroyEv
__ZN7WebCore10RenderView12removeWidgetEPNS_12RenderWidgetE
__ZN3WTF9HashTableIPN7WebCore12RenderWidgetES3_NS_17IdentityExtractorIS3_EENS_7PtrHashIS3_EENS_10HashTraitsIS3_EES9_E4findIS3_N
__ZN3WTF9HashTableIPN7WebCore12RenderWidgetES3_NS_17IdentityExtractorIS3_EENS_7PtrHashIS3_EENS_10HashTraitsIS3_EES9_E47removeAn
__ZN3WTF9HashTableIPN7WebCore12RenderWidgetES3_NS_17IdentityExtractorIS3_EENS_7PtrHashIS3_EENS_10HashTraitsIS3_EES9_E6removeEPS
__ZN3WTF7HashMapINS_6RefPtrIN7WebCore6WidgetEEEPNS2_9FrameViewENS_7PtrHashIS4_EENS_10HashTraitsIS4_EENS9_IS6_EEE3setEPS3_RKS6_
__ZN3WTF9HashTableINS_6RefPtrIN7WebCore6WidgetEEESt4pairIS4_PNS2_9FrameViewEENS_18PairFirstExtractorIS8_EENS_7PtrHashIS4_EENS_1
__ZN7WebCore20RenderEmbeddedObjectD0Ev
__ZN7WebCore9FrameView20removeWidgetToUpdateEPNS_20RenderEmbeddedObjectE
__ZN7WebCore10RenderPartD2Ev
__ZN7WebCore12RenderWidgetD2Ev
__ZN7WebCore16HTMLEmbedElement19removedFromDocumentEv
__ZN7WebCore41jsDOMWindowPrototypeFunctionClearIntervalEPN3JSC9ExecStateEPNS0_8JSObjectENS0_7JSValueERKNS0_7ArgListE
__ZN7WebCore9DOMWindow13clearIntervalEi
__ZN7WebCore5TimerINS_12IconDatabaseEE5firedEv
__ZN7WebCore12IconDatabase14syncTimerFiredEPNS_5TimerIS0_EE
__ZN3WTF6VectorIN7WebCore15PageURLSnapshotELm0EE14expandCapacityEmPKS2_
__ZN3WTF6VectorIN7WebCore15PageURLSnapshotELm0EE14expandCapacityEm
__ZN3WTF6VectorIN7WebCore15PageURLSnapshotELm0EE15reserveCapacityEm
__ZN7WebCore12IconDatabase33setIconURLForPageURLInSQLDatabaseERKNS_6StringES3_
__ZN7WebCore12IconDatabase34getIconIDForIconURLFromSQLDatabaseERKNS_6StringE
__ZN7WebCore15SQLiteStatement14getColumnInt64Ei
__ZN7WebCore12IconDatabase32setIconIDForPageURLInSQLDatabaseExRKNS_6StringE
__ZN7WebCore15SQLiteStatement9bindInt64Eix
__ZN7WebCoreL17canAccessAncestorEPKNS_14SecurityOriginEPNS_5FrameE
__ZN7WebCore14ResourceLoader6cancelEv
__ZN7WebCore14ResourceLoader6cancelERKNS_13ResourceErrorE
__ZN7WebCore14ResourceLoader14cancelledErrorEv
__ZNK7WebCore11FrameLoader14cancelledErrorERKNS_15ResourceRequestE
__ZN7WebCore18MainResourceLoader9didCancelERKNS_13ResourceErrorE
__ZN7WebCore11FrameLoader25receivedMainResourceErrorERKNS_13ResourceErrorEb
__ZN7WebCore11FrameLoader4stopEv
__ZNK7WebCore17ResourceErrorBase8lazyInitEv
__ZN7WebCore13ResourceError16platformLazyInitEv
__ZN7WebCore17HistoryController31invalidateCurrentItemCachedPageEv
__ZN7WebCore14DocumentLoader17mainReceivedErrorERKNS_13ResourceErrorEb
__ZN7WebCore20ApplicationCacheHost25failedLoadingMainResourceEv
__ZN7WebCore14DocumentLoader20setMainDocumentErrorERKNS_13ResourceErrorE
__ZN7WebCore11FrameLoader20setMainDocumentErrorEPNS_14DocumentLoaderERKNS_13ResourceErrorE
__ZNK7WebCore13ResourceErrorcvP7NSErrorEv
__ZN7WebCore11FrameLoader25mainReceivedCompleteErrorEPNS_14DocumentLoaderERKNS_13ResourceErrorE
__ZN7WebCore11FrameLoader20clearProvisionalLoadEv
__ZN7WebCore14ResourceLoader9didCancelERKNS_13ResourceErrorE
__ZN7WebCore14ResourceHandle19clearAuthenticationEv
__ZN7WebCore27AuthenticationChallengeBase7nullifyEv
__ZN7WebCore14DocumentLoader27cancelPendingSubstituteLoadEPNS_14ResourceLoaderE
__ZN7WebCore14ResourceHandle6cancelEv
__ZN7WebCore20ResourceLoadNotifier13didFailToLoadEPNS_14ResourceLoaderERKNS_13ResourceErrorE
__ZN7WebCore19InspectorController14didFailLoadingEmRKNS_13ResourceErrorE
__ZN7WebCore12IconDatabase28removePageURLFromSQLDatabaseERKNS_6StringE
__ZN7WebCore20RenderEmbeddedObject5paintERNS_12RenderObject9PaintInfoEii
__ZN7WebCore12IconDatabase24checkForDanglingPageURLsEb
__ZN7WebCore15SQLiteStatement23returnsAtLeastOneResultEv
__ZN3WTF6VectorIN7WebCore15PageURLSnapshotELm0EE6shrinkEm
__ZN7WebCore12IconDatabase20pruneUnretainedIconsEv
__ZNK3WTF9HashTableIN7WebCore6StringESt4pairIS2_PNS1_13PageURLRecordEENS_18PairFirstExtractorIS6_EENS1_10StringHashENS_14PairHa
__ZN7WebCore11HistoryItem12addChildItemEN3WTF10PassRefPtrIS0_EE
__ZNK7WebCore16HTMLInputElement20saveFormControlStateERNS_6StringE
__ZNK7WebCore16HTMLInputElement12defaultValueEv
__ZNK7WebCore11FrameLoader23isHostedByObjectElementEv
__ZN7WebCore16jsLocationSearchEPN3JSC9ExecStateENS0_7JSValueERKNS0_10IdentifierE
__ZNK7WebCore8Location6searchEv
__ZN7WebCoreL16childFrameGetterEPN3JSC9ExecStateENS0_7JSValueERKNS0_10IdentifierE
__ZN7WebCore14JSHTMLDocument10nameGetterEPN3JSC9ExecStateENS1_7JSValueERKNS1_10IdentifierE
__ZN7WebCore8Document18documentNamedItemsERKNS_6StringE
__ZN7WebCore18HTMLNameCollectionC1EN3WTF10PassRefPtrINS_8DocumentEEENS_14CollectionTypeERKNS_6StringE
__ZN7WebCore18HTMLNameCollectionC2EN3WTF10PassRefPtrINS_8DocumentEEENS_14CollectionTypeERKNS_6StringE
__ZN7WebCore8Document18nameCollectionInfoENS_14CollectionTypeERKNS_12AtomicStringE
__ZN3WTF7HashMapIPN7WebCore16AtomicStringImplEPNS1_15CollectionCacheENS_7PtrHashIS3_EENS_10HashTraitsIS3_EENS8_IS5_EEE3addERKS3
__ZNK7WebCore18HTMLNameCollection9itemAfterEPNS_7ElementE
__ZNK7WebCore14HTMLCollection9firstItemEv
__ZN7WebCore18HTMLNameCollectionD0Ev
__ZN7WebCore26setJSHTMLFormElementActionEPN3JSC9ExecStateEPNS0_8JSObjectENS0_7JSValueE
__ZN7WebCore15HTMLFormElement9setActionERKNS_6StringE
__ZN7WebCore40jsHTMLFormElementPrototypeFunctionSubmitEPN3JSC9ExecStateEPNS0_8JSObjectENS0_7JSValueERKNS0_7ArgListE
__ZN7WebCore14toDynamicFrameEPN3JSC9ExecStateE
__ZN7WebCore15HTMLFormElement6submitEPNS_5FrameE
__ZNK7WebCore16ScriptController30anyPageIsProcessingUserGestureEv
__ZN7WebCore5Event15fromUserGestureEv
__ZNK7WebCore16ScriptController28isJavaScriptAnchorNavigationEv
__ZN7WebCore15HTMLFormElement6submitEPNS_5EventEbbNS_21FormSubmissionTriggerE
__ZN7WebCore9FormState6createEN3WTF10PassRefPtrINS_15HTMLFormElementEEERNS1_6VectorISt4pairINS_6StringES7_ELm0EEENS2_INS_5Frame
__ZN7WebCore15HTMLFormElement14createFormDataEv
__ZNK7WebCore15HTMLFormElement12dataEncodingEv
__ZNK7WebCore15HTMLFormElement12isMailtoFormEv
__ZNK7WebCore15FormDataBuilder12dataEncodingEPNS_8DocumentE
__ZN7WebCore11DOMFormDataC1ERKNS_12TextEncodingE
__ZN7WebCore11DOMFormDataC2ERKNS_12TextEncodingE
__ZN7WebCore12FormDataListC2ERKNS_12TextEncodingE
__ZN7WebCore16HTMLInputElement14appendFormDataERNS_12FormDataListEb
__ZN7WebCore12FormDataList12appendStringERKNS_6StringE
__ZNK7WebCore12TextEncoding6encodeEPKtmNS_19UnencodableHandlingE
__ZN7WebCore15TextCodecLatin16encodeEPKtmNS_19UnencodableHandlingE
__ZN3WTF6VectorIN7WebCore12FormDataList4ItemELm0EE14expandCapacityEm
__ZN3WTF6VectorIN7WebCore12FormDataList4ItemELm0EE15reserveCapacityEm
__ZN7WebCore8FormData6createERKNS_11DOMFormDataE
__ZN7WebCore8FormData6createEv
__ZN7WebCore8FormData17appendDOMFormDataERKNS_11DOMFormDataEbPNS_8DocumentE
__ZN7WebCore15FormDataBuilder25addKeyValuePairAsFormDataERN3WTF6VectorIcLm0EEERKNS1_7CStringES7_
__ZN7WebCore15FormDataBuilder22encodeStringAsFormDataERN3WTF6VectorIcLm0EEERKNS1_7CStringE
__ZN7WebCore8FormData10appendDataEPKvm
__ZN3WTF6VectorIN7WebCore15FormDataElementELm0EE14expandCapacityEmPKS2_
__ZN3WTF6VectorIN7WebCore15FormDataElementELm0EE14expandCapacityEm
__ZN3WTF6VectorIN7WebCore15FormDataElementELm0EE15reserveCapacityEm
__ZN3WTF6VectorIcLm0EEC1ERKS1_
__ZN3WTF6VectorIcLm0EEC2ERKS1_
__ZN7WebCoreL26generateFormDataIdentifierEv
__ZN3WTF6VectorIN7WebCore12FormDataList4ItemELm0EE6shrinkEm
__ZN7WebCore11FrameLoader10submitFormEPKcRKNS_6StringEN3WTF10PassRefPtrINS_8FormDataEEES5_S5_S5_bNS7_INS_5EventEEENS7_INS_9Form
__ZNK7WebCore9FrameTree14isDescendantOfEPKNS_5FrameE
__ZN7WebCore8FormData13generateFilesEPNS_8DocumentE
__ZNK7WebCore8FormData15flattenToStringEv
__ZNK7WebCore8FormData7flattenERN3WTF6VectorIcLm0EEE
__ZN7WebCore4KURL8setQueryERKNS_6StringE
__ZN7WebCore17RedirectScheduler22scheduleFormSubmissionERKNS_16FrameLoadRequestEbN3WTF10PassRefPtrINS_5EventEEENS5_INS_9FormSta
__ZN7WebCore17RedirectScheduler23mustLockBackForwardListEPNS_5FrameE
__ZNK7WebCore19ScheduledNavigation16isLocationChangeEv
__ZN7WebCore19ScheduledNavigation16shouldStartTimerEPNS_5FrameE
__ZN7WebCore19ScheduledNavigation13didStartTimerEPNS_5FrameEPNS_5TimerINS_17RedirectSchedulerEEE
__ZN7WebCore8FormDataD1Ev
__ZN7WebCore8FormDataD2Ev
__ZN7WebCore8FormData28removeGeneratedFilesIfNeededEv
__ZN3WTF6VectorIN7WebCore15FormDataElementELm0EE6shrinkEm
__ZN7WebCore23ScheduledFormSubmission4fireEPNS_5FrameE
__ZN7WebCore13PolicyChecker31continueLoadAfterWillSubmitFormENS_12PolicyActionE
__ZN7WebCore23ScheduledFormSubmissionD0Ev
__ZN7WebCore11FrameLoader19closeAndRemoveChildEPNS_5FrameE
__ZN7WebCore15JSDOMWindowBase25willRemoveFromWindowShellEv
__ZN7WebCore12gcControllerEv
__ZN7WebCore12GCControllerC1Ev
__ZN7WebCore12GCControllerC2Ev
__ZN7WebCore12GCController18garbageCollectSoonEv
__ZN7WebCore9FrameTree11removeChildEPNS_5FrameE
__ZN7WebCore11FrameLoader22scheduleCheckCompletedEv
__ZN7WebCore4Page13didStopPluginEPNS_14HaltablePluginE
__ZN7WebCore12PluginHalter13didStopPluginEPNS_14HaltablePluginE
__ZN7WebCore16ScriptController29cleanupScriptObjectsForPluginEPv
__ZN7WebCore11RenderFrameD0Ev
__ZN7WebCore14RenderFrameSetD0Ev
__ZN7WebCore29CSSMappedAttributeDeclarationD0Ev
__ZN7WebCore13StyledElement25removeMappedAttributeDeclENS_20MappedAttributeEntryERKNS_13QualifiedNameERKNS_12AtomicStringE
__ZN7WebCore15HTMLLinkElementD0Ev
__ZN7WebCore7CommentD0Ev
__ZN7WebCore11CachedImage17allClientsRemovedEv
__ZN7WebCore16StyleCachedImageD0Ev
__ZN7WebCore14CachedResource16deleteIfPossibleEv
__ZN7WebCore15FontFamilyValueD0Ev
__ZN7WebCore9FontValueD0Ev
__ZN7WebCore11ShadowValueD0Ev
__ZN7WebCore8Location15disconnectFrameEv
__ZN7WebCore19SelectionController25setUseSecureKeyboardEntryEb
__ZN7WebCore22disableSecureTextInputEv
__ZNK7WebCore20ResourceResponseBase7expiresEv
__ZNK7WebCore20ResourceResponseBase12lastModifiedEv
__ZN7WebCore5TimerINS_11FrameLoaderEE5firedEv
__ZN7WebCore11FrameLoader15checkTimerFiredEPNS_5TimerIS0_EE
__ZN7WebCore9Navigator15disconnectFrameEv
__ZN7WebCore10IconLoader6createEPNS_5FrameE
__ZN7WebCore10IconLoaderC1EPNS_5FrameE
__ZN7WebCore10IconLoaderC2EPNS_5FrameE
__ZN7WebCore10IconLoader12startLoadingEv
__ZN7WebCore12EventHandler7mouseUpEP7NSEvent
__ZN7WebCore12EventHandler23handleMouseReleaseEventERKNS_18PlatformMouseEventE
__ZN7WebCore11RenderTable11nodeAtPointERKNS_14HitTestRequestERNS_13HitTestResultEiiiiNS_13HitTestActionE
__ZN7WebCore18RenderTableSection11nodeAtPointERKNS_14HitTestRequestERNS_13HitTestResultEiiiiNS_13HitTestActionE
__ZN7WebCore14RenderTableRow11nodeAtPointERKNS_14HitTestRequestERNS_13HitTestResultEiiiiNS_13HitTestActionE
__ZN7WebCore12EventHandler23handleMouseReleaseEventERKNS_28MouseEventWithHitTestResultsE
__ZN7WebCore12EventHandler13handleMouseUpERKNS_28MouseEventWithHitTestResultsE
__ZN7WebCore12EventHandler22eventLoopHandleMouseUpERKNS_28MouseEventWithHitTestResultsE
__ZN7WebCore12EventHandler24mouseDownViewIfStillGoodEv
__ZNK7WebCore12EventHandler18eventActivatedViewERKNS_18PlatformMouseEventE
__ZN7WebCore12EventHandler15invalidateClickEv
__ZN7WebCore10IconLoader18didReceiveResponseEPNS_17SubresourceLoaderERKNS_16ResourceResponseE
__ZN7WebCore10IconLoader13finishLoadingERKNS_4KURLEN3WTF10PassRefPtrINS_12SharedBufferEEE
__ZN7WebCore12IconDatabase21setIconDataForIconURLEN3WTF10PassRefPtrINS_12SharedBufferEEERKNS_6StringE
__ZN3WTF6VectorIN7WebCore6StringELm0EE11appendRangeINS_29HashTableConstIteratorAdapterINS_9HashTableIS2_S2_NS_17IdentityExtract
__ZNK7WebCore10IconRecord8snapshotEb
__ZN3WTF7HashMapIN7WebCore6StringENS1_12IconSnapshotENS1_10StringHashENS_10HashTraitsIS2_EENS5_IS3_EEE3setERKS2_RKS3_
__ZN7WebCore10IconLoader17clearLoadingStateEv
__ZNK7WebCore20ResourceResponseBase14httpStatusTextEv
__ZN7WebCore10IconLoader14didReceiveDataEPNS_17SubresourceLoaderEPKci
__ZN7WebCore10IconLoader16didFinishLoadingEPNS_17SubresourceLoaderE
-[DOMNodeList item:]
-[DOMNode attributes]
__Z3kitPN7WebCore12NamedNodeMapE
-[DOMNamedNodeMap getNamedItem:]
__ZNK7WebCore12NamedNodeMap12getNamedItemERKNS_6StringE
__ZNK7WebCore4Attr8nodeTypeEv
-[DOMNode nodeValue]
__ZNK7WebCore4Attr9nodeValueEv
-[DOMNamedNodeMap dealloc]
__ZN7WebCore13InlineTextBox15paintDecorationEPNS_15GraphicsContextEiiiPKNS_10ShadowDataE
__ZN7WebCore12RenderObject23getTextDecorationColorsEiRNS_5ColorES2_S2_b
__ZN7WebCoreL15decorationColorEPNS_12RenderObjectE
__ZN7WebCoreL28createHTMLLinkElementWrapperEPN3JSC9ExecStateEPNS_17JSDOMGlobalObjectEN3WTF10PassRefPtrINS_11HTMLElementEEE
__ZN7WebCore17JSHTMLLinkElement15createPrototypeEPN3JSC9ExecStateEPNS1_14JSGlobalObjectE
__ZN7WebCore17JSHTMLLinkElementC1EN3WTF17NonNullPassRefPtrIN3JSC9StructureEEEPNS_17JSDOMGlobalObjectENS1_10PassRefPtrINS_15HTML
__ZN7WebCore17JSHTMLLinkElementC2EN3WTF17NonNullPassRefPtrIN3JSC9StructureEEEPNS_17JSDOMGlobalObjectENS1_10PassRefPtrINS_15HTML
__ZN7WebCore17JSHTMLLinkElement18getOwnPropertySlotEPN3JSC9ExecStateERKNS1_10IdentifierERNS1_12PropertySlotE
__ZNK7WebCore17JSHTMLLinkElement9classInfoEv
__ZN7WebCore17JSHTMLLinkElement3putEPN3JSC9ExecStateERKNS1_10IdentifierENS1_7JSValueERNS1_15PutPropertySlotE
__ZN7WebCore19HTMLFrameSetElementD0Ev
__ZN7WebCore16HTMLFrameElementD0Ev
__ZN7WebCore21HTMLFrameOwnerElementD2Ev
__ZN7WebCore17HTMLObjectElementD0Ev
__ZN7WebCore17HTMLPlugInElementD2Ev
__ZN7WebCore16HTMLParamElementD0Ev
__ZN7WebCore16HTMLEmbedElementD0Ev
__ZN7WebCore19CachedCSSStyleSheet17allClientsRemovedEv
__ZN7WebCore20JSNavigatorPrototypeD1Ev
__ZN7WebCore11JSNavigatorD1Ev
__ZN7WebCore11JSNavigatorD2Ev
__ZN7WebCore9NavigatorD0Ev
__ZN7WebCore13NavigatorBaseD2Ev
__ZN7WebCore22JSPluginArrayPrototypeD1Ev
__ZN7WebCore13JSPluginArrayD1Ev
__ZN7WebCore13JSPluginArrayD2Ev
__ZN7WebCore11PluginArrayD1Ev
__ZN7WebCore17JSPluginPrototypeD1Ev
__ZN7WebCore18JSHTMLEmbedElementD1Ev
__ZThn8_N7WebCore16HTMLEmbedElementD0Ev
__ZN7WebCore5Cache5evictEPNS_14CachedResourceE
__ZN7WebCore16JSEventPrototypeD1Ev
__ZThn8_N7WebCore15HTMLFormElementD0Ev
__ZN7WebCore16HTMLTitleElement19removedFromDocumentEv
__ZN7WebCore8Document11removeTitleEPNS_7ElementE
__ZN7WebCore20HTMLFrameElementBase19removedFromDocumentEv
__ZThn8_N7WebCore15HTMLHeadElementD0Ev
__ZThn8_N7WebCore15HTMLMetaElementD0Ev
__ZThn8_N7WebCore16HTMLTitleElementD0Ev
__ZN7WebCore30JSHTMLFrameSetElementPrototypeD1Ev
__ZN7WebCore21JSHTMLFrameSetElementD1Ev
__ZThn8_N7WebCore19HTMLFrameSetElementD0Ev
__ZN7WebCore27JSHTMLFrameElementPrototypeD1Ev
__ZN7WebCore18JSHTMLFrameElementD1Ev
__ZThn8_N7WebCore16HTMLFrameElementD0Ev
__ZN7WebCore5TimerINS_12GCControllerEE5firedEv
__ZN7WebCore12GCController12gcTimerFiredEPNS_5TimerIS0_EE
__ZN7WebCoreL7collectEPv
__ZN7WebCore26JSHTMLLinkElementPrototypeD1Ev
__ZN7WebCore17JSHTMLLinkElementD1Ev
__ZN3WTF6VectorIN7WebCore12IconSnapshotELm0EE14expandCapacityEmPKS2_
__ZN3WTF6VectorIN7WebCore12IconSnapshotELm0EE14expandCapacityEm
__ZN3WTF6VectorIN7WebCore12IconSnapshotELm0EE15reserveCapacityEm
__ZN7WebCore12IconDatabase30writeIconSnapshotToSQLDatabaseERKNS_12IconSnapshotE
__ZN7WebCore14SQLiteDatabase15lastInsertRowIDEv
__ZN7WebCore15SQLiteStatement8bindNullEi
__ZN3WTF6VectorIN7WebCore12IconSnapshotELm0EE6shrinkEm
__ZN7WebCore5TimerINS_11CachedImageEE5firedEv
__ZN7WebCore11CachedImage29decodedDataDeletionTimerFiredEPNS_5TimerIS0_EE
__ZN7WebCore11CachedImage18destroyDecodedDataEv
__ZN7WebCore11BitmapImageD0Ev
__ZN7WebCore11ImageSourceD1Ev
__ZN7WebCore11ImageSourceD2Ev
__ZN7WebCore11ImageSource5clearEbmPNS_12SharedBufferEb
__ZN7WebCore5ImageD2Ev
__ZN3WTF6VectorIN7WebCore9FrameDataELm0EE6shrinkEm
__ZN7WebCore9FrameData5clearEb
__ZN7WebCore14SQLiteDatabase14clearAllTablesEv
__ZN7WebCore15SQLiteStatement17returnTextResultsEiRN3WTF6VectorINS_6StringELm0EEE
__ZN7WebCore14SQLiteDatabase9lastErrorEv
__ZN7WebCoreL20createDatabaseTablesERNS_14SQLiteDatabaseE
__ZNK7WebCore12IconDatabase12databasePathEv
__ZN7WebCore12IconDatabase11setImportedEb
__ZN7WebCore12IconDatabase24getOrCreatePageURLRecordERKNS_6StringE
__ZNK7WebCore14PreloadScanner12scanningBodyEv
__ZN7WebCore9DocLoader7preloadENS_14CachedResource4TypeERKNS_6StringES5_b
__ZN7WebCore9DocLoader14requestPreloadENS_14CachedResource4TypeERKNS_6StringES5_
__ZNK3WTF9HashTableIPNS_15ListHashSetNodeIPN7WebCore14CachedResourceEEES6_NS_17IdentityExtractorIS6_EENS_28ListHashSetNodeHashF
__ZN3WTF11ListHashSetIPN7WebCore14CachedResourceENS_7PtrHashIS3_EEE3addERKS3_
__ZN3WTF11ListHashSetIPN7WebCore14CachedResourceENS_7PtrHashIS3_EEE10appendNodeEPNS_15ListHashSetNodeIS3_EE
__ZN3WTF6VectorIN7WebCore9DocLoader14PendingPreloadELm0EE14expandCapacityEmPKS3_
__ZN3WTF6VectorIN7WebCore9DocLoader14PendingPreloadELm0EE14expandCapacityEm
__ZN3WTF6VectorIN7WebCore9DocLoader14PendingPreloadELm0EE15reserveCapacityEm
__ZN7WebCoreL16audioConstructorERKNS_13QualifiedNameEPNS_8DocumentEPNS_15HTMLFormElementEb
__ZN7WebCore11MediaPlayer11isAvailableEv
__ZN7WebCoreL21installedMediaEnginesEv
__ZN7WebCore18MediaPlayerPrivate19registerMediaEngineEPFvPFPNS_27MediaPlayerPrivateInterfaceEPNS_11MediaPlayerEEPFvRN3WTF7HashS
__ZN7WebCore18MediaPlayerPrivate11isAvailableEv
__ZL12QTKitLibraryv
__ZN7WebCoreL14addMediaEngineEPFPNS_27MediaPlayerPrivateInterfaceEPNS_11MediaPlayerEEPFvRN3WTF7HashSetINS_6StringENS_10StringHa
__ZN3WTF6VectorIPN7WebCore18MediaPlayerFactoryELm0EE14expandCapacityEmPKS3_
__ZN3WTF6VectorIPN7WebCore18MediaPlayerFactoryELm0EE14expandCapacityEm
__ZN3WTF6VectorIPN7WebCore18MediaPlayerFactoryELm0EE15reserveCapacityEm
__ZN7WebCore16HTMLAudioElementC1ERKNS_13QualifiedNameEPNS_8DocumentE
__ZN7WebCore16HTMLAudioElementC2ERKNS_13QualifiedNameEPNS_8DocumentE
__ZN7WebCore16HTMLMediaElementC2ERKNS_13QualifiedNameEPNS_8DocumentE
__ZN7WebCore8Document31registerForMediaVolumeCallbacksEPNS_7ElementE
__ZN7WebCore16HTMLMediaElement16attributeChangedEPNS_9AttributeEb
__ZN7WebCore16HTMLMediaElement20parseMappedAttributeEPNS_15MappedAttributeE
__ZN7WebCore16HTMLMediaElement12scheduleLoadEv
__ZN7WebCore16HTMLMediaElement14prepareForLoadEv
__ZN7WebCore16HTMLMediaElement18stopPeriodicTimersEv
__ZN7WebCore16HTMLMediaElement31cancelPendingEventsAndCallbacksEv
__ZN3WTF6VectorINS_6RefPtrIN7WebCore5EventEEELm0EE14shrinkCapacityEm
__ZN7WebCore11MediaPlayerC1EPNS_17MediaPlayerClientE
__ZN7WebCore11MediaPlayerC2EPNS_17MediaPlayerClientE
__ZN7WebCoreL21createNullMediaPlayerEPNS_11MediaPlayerE
__ZNK7WebCore16HTMLMediaElement19defaultPlaybackRateEv
__ZN7WebCore16HTMLMediaElement15setPlaybackRateEf
__ZNK7WebCore16HTMLMediaElement18potentiallyPlayingEv
__ZNK7WebCore16HTMLAudioElement11tagPriorityEv
__ZN7WebCore16HTMLMediaElement20insertedIntoDocumentEv
__ZNK7WebCore16HTMLMediaElement3srcEv
__ZN7WebCore16HTMLMediaElement6attachEv
__ZN7WebCoreL16videoConstructorERKNS_13QualifiedNameEPNS_8DocumentEPNS_15HTMLFormElementEb
__ZN7WebCore16HTMLVideoElementC1ERKNS_13QualifiedNameEPNS_8DocumentE
__ZN7WebCore16HTMLVideoElementC2ERKNS_13QualifiedNameEPNS_8DocumentE
__ZN7WebCore16HTMLVideoElement20parseMappedAttributeEPNS_15MappedAttributeE
__ZNK7WebCore16HTMLVideoElement11tagPriorityEv
__ZN7WebCore16HTMLVideoElement6attachEv
__ZN7WebCore16HTMLVideoElement17updatePosterImageEv
__ZNK7WebCore16HTMLVideoElement6posterEv
__ZN7WebCore16HTMLMediaElement8checkDTDEPKNS_4NodeE
__ZN7WebCore9CSSParser12parseReflectEib
__ZN7WebCore9CSSParser16parseBorderImageEibRN3WTF6RefPtrINS_8CSSValueEEE
__ZN7WebCoreL17equalIgnoringCaseERKNS_15CSSParserStringEPKc
__ZN7WebCore9CSSParser13parseGradientERN3WTF6RefPtrINS_8CSSValueEEE
__ZN7WebCore22CSSImageGeneratorValueC2Ev
__ZN7WebCoreL18parseGradientPointEPNS_14CSSParserValueEb
__ZN3WTF6VectorIN7WebCore20CSSGradientColorStopELm0EE14expandCapacityEmPKS2_
__ZN3WTF6VectorIN7WebCore20CSSGradientColorStopELm0EE14expandCapacityEm
__ZN3WTF6VectorIN7WebCore20CSSGradientColorStopELm0EE15reserveCapacityEm
__ZN7WebCore9CSSParser20parseColorParametersEPNS_14CSSParserValueEPib
__ZN7WebCore23BorderImageParseContext17commitBorderImageEPNS_9CSSParserEb
__ZN7WebCore19CSSBorderImageValueC1EN3WTF10PassRefPtrINS_8CSSValueEEENS2_INS_4RectEEEii
__ZN7WebCore19CSSBorderImageValueC2EN3WTF10PassRefPtrINS_8CSSValueEEENS2_INS_4RectEEEii
__ZN7WebCore9CSSParser19createKeyframesRuleEv
__ZN7WebCore22WebKitCSSKeyframesRuleC1EPNS_13CSSStyleSheetE
__ZN7WebCore22WebKitCSSKeyframesRuleC2EPNS_13CSSStyleSheetE
__ZN7WebCore9CSSParser14parseTransformEv
__ZN7WebCore22TransformOperationInfoC2ERKNS_15CSSParserStringE
__ZN7WebCore23WebKitCSSTransformValueC1ENS0_22TransformOperationTypeE
__ZN7WebCore23WebKitCSSTransformValueC2ENS0_22TransformOperationTypeE
__ZN7WebCore9CSSParser22parseAnimationPropertyEiRN3WTF6RefPtrINS_8CSSValueEEE
__ZN7WebCore9CSSParser28parseAnimationTimingFunctionEv
__ZN7WebCore9CSSParser18createKeyframeRuleEPNS_18CSSParserValueListE
__ZN7WebCore21WebKitCSSKeyframeRuleC1EPNS_13CSSStyleSheetE
__ZN7WebCore21WebKitCSSKeyframeRuleC2EPNS_13CSSStyleSheetE
__ZN7WebCore21WebKitCSSKeyframeRule14setDeclarationEN3WTF10PassRefPtrINS_26CSSMutableStyleDeclarationEEE
__ZN7WebCore22WebKitCSSKeyframesRule6appendEPNS_21WebKitCSSKeyframeRuleE
__ZN7WebCore9CSSParser19parseAnimationDelayEv
__ZN7WebCore9CSSParser22parseAnimationDurationEv
__ZN7WebCore9CSSParser18parseAnimationNameEv
__ZNK7WebCore14SecurityOrigin19isAccessWhiteListedEPKS0_
__ZN7WebCoreL15originAccessMapEv
__ZNK3WTF7HashMapIN7WebCore6StringEPNS_6VectorINS1_17OriginAccessEntryELm0EEENS1_10StringHashENS_10HashTraitsIS2_EENS8_IS6_EEE3
__ZN7WebCore9StyleBase11isMediaRuleEv
__ZN7WebCore9StyleBase14isFontFaceRuleEv
__ZN7WebCore9StyleBase15isVariablesRuleEv
__ZN7WebCore22WebKitCSSKeyframesRule15isKeyframesRuleEv
__ZN7WebCore16CSSStyleSelector16addKeyframeStyleEN3WTF10PassRefPtrINS_22WebKitCSSKeyframesRuleEEE
__ZNK7WebCore22WebKitCSSKeyframesRule4nameEv
__ZN3WTF7HashMapIPN7WebCore16AtomicStringImplENS_6RefPtrINS1_22WebKitCSSKeyframesRuleEEENS_7PtrHashIS3_EENS_10HashTraitsIS3_EEN
__ZN3WTF9HashTableIPN7WebCore16AtomicStringImplESt4pairIS3_NS_6RefPtrINS1_22WebKitCSSKeyframesRuleEEEENS_18PairFirstExtractorIS
__ZN7WebCore16HTMLVideoElement6detachEv
__ZN7WebCore14RenderThemeMac28extraMediaControlsStyleSheetEv
__ZN7WebCoreL20mediaControllerThemeEv
__ZN7WebCore16HTMLMediaElement16rendererIsNeededEPNS_11RenderStyleE
__ZNK7WebCore16HTMLMediaElement8controlsEv
__ZN7WebCore16CSSStyleSelector17mapNinePieceImageEPNS_8CSSValueERNS_14NinePieceImageE
__ZNK7WebCore8CSSValue12isImageValueEv
__ZNK7WebCore22CSSImageGeneratorValue21isImageGeneratorValueEv
__ZN7WebCore22CSSImageGeneratorValue14generatedImageEv
__ZNK7WebCore22CSSImageGeneratorValue11isFixedSizeEv
__ZN7WebCore11RenderLayer16createReflectionEv
__ZN7WebCore13RenderReplicaC1EPNS_4NodeE
__ZN7WebCore13RenderReplicaC2EPNS_4NodeE
__ZN7WebCore11RenderLayer21updateReflectionStyleEv
__ZN3WTF6VectorINS_6RefPtrIN7WebCore18TransformOperationEEELm0EE14expandCapacityEm
__ZN3WTF6VectorINS_6RefPtrIN7WebCore18TransformOperationEEELm0EE15reserveCapacityEm
__ZN3WTF6VectorINS_6RefPtrIN7WebCore18TransformOperationEEELm0EE6shrinkEm
__ZN7WebCore18StyleTransformDataC1ERKS0_
__ZN7WebCore18StyleTransformDataC2ERKS0_
__ZN3WTF6VectorINS_6RefPtrIN7WebCore18TransformOperationEEELm0EEaSERKS5_
__ZN3WTF6VectorINS_6RefPtrIN7WebCore18TransformOperationEEELm0EE14shrinkCapacityEm
__ZN7WebCore19StyleGeneratedImage9addClientEPNS_12RenderObjectE
__ZN7WebCore22CSSImageGeneratorValue9addClientEPNS_12RenderObjectERKNS_7IntSizeE
__ZN3WTF7HashMapIPN7WebCore12RenderObjectESt4pairINS1_7IntSizeEiENS_7PtrHashIS3_EENS_10HashTraitsIS3_EENS9_IS6_EEE3addERKS3_RKS
__ZN3WTF9HashTableIPN7WebCore12RenderObjectESt4pairIS3_S4_INS1_7IntSizeEiEENS_18PairFirstExtractorIS7_EENS_7PtrHashIS3_EENS_14P
__ZNK7WebCore13RenderReplica13requiresLayerEv
__ZNK7WebCore11RenderStyle14applyTransformERNS_20TransformationMatrixERKNS_7IntSizeENS0_20ApplyTransformOriginE
__ZNK7WebCore27TranslateTransformOperation16getOperationTypeEv
__ZNK7WebCore23ScaleTransformOperation16getOperationTypeEv
__ZN7WebCore20TransformationMatrix11translate3dEddd
__ZNK7WebCore27TranslateTransformOperation5applyERNS_20TransformationMatrixERKNS_7IntSizeE
__ZNK7WebCore23ScaleTransformOperation5applyERNS_20TransformationMatrixERKNS_7IntSizeE
__ZN7WebCore20TransformationMatrix7scale3dEddd
__ZN7WebCore20TransformationMatrix8multLeftERKS0_
__ZNK7WebCore11RenderLayer25hasAcceleratedCompositingEv
__ZNK7WebCore20TransformationMatrix7mapRectERKNS_7IntRectE
__ZNK7WebCore20TransformationMatrix7mapRectERKNS_9FloatRectE
__ZNK7WebCore20TransformationMatrix7mapQuadERKNS_9FloatQuadE
__ZNK7WebCore20TransformationMatrix8mapPointERKNS_10FloatPointE
__ZNK7WebCore20TransformationMatrix13multVecMatrixEddRdS1_
__ZNK7WebCore9RenderBox13reflectedRectERKNS_7IntRectE
__ZNK7WebCore9RenderBox16reflectionOffsetEv
__ZNK7WebCore12RenderObject25getTransformFromContainerEPKS0_RKNS_7IntSizeERNS_20TransformationMatrixE
__ZN7WebCore20TransformationMatrix9translateEdd
__ZNK7WebCore11RenderLayer16currentTransformEv
__ZN7WebCore14TransformState14applyTransformERKNS_20TransformationMatrixENS0_21TransformAccumulationE
__ZN7WebCore14TransformState20flattenWithTransformERKNS_20TransformationMatrixE
__ZNK7WebCore13RenderReplica9isReplicaEv
__ZN7WebCore16HTMLVideoElement16rendererIsNeededEPNS_11RenderStyleE
__ZN7WebCore16HTMLVideoElement14createRendererEPNS_11RenderArenaEPNS_11RenderStyleE
__ZN7WebCore11RenderVideoC1EPNS_16HTMLVideoElementE
__ZN7WebCore11RenderVideoC2EPNS_16HTMLVideoElementE
__ZN7WebCore11RenderMediaC2EPNS_16HTMLMediaElementE
__ZNK7WebCore16HTMLMediaElement10readyStateEv
__ZNK7WebCore16HTMLVideoElement6heightEv
__ZNK7WebCore16HTMLVideoElement5widthEv
__ZN7WebCore11RenderMedia14styleDidChangeENS_15StyleDifferenceEPKNS_11RenderStyleE
__ZNK7WebCore11RenderVideo13requiresLayerEv
__ZNK7WebCore11RenderMedia15virtualChildrenEv
__ZNK7WebCore11RenderMedia7isMediaEv
__ZNK7WebCore11RenderVideo7isVideoEv
__ZNK7WebCore21RenderLayerCompositor27canAccelerateVideoRenderingEPNS_11RenderVideoE
__ZNK7WebCore11RenderVideo28supportsAcceleratedRenderingEv
__ZNK7WebCore11RenderMedia6playerEv
__ZNK7WebCore11RenderMedia12mediaElementEv
__ZNK7WebCore11MediaPlayer28supportsAcceleratedRenderingEv
__ZNK7WebCore27MediaPlayerPrivateInterface28supportsAcceleratedRenderingEv
__ZN7WebCore11RenderVideo17updateFromElementEv
__ZN7WebCore11RenderMedia17updateFromElementEv
__ZN7WebCore11RenderMedia14updateControlsEv
__ZN7WebCore11RenderVideo12updatePlayerEv
__ZNK7WebCore11RenderVideo8videoBoxEv
__ZN7WebCore11MediaPlayer7setSizeERKNS_7IntSizeE
__ZN7WebCore22NullMediaPlayerPrivate7setSizeERKNS_7IntSizeE
__ZN7WebCore11MediaPlayer10setVisibleEb
__ZN7WebCore22NullMediaPlayerPrivate10setVisibleEb
__ZNK3WTF7HashMapIN7WebCore6StringENS1_20CachedResourceHandleINS1_14CachedResourceEEENS1_10StringHashENS_10HashTraitsIS2_EENS7_
__ZN3WTF6VectorIN7WebCore9DocLoader14PendingPreloadELm0EE6shrinkEm
__ZN7WebCore5TimerINS_16HTMLMediaElementEE5firedEv
__ZN7WebCore16HTMLMediaElement14loadTimerFiredEPNS_5TimerIS0_EE
__ZN7WebCore16HTMLMediaElement12loadInternalEv
__ZN7WebCore16HTMLMediaElement19selectMediaResourceEv
__ZN7WebCore16HTMLMediaElement13scheduleEventERKNS_12AtomicStringE
__ZN3WTF6VectorINS_6RefPtrIN7WebCore5EventEEELm0EE14expandCapacityEm
__ZN3WTF6VectorINS_6RefPtrIN7WebCore5EventEEELm0EE15reserveCapacityEm
__ZN7WebCore11ContentTypeC1ERKNS_6StringE
__ZN7WebCore11ContentTypeC2ERKNS_6StringE
__ZN7WebCore16HTMLMediaElement15isSafeToLoadURLERKNS_4KURLENS0_19InvalidSourceActionE
__ZN7WebCore16HTMLMediaElement12loadResourceERKNS_4KURLERNS_11ContentTypeE
__ZN7WebCore11FrameLoader23willLoadMediaElementURLERNS_4KURLE
__ZN7WebCore11FrameLoader19requestFromDelegateERNS_15ResourceRequestERmRNS_13ResourceErrorE
__ZN7WebCore20ResourceLoadNotifier29sendRemainingDelegateMessagesEPNS_14DocumentLoaderEmRKNS_16ResourceResponseEiRKNS_13Resourc
__ZN7WebCore16HTMLMediaElement23startProgressEventTimerEv
__ZNK7WebCore16HTMLMediaElement8autoplayEv
__ZN7WebCore11MediaPlayer10setPreloadENS0_7PreloadE
__ZN7WebCore27MediaPlayerPrivateInterface10setPreloadENS_11MediaPlayer7PreloadE
__ZN7WebCore11MediaPlayer17setPreservesPitchEb
__ZN7WebCore22NullMediaPlayerPrivate17setPreservesPitchEb
__ZN7WebCore16HTMLMediaElement12updateVolumeEv
__ZN7WebCore11MediaPlayer8setMutedEb
__ZNK7WebCore22NullMediaPlayerPrivate14supportsMutingEv
__ZN7WebCore22NullMediaPlayerPrivate9setVolumeEf
__ZN7WebCore11MediaPlayer9setVolumeEf
__ZN7WebCore11MediaPlayer4loadERKNS_6StringERKNS_11ContentTypeE
__ZNK7WebCore11ContentType4typeEv
__ZNK7WebCore11ContentType9parameterERKNS_6StringE
__ZN7WebCore16MIMETypeRegistry28getMediaMIMETypeForExtensionERKNS_6StringE
__ZN7WebCore16MIMETypeRegistry23getMIMETypeForExtensionERKNS_6StringE
__ZN7WebCoreL32chooseBestEngineForTypeAndCodecsERKNS_6StringES2_
__ZN7WebCore18MediaPlayerPrivate12supportsTypeERKNS_6StringES3_
__ZN7WebCoreL20mimeModernTypesCacheEv
__ZL11initQTMoviev
__ZN7WebCoreL19addFileTypesToCacheEP7NSArrayRN3WTF7HashSetINS_6StringENS_10StringHashENS2_10HashTraitsIS4_EEEE
__ZN7WebCoreL23initializeMediaTypeMapsEv
__ZN3WTF7HashMapIN7WebCore6StringES2_NS1_15CaseFoldingHashENS_10HashTraitsIS2_EES5_E3setERKS2_S8_
__ZN3WTF9HashTableIN7WebCore6StringESt4pairIS2_S2_ENS_18PairFirstExtractorIS4_EENS1_15CaseFoldingHashENS_14PairHashTraitsINS_10
__ZNK3WTF7HashMapIN7WebCore6StringES2_NS1_15CaseFoldingHashENS_10HashTraitsIS2_EES5_E3getERKS2_
__ZN7WebCore22NullMediaPlayerPrivateD0Ev
__ZN7WebCore18MediaPlayerPrivate6createEPNS_11MediaPlayerE
__ZN7WebCore18MediaPlayerPrivateC1EPNS_11MediaPlayerE
__ZN7WebCore18MediaPlayerPrivateC2EPNS_11MediaPlayerE
-[WebCoreMovieObserver initWithCallback:]
__ZN7WebCore18MediaPlayerPrivate10setPreloadENS_11MediaPlayer7PreloadE
__ZNK7WebCore11MediaPlayer14preservesPitchEv
__ZN7WebCore18MediaPlayerPrivate17setPreservesPitchEb
__ZN7WebCore18MediaPlayerPrivate4loadERKNS_6StringE
__ZN7WebCore18MediaPlayerPrivate12loadInternalERKNS_6StringE
__ZN7WebCore11MediaPlayer19networkStateChangedEv
__ZThn120_N7WebCore16HTMLMediaElement30mediaPlayerNetworkStateChangedEPNS_11MediaPlayerE
__ZN7WebCore16HTMLMediaElement30mediaPlayerNetworkStateChangedEPNS_11MediaPlayerE
__ZN7WebCore11MediaPlayer12networkStateEv
__ZNK7WebCore18MediaPlayerPrivate12networkStateEv
__ZN7WebCore16HTMLMediaElement15setNetworkStateENS_11MediaPlayer12NetworkStateE
__ZN7WebCore18MediaPlayerPrivate10cancelSeekEv
-[WebCoreMovieObserver setDelayCallbacks:]
__ZN7WebCore18MediaPlayerPrivate13createQTMovieERKNS_6StringE
__ZL32initQTMovieApertureModeAttributev
__ZL28initQTMovieApertureModeCleanv
__ZL41initQTMovieAskUnresolvedDataRefsAttributev
__ZL40initQTSecurityPolicyNoCrossSiteAttributev
__ZL43initQTMoviePreventExternalURLLinksAttributev
__ZL44initQTMovieRateChangesPreservePitchAttributev
__ZL23initQTMovieURLAttributev
__ZN7WebCore18MediaPlayerPrivate13createQTMovieEP5NSURLP12NSDictionary
__ZL15QTMovieFunctionv
__ZNK7WebCore11MediaPlayer6volumeEv
__ZL41initQTMovieLoadStateDidChangeNotificationv
__ZL36initQTMovieRateDidChangeNotificationv
__ZL36initQTMovieSizeDidChangeNotificationv
__ZL36initQTMovieTimeDidChangeNotificationv
__ZL29initQTMovieDidEndNotificationv
-[WebCoreMovieObserver loadStateChanged:]
__ZNK7WebCore16HTMLAudioElement7isVideoEv
__ZN7WebCore18MediaPlayerPrivate16loadStateChangedEv
__ZN7WebCore18MediaPlayerPrivate12updateStatesEv
__ZL29initQTMovieLoadStateAttributev
__ZNK7WebCore18MediaPlayerPrivate22hasSetUpVideoRenderingEv
__ZN7WebCore18MediaPlayerPrivate19setUpVideoRenderingEv
__ZNK7WebCore18MediaPlayerPrivate19isReadyForRenderingEv
__ZNK7WebCore18MediaPlayerPrivate7seekingEv
__ZL36QTMovieApertureModeAttributeFunctionv
__ZL32QTMovieApertureModeCleanFunctionv
__ZL45QTMovieAskUnresolvedDataRefsAttributeFunctionv
__ZL44QTSecurityPolicyNoCrossSiteAttributeFunctionv
__ZL47QTMoviePreventExternalURLLinksAttributeFunctionv
__ZL48QTMovieRateChangesPreservePitchAttributeFunctionv
__ZL27QTMovieURLAttributeFunctionv
__ZL45QTMovieLoadStateDidChangeNotificationFunctionv
__ZL40QTMovieRateDidChangeNotificationFunctionv
__ZL40QTMovieSizeDidChangeNotificationFunctionv
__ZL40QTMovieTimeDidChangeNotificationFunctionv
__ZL33QTMovieDidEndNotificationFunctionv
__ZNK7WebCore16HTMLVideoElement7isVideoEv
__ZNK7WebCore11MediaPlayer13canLoadPosterEv
__ZNK7WebCore27MediaPlayerPrivateInterface13canLoadPosterEv
__ZNK7WebCore18MediaPlayerPrivate28supportsAcceleratedRenderingEv
__ZN7WebCore18MediaPlayerPrivate7setSizeERKNS_7IntSizeE
__ZN7WebCore18MediaPlayerPrivate10setVisibleEb
__ZN7WebCore16HTMLMediaElement20asyncEventTimerFiredEPNS_5TimerIS0_EE
__ZN7WebCore16HTMLMediaElement19defaultEventHandlerEPNS_5EventE
__ZN3WTF6VectorINS_6RefPtrIN7WebCore5EventEEELm0EE6shrinkEm
__ZN7WebCore9RenderBox20calcPercentageHeightERKNS_6LengthE
__ZN7WebCore11RenderVideo6layoutEv
__ZN7WebCore11RenderMedia6layoutEv
__ZNK7WebCore11RenderVideo21minimumReplacedHeightEv
__ZNK7WebCore11RenderVideo17calcReplacedWidthEb
__ZNK7WebCore11RenderVideo18calcReplacedHeightEv
__ZNK7WebCore11RenderMedia7isImageEv
__ZNK7WebCore11RenderMedia14lowestPositionEbb
__ZNK7WebCore11RenderMedia17rightmostPositionEbb
__ZN7WebCore13RenderReplica6layoutEv
__ZN7WebCore19jsNavigatorLanguageEPN3JSC9ExecStateENS0_7JSValueERKNS0_10IdentifierE
__ZNK7WebCore9Navigator8languageEv
__ZN7WebCore15defaultLanguageEv
__ZN7WebCoreL29createHTMLAudioElementWrapperEPN3JSC9ExecStateEPNS_17JSDOMGlobalObjectEN3WTF10PassRefPtrINS_11HTMLElementEEE
__ZN7WebCore18JSHTMLAudioElement15createPrototypeEPN3JSC9ExecStateEPNS1_14JSGlobalObjectE
__ZN7WebCore27JSHTMLMediaElementPrototype4selfEPN3JSC9ExecStateEPNS1_14JSGlobalObjectE
__ZN7WebCore18JSHTMLMediaElement15createPrototypeEPN3JSC9ExecStateEPNS1_14JSGlobalObjectE
__ZN7WebCore18JSHTMLAudioElementC1EN3WTF17NonNullPassRefPtrIN3JSC9StructureEEEPNS_17JSDOMGlobalObjectENS1_10PassRefPtrINS_16HTM
__ZN7WebCore18JSHTMLAudioElementC2EN3WTF17NonNullPassRefPtrIN3JSC9StructureEEEPNS_17JSDOMGlobalObjectENS1_10PassRefPtrINS_16HTM
__ZN7WebCore18JSHTMLMediaElementC2EN3WTF17NonNullPassRefPtrIN3JSC9StructureEEEPNS_17JSDOMGlobalObjectENS1_10PassRefPtrINS_16HTM
__ZN7WebCoreL29createHTMLVideoElementWrapperEPN3JSC9ExecStateEPNS_17JSDOMGlobalObjectEN3WTF10PassRefPtrINS_11HTMLElementEEE
__ZN7WebCore18JSHTMLVideoElement15createPrototypeEPN3JSC9ExecStateEPNS1_14JSGlobalObjectE
__ZN7WebCore18JSHTMLVideoElementC1EN3WTF17NonNullPassRefPtrIN3JSC9StructureEEEPNS_17JSDOMGlobalObjectENS1_10PassRefPtrINS_16HTM
__ZN7WebCore18JSHTMLVideoElementC2EN3WTF17NonNullPassRefPtrIN3JSC9StructureEEEPNS_17JSDOMGlobalObjectENS1_10PassRefPtrINS_16HTM
__ZN7WebCore18JSHTMLAudioElement18getOwnPropertySlotEPN3JSC9ExecStateERKNS1_10IdentifierERNS1_12PropertySlotE
__ZN7WebCore18JSHTMLMediaElement18getOwnPropertySlotEPN3JSC9ExecStateERKNS1_10IdentifierERNS1_12PropertySlotE
__ZN7WebCore27JSHTMLMediaElementPrototype18getOwnPropertySlotEPN3JSC9ExecStateERKNS1_10IdentifierERNS1_12PropertySlotE
__ZNK7WebCore18JSHTMLAudioElement9classInfoEv
__ZN7WebCore21jsHTMLMediaElementSrcEPN3JSC9ExecStateENS0_7JSValueERKNS0_10IdentifierE
__ZN7WebCore39jsHTMLMediaElementPrototypeFunctionLoadEPN3JSC9ExecStateEPNS0_8JSObjectENS0_7JSValueERKNS0_7ArgListE
__ZN7WebCore21processingUserGestureEv
__ZN7WebCore16ScriptController21processingUserGestureEv 
__ZN7WebCore16HTMLMediaElement4loadEbRi
__ZN7WebCore11MediaPlayerD0Ev
__ZN7WebCore18MediaPlayerPrivateD0Ev
__ZN7WebCore18MediaPlayerPrivate22tearDownVideoRenderingEv
-[WebCoreMovieObserver disconnect]
__ZN7WebCore18JSHTMLVideoElement18getOwnPropertySlotEPN3JSC9ExecStateERKNS1_10IdentifierERNS1_12PropertySlotE
__ZN7WebCore27JSHTMLVideoElementPrototype18getOwnPropertySlotEPN3JSC9ExecStateERKNS1_10IdentifierERNS1_12PropertySlotE
__ZNK7WebCore18JSHTMLVideoElement9classInfoEv
__ZN7WebCore21jsDocumentStyleSheetsEPN3JSC9ExecStateENS0_7JSValueERKNS0_10IdentifierE
__ZN7WebCore4toJSEPN3JSC9ExecStateEPNS_17JSDOMGlobalObjectEPNS_14StyleSheetListE
__ZN7WebCore16JSStyleSheetList15createPrototypeEPN3JSC9ExecStateEPNS1_14JSGlobalObjectE
__ZN7WebCore16JSStyleSheetListC1EN3WTF17NonNullPassRefPtrIN3JSC9StructureEEEPNS_17JSDOMGlobalObjectENS1_10PassRefPtrINS_14Style
__ZN7WebCore16JSStyleSheetListC2EN3WTF17NonNullPassRefPtrIN3JSC9StructureEEEPNS_17JSDOMGlobalObjectENS1_10PassRefPtrINS_14Style
__ZN7WebCore16JSStyleSheetList18getOwnPropertySlotEPN3JSC9ExecStateEjRNS1_12PropertySlotE
__ZN7WebCore16JSStyleSheetList11indexGetterEPN3JSC9ExecStateENS1_7JSValueEj
__ZN7WebCore4toJSEPN3JSC9ExecStateEPNS_17JSDOMGlobalObjectEPNS_10StyleSheetE
__ZN7WebCore15JSCSSStyleSheet15createPrototypeEPN3JSC9ExecStateEPNS1_14JSGlobalObjectE
__ZN7WebCore21JSStyleSheetPrototype4selfEPN3JSC9ExecStateEPNS1_14JSGlobalObjectE
__ZN7WebCore12JSStyleSheet15createPrototypeEPN3JSC9ExecStateEPNS1_14JSGlobalObjectE
__ZN7WebCore15JSCSSStyleSheetC1EN3WTF17NonNullPassRefPtrIN3JSC9StructureEEEPNS_17JSDOMGlobalObjectENS1_10PassRefPtrINS_13CSSSty
__ZN7WebCore15JSCSSStyleSheetC2EN3WTF17NonNullPassRefPtrIN3JSC9StructureEEEPNS_17JSDOMGlobalObjectENS1_10PassRefPtrINS_13CSSSty
__ZN7WebCore12JSStyleSheetC2EN3WTF17NonNullPassRefPtrIN3JSC9StructureEEEPNS_17JSDOMGlobalObjectENS1_10PassRefPtrINS_10StyleShee
__ZN7WebCore15JSCSSStyleSheet18getOwnPropertySlotEPN3JSC9ExecStateERKNS1_10IdentifierERNS1_12PropertySlotE
__ZN7WebCore20jsCSSStyleSheetRulesEPN3JSC9ExecStateENS0_7JSValueERKNS0_10IdentifierE
__ZN7WebCore13CSSStyleSheet8cssRulesEb
__ZN7WebCore11CSSRuleListC1EPNS_9StyleListEb
__ZN7WebCore11CSSRuleListC2EPNS_9StyleListEb
__ZN7WebCore7CSSRule6isRuleEv
__ZN7WebCore9StyleBase13isCharsetRuleEv
__ZN7WebCore4toJSEPN3JSC9ExecStateEPNS_17JSDOMGlobalObjectEPNS_11CSSRuleListE
__ZN7WebCore13JSCSSRuleList15createPrototypeEPN3JSC9ExecStateEPNS1_14JSGlobalObjectE
__ZN7WebCore13JSCSSRuleListC1EN3WTF17NonNullPassRefPtrIN3JSC9StructureEEEPNS_17JSDOMGlobalObjectENS1_10PassRefPtrINS_11CSSRuleL
__ZN7WebCore13JSCSSRuleListC2EN3WTF17NonNullPassRefPtrIN3JSC9StructureEEEPNS_17JSDOMGlobalObjectENS1_10PassRefPtrINS_11CSSRuleL
__ZN7WebCore13JSCSSRuleList18getOwnPropertySlotEPN3JSC9ExecStateERKNS1_10IdentifierERNS1_12PropertySlotE
__ZN7WebCore19jsCSSRuleListLengthEPN3JSC9ExecStateENS0_7JSValueERKNS0_10IdentifierE
__ZN7WebCore13JSCSSRuleList18getOwnPropertySlotEPN3JSC9ExecStateEjRNS1_12PropertySlotE
__ZN7WebCore13JSCSSRuleList11indexGetterEPN3JSC9ExecStateENS1_7JSValueEj
__ZN7WebCore4toJSEPN3JSC9ExecStateEPNS_17JSDOMGlobalObjectEPNS_7CSSRuleE
__ZNK7WebCore12CSSStyleRule4typeEv
__ZN7WebCore14JSCSSStyleRule15createPrototypeEPN3JSC9ExecStateEPNS1_14JSGlobalObjectE
__ZN7WebCore18JSCSSRulePrototype4selfEPN3JSC9ExecStateEPNS1_14JSGlobalObjectE
__ZN7WebCore9JSCSSRule15createPrototypeEPN3JSC9ExecStateEPNS1_14JSGlobalObjectE
__ZN7WebCore14JSCSSStyleRuleC1EN3WTF17NonNullPassRefPtrIN3JSC9StructureEEEPNS_17JSDOMGlobalObjectENS1_10PassRefPtrINS_12CSSStyl
__ZN7WebCore14JSCSSStyleRuleC2EN3WTF17NonNullPassRefPtrIN3JSC9StructureEEEPNS_17JSDOMGlobalObjectENS1_10PassRefPtrINS_12CSSStyl
__ZN7WebCore9JSCSSRuleC2EN3WTF17NonNullPassRefPtrIN3JSC9StructureEEEPNS_17JSDOMGlobalObjectENS1_10PassRefPtrINS_7CSSRuleEEE
__ZN7WebCore14JSCSSStyleRule18getOwnPropertySlotEPN3JSC9ExecStateERKNS1_10IdentifierERNS1_12PropertySlotE
__ZN7WebCore9JSCSSRule18getOwnPropertySlotEPN3JSC9ExecStateERKNS1_10IdentifierERNS1_12PropertySlotE
__ZN7WebCore16jsCSSRuleCssTextEPN3JSC9ExecStateENS0_7JSValueERKNS0_10IdentifierE
__ZNK7WebCore12CSSStyleRule7cssTextEv
__ZNK7WebCore12CSSStyleRule12selectorTextEv
__ZNK7WebCore11CSSSelector12selectorTextEv
__ZN3WTF6VectorItLm0EE4growEm
__ZNK7WebCore9FontValue7cssTextEv
__ZN7WebCore14quoteCSSStringERKNS_6StringE
__ZN7WebCore19quoteCSSURLIfNeededERKNS_6StringE
__ZNK7WebCore15CSSReflectValue7cssTextEv
__ZNK7WebCore19CSSBorderImageValue7cssTextEv
__ZNK7WebCore16CSSGradientValue7cssTextEv
__ZNK7WebCore22WebKitCSSKeyframesRule4typeEv
__ZN7WebCore24JSWebKitCSSKeyframesRule15createPrototypeEPN3JSC9ExecStateEPNS1_14JSGlobalObjectE
__ZN7WebCore24JSWebKitCSSKeyframesRuleC1EN3WTF17NonNullPassRefPtrIN3JSC9StructureEEEPNS_17JSDOMGlobalObjectENS1_10PassRefPtrINS
__ZN7WebCore24JSWebKitCSSKeyframesRuleC2EN3WTF17NonNullPassRefPtrIN3JSC9StructureEEEPNS_17JSDOMGlobalObjectENS1_10PassRefPtrINS
__ZN7WebCore24JSWebKitCSSKeyframesRule18getOwnPropertySlotEPN3JSC9ExecStateERKNS1_10IdentifierERNS1_12PropertySlotE
__ZNK7WebCore22WebKitCSSKeyframesRule7cssTextEv
__ZNK7WebCore21WebKitCSSKeyframeRule7cssTextEv
__ZNK7WebCore23WebKitCSSTransformValue7cssTextEv
__ZN7WebCore11RenderMedia12forwardEventEPNS_5EventE
__ZL33QTMovieLoadStateAttributeFunctionv
__ZNK7WebCore12SharedBuffer4copyEv
__ZN7WebCore12SharedBufferC1Ev
__ZN7WebCore12SharedBufferC2Ev
__ZN7WebCore16JSStyleSheetList12markChildrenERN3JSC9MarkStackE
__ZN7WebCore12JSStyleSheet12markChildrenERN3JSC9MarkStackE
__ZN7WebCore13JSCSSRuleList12markChildrenERN3JSC9MarkStackE
__ZN7WebCore16HTMLMediaElement23progressEventTimerFiredEPNS_5TimerIS0_EE
__ZN7WebCore11MediaPlayer11bytesLoadedEv
__ZNK7WebCore18MediaPlayerPrivate11bytesLoadedEv
__ZNK7WebCore18MediaPlayerPrivate8durationEv
__ZN7WebCore18MediaPlayerPrivate24disableUnsupportedTracksEv
__ZL20initQTMediaTypeVideov
__ZL20initQTMediaTypeSoundv
__ZL19initQTMediaTypeTextv
__ZL19initQTMediaTypeBasev
__ZL19initQTMediaTypeMPEGv
__ZL29initQTTrackMediaTypeAttributev
__ZN7WebCore11MediaPlayer15inMediaDocumentEv
__ZN7WebCore18MediaPlayerPrivate15cacheMovieScaleEv
__ZL31initQTMovieNaturalSizeAttributev
__ZNK7WebCore18MediaPlayerPrivate13movieLoadTypeEv
__ZNK7WebCore18MediaPlayerPrivate11currentTimeEv
__ZNK7WebCore18MediaPlayerPrivate13maxTimeLoadedEv
__ZNK7WebCore11MediaPlayer7visibleEv
__ZNK7WebCore18MediaPlayerPrivate20currentRenderingModeEv
__ZNK7WebCore18MediaPlayerPrivate22preferredRenderingModeEv
__ZN7WebCoreL20QTVideoRendererClassEv
__ZL16initQTMovieLayerv
__ZThn120_N7WebCore16HTMLMediaElement36mediaPlayerRenderingCanBeAcceleratedEPNS_11MediaPlayerE
__ZN7WebCore16HTMLMediaElement36mediaPlayerRenderingCanBeAcceleratedEPNS_11MediaPlayerE
__ZL20QTMovieLayerFunctionv
__ZN7WebCore18MediaPlayerPrivate18createQTMovieLayerEv
__ZThn120_N7WebCore16HTMLMediaElement31mediaPlayerRenderingModeChangedEPNS_11MediaPlayerE
__ZN7WebCore16HTMLMediaElement31mediaPlayerRenderingModeChangedEPNS_11MediaPlayerE
__ZN7WebCore11MediaPlayer17readyStateChangedEv
__ZThn120_N7WebCore16HTMLMediaElement28mediaPlayerReadyStateChangedEPNS_11MediaPlayerE
__ZN7WebCore16HTMLMediaElement28mediaPlayerReadyStateChangedEPNS_11MediaPlayerE
__ZN7WebCore11MediaPlayer10readyStateEv
__ZNK7WebCore18MediaPlayerPrivate10readyStateEv
__ZN7WebCore16HTMLMediaElement13setReadyStateENS_11MediaPlayer10ReadyStateE
__ZN7WebCore11RenderVideo16videoSizeChangedEv
__ZN7WebCore11MediaPlayer11naturalSizeEv
__ZNK7WebCore18MediaPlayerPrivate11naturalSizeEv
__ZL35QTMovieNaturalSizeAttributeFunctionv
__ZN7WebCore11MediaPlayer4seekEf
__ZN7WebCore18MediaPlayerPrivate4seekEf
__ZNK7WebCore18MediaPlayerPrivate15maxTimeSeekableEv
__ZN7WebCore18MediaPlayerPrivate6doSeekEv
__ZNK7WebCore18MediaPlayerPrivate12createQTTimeEf
__ZL29initQTMovieTimeScaleAttributev
__ZL14initQTMakeTimexl
__ZN7WebCore16HTMLMediaElement15updatePlayStateEv
__ZNK7WebCore11MediaPlayer6pausedEv
__ZNK7WebCore18MediaPlayerPrivate6pausedEv
__ZNK7WebCore16HTMLMediaElement21couldPlayIfEnoughDataEv
__ZNK7WebCore16HTMLMediaElement6pausedEv
__ZN7WebCore21RenderLayerCompositor21enableCompositingModeEb
__ZN7WebCore21RenderLayerCompositor23ensureRootPlatformLayerEv
__ZN7WebCore13GraphicsLayer6createEPNS_19GraphicsLayerClientE
__ZN7WebCore15GraphicsLayerCAC1EPNS_19GraphicsLayerClientE
__ZN7WebCore15GraphicsLayerCAC2EPNS_19GraphicsLayerClientE
__ZN7WebCore13GraphicsLayerC2EPNS_19GraphicsLayerClientE
__ZN7WebCore12FloatPoint3DC1Efff
__ZN7WebCore12FloatPoint3DC2Efff
-[WebLayer(WebLayerAdditions) setLayerOwner:]
__ZN7WebCore13GraphicsLayer21updateDebugIndicatorsEv
-[WebAnimationDelegate setLayer:]
__ZN7WebCore15GraphicsLayerCA7setSizeERKNS_9FloatSizeE
__ZN7WebCore15GraphicsLayerCA24noteLayerPropertyChangedEj
__ZN7WebCore15GraphicsLayerCA11setPositionERKNS_10FloatPointE
__ZN7WebCore13GraphicsLayer33compositingCoordinatesOrientationEv
__ZN7WebCore15GraphicsLayerCA22setGeometryOrientationENS_13GraphicsLayer33CompositingCoordinatesOrientationE
__ZN7WebCore15GraphicsLayerCA16setMasksToBoundsEb
__ZNK7WebCore15GraphicsLayerCA11nativeLayerEv
-[WebLayer actionForKey:]
__ZN7WebCore21RenderLayerCompositor26repaintOnCompositingChangeEPNS_11RenderLayerE
__ZNK7WebCore11RenderLayer25enclosingCompositingLayerEb
__ZN7WebCore11RenderLayer41repaintIncludingNonCompositingDescendantsEPNS_20RenderBoxModelObjectE
__ZN7WebCore9FrameView37setNeedsOneShotDrawingSynchronizationEv
__ZN7WebCore11RenderLayer13ensureBackingEv
__ZN7WebCore18RenderLayerBackingC1EPNS_11RenderLayerE
__ZN7WebCore18RenderLayerBackingC2EPNS_11RenderLayerE
__ZN7WebCore18RenderLayerBacking19createGraphicsLayerEv
__ZNK7WebCore18RenderLayerBacking16showDebugBordersEv
__ZN7WebCore18RenderLayerBacking18updateLayerOpacityEPKNS_11RenderStyleE
__ZNK7WebCore18RenderLayerBacking18compositingOpacityEf
__ZN7WebCore15GraphicsLayerCA10setOpacityEf
__ZN7WebCore18RenderLayerBacking18notifySyncRequiredEPKNS_13GraphicsLayerE
__ZN7WebCore21RenderLayerCompositor12scheduleSyncEv
__ZN7WebCore18RenderLayerBacking20updateLayerTransformEPKNS_11RenderStyleE
__ZN7WebCore15GraphicsLayerCA12setTransformERKNS_20TransformationMatrixE
__ZN7WebCore11RenderVideo32acceleratedRenderingStateChangedEv
__ZN7WebCore11MediaPlayer32acceleratedRenderingStateChangedEv
__ZN7WebCore18MediaPlayerPrivate32acceleratedRenderingStateChangedEv
__ZN7WebCore18RenderLayerBacking32updateGraphicsLayerConfigurationEv
__ZNK7WebCore21RenderLayerCompositor29needsContentsCompositingLayerEPKNS_11RenderLayerE
__ZN7WebCore18RenderLayerBacking21updateForegroundLayerEb
__ZNK7WebCore21RenderLayerCompositor17clippedByAncestorEPNS_11RenderLayerE
__ZN7WebCore18RenderLayerBacking20updateClippingLayersEbb
__ZN7WebCore18RenderLayerBacking15updateMaskLayerEb
__ZNK7WebCore18RenderLayerBacking25isDirectlyCompositedImageEv
__ZNK7WebCore16HTMLMediaElement13platformLayerEv
__ZNK7WebCore11MediaPlayer13platformLayerEv
__ZNK7WebCore18MediaPlayerPrivate13platformLayerEv
__ZN7WebCore15GraphicsLayerCA18setContentsToMediaEP7CALayer
__ZN7WebCore15GraphicsLayerCA20noteSublayersChangedEv
__ZN7WebCore15GraphicsLayerCA30propagateLayerChangeToReplicasEv
__ZN7WebCore18RenderLayerBacking22rendererContentChangedEv
-[WebCoreMovieObserver timeChanged:]
__ZN7WebCore18MediaPlayerPrivate11timeChangedEv
__ZN7WebCore11MediaPlayer11timeChangedEv
__ZThn120_N7WebCore16HTMLMediaElement22mediaPlayerTimeChangedEPNS_11MediaPlayerE
__ZN7WebCore16HTMLMediaElement22mediaPlayerTimeChangedEPNS_11MediaPlayerE
__ZN7WebCore16HTMLMediaElement23scheduleTimeupdateEventEb
__ZNK7WebCore11MediaPlayer11currentTimeEv
__ZNK7WebCore16HTMLMediaElement11currentTimeEv
__ZNK7WebCore16HTMLMediaElement8durationEv
__ZNK7WebCore11MediaPlayer8durationEv
__ZN7WebCore16HTMLMediaElement11recalcStyleENS_4Node11StyleChangeE
__ZNK7WebCore18StyleTransformDataeqERKS0_
__ZNK7WebCore27TranslateTransformOperationeqERKNS_18TransformOperationE
__ZNK7WebCore27TranslateTransformOperation10isSameTypeERKNS_18TransformOperationE
__ZNK7WebCore23ScaleTransformOperationeqERKNS_18TransformOperationE
__ZNK7WebCore23ScaleTransformOperation10isSameTypeERKNS_18TransformOperationE
__ZN7WebCore11RenderLayer28setBackingNeedsRepaintInRectERKNS_7IntRectE
__ZNK7WebCore18RenderLayerBacking20paintingGoesToWindowEv
__ZN7WebCore18RenderLayerBacking28setContentsNeedDisplayInRectERKNS_7IntRectE
__ZN7WebCore15GraphicsLayerCA15setDrawsContentEb
__ZNK7WebCore18RenderLayerBacking28paintingPhaseForPrimaryLayerEv
__ZN7WebCore15GraphicsLayerCA12setMaskLayerEPNS_13GraphicsLayerE
__ZN7WebCore15GraphicsLayerCA20setReplicatedByLayerEPNS_13GraphicsLayerE
__ZN7WebCore27TranslateTransformOperationD0Ev
__ZN7WebCore23ScaleTransformOperationD0Ev
__ZN7WebCore13GraphicsLayer20setReplicatedByLayerEPS0_
__ZN7WebCore15GraphicsLayerCA18setReplicatedLayerEPNS_13GraphicsLayerE
__ZN7WebCore18RenderLayerBacking27updateGraphicsLayerGeometryEv
__ZN7WebCore21RenderLayerCompositor23updateCompositingLayersENS_21CompositingUpdateTypeEPNS_11RenderLayerE
__ZN7WebCore21RenderLayerCompositor30computeCompositingRequirementsEPNS_11RenderLayerEPN3WTF7HashMapIS2_NS_7IntRectENS3_7PtrHas
__ZN7WebCore21RenderLayerCompositor15addToOverlapMapERN3WTF7HashMapIPNS_11RenderLayerENS_7IntRectENS1_7PtrHashIS4_EENS1_10HashT
__ZN3WTF7HashMapIPN7WebCore11RenderLayerENS1_7IntRectENS_7PtrHashIS3_EENS_10HashTraitsIS3_EENS7_IS4_EEE3addERKS3_RKS4_
__ZN3WTF9HashTableIPN7WebCore11RenderLayerESt4pairIS3_NS1_7IntRectEENS_18PairFirstExtractorIS6_EENS_7PtrHashIS3_EENS_14PairHash
__ZN7WebCore21RenderLayerCompositor24overlapsCompositedLayersERN3WTF7HashMapIPNS_11RenderLayerENS_7IntRectENS1_7PtrHashIS4_EENS
__ZNK7WebCore21RenderLayerCompositor48requiresCompositingWhenDescendantsAreCompositingEPNS_12RenderObjectE
__ZN7WebCore21RenderLayerCompositor27rebuildCompositingLayerTreeEPNS_11RenderLayerERKNS_16CompositingStateERN3WTF6VectorIPNS_13
__ZN7WebCore18RenderLayerBacking22updateCompositedBoundsEv
__ZN7WebCore21RenderLayerCompositor25calculateCompositedBoundsEPKNS_11RenderLayerES3_
__ZN7WebCore9RenderBox12maskClipRectEv
__ZN7WebCore18RenderLayerBacking19setCompositedBoundsERKNS_7IntRectE
__ZN7WebCore15GraphicsLayerCA14setPreserves3DEb
__ZN7WebCore15GraphicsLayerCA21setBackfaceVisibilityEb
__ZNK7WebCore18RenderLayerBacking16compositedBoundsEv
__ZN7WebCore15GraphicsLayerCA15setNeedsDisplayEv
__ZN7WebCore15GraphicsLayerCA21setNeedsDisplayInRectERKNS_9FloatRectE
__ZN7WebCore15GraphicsLayerCA14setAnchorPointERKNS_12FloatPoint3DE
__ZNK7WebCore18RenderLayerBacking11contentsBoxEv
__ZNK7WebCore18RenderLayerBacking30contentOffsetInCompostingLayerEv
__ZN7WebCore15GraphicsLayerCA15setContentsRectERKNS_7IntRectE
__ZNK7WebCore18RenderLayerBacking22containsPaintedContentEv
__ZNK7WebCore18RenderLayerBacking33isSimpleContainerCompositingLayerEv
__ZN7WebCoreL29hasBoxDecorationsOrBackgroundEPKNS_11RenderStyleE
__ZN7WebCoreL24hasBorderOutlineOrShadowEPKNS_11RenderStyleE
__ZN7WebCoreL34hasBoxDecorationsOrBackgroundImageEPKNS_11RenderStyleE
__ZNK7WebCore18RenderLayerBacking24hasNonCompositingContentEv
__ZNK7WebCore11RenderLayer19hasOverflowControlsEv
__ZNK7WebCore18RenderLayerBacking26innerRenderLayerCompositorEv
__ZNK7WebCore12RenderObject14isRenderIFrameEv
__ZN7WebCore21RenderLayerCompositor23updateRootLayerPositionEv
__ZNK7WebCore18RenderLayerBacking22computeTransformOriginERKNS_7IntRectE
__ZN7WebCore12FloatPoint3DC1Ev
__ZN7WebCore12FloatPoint3DC2Ev
__ZN7WebCore15GraphicsLayerCA20setChildrenTransformERKNS_20TransformationMatrixE
__ZN7WebCore15GraphicsLayerCA11setChildrenERKN3WTF6VectorIPNS_13GraphicsLayerELm0EEE
__ZN7WebCore13GraphicsLayer11setChildrenERKN3WTF6VectorIPS0_Lm0EEE
__ZN3WTFeqIPN7WebCore13GraphicsLayerELm0EEEbRKNS_6VectorIT_XT0_EEES8_
__ZN3WTF6VectorIPN7WebCore13GraphicsLayerELm0EE14expandCapacityEmPKS3_
__ZN3WTF6VectorIPN7WebCore13GraphicsLayerELm0EE14expandCapacityEm
__ZN3WTF6VectorIPN7WebCore13GraphicsLayerELm0EE15reserveCapacityEm
__ZN7WebCore18RenderLayerBacking23updateInternalHierarchyEv
__ZN7WebCore13GraphicsLayer17removeAllChildrenEv
__ZN7WebCore15GraphicsLayerCA16removeFromParentEv
__ZN7WebCore13GraphicsLayer16removeFromParentEv
__ZN7WebCore15GraphicsLayerCA8addChildEPNS_13GraphicsLayerE
__ZN7WebCore13GraphicsLayer8addChildEPS0_
__ZN3WTF6VectorIPN7WebCore13GraphicsLayerELm0EE6shrinkEm
__ZN7WebCore18RenderLayerBacking34contentsToGraphicsLayerCoordinatesEPKNS_13GraphicsLayerERKNS_10FloatPointE
__ZNK7WebCore9FloatRect10intersectsERKS0_
__ZN3WTF6VectorIN7WebCore9FloatRectELm0EE14expandCapacityEmPKS2_
__ZN3WTF6VectorIN7WebCore9FloatRectELm0EE14expandCapacityEm
__ZN3WTF6VectorIN7WebCore9FloatRectELm0EE15reserveCapacityEm
__ZN7WebCore18RenderLayerBacking17updateAfterLayoutENS0_11UpdateDepthEb
__ZN7WebCore21RenderLayerCompositor35updateCompositingDescendantGeometryEPNS_11RenderLayerES2_NS_18RenderLayerBacking11UpdateDe
__ZN7WebCore15GraphicsLayerCA20syncCompositingStateEv
__ZN7WebCore15GraphicsLayerCA22recursiveCommitChangesEv
__ZN7WebCore15GraphicsLayerCA33commitLayerChangesBeforeSublayersEv
__ZN7WebCore15GraphicsLayerCA18updateSublayerListEv
__ZNK7WebCore15GraphicsLayerCA18layerForSuperlayerEv
__ZN7WebCoreL16safeSetSublayersEP7CALayerP7NSArray
__ZN7WebCore15GraphicsLayerCA15updateLayerSizeEv
__ZNK7WebCore15GraphicsLayerCA18requiresTiledLayerERKNS_9FloatSizeE
__ZN7WebCore15GraphicsLayerCA19updateLayerPositionEv
__ZN7WebCore15GraphicsLayerCA19updateMasksToBoundsEv
__ZN7WebCore15GraphicsLayerCA25updateGeometryOrientationEv
__ZN7WebCore15GraphicsLayerCA18updateContentsRectEv
__ZN7WebCore15GraphicsLayerCA21updateStructuralLayerEv
__ZNK7WebCore15GraphicsLayerCA22structuralLayerPurposeEv
__ZN7WebCore15GraphicsLayerCA21ensureStructuralLayerENS0_22StructuralLayerPurposeE
__ZN7WebCoreL21nullActionsDictionaryEv
__ZN7WebCore15GraphicsLayerCA16updateLayerNamesEv
__ZN7WebCore15GraphicsLayerCA17updateAnchorPointEv
__ZNK7WebCore10FloatPointcv7CGPointEv
__ZN7WebCore15GraphicsLayerCA15updateTransformEv
__ZN7WebCore15GraphicsLayerCA23updateChildrenTransformEv
__ZN7WebCore15GraphicsLayerCA31moveOrCopyAnimationsForPropertyENS0_10MoveOrCopyENS_18AnimatedPropertyIDEP7CALayerS4_
__ZN7WebCore15GraphicsLayerCA34moveOrCopyAllAnimationsForPropertyENS0_10MoveOrCopyENS_18AnimatedPropertyIDERKNS_6StringEP7CALay
__ZN7WebCoreL19animationIdentifierENS_18AnimatedPropertyIDERKNS_6StringEi
__ZN7WebCoreL18propertyIdToStringENS_18AnimatedPropertyIDE
__ZN7WebCore15GraphicsLayerCA20updateOpacityOnLayerEv
__ZN7WebCore15GraphicsLayerCA24updateContentsMediaLayerEv
__ZN7WebCore15GraphicsLayerCA18setupContentsLayerEP7CALayer
__ZNK7WebCore15GraphicsLayerCA26defaultContentsOrientationEv
__ZN7WebCore15GraphicsLayerCA15updateMaskLayerEv
__ZNK7WebCore15GraphicsLayerCA13platformLayerEv
__ZN7WebCore15GraphicsLayerCA23updateLayerDrawsContentEv
-[WebLayer setNeedsDisplay]
-[WebLayer setNeedsDisplayInRect:]
__ZN7WebCore15GraphicsLayerCA22repaintLayerDirtyRectsEv
__ZN3WTF6VectorIN7WebCore9FloatRectELm0EE14shrinkCapacityEm
__ZN3WTF6VectorIN7WebCore9FloatRectELm0EE6shrinkEm
__ZN7WebCore15GraphicsLayerCA32commitLayerChangesAfterSublayersEv
__ZN7WebCore15GraphicsLayerCA22updateReplicatedLayersEv
__ZN3WTF6VectorIN7WebCore15GraphicsLayerCA12ReplicaState17ReplicaBranchTypeELm0EE14expandCapacityEmPKS4_
__ZN3WTF6VectorIN7WebCore15GraphicsLayerCA12ReplicaState17ReplicaBranchTypeELm0EE14expandCapacityEm
__ZN3WTF6VectorIN7WebCore15GraphicsLayerCA12ReplicaState17ReplicaBranchTypeELm0EE15reserveCapacityEm
__ZN7WebCore15GraphicsLayerCA19replicatedLayerRootERNS0_12ReplicaStateE
__ZN7WebCore15GraphicsLayerCA16fetchCloneLayersEPNS_13GraphicsLayerERNS0_12ReplicaStateENS0_10CloneLevelE
__ZNK7WebCore15GraphicsLayerCA12ReplicaState7cloneIDEv
__ZN3WTF6VectorItLm0EE4fillERKtm
__ZSt4fillIPttEvT_S1_RKT0_
__ZN7WebCore15GraphicsLayerCA17ensureCloneLayersENS_6StringERP7CALayerS4_S4_NS0_10CloneLevelE
__ZN7WebCore15GraphicsLayerCA15findOrMakeCloneENS_6StringEP7CALayerPN3WTF7HashMapIS1_NS4_9RetainPtrIS2_EENS_10StringHashENS4_10
__ZN3WTF7HashMapIN7WebCore6StringENS_9RetainPtrI7CALayerEENS1_10StringHashENS_10HashTraitsIS2_EENS7_IS5_EEE3addERKS2_RKS5_
__ZN3WTF9HashTableIN7WebCore6StringESt4pairIS2_NS_9RetainPtrI7CALayerEEENS_18PairFirstExtractorIS7_EENS1_10StringHashENS_14Pair
__ZN7WebCore15GraphicsLayerCA10cloneLayerEP7CALayerNS0_10CloneLevelE
__ZN3WTF6VectorIN7WebCore15GraphicsLayerCA12ReplicaState17ReplicaBranchTypeELm0EE6shrinkEm
__ZNK7WebCore15GraphicsLayerCA25positionForCloneRootLayerEv
__ZNK7WebCore15GraphicsContext20updatingControlTintsEv
-[WebLayer display]
-[WebLayer drawInContext:]
+[WebLayer drawContents:ofLayer:intoContext:]
__ZN7WebCore13GraphicsLayer26paintGraphicsLayerContentsERNS_15GraphicsContextERKNS_7IntRectE
__ZN7WebCore18RenderLayerBacking13paintContentsEPKNS_13GraphicsLayerERNS_15GraphicsContextENS_26GraphicsLayerPaintingPhaseERKNS
__ZN7WebCoreL22inspectorTimelineAgentEPNS_12RenderObjectE
__ZN7WebCore15GraphicsContext9translateEff
__ZN7WebCore18RenderLayerBacking14paintIntoLayerEPNS_11RenderLayerEPNS_15GraphicsContextERKNS_7IntRectEjNS_26GraphicsLayerPaint
__ZNK7WebCore18RenderLayerBacking18showRepaintCounterEv
__ZN7WebCore15GraphicsLayerCA10didDisplayEP7CALayer
__ZN7WebCore13RenderReplica5paintERNS_12RenderObject9PaintInfoEii
__ZN7WebCore9RenderBox9paintMaskERNS_12RenderObject9PaintInfoEii
__ZN7WebCore9RenderBox15paintMaskImagesERKNS_12RenderObject9PaintInfoEiiii
__ZNK7WebCore11RenderLayer17hasCompositedMaskEv
__ZNK7WebCore10StyleImage8isLoadedEv
__ZNK7WebCore10StyleImage9canRenderEf
__ZN7WebCore19StyleGeneratedImage21setImageContainerSizeERKNS_7IntSizeE
__ZNK7WebCore19StyleGeneratedImage9imageSizeEPKNS_12RenderObjectEf
__ZNK7WebCore19StyleGeneratedImage5imageEPNS_12RenderObjectERKNS_7IntSizeE
__ZN7WebCore16CSSGradientValue5imageEPNS_12RenderObjectERKNS_7IntSizeE
__ZN7WebCore22CSSImageGeneratorValue8getImageEPNS_12RenderObjectERKNS_7IntSizeE
__ZN7WebCore22CSSImageGeneratorValue12removeClientEPNS_12RenderObjectE
__ZN3WTF7HashMapIN7WebCore7IntSizeEjNS_7IntHashIS2_EENS_10HashTraitsIS2_EENS5_IjEEE3addERKS2_RKj
__ZN3WTF9HashTableIN7WebCore7IntSizeESt4pairIS2_jENS_18PairFirstExtractorIS4_EENS_7IntHashIS2_EENS_14PairHashTraitsINS_10HashTr
__ZNK3WTF7HashMapIN7WebCore7IntSizeENS_6RefPtrINS1_5ImageEEENS_7IntHashIS2_EENS_10HashTraitsIS2_EENS8_IS5_EEE3getERKS2_
__ZN7WebCore16CSSGradientValue14createGradientEPNS_12RenderObjectERKNS_7IntSizeE
__ZN7WebCore16CSSGradientValue12resolvePointEPNS_17CSSPrimitiveValueES2_RKNS_7IntSizeEf
__ZN7WebCore8GradientC1ERKNS_10FloatPointES3_
__ZN7WebCore8GradientC2ERKNS_10FloatPointES3_
__ZN7WebCore16CSSGradientValue17sortStopsIfNeededEv
__ZNSt17_Temporary_bufferIPN7WebCore20CSSGradientColorStopES1_EC1ES2_S2_
__ZNSt17_Temporary_bufferIPN7WebCore20CSSGradientColorStopES1_EC2ES2_S2_
__ZSt22__get_temporary_bufferIN7WebCore20CSSGradientColorStopEESt4pairIPT_lElS4_
__ZSt26__uninitialized_fill_n_auxIPN7WebCore20CSSGradientColorStopElS1_EvT_T0_RKT1_St12__false_type
__ZSt22__stable_sort_adaptiveIPN7WebCore20CSSGradientColorStopES2_lPFbRKS1_S4_EEvT_S7_T0_T1_T2_
__ZSt24__merge_sort_with_bufferIPN7WebCore20CSSGradientColorStopES2_PFbRKS1_S4_EEvT_S7_T0_T1_
__ZSt22__chunk_insertion_sortIPN7WebCore20CSSGradientColorStopElPFbRKS1_S4_EEvT_S7_T0_T1_
__ZSt16__insertion_sortIPN7WebCore20CSSGradientColorStopEPFbRKS1_S4_EEvT_S7_T0_
__ZN7WebCoreL12compareStopsERKNS_20CSSGradientColorStopES2_
__ZSt25__unguarded_linear_insertIPN7WebCore20CSSGradientColorStopES1_PFbRKS1_S4_EEvT_T0_T1_
__ZSt16__merge_adaptiveIPN7WebCore20CSSGradientColorStopElS2_PFbRKS1_S4_EEvT_S7_S7_T0_S8_T1_S8_T2_
__ZSt16__merge_backwardIPN7WebCore20CSSGradientColorStopES2_S2_PFbRKS1_S4_EET1_T_S8_T0_S9_S7_T2_
__ZSt23return_temporary_bufferIN7WebCore20CSSGradientColorStopEEvPT_
__ZN7WebCore8Gradient12addColorStopEfRKNS_5ColorE
__ZNK7WebCore5Color7getRGBAERfS1_S1_S1_
__ZN3WTF6VectorIN7WebCore8Gradient9ColorStopELm0EE14expandCapacityEmPKS3_
__ZN3WTF6VectorIN7WebCore8Gradient9ColorStopELm0EE14expandCapacityEm
__ZN3WTF6VectorIN7WebCore8Gradient9ColorStopELm0EE15reserveCapacityEm
__ZN7WebCore8Gradient15platformDestroyEv
__ZN7WebCore22CSSImageGeneratorValue8putImageERKNS_7IntSizeEN3WTF10PassRefPtrINS_5ImageEEE
__ZN3WTF7HashMapIN7WebCore7IntSizeENS_6RefPtrINS1_5ImageEEENS_7IntHashIS2_EENS_10HashTraitsIS2_EENS8_IS5_EEE3addERKS2_RKS5_
__ZN3WTF9HashTableIN7WebCore7IntSizeESt4pairIS2_NS_6RefPtrINS1_5ImageEEEENS_18PairFirstExtractorIS7_EENS_7IntHashIS2_EENS_14Pai
__ZN7WebCore15GraphicsContext14drawTiledImageEPNS_5ImageENS_10ColorSpaceERKNS_7IntRectES6_NS1_8TileRuleES7_NS_17CompositeOperat
__ZN7WebCore14GeneratedImage4drawEPNS_15GraphicsContextERKNS_9FloatRectES5_NS_10ColorSpaceENS_17CompositeOperatorE
__ZN7WebCore15GraphicsContext8fillRectERKNS_9FloatRectERNS_9GeneratorE
__ZN7WebCore8Gradient4fillEPNS_15GraphicsContextERKNS_9FloatRectE
__ZN7WebCore8Gradient5paintEPNS_15GraphicsContextE
__ZN7WebCore8Gradient16platformGradientEv
__ZN7WebCore8Gradient20sortStopsIfNecessaryEv
__ZN3WTF6VectorIdLm12EE15reserveCapacityEm
__ZN3WTF6VectorIdLm3EE15reserveCapacityEm
__ZN3WTF6VectorIdLm3EE6shrinkEm
__ZN3WTF6VectorIdLm12EE6shrinkEm
__ZN7WebCore9FrameView29syncCompositingStateRecursiveEv
__ZL33QTTrackMediaTypeAttributeFunctionv
__ZL33QTMovieTimeScaleAttributeFunctionv
__ZN7WebCore16HTMLMediaElement17updatePosterImageEv
__ZN7WebCore39jsHTMLMediaElementPrototypeFunctionPlayEPN3JSC9ExecStateEPNS0_8JSObjectENS0_7JSValueERKNS0_7ArgListE
__ZN7WebCore16HTMLMediaElement4playEb
__ZN7WebCore16HTMLMediaElement12playInternalEv
__ZNK7WebCore16HTMLMediaElement13endedPlaybackEv
__ZNK7WebCore16HTMLMediaElement18stoppedDueToErrorsEv
__ZNK7WebCore16HTMLMediaElement24pausedForUserInteractionEv
__ZN7WebCore11MediaPlayer7setRateEf
__ZN7WebCore18MediaPlayerPrivate7setRateEf
__ZN7WebCore11MediaPlayer4playEv
__ZN7WebCore18MediaPlayerPrivate4playEv
__ZNK7WebCore11MediaPlayer4rateEv
__ZN7WebCore16HTMLMediaElement26startPlaybackProgressTimerEv
-[WebCoreMovieObserver rateChanged:]
__ZN7WebCore18MediaPlayerPrivate11rateChangedEv
__ZN7WebCore11MediaPlayer11rateChangedEv
__ZThn120_N7WebCore16HTMLMediaElement22mediaPlayerRateChangedEPNS_11MediaPlayerE
__ZN7WebCore16HTMLMediaElement22mediaPlayerRateChangedEPNS_11MediaPlayerE
__ZN7WebCore11RenderStyle16accessAnimationsEv
__ZN7WebCore9Animation6createEv
__ZN7WebCore9AnimationC1Ev
__ZN7WebCore9AnimationC2Ev
__ZN3WTF6VectorINS_6RefPtrIN7WebCore9AnimationEEELm0EE14expandCapacityEm
__ZN3WTF6VectorINS_6RefPtrIN7WebCore9AnimationEEELm0EE15reserveCapacityEm
__ZN7WebCore16CSSStyleSelector17mapAnimationDelayEPNS_9AnimationEPNS_8CSSValueE
__ZN7WebCore16CSSStyleSelector20mapAnimationDurationEPNS_9AnimationEPNS_8CSSValueE
__ZN7WebCore16CSSStyleSelector16mapAnimationNameEPNS_9AnimationEPNS_8CSSValueE
__ZN7WebCore13AnimationList19fillUnsetPropertiesEv
__ZN7WebCore26AnimationControllerPrivate24accessCompositeAnimationEPNS_12RenderObjectE
__ZN3WTF9HashTableIPN7WebCore12RenderObjectESt4pairIS3_NS_6RefPtrINS1_18CompositeAnimationEEEENS_18PairFirstExtractorIS8_EENS_7
__ZN7WebCore18CompositeAnimation7animateEPNS_12RenderObjectEPNS_11RenderStyleES4_
__ZN7WebCore18CompositeAnimation17updateTransitionsEPNS_12RenderObjectEPNS_11RenderStyleES4_
__ZN7WebCore18CompositeAnimation24updateKeyframeAnimationsEPNS_12RenderObjectEPNS_11RenderStyleES4_
__ZN3WTF6VectorIPN7WebCore16AtomicStringImplELm0EE14shrinkCapacityEm
__ZNK3WTF7HashMapIPN7WebCore16AtomicStringImplENS_6RefPtrINS1_17KeyframeAnimationEEENS_7PtrHashIS3_EENS_10HashTraitsIS3_EENS9_I
__ZN7WebCore17KeyframeAnimationC1EPKNS_9AnimationEPNS_12RenderObjectEiPNS_18CompositeAnimationEPNS_11RenderStyleE
__ZN7WebCore17KeyframeAnimationC2EPKNS_9AnimationEPNS_12RenderObjectEiPNS_18CompositeAnimationEPNS_11RenderStyleE
__ZN7WebCore13AnimationBaseC2EPKNS_9AnimationEPNS_12RenderObjectEPNS_18CompositeAnimationE
__ZN7WebCore12KeyframeList6insertEfN3WTF10PassRefPtrINS_11RenderStyleEEE
__ZN3WTF6VectorIN7WebCore13KeyframeValueELm0EE14expandCapacityEmPKS2_
__ZN3WTF6VectorIN7WebCore13KeyframeValueELm0EE14expandCapacityEm
__ZN3WTF6VectorIN7WebCore13KeyframeValueELm0EE15reserveCapacityEm
__ZN7WebCore16CSSStyleSelector26keyframeStylesForAnimationEPNS_7ElementEPKNS_11RenderStyleERNS_12KeyframeListE
__ZN7WebCore12KeyframeList5clearEv
__ZN3WTF6VectorIN7WebCore13KeyframeValueELm0EE14shrinkCapacityEm
__ZN3WTF6VectorIN7WebCore13KeyframeValueELm0EE6shrinkEm
__ZN3WTF9HashTableIiiNS_17IdentityExtractorIiEENS_7IntHashIjEENS_10HashTraitsIiEES6_E5clearEv
__ZNK3WTF9HashTableIPN7WebCore16AtomicStringImplESt4pairIS3_NS_6RefPtrINS1_22WebKitCSSKeyframesRuleEEEENS_18PairFirstExtractorI
__ZNK7WebCore22WebKitCSSKeyframesRule6lengthEv
__ZNK7WebCore22WebKitCSSKeyframesRule4itemEj
__ZN7WebCore21WebKitCSSKeyframeRule14isKeyframeRuleEv
__ZN7WebCore11RenderStyle5cloneEPKS0_
__ZN7WebCore16CSSStyleSelector25createTransformOperationsEPNS_8CSSValueEPNS_11RenderStyleES4_RNS_19TransformOperationsE
__ZN7WebCoreL25getTransformOperationTypeENS_23WebKitCSSTransformValue22TransformOperationTypeE
__ZN3WTF6VectorINS_6RefPtrIN7WebCore9AnimationEEELm0EEC1ERKS5_
__ZN3WTF6VectorINS_6RefPtrIN7WebCore9AnimationEEELm0EEC2ERKS5_
__ZN7WebCore16CSSStyleSelector26mapAnimationTimingFunctionEPNS_9AnimationEPNS_8CSSValueE
__ZN7WebCore21WebKitCSSKeyframeRule14parseKeyStringERKNS_6StringERN3WTF6VectorIfLm0EEE
__ZN3WTF6VectorIfLm0EE14shrinkCapacityEm
__ZN3WTF6VectorIfLm0EE14expandCapacityEmPKf
__ZN3WTF6VectorIfLm0EE14expandCapacityEm
__ZN3WTF6VectorIfLm0EE15reserveCapacityEm
__ZN3WTF6VectorIfLm0EE6shrinkEm
__ZN7WebCore17KeyframeAnimation29validateTransformFunctionListEv
__ZN3WTF7HashMapIPN7WebCore16AtomicStringImplENS_6RefPtrINS1_17KeyframeAnimationEEENS_7PtrHashIS3_EENS_10HashTraitsIS3_EENS9_IS
__ZN3WTF9HashTableIPN7WebCore16AtomicStringImplESt4pairIS3_NS_6RefPtrINS1_17KeyframeAnimationEEEENS_18PairFirstExtractorIS8_EEN
__ZN3WTF6VectorIPN7WebCore16AtomicStringImplELm0EE14expandCapacityEmPKS3_
__ZN3WTF6VectorIPN7WebCore16AtomicStringImplELm0EE14expandCapacityEm
__ZN3WTF6VectorIPN7WebCore16AtomicStringImplELm0EE15reserveCapacityEm
__ZN7WebCore17KeyframeAnimation7animateEPNS_18CompositeAnimationEPNS_12RenderObjectEPKNS_11RenderStyleEPS5_RN3WTF6RefPtrIS5_EE
__ZN7WebCore13AnimationBase27fireAnimationEventsIfNeededEv
__ZN7WebCore13AnimationBase18updateStateMachineENS0_14AnimStateInputEd
__ZNK7WebCore13AnimationBase24beginAnimationUpdateTimeEv
__ZNK7WebCore18CompositeAnimation17timeToNextServiceEv
__ZN7WebCore17KeyframeAnimation17timeToNextServiceEv
__ZN7WebCore13AnimationBase17timeToNextServiceEv
__ZNK7WebCore18CompositeAnimation19isAnimatingPropertyEib
__ZN7WebCoreL15convertToLengthEPNS_17CSSPrimitiveValueEPNS_11RenderStyleES3_dPb
__ZN3WTF6VectorINS_6RefPtrIN7WebCore9AnimationEEELm0EE6shrinkEm
__ZN7WebCore9AnimationD1Ev
__ZN7WebCore9AnimationD2Ev
__ZN7WebCore16HTMLMediaElement26playbackProgressTimerFiredEPNS_5TimerIS0_EE
__ZN7WebCore5TimerINS_26AnimationControllerPrivateEE5firedEv
__ZN7WebCore26AnimationControllerPrivate19animationTimerFiredEPNS_5TimerIS0_EE
__ZNK7WebCore13AnimationListeqERKS0_
__ZNK7WebCore9Animation15animationsMatchEPKS0_b
__ZN3WTF6VectorIPN7WebCore16AtomicStringImplELm0EE6shrinkEm
__ZN7WebCore13AnimationBase15updatePlayStateEb
__ZN7WebCore26AnimationControllerPrivate27addToStyleAvailableWaitListEPNS_13AnimationBaseE
__ZN7WebCore26AnimationControllerPrivate23addNodeChangeToDispatchEN3WTF10PassRefPtrINS_4NodeEEE
__ZN7WebCore26AnimationControllerPrivate34startUpdateStyleIfNeededDispatcherEv
__ZNK7WebCore17KeyframeAnimation28getKeyframeAnimationIntervalERPKNS_11RenderStyleES4_Rd
__ZNK7WebCore13AnimationBase14getElapsedTimeEv
__ZNK7WebCore13AnimationBase8progressEddPKNS_14TimingFunctionE
__ZN7WebCore13AnimationBase15blendPropertiesEPKS0_iPNS_11RenderStyleEPKS3_S6_d
__ZN7WebCoreL17ensurePropertyMapEv
__ZN3WTF6VectorIPN7WebCore19PropertyWrapperBaseELm0EE14expandCapacityEm
__ZN3WTF6VectorIPN7WebCore19PropertyWrapperBaseELm0EE15reserveCapacityEm
__ZN7WebCoreL22addShorthandPropertiesEv
__ZN7WebCoreL18wrapperForPropertyEi
__ZN3WTF6VectorIPN7WebCore19PropertyWrapperBaseELm0EE14expandCapacityEmPKS3_
__ZN7WebCoreL18addPropertyWrapperEiPNS_19PropertyWrapperBaseE
__ZNK7WebCore33PropertyWrapperAcceleratedOpacity5blendEPKNS_13AnimationBaseEPNS_11RenderStyleEPKS4_S7_d
__ZNK7WebCore33PropertyWrapperAcceleratedOpacity22animationIsAcceleratedEv
__ZNK7WebCore35PropertyWrapperAcceleratedTransform5blendEPKNS_13AnimationBaseEPNS_11RenderStyleEPKS4_S7_d
__ZN7WebCoreL9blendFuncEPKNS_13AnimationBaseERKNS_19TransformOperationsES5_d
__ZN7WebCore23ScaleTransformOperation5blendEPKNS_18TransformOperationEdb
__ZN3WTF6VectorINS_6RefPtrIN7WebCore18TransformOperationEEELm0EE14expandCapacityEmPKS4_
__ZNK7WebCore35PropertyWrapperAcceleratedTransform22animationIsAcceleratedEv
__ZNK7WebCore17KeyframeAnimation15affectsPropertyEi
__ZN7WebCore20TransformationMatrix5blendERKS0_d
__ZNK7WebCore20TransformationMatrix9decomposeERNS0_14DecomposedTypeE
__ZN7WebCoreL14determinant4x4ERA4_A4_Kd
__ZN7WebCoreL14determinant3x3Eddddddddd
__ZN7WebCoreL14determinant2x2Edddd
__ZN7WebCoreL8v3LengthEPd
__ZN7WebCoreL7v3ScaleEPdd
__ZN7WebCoreL5v3DotEPKdS1_
__ZN7WebCoreL9v3CombineEPKdS1_Pddd
__ZN7WebCore20TransformationMatrix9recomposeERKNS0_14DecomposedTypeE
__ZNK7WebCore26Matrix3DTransformOperation16getOperationTypeEv
__ZNK7WebCore26Matrix3DTransformOperation5applyERNS_20TransformationMatrixERKNS_7IntSizeE
__ZN7WebCore17KeyframeAnimation18overrideAnimationsEv
__ZN7WebCore18CompositeAnimation26overrideImplicitAnimationsEi
__ZNK7WebCore13AnimationBase10overriddenEv
__ZN7WebCore17KeyframeAnimation14startAnimationEd
__ZN7WebCore18RenderLayerBacking14startAnimationEdPKNS_9AnimationERKNS_12KeyframeListE
__ZN7WebCore17KeyframeValueList6insertEPKNS_14AnimationValueE
__ZN3WTF6VectorIPKN7WebCore14AnimationValueELm0EE14expandCapacityEmPKS4_
__ZN3WTF6VectorIPKN7WebCore14AnimationValueELm0EE14expandCapacityEm
__ZN3WTF6VectorIPKN7WebCore14AnimationValueELm0EE15reserveCapacityEm
__ZN7WebCore15GraphicsLayerCA12addAnimationERKNS_17KeyframeValueListERKNS_7IntSizeEPKNS_9AnimationERKNS_6StringEd
__ZN7WebCoreL22forceSoftwareAnimationEv
__ZN7WebCore15GraphicsLayerCA38createTransformAnimationsFromKeyframesERKNS_17KeyframeValueListEPKNS_9AnimationERKNS_6StringEdRK
__ZN7WebCore13GraphicsLayer27fetchTransformOperationListERKNS_17KeyframeValueListERN3WTF6VectorINS_18TransformOperation13Operat
__ZN3WTF6VectorIN7WebCore18TransformOperation13OperationTypeELm0EE14shrinkCapacityEm
__ZN3WTF6VectorIN7WebCore18TransformOperation13OperationTypeELm0EE14expandCapacityEm
__ZN3WTF6VectorIN7WebCore18TransformOperation13OperationTypeELm0EE15reserveCapacityEm
__ZN7WebCoreL24caValueFunctionSupportedEv
__ZN7WebCore15GraphicsLayerCA23createKeyframeAnimationEPKNS_9AnimationENS_18AnimatedPropertyIDEb
__ZN7WebCore15GraphicsLayerCA14setupAnimationEP19CAPropertyAnimationPKNS_9AnimationEb
__ZN7WebCore15GraphicsLayerCA30setTransformAnimationKeyframesERKNS_17KeyframeValueListEPKNS_9AnimationEP19CAKeyframeAnimationiN
__ZN7WebCoreL25getTransformFunctionValueEPKNS_18TransformOperationENS0_13OperationTypeERKNS_7IntSizeE
__ZN7WebCore15GraphicsLayerCA31timingFunctionForAnimationValueEPKNS_14AnimationValueEPKNS_9AnimationE
__ZN7WebCoreL41getValueFunctionNameForTransformOperationENS_18TransformOperation13OperationTypeE
__ZN3WTF6VectorIN7WebCore15GraphicsLayerCA14LayerAnimationELm0EE14expandCapacityEmPKS3_
__ZN3WTF6VectorIN7WebCore15GraphicsLayerCA14LayerAnimationELm0EE14expandCapacityEm
__ZN3WTF6VectorIN7WebCore15GraphicsLayerCA14LayerAnimationELm0EE15reserveCapacityEm
__ZN3WTF6VectorIN7WebCore18TransformOperation13OperationTypeELm0EE6shrinkEm
__ZN7WebCore15GraphicsLayerCA28createAnimationFromKeyframesERKNS_17KeyframeValueListEPKNS_9AnimationERKNS_6StringEd
__ZN7WebCore15GraphicsLayerCA21setAnimationKeyframesERKNS_17KeyframeValueListEPKNS_9AnimationEP19CAKeyframeAnimation
__ZN7WebCore21RenderLayerCompositor28didStartAcceleratedAnimationEv
__ZN3WTF15deleteAllValuesIPKN7WebCore14AnimationValueELm0EEEvRKNS_6VectorIT_XT0_EEE
__ZN7WebCore19FloatAnimationValueD0Ev
__ZN3WTF6VectorIPKN7WebCore14AnimationValueELm0EE6shrinkEm
__ZN7WebCore23TransformAnimationValueD0Ev
